 windhawk

 Timestamp is 69baedff (Wed Mar 18 18:25:03 2026)

 Preferred load address is 10000000

 Start         Length     Name                   Class
 0001:00000000 000001c0H .text                   CODE
 0001:000001c0 00000270H .text$di                CODE
 0001:00000430 0004e6d0H .text$mn                CODE
 0001:0004eb00 00003b90H .text$x                 CODE
 0001:00052690 000001e9H .text$yd                CODE
 0002:00000000 00000d08H .text64                 CODE
 0003:00000000 00000304H .idata$5                DATA
 0003:00000304 00000008H .00cfg                  DATA
 0003:0000030c 00000004H .CRT$XCA                DATA
 0003:00000310 00000020H .CRT$XCU                DATA
 0003:00000330 00000004H .CRT$XCZ                DATA
 0003:00000334 00000004H .CRT$XIA                DATA
 0003:00000338 00000010H .CRT$XIC                DATA
 0003:00000348 00000004H .CRT$XIZ                DATA
 0003:0000034c 00000004H .CRT$XLA                DATA
 0003:00000350 00000004H .CRT$XLZ                DATA
 0003:00000354 00000004H .CRT$XPA                DATA
 0003:00000358 00000008H .CRT$XPX                DATA
 0003:00000360 00000004H .CRT$XPXA               DATA
 0003:00000364 00000004H .CRT$XPZ                DATA
 0003:00000368 00000004H .CRT$XTA                DATA
 0003:0000036c 00000014H .CRT$XTZ                DATA
 0003:00000370 00000000H .gfids$y                DATA
 0003:00000370 00000000H .giats$y                DATA
 0003:00000380 00082140H .rdata                  DATA
 0003:000824c0 00000000H .rdata$CastGuardVftablesA DATA
 0003:000824c0 00000000H .rdata$CastGuardVftablesC DATA
 0003:000824c0 00000018H .rdata$T                DATA
 0003:000824d8 00001084H .rdata$r                DATA
 0003:0008355c 00000330H .rdata$sxdata           DATA
 0003:0008388c 000000e0H .rdata$voltmd           DATA
 0003:0008396c 000003a4H .rdata$zzzdbg           DATA
 0003:00083d10 00000004H .rtc$IAA                DATA
 0003:00083d14 00000004H .rtc$IZZ                DATA
 0003:00083d18 00000004H .rtc$TAA                DATA
 0003:00083d1c 00000004H .rtc$TZZ                DATA
 0003:00083d20 00000004H .tls                    DATA
 0003:00083d24 00000004H .tls$                   DATA
 0003:00083d28 00000008H .tls$ZZZ                DATA
 0003:00083d30 000040c0H .xdata$x                DATA
 0003:00087df0 0000047cH .edata                  DATA
 0003:0008826c 0000003cH .idata$2                DATA
 0003:000882a8 00000014H .idata$3                DATA
 0003:000882bc 00000304H .idata$4                DATA
 0003:000885c0 00000f18H .idata$6                DATA
 0004:00000000 000009d0H .data                   DATA
 0004:000009d0 00000500H .data$r                 DATA
 0004:00000ed0 00000e90H .data$rs                DATA
 0004:00001d60 0000115cH .bss                    DATA
 0005:00000000 00000080H .fptable                DATA
 0006:00000000 00000060H .rsrc$01                DATA
 0006:00000060 00000238H .rsrc$02                DATA

  Address         Publics by Value              Rva+Base       Lib:Object

 0000:00000000       ___AbsoluteZero            00000000     <absolute>
 0000:00000000       ___arm64x_extra_rfe_table  00000000     <absolute>
 0000:00000000       ___arm64x_extra_rfe_table_size 00000000     <absolute>
 0000:00000000       ___arm64x_native_entrypoint 00000000     <absolute>
 0000:00000000       ___arm64x_redirection_metadata 00000000     <absolute>
 0000:00000000       ___arm64x_redirection_metadata_count 00000000     <absolute>
 0000:00000000       ___dynamic_value_reloc_table 00000000     <absolute>
 0000:00000000       ___enclave_config          00000000     <absolute>
 0000:00000000       ___guard_check_icall_a64n_fptr 00000000     <absolute>
 0000:00000000       ___guard_eh_cont_count     00000000     <absolute>
 0000:00000000       ___guard_eh_cont_table     00000000     <absolute>
 0000:00000000       ___guard_fids_count        00000000     <absolute>
 0000:00000000       ___guard_fids_table        00000000     <absolute>
 0000:00000000       ___guard_iat_count         00000000     <absolute>
 0000:00000000       ___guard_iat_table         00000000     <absolute>
 0000:00000000       ___guard_longjmp_count     00000000     <absolute>
 0000:00000000       ___guard_longjmp_table     00000000     <absolute>
 0000:00000000       ___hybrid_auxiliary_delayload_iat 00000000     <absolute>
 0000:00000000       ___hybrid_auxiliary_delayload_iat_copy 00000000     <absolute>
 0000:00000000       ___hybrid_auxiliary_iat    00000000     <absolute>
 0000:00000000       ___hybrid_auxiliary_iat_copy 00000000     <absolute>
 0000:00000000       ___hybrid_code_map         00000000     <absolute>
 0000:00000000       ___hybrid_code_map_count   00000000     <absolute>
 0000:00000000       ___hybrid_image_info_bitfield 00000000     <absolute>
 0000:00000000       ___x64_code_ranges_to_entry_points 00000000     <absolute>
 0000:00000000       ___x64_code_ranges_to_entry_points_count 00000000     <absolute>
 0000:00000000       __except_list              00000000     <absolute>
 0000:0000002c       __tls_array                0000002c     <absolute>
 0000:000000cc       ___safe_se_handler_count   000000cc     <absolute>
 0000:00000100       ___guard_flags             00000100     <absolute>
 0000:00000000       ___ImageBase               10000000     <linker-defined>
 0001:00000430       ??C?$unique_ptr@VPortableSettings@@U?$default_delete@VPortableSettings@@@std@@@std@@QBEPAVPortableSettings@@XZ 10001430 f   all_processes_injector.obj
 0001:00000430       ?GetVerbosity@LoggerBase@@QAE?AW4Verbosity@1@XZ 10001430 f   logger_base.obj
 0001:00000440       ?LogLine@LoggerBase@@QAAXPB_WZZ 10001440 f   logger_base.obj
 0001:00000500       ___local_stdio_printf_options 10001500 f i logger_base.obj
 0001:00000780       ?next@EnumIteratorRegistryInt@@UAEXXZ 10001780 f i portable_settings.obj
 0001:000008d0       ?clone@EnumIteratorRegistryInt@@UBE?AV?$unique_ptr@V?$EnumIteratorImpl@H@@U?$default_delete@V?$EnumIteratorImpl@H@@@std@@@std@@XZ 100018d0 f i portable_settings.obj
 0001:00000980       ??_E?$EnumIteratorRegistryBase@H@@UAEPAXI@Z 10001980 f i * CIL library *:* CIL module *
 0001:00000980       ??_EEnumIteratorRegistryInt@@UAEPAXI@Z 10001980 f i * CIL library *:* CIL module *
 0001:00000980       ??_G?$EnumIteratorRegistryBase@H@@UAEPAXI@Z 10001980 f i portable_settings.obj
 0001:00000980       ??_GEnumIteratorRegistryInt@@UAEPAXI@Z 10001980 f i portable_settings.obj
 0001:000009b0       ??1?$EnumIteratorImpl@H@@UAE@XZ 100019b0 f i portable_settings.obj
 0001:000009b0       ??1?$EnumIteratorRegistryBase@H@@UAE@XZ 100019b0 f i portable_settings.obj
 0001:000009c0       ??1?$optional@V?$tuple@V?$basic_string@_WU?$char_traits@_W@std@@V?$allocator@_W@2@@std@@V12@KK@std@@@std@@QAE@XZ 100019c0 f i portable_settings.obj
 0001:000009e0       ?next@EnumIteratorRegistryString@@UAEXXZ 100019e0 f i portable_settings.obj
 0001:00000af0       ?clone@EnumIteratorRegistryString@@UBE?AV?$unique_ptr@V?$EnumIteratorImpl@V?$basic_string@_WU?$char_traits@_W@std@@V?$allocator@_W@2@@std@@@@U?$default_delete@V?$EnumIteratorImpl@V?$basic_string@_WU?$char_traits@_W@std@@V?$allocator@_W@2@@std@@@@@std@@@std@@XZ 10001af0 f i portable_settings.obj
 0001:00000bb0       ??_E?$EnumIteratorRegistryBase@V?$basic_string@_WU?$char_traits@_W@std@@V?$allocator@_W@2@@std@@@@UAEPAXI@Z 10001bb0 f i * CIL library *:* CIL module *
 0001:00000bb0       ??_EEnumIteratorRegistryString@@UAEPAXI@Z 10001bb0 f i * CIL library *:* CIL module *
 0001:00000bb0       ??_G?$EnumIteratorRegistryBase@V?$basic_string@_WU?$char_traits@_W@std@@V?$allocator@_W@2@@std@@@@UAEPAXI@Z 10001bb0 f i portable_settings.obj
 0001:00000bb0       ??_GEnumIteratorRegistryString@@UAEPAXI@Z 10001bb0 f i portable_settings.obj
 0001:00000be0       ??1?$EnumIteratorImpl@V?$basic_string@_WU?$char_traits@_W@std@@V?$allocator@_W@2@@std@@@@UAE@XZ 10001be0 f i portable_settings.obj
 0001:00000be0       ??1?$EnumIteratorRegistryBase@V?$basic_string@_WU?$char_traits@_W@std@@V?$allocator@_W@2@@std@@@@UAE@XZ 10001be0 f i portable_settings.obj
 0001:00000c00       ??0RegistrySettings@@QAE@PAUHKEY__@@PB_W_N@Z 10001c00 f   portable_settings.obj
 0001:00000ca0       ??_ERegistrySettings@@UAEPAXI@Z 10001ca0 f i * CIL library *:* CIL module *
 0001:00000ca0       ??_GRegistrySettings@@UAEPAXI@Z 10001ca0 f i portable_settings.obj
 0001:00000cd0       ??1?$unique_any_t@V?$unique_storage@U?$resource_policy@PAUHKEY__@@P6GJPAU1@@Z$1?RegCloseKey@@YGJ0@ZU?$integral_constant@I$0A@@wistd@@PAU1@PAU1@$0A@$$T@details@wil@@@details@wil@@@wil@@QAE@XZ 10001cd0 f i portable_settings.obj
 0001:00000ce0       ?GetString@RegistrySettings@@UBE?AV?$optional@V?$basic_string@_WU?$char_traits@_W@std@@V?$allocator@_W@2@@std@@@std@@PB_W@Z 10001ce0 f   portable_settings.obj
 0001:00000df0       ??1?$optional@URawData@RegistrySettings@@@std@@QAE@XZ 10001df0 f i portable_settings.obj
 0001:00000e00       ??1?$optional@V?$basic_string@_WU?$char_traits@_W@std@@V?$allocator@_W@2@@std@@@std@@QAE@XZ 10001e00 f i portable_settings.obj
 0001:00000e10       ?SetString@RegistrySettings@@UAEXPB_W0@Z 10001e10 f   portable_settings.obj
 0001:00000e70       ?GetInt@RegistrySettings@@UBE?AV?$optional@H@std@@PB_W@Z 10001e70 f   portable_settings.obj
 0001:00000f40       ?SetInt@RegistrySettings@@UAEXPB_WH@Z 10001f40 f   portable_settings.obj
 0001:00000fa0       ?GetBinary@RegistrySettings@@UBE?AV?$optional@V?$vector@EV?$allocator@E@std@@@std@@@std@@PB_W@Z 10001fa0 f   portable_settings.obj
 0001:000010c0       ?SetBinary@RegistrySettings@@UAEXPB_WPBEI@Z 100020c0 f   portable_settings.obj
 0001:00001100       ?Remove@RegistrySettings@@UAEXPB_W@Z 10002100 f   portable_settings.obj
 0001:00001140       ?EnumIntValues@RegistrySettings@@UBE?AV?$EnumIterator@H@PortableSettings@@XZ 10002140 f   portable_settings.obj
 0001:00001300       ?EnumStringValues@RegistrySettings@@UBE?AV?$EnumIterator@V?$basic_string@_WU?$char_traits@_W@std@@V?$allocator@_W@2@@std@@@PortableSettings@@XZ 10002300 f   portable_settings.obj
 0001:00001480       ?GetRaw@RegistrySettings@@ABE?AV?$optional@URawData@RegistrySettings@@@std@@PB_W@Z 10002480 f   portable_settings.obj
 0001:000015e0       ??0invalid_argument@std@@QAE@ABV01@@Z 100025e0 f i portable_settings.obj
 0001:00001620       ??0logic_error@std@@QAE@ABV01@@Z 10002620 f i portable_settings.obj
 0001:00001660       ?next@EnumIteratorIniFileInt@@UAEXXZ 10002660 f i portable_settings.obj
 0001:00001850       ?clone@EnumIteratorIniFileInt@@UBE?AV?$unique_ptr@V?$EnumIteratorImpl@H@@U?$default_delete@V?$EnumIteratorImpl@H@@@std@@@std@@XZ 10002850 f i portable_settings.obj
 0001:00001910       ??_E?$EnumIteratorIniFileBase@H@@UAEPAXI@Z 10002910 f i * CIL library *:* CIL module *
 0001:00001910       ??_EEnumIteratorIniFileInt@@UAEPAXI@Z 10002910 f i * CIL library *:* CIL module *
 0001:00001910       ??_G?$EnumIteratorIniFileBase@H@@UAEPAXI@Z 10002910 f i portable_settings.obj
 0001:00001910       ??_GEnumIteratorIniFileInt@@UAEPAXI@Z 10002910 f i portable_settings.obj
 0001:00001940       ??1?$EnumIteratorIniFileBase@H@@UAE@XZ 10002940 f i portable_settings.obj
 0001:00001960       ?next@EnumIteratorIniFileString@@UAEXXZ 10002960 f i portable_settings.obj
 0001:00001b10       ?clone@EnumIteratorIniFileString@@UBE?AV?$unique_ptr@V?$EnumIteratorImpl@V?$basic_string@_WU?$char_traits@_W@std@@V?$allocator@_W@2@@std@@@@U?$default_delete@V?$EnumIteratorImpl@V?$basic_string@_WU?$char_traits@_W@std@@V?$allocator@_W@2@@std@@@@@std@@@std@@XZ 10002b10 f i portable_settings.obj
 0001:00001be0       ??_E?$EnumIteratorIniFileBase@V?$basic_string@_WU?$char_traits@_W@std@@V?$allocator@_W@2@@std@@@@UAEPAXI@Z 10002be0 f i * CIL library *:* CIL module *
 0001:00001be0       ??_EEnumIteratorIniFileString@@UAEPAXI@Z 10002be0 f i * CIL library *:* CIL module *
 0001:00001be0       ??_G?$EnumIteratorIniFileBase@V?$basic_string@_WU?$char_traits@_W@std@@V?$allocator@_W@2@@std@@@@UAEPAXI@Z 10002be0 f i portable_settings.obj
 0001:00001be0       ??_GEnumIteratorIniFileString@@UAEPAXI@Z 10002be0 f i portable_settings.obj
 0001:00001c20       ??1?$EnumIteratorIniFileBase@V?$basic_string@_WU?$char_traits@_W@std@@V?$allocator@_W@2@@std@@@@UAE@XZ 10002c20 f i portable_settings.obj
 0001:00001c40       ??0IniFileSettings@@QAE@PB_W0_N@Z 10002c40 f   portable_settings.obj
 0001:00001d60       ??_EIniFileSettings@@UAEPAXI@Z 10002d60 f i * CIL library *:* CIL module *
 0001:00001d60       ??_GIniFileSettings@@UAEPAXI@Z 10002d60 f i portable_settings.obj
 0001:00001d90       ??1IniFileSettings@@UAE@XZ 10002d90 f i portable_settings.obj
 0001:00001db0       ?GetString@IniFileSettings@@UBE?AV?$optional@V?$basic_string@_WU?$char_traits@_W@std@@V?$allocator@_W@2@@std@@@std@@PB_W@Z 10002db0 f   portable_settings.obj
 0001:00001fa0       ?SetString@IniFileSettings@@UAEXPB_W0@Z 10002fa0 f   portable_settings.obj
 0001:000021e0       ?GetInt@IniFileSettings@@UBE?AV?$optional@H@std@@PB_W@Z 100031e0 f   portable_settings.obj
 0001:000022b0       ?SetInt@IniFileSettings@@UAEXPB_WH@Z 100032b0 f   portable_settings.obj
 0001:00002320       ?GetBinary@IniFileSettings@@UBE?AV?$optional@V?$vector@EV?$allocator@E@std@@@std@@@std@@PB_W@Z 10003320 f   portable_settings.obj
 0001:00002580       ?SetBinary@IniFileSettings@@UAEXPB_WPBEI@Z 10003580 f   portable_settings.obj
 0001:00002680       ?Remove@IniFileSettings@@UAEXPB_W@Z 10003680 f   portable_settings.obj
 0001:000026e0       ?EnumIntValues@IniFileSettings@@UBE?AV?$EnumIterator@H@PortableSettings@@XZ 100036e0 f   portable_settings.obj
 0001:00002770       ?EnumStringValues@IniFileSettings@@UBE?AV?$EnumIterator@V?$basic_string@_WU?$char_traits@_W@std@@V?$allocator@_W@2@@std@@@PortableSettings@@XZ 10003770 f   portable_settings.obj
 0001:00002800       ??$assign@PBE$0A@@?$vector@EV?$allocator@E@std@@@std@@QAEXPBE0@Z 10003800 f i portable_settings.obj
 0001:00002930       ??$?4U?$pair@V?$basic_string@_WU?$char_traits@_W@std@@V?$allocator@_W@2@@std@@V12@@std@@$0A@@?$pair@V?$basic_string@_WU?$char_traits@_W@std@@V?$allocator@_W@2@@std@@V12@@std@@QAEAAU01@$$QAU01@@Z 10003930 f i portable_settings.obj
 0001:000029b0       ??$?0V?$basic_string@_WU?$char_traits@_W@std@@V?$allocator@_W@2@@std@@V01@$0A@@?$pair@V?$basic_string@_WU?$char_traits@_W@std@@V?$allocator@_W@2@@std@@V12@@std@@QAE@$$QAV?$basic_string@_WU?$char_traits@_W@std@@V?$allocator@_W@2@@1@0@Z 100039b0 f i portable_settings.obj
 0001:00002a30       ??$?0URawData@RegistrySettings@@$0A@@?$optional@URawData@RegistrySettings@@@std@@QAE@$$QAURawData@RegistrySettings@@@Z 10003a30 f i portable_settings.obj
 0001:00002a90       ??0?$EnumIteratorIniFileBase@V?$basic_string@_WU?$char_traits@_W@std@@V?$allocator@_W@2@@std@@@@QAE@PBVIniFileSettings@@@Z 10003a90 f i portable_settings.obj
 0001:00002c90       ??0?$EnumIteratorIniFileBase@H@@QAE@PBVIniFileSettings@@@Z 10003c90 f i portable_settings.obj
 0001:00002e80       ??1?$_Optional_destruct_base@V?$vector@EV?$allocator@E@std@@@std@@$0A@@std@@QAE@XZ 10003e80 f i portable_settings.obj
 0001:00002ee0       ?get_next_item_raw@?$EnumIteratorRegistryBase@V?$basic_string@_WU?$char_traits@_W@std@@V?$allocator@_W@2@@std@@@@IAE?AV?$optional@V?$tuple@V?$basic_string@_WU?$char_traits@_W@std@@V?$allocator@_W@2@@std@@V12@KK@std@@@std@@XZ 10003ee0 f i portable_settings.obj
 0001:000030a0       ?get_next_item_raw@?$EnumIteratorRegistryBase@H@@IAE?AV?$optional@V?$tuple@V?$basic_string@_WU?$char_traits@_W@std@@V?$allocator@_W@2@@std@@V12@KK@std@@@std@@XZ 100040a0 f i portable_settings.obj
 0001:00003260       ??1?$vector@EV?$allocator@E@std@@@std@@QAE@XZ 10004260 f i portable_settings.obj
 0001:000032c0       ??_E?$EnumIteratorImpl@V?$basic_string@_WU?$char_traits@_W@std@@V?$allocator@_W@2@@std@@@@UAEPAXI@Z 100042c0 f i * CIL library *:* CIL module *
 0001:000032c0       ??_G?$EnumIteratorImpl@V?$basic_string@_WU?$char_traits@_W@std@@V?$allocator@_W@2@@std@@@@UAEPAXI@Z 100042c0 f i portable_settings.obj
 0001:000032f0       ??_E?$EnumIteratorImpl@H@@UAEPAXI@Z 100042f0 f i * CIL library *:* CIL module *
 0001:000032f0       ??_G?$EnumIteratorImpl@H@@UAEPAXI@Z 100042f0 f i portable_settings.obj
 0001:00003320       ??$make_tuple@V?$basic_string@_WU?$char_traits@_W@std@@V?$allocator@_W@2@@std@@V12@AAKAAK@std@@YA?AV?$tuple@V?$basic_string@_WU?$char_traits@_W@std@@V?$allocator@_W@2@@std@@V12@KK@0@$$QAV?$basic_string@_WU?$char_traits@_W@std@@V?$allocator@_W@2@@0@0AAK1@Z 10004320 f i portable_settings.obj
 0001:000033b0       ??$?0V?$tuple@V?$basic_string@_WU?$char_traits@_W@std@@V?$allocator@_W@2@@std@@V12@KK@std@@$0A@@?$optional@V?$tuple@V?$basic_string@_WU?$char_traits@_W@std@@V?$allocator@_W@2@@std@@V12@KK@std@@@std@@QAE@$$QAV?$tuple@V?$basic_string@_WU?$char_traits@_W@std@@V?$allocator@_W@2@@std@@V12@KK@1@@Z 100043b0 f i portable_settings.obj
 0001:00003440       ??$_Traits_find_first_of@U?$char_traits@_W@std@@@std@@YAIQB_WII0I@Z 10004440 f i portable_settings.obj
 0001:00003550       ?_Xlength@?$vector@EV?$allocator@E@std@@@std@@CAXXZ 10004550 f i portable_settings.obj
 0001:00003550       ?_Xlength@?$vector@KV?$allocator@K@std@@@std@@CAXXZ 10004550 f i all_processes_injector.obj
 0001:00003550       ?_Xlength@?$vector@PAXV?$allocator@PAX@std@@@std@@CAXXZ 10004550 f i mod.obj
 0001:00003550       ?_Xlength@?$vector@PBUtagWH_SYMBOL_HOOK@@V?$allocator@PBUtagWH_SYMBOL_HOOK@@@std@@@std@@CAXXZ 10004550 f i mod.obj
 0001:00003550       ?_Xlength@?$vector@UHookContext@HwbpHook@@V?$allocator@UHookContext@HwbpHook@@@std@@@std@@CAXXZ 10004550 f i hwbp_hook.obj
 0001:00003550       ?_Xlength@?$vector@UThreadCallStackRegionInfo@@V?$allocator@UThreadCallStackRegionInfo@@@std@@@std@@CAXXZ 10004550 f i mods_manager.obj
 0001:00003550       ?_Xlength@?$vector@U_IMAGE_CHPE_RANGE_ENTRY@SymbolEnum@@V?$allocator@U_IMAGE_CHPE_RANGE_ENTRY@SymbolEnum@@@std@@@std@@CAXXZ 10004550 f i symbol_enum.obj
 0001:00003550       ?_Xlength@?$vector@V?$basic_string@DU?$char_traits@D@std@@V?$allocator@D@2@@std@@V?$allocator@V?$basic_string@DU?$char_traits@D@std@@V?$allocator@D@2@@std@@@2@@std@@CAXXZ 10004550 f i mod.obj
 0001:00003550       ?_Xlength@?$vector@V?$basic_string@_WU?$char_traits@_W@std@@V?$allocator@_W@2@@std@@V?$allocator@V?$basic_string@_WU?$char_traits@_W@std@@V?$allocator@_W@2@@std@@@2@@std@@CAXXZ 10004550 f i functions.obj
 0001:00003550       ?_Xlength@?$vector@V?$basic_string_view@_WU?$char_traits@_W@std@@@std@@V?$allocator@V?$basic_string_view@_WU?$char_traits@_W@std@@@std@@@2@@std@@CAXXZ 10004550 f i functions.obj
 0001:00003560       ??$_Emplace_reallocate@E@?$vector@EV?$allocator@E@std@@@std@@AAEPAEQAE$$QAE@Z 10004560 f i portable_settings.obj
 0001:000036b0       ?_Buy_raw@?$vector@EV?$allocator@E@std@@@std@@AAEXI@Z 100046b0 f i portable_settings.obj
 0001:00003740       _wmemchr                   10004740 f i portable_settings.obj
 0001:000038b0       ??0?$basic_string@_WU?$char_traits@_W@std@@V?$allocator@_W@2@@std@@QAE@ABV01@@Z 100048b0 f i portable_settings.obj
 0001:00003960       ??$_Construct@$00PB_W@?$basic_string@_WU?$char_traits@_W@std@@V?$allocator@_W@2@@std@@AAEXQB_WI@Z 10004960 f i portable_settings.obj
 0001:00003a00       ?_Xran@?$_String_val@U?$_Simple_types@_W@std@@@std@@SAXXZ 10004a00 f i portable_settings.obj
 0001:00003a10       ??$_Reallocate_grow_by@V<lambda_1>@?1??append@?$basic_string@_WU?$char_traits@_W@std@@V?$allocator@_W@2@@std@@QAEAAV34@QB_WI@Z@PB_WI@?$basic_string@_WU?$char_traits@_W@std@@V?$allocator@_W@2@@std@@AAEAAV01@IV<lambda_1>@?1??append@01@QAEAAV01@QB_WI@Z@PB_WI@Z 10004a10 f i portable_settings.obj
 0001:00003b50       ?push_back@?$basic_string@_WU?$char_traits@_W@std@@V?$allocator@_W@2@@std@@QAEX_W@Z 10004b50 f i portable_settings.obj
 0001:00003c80       ?reserve@?$basic_string@_WU?$char_traits@_W@std@@V?$allocator@_W@2@@std@@QAEXI@Z 10004c80 f i portable_settings.obj
 0001:00003da0       ??1bad_alloc@std@@UAE@XZ   10004da0 f i portable_settings.obj
 0001:00003da0       ??1bad_array_new_length@std@@UAE@XZ 10004da0 f i portable_settings.obj
 0001:00003da0       ??1bad_exception@std@@UAE@XZ 10004da0 f i libvcruntime:frame.obj
 0001:00003da0       ??1bad_function_call@std@@UAE@XZ 10004da0 f i libcpmt:xthrow.obj
 0001:00003da0       ??1bad_optional_access@std@@UAE@XZ 10004da0 f i customization_session.obj
 0001:00003da0       ??1bad_variant_access@std@@UAE@XZ 10004da0 f i storage_manager.obj
 0001:00003da0       ??1invalid_argument@std@@UAE@XZ 10004da0 f i portable_settings.obj
 0001:00003da0       ??1length_error@std@@UAE@XZ 10004da0 f i libcpmt:xthrow.obj
 0001:00003da0       ??1logic_error@std@@UAE@XZ 10004da0 f i portable_settings.obj
 0001:00003da0       ??1out_of_range@std@@UAE@XZ 10004da0 f i libcpmt:xthrow.obj
 0001:00003da0       ??1runtime_error@std@@UAE@XZ 10004da0 f i all_processes_injector.obj
 0001:00003da0       ??1system_error@std@@UAE@XZ 10004da0 f i all_processes_injector.obj
 0001:00003dc0       ??0exception@std@@QAE@QBD@Z 10004dc0 f i portable_settings.obj
 0001:00003e10       ??_Ebad_alloc@std@@UAEPAXI@Z 10004e10 f i * CIL library *:* CIL module *
 0001:00003e10       ??_Ebad_array_new_length@std@@UAEPAXI@Z 10004e10 f i * CIL library *:* CIL module *
 0001:00003e10       ??_Ebad_optional_access@std@@UAEPAXI@Z 10004e10 f i * CIL library *:* CIL module *
 0001:00003e10       ??_Ebad_variant_access@std@@UAEPAXI@Z 10004e10 f i * CIL library *:* CIL module *
 0001:00003e10       ??_Eexception@std@@UAEPAXI@Z 10004e10 f i * CIL library *:* CIL module *
 0001:00003e10       ??_Einvalid_argument@std@@UAEPAXI@Z 10004e10 f i * CIL library *:* CIL module *
 0001:00003e10       ??_Elogic_error@std@@UAEPAXI@Z 10004e10 f i * CIL library *:* CIL module *
 0001:00003e10       ??_Eruntime_error@std@@UAEPAXI@Z 10004e10 f i * CIL library *:* CIL module *
 0001:00003e10       ??_Gbad_alloc@std@@UAEPAXI@Z 10004e10 f i portable_settings.obj
 0001:00003e10       ??_Gbad_array_new_length@std@@UAEPAXI@Z 10004e10 f i portable_settings.obj
 0001:00003e10       ??_Gbad_optional_access@std@@UAEPAXI@Z 10004e10 f i customization_session.obj
 0001:00003e10       ??_Gbad_variant_access@std@@UAEPAXI@Z 10004e10 f i storage_manager.obj
 0001:00003e10       ??_Gexception@std@@UAEPAXI@Z 10004e10 f i portable_settings.obj
 0001:00003e10       ??_Ginvalid_argument@std@@UAEPAXI@Z 10004e10 f i portable_settings.obj
 0001:00003e10       ??_Glogic_error@std@@UAEPAXI@Z 10004e10 f i portable_settings.obj
 0001:00003e10       ??_Gruntime_error@std@@UAEPAXI@Z 10004e10 f i all_processes_injector.obj
 0001:00003e40       ??0logic_error@std@@QAE@PBD@Z 10004e40 f i portable_settings.obj
 0001:00003ea0       ??0invalid_argument@std@@QAE@PBD@Z 10004ea0 f i portable_settings.obj
 0001:00003f00       ?RecordException@details@wil@@YAHJ@Z 10004f00 f i portable_settings.obj
 0001:00003f20       ?RecordReturn@details@wil@@YAHJ@Z 10004f20 f i portable_settings.obj
 0001:00003f40       ??$ReportFailure_Return@$01@details@wil@@YAXPAXIPBD110ABUResultStatus@01@PB_WW4ReportFailureOptions@01@W4FailureFlags@1@@Z 10004f40 f i portable_settings.obj
 0001:00003ff0       ??$ReportFailure_Base@$01$0A@@details@wil@@YAXPAXIPBD110ABUResultStatus@01@PB_WW4ReportFailureOptions@01@W4FailureFlags@1@@Z 10004ff0 f i portable_settings.obj
 0001:00004000       ??$ReportFailure_Hr@$01@details@wil@@YAXPAXIPBD110JW4FailureFlags@1@@Z 10005000 f i portable_settings.obj
 0001:00004050       ?RecordLog@details@wil@@YAHJ@Z 10005050 f i portable_settings.obj
 0001:00004070       ?RecordFailFast@details@wil@@YAHJ@Z 10005070 f i portable_settings.obj
 0001:00004090       ?_FailFastImmediate_Unexpected@in1diag3@details@wil@@YAXXZ 10005090 f i portable_settings.obj
 0001:00004090       ?__throw_bad_function_call@wistd@@YAXXZ 10005090 f i all_processes_injector.obj
 0001:000040a0       ?LogStringPrintf@details@wil@@YAPA_WPA_WPB_W1ZZ 100050a0 f i portable_settings.obj
 0001:00004120       ?GetFailureLogString@wil@@YAJPA_WIABUFailureInfo@1@@Z 10005120 f i portable_settings.obj
 0001:000043b0       ?LogFailure@details@wil@@YAXPAXIPBD110W4FailureType@2@ABUResultStatus@12@PB_W_NPA_WIPADIW4FailureFlags@2@PAUFailureInfo@2@@Z 100053b0 f i portable_settings.obj
 0001:00004650       ?ThrowResultException@wil@@YAXABUFailureInfo@1@@Z 10005650 f i portable_settings.obj
 0001:00004660       ?WilRaiseFailFastException@details@wil@@YGXPAU_EXCEPTION_RECORD@@PAU_CONTEXT@@K@Z 10005660 f i portable_settings.obj
 0001:00004680       ?WilFailFast@details@wil@@YGXABUFailureInfo@2@@Z 10005680 f i portable_settings.obj
 0001:00004720       ??$ReportFailure_NoReturn@$0A@@details@wil@@YAXPAXIPBD110ABUResultStatus@01@PB_WW4ReportFailureOptions@01@@Z 10005720 f i portable_settings.obj
 0001:00004a20       ??$ReportFailure_Base@$0A@$0A@@details@wil@@YAXPAXIPBD110ABUResultStatus@01@PB_WW4ReportFailureOptions@01@W4FailureFlags@1@@Z 10005a20 f i portable_settings.obj
 0001:00004a40       ?HrToNtStatus@details@wil@@YAJJ@Z 10005a40 f i portable_settings.obj
 0001:00004d20       ?FromResult@ResultStatus@details@wil@@SA?AU123@J@Z 10005d20 f i portable_settings.obj
 0001:00004d40       ??$ReportFailure_Win32@$0A@@details@wil@@YAJPAXIPBD110K@Z 10005d40 f i portable_settings.obj
 0001:00004d90       ?Throw_Win32@in1diag3@details@wil@@YAXPAXIPBDK@Z 10005d90 f i portable_settings.obj
 0001:00004db0       ??0?$basic_string@_WU?$char_traits@_W@std@@V?$allocator@_W@2@@std@@QAE@$$QAV01@@Z 10005db0 f i portable_settings.obj
 0001:00004e00       ??$?0PA_W$0A@@?$basic_string@_WU?$char_traits@_W@std@@V?$allocator@_W@2@@std@@QAE@PA_W0ABV?$allocator@_W@1@@Z 10005e00 f i portable_settings.obj
 0001:00004ee0       ?to_wstring@std@@YA?AV?$basic_string@_WU?$char_traits@_W@std@@V?$allocator@_W@2@@1@H@Z 10005ee0 f i portable_settings.obj
 0001:00004f80       ?_Xlen_string@std@@YAXXZ   10005f80 f i portable_settings.obj
 0001:00004f90       ??0bad_array_new_length@std@@QAE@XZ 10005f90 f i portable_settings.obj
 0001:00004fb0       ??0bad_array_new_length@std@@QAE@ABV01@@Z 10005fb0 f i portable_settings.obj
 0001:00005000       ??0bad_alloc@std@@QAE@ABV01@@Z 10006000 f i portable_settings.obj
 0001:00005040       ??0exception@std@@QAE@ABV01@@Z 10006040 f i portable_settings.obj
 0001:00005070       ?_Throw_bad_array_new_length@std@@YAXXZ 10006070 f i portable_settings.obj
 0001:00005070       ?__scrt_throw_std_bad_array_new_length@@YAXXZ 10006070 f i LIBCMT:throw_bad_alloc.obj
 0001:00005090       ??$_Allocate_for_capacity@$0A@@?$basic_string@_WU?$char_traits@_W@std@@V?$allocator@_W@2@@std@@CAPA_WAAV?$allocator@_W@1@AAI@Z 10006090 f i portable_settings.obj
 0001:00005100       ??$_Reallocate_grow_by@V<lambda_1>@?1??append@?$basic_string@_WU?$char_traits@_W@std@@V?$allocator@_W@2@@std@@QAEAAV34@I_W@Z@I_W@?$basic_string@_WU?$char_traits@_W@std@@V?$allocator@_W@2@@std@@AAEAAV01@IV<lambda_1>@?1??append@01@QAEAAV01@I_W@Z@I_W@Z 10006100 f i portable_settings.obj
 0001:00005250       ?resize@?$basic_string@_WU?$char_traits@_W@std@@V?$allocator@_W@2@@std@@QAEXI_W@Z 10006250 f i portable_settings.obj
 0001:000052d0       ?_Tidy_deallocate@?$basic_string@_WU?$char_traits@_W@std@@V?$allocator@_W@2@@std@@AAEXXZ 100062d0 f i portable_settings.obj
 0001:00005330       ??1?$basic_string@_WU?$char_traits@_W@std@@V?$allocator@_W@2@@std@@QAE@XZ 10006330 f i portable_settings.obj
 0001:00005330       ??1path@filesystem@std@@QAE@XZ 10006330 f i all_processes_injector.obj
 0001:00005340       ?what@exception@std@@UBEPBDXZ 10006340 f i portable_settings.obj
 0001:00005890       ??1?$unique_any_t@V?$unique_storage@U?$resource_policy@PAXP6GPAXPAX@Z$1?LocalFree@@YGPAX0@ZU?$integral_constant@I$0A@@wistd@@PAXPAX$0A@$$T@details@wil@@@details@wil@@@wil@@QAE@XZ 10006890 f i all_processes_injector.obj
 0001:000058a0       ??0AllProcessesInjector@@QAE@XZ 100068a0 f   all_processes_injector.obj
 0001:00005de0       ??1?$unique_any_t@V?$unique_storage@U?$handle_null_only_resource_policy@P6GXPAX@_E$1??$ClosePrivateNamespaceHelper@$00@details@wil@@YGX0@Z@details@wil@@@details@wil@@@wil@@QAE@XZ 10006de0 f i all_processes_injector.obj
 0001:00005df0       ??1?$unique_any_t@V?$unique_storage@U?$handle_null_only_resource_policy@P6GHPAX@Z$1?CloseHandle@@YGH0@Z@details@wil@@@details@wil@@@wil@@QAE@XZ 10006df0 f i all_processes_injector.obj
 0001:00005e00       ?__autoclassinit2@?$unique_ptr@VPortableSettings@@U?$default_delete@VPortableSettings@@@std@@@std@@QAEXI@Z 10006e00 f i all_processes_injector.obj
 0001:00005e10       ?InjectIntoNewProcesses@AllProcessesInjector@@QAE?AV?$vector@KV?$allocator@K@std@@@std@@XZ 10006e10 f   all_processes_injector.obj
 0001:00006380       ?GetProcessPriority@AllProcessesInjector@@ABE?AW4InjectionPriority@ProcessLists@@V?$basic_string_view@_WU?$char_traits@_W@std@@@std@@@Z 10007380 f   all_processes_injector.obj
 0001:000064f0       ?ShouldSkipNewProcess@AllProcessesInjector@@ABE_NV?$basic_string_view@_WU?$char_traits@_W@std@@@std@@@Z 100074f0 f   all_processes_injector.obj
 0001:00006560       ?ShouldAttachExemptThread@AllProcessesInjector@@ABE_NV?$basic_string_view@_WU?$char_traits@_W@std@@@std@@@Z 10007560 f   all_processes_injector.obj
 0001:00006590       ?InjectIntoNewProcess@AllProcessesInjector@@AAEXPAXK_N@Z 10007590 f   all_processes_injector.obj
 0001:00006b80       ??$value_or@H@?$optional@H@std@@QHAEH$$QAH@Z 10007b80 f i all_processes_injector.obj
 0001:00006ba0       ??$GetModuleFileNameW@V?$basic_string@_WU?$char_traits@_W@std@@V?$allocator@_W@2@@std@@$0IA@@wil@@YA?AV?$basic_string@_WU?$char_traits@_W@std@@V?$allocator@_W@2@@std@@PAUHINSTANCE__@@@Z 10007ba0 f i all_processes_injector.obj
 0001:00006c40       ??$value_or@AAY00$$CB_W@?$optional@V?$basic_string@_WU?$char_traits@_W@std@@V?$allocator@_W@2@@std@@@std@@QHAE?AV?$basic_string@_WU?$char_traits@_W@std@@V?$allocator@_W@2@@1@AAY00$$CB_W@Z 10007c40 f i all_processes_injector.obj
 0001:00006cc0       ??$QueryFullProcessImageNameW@V?$basic_string@_WU?$char_traits@_W@std@@V?$allocator@_W@2@@std@@$0BAA@@wil@@YAJPAXKAAV?$basic_string@_WU?$char_traits@_W@std@@V?$allocator@_W@2@@std@@@Z 10007cc0 f i all_processes_injector.obj
 0001:00006d60       ??1?$unique_ptr@VPortableSettings@@U?$default_delete@VPortableSettings@@@std@@@std@@QAE@XZ 10007d60 f i all_processes_injector.obj
 0001:00006d70       ??1?$vector@KV?$allocator@K@std@@@std@@QAE@XZ 10007d70 f i all_processes_injector.obj
 0001:00006d70       ??1?$vector@PAXV?$allocator@PAX@std@@@std@@QAE@XZ 10007d70 f i mod.obj
 0001:00006d70       ??1?$vector@PBUtagWH_SYMBOL_HOOK@@V?$allocator@PBUtagWH_SYMBOL_HOOK@@@std@@@std@@QAE@XZ 10007d70 f i mod.obj
 0001:00006dd0       ??1?$unique_struct@U_PROCESS_INFORMATION@@P6GXPAU1@@Z$1?CloseProcessInformation@details@wil@@YGX0@Z$$T$0A@@wil@@QAE@XZ 10007dd0 f i all_processes_injector.obj
 0001:00006e20       ??$call_function@_K_K@wow64pp@@YA_KAAVerror_code@std@@_K11@Z 10007e20 f i all_processes_injector.obj
 0001:00007090       ??$AdaptFixedSizeToAllocatedResult@V?$basic_string@_WU?$char_traits@_W@std@@V?$allocator@_W@2@@std@@$0BAA@@wil@@YAJAAV?$basic_string@_WU?$char_traits@_W@std@@V?$allocator@_W@2@@std@@V?$function@$$A6AJPA_WIPAI@Z@wistd@@@Z 10008090 f i all_processes_injector.obj
 0001:000073e0       ??$K32GetModuleFileNameExW@V?$basic_string@_WU?$char_traits@_W@std@@V?$allocator@_W@2@@std@@$0IA@@wil@@YAJPAXPAUHINSTANCE__@@AAV?$basic_string@_WU?$char_traits@_W@std@@V?$allocator@_W@2@@std@@@Z 100083e0 f i all_processes_injector.obj
 0001:00007440       ??$_Emplace_reallocate@ABK@?$vector@KV?$allocator@K@std@@@std@@AAEPAKQAKABK@Z 10008440 f i all_processes_injector.obj
 0001:00007440       ??$_Emplace_reallocate@ABQAX@?$vector@PAXV?$allocator@PAX@std@@@std@@AAEPAPAXQAPAXABQAX@Z 10008440 f i mod.obj
 0001:00007440       ??$_Emplace_reallocate@PBUtagWH_SYMBOL_HOOK@@@?$vector@PBUtagWH_SYMBOL_HOOK@@V?$allocator@PBUtagWH_SYMBOL_HOOK@@@std@@@std@@AAEPAPBUtagWH_SYMBOL_HOOK@@QAPBU2@$$QAPBU2@@Z 10008440 f i mod.obj
 0001:000075b0       ?__clone@?$__func@V<lambda_1>@?1???$QueryFullProcessImageNameW@V?$basic_string@_WU?$char_traits@_W@std@@V?$allocator@_W@2@@std@@$0BAA@@wil@@YAJPAXKAAV?$basic_string@_WU?$char_traits@_W@std@@V?$allocator@_W@2@@std@@@Z@$$A6AJPA_WIPAI@Z@__function@wistd@@UBEXPAV?$__base@$$A6AJPA_WIPAI@Z@23@@Z 100085b0 f i all_processes_injector.obj
 0001:000075b0       ?__move@?$__func@V<lambda_1>@?1???$QueryFullProcessImageNameW@V?$basic_string@_WU?$char_traits@_W@std@@V?$allocator@_W@2@@std@@$0BAA@@wil@@YAJPAXKAAV?$basic_string@_WU?$char_traits@_W@std@@V?$allocator@_W@2@@std@@@Z@$$A6AJPA_WIPAI@Z@__function@wistd@@UAEXPAV?$__base@$$A6AJPA_WIPAI@Z@23@@Z 100085b0 f i all_processes_injector.obj
 0001:000075d0       ?destroy@?$__func@V<lambda_1>@?1???$ExpandEnvironmentStringsW@V?$basic_string@_WU?$char_traits@_W@std@@V?$allocator@_W@2@@std@@$0BAA@@wil@@YAJPB_WAAV?$basic_string@_WU?$char_traits@_W@std@@V?$allocator@_W@2@@std@@@Z@$$A6AJPA_WIPAI@Z@__function@wistd@@UAEXXZ 100085d0 f i functions.obj
 0001:000075d0       ?destroy@?$__func@V<lambda_1>@?1???$GetEnvironmentVariableW@V?$basic_string@_WU?$char_traits@_W@std@@V?$allocator@_W@2@@std@@$0IA@@wil@@YAJPB_WAAV?$basic_string@_WU?$char_traits@_W@std@@V?$allocator@_W@2@@std@@@Z@$$A6AJPA_WIPAI@Z@__function@wistd@@UAEXXZ 100085d0 f i storage_manager.obj
 0001:000075d0       ?destroy@?$__func@V<lambda_1>@?1???$K32GetModuleFileNameExW@V?$basic_string@_WU?$char_traits@_W@std@@V?$allocator@_W@2@@std@@$0IA@@wil@@YAJPAXPAUHINSTANCE__@@AAV?$basic_string@_WU?$char_traits@_W@std@@V?$allocator@_W@2@@std@@@Z@$$A6AJPA_WIPAI@Z@__function@wistd@@UAEXXZ 100085d0 f i all_processes_injector.obj
 0001:000075d0       ?destroy@?$__func@V<lambda_1>@?1???$QueryFullProcessImageNameW@V?$basic_string@_WU?$char_traits@_W@std@@V?$allocator@_W@2@@std@@$0BAA@@wil@@YAJPAXKAAV?$basic_string@_WU?$char_traits@_W@std@@V?$allocator@_W@2@@std@@@Z@$$A6AJPA_WIPAI@Z@__function@wistd@@UAEXXZ 100085d0 f i all_processes_injector.obj
 0001:000075d0       @_guard_check_icall_nop@4  100085d0 f i LIBCMT:guard_support.obj
 0001:000075e0       ??R?$__func@V<lambda_1>@?1???$QueryFullProcessImageNameW@V?$basic_string@_WU?$char_traits@_W@std@@V?$allocator@_W@2@@std@@$0BAA@@wil@@YAJPAXKAAV?$basic_string@_WU?$char_traits@_W@std@@V?$allocator@_W@2@@std@@@Z@$$A6AJPA_WIPAI@Z@__function@wistd@@UAEJ$$QAPA_W$$QAI$$QAPAI@Z 100085e0 f i all_processes_injector.obj
 0001:00007670       ??_E?$__func@V<lambda_1>@?1???$K32GetModuleFileNameExW@V?$basic_string@_WU?$char_traits@_W@std@@V?$allocator@_W@2@@std@@$0IA@@wil@@YAJPAXPAUHINSTANCE__@@AAV?$basic_string@_WU?$char_traits@_W@std@@V?$allocator@_W@2@@std@@@Z@$$A6AJPA_WIPAI@Z@__function@wistd@@UAEPAXI@Z 10008670 f i * CIL library *:* CIL module *
 0001:00007670       ??_E?$__func@V<lambda_1>@?1???$QueryFullProcessImageNameW@V?$basic_string@_WU?$char_traits@_W@std@@V?$allocator@_W@2@@std@@$0BAA@@wil@@YAJPAXKAAV?$basic_string@_WU?$char_traits@_W@std@@V?$allocator@_W@2@@std@@@Z@$$A6AJPA_WIPAI@Z@__function@wistd@@UAEPAXI@Z 10008670 f i * CIL library *:* CIL module *
 0001:00007670       ??_G?$__func@V<lambda_1>@?1???$K32GetModuleFileNameExW@V?$basic_string@_WU?$char_traits@_W@std@@V?$allocator@_W@2@@std@@$0IA@@wil@@YAJPAXPAUHINSTANCE__@@AAV?$basic_string@_WU?$char_traits@_W@std@@V?$allocator@_W@2@@std@@@Z@$$A6AJPA_WIPAI@Z@__function@wistd@@UAEPAXI@Z 10008670 f i all_processes_injector.obj
 0001:00007670       ??_G?$__func@V<lambda_1>@?1???$QueryFullProcessImageNameW@V?$basic_string@_WU?$char_traits@_W@std@@V?$allocator@_W@2@@std@@$0BAA@@wil@@YAJPAXKAAV?$basic_string@_WU?$char_traits@_W@std@@V?$allocator@_W@2@@std@@@Z@$$A6AJPA_WIPAI@Z@__function@wistd@@UAEPAXI@Z 10008670 f i all_processes_injector.obj
 0001:000076a0       ??$AdaptFixedSizeToAllocatedResult@V?$basic_string@_WU?$char_traits@_W@std@@V?$allocator@_W@2@@std@@$0IA@@wil@@YAJAAV?$basic_string@_WU?$char_traits@_W@std@@V?$allocator@_W@2@@std@@V?$function@$$A6AJPA_WIPAI@Z@wistd@@@Z 100086a0 f i all_processes_injector.obj
 0001:000079f0       ?__clone@?$__func@V<lambda_1>@?1???$K32GetModuleFileNameExW@V?$basic_string@_WU?$char_traits@_W@std@@V?$allocator@_W@2@@std@@$0IA@@wil@@YAJPAXPAUHINSTANCE__@@AAV?$basic_string@_WU?$char_traits@_W@std@@V?$allocator@_W@2@@std@@@Z@$$A6AJPA_WIPAI@Z@__function@wistd@@UBEXPAV?$__base@$$A6AJPA_WIPAI@Z@23@@Z 100089f0 f i all_processes_injector.obj
 0001:000079f0       ?__move@?$__func@V<lambda_1>@?1???$K32GetModuleFileNameExW@V?$basic_string@_WU?$char_traits@_W@std@@V?$allocator@_W@2@@std@@$0IA@@wil@@YAJPAXPAUHINSTANCE__@@AAV?$basic_string@_WU?$char_traits@_W@std@@V?$allocator@_W@2@@std@@@Z@$$A6AJPA_WIPAI@Z@__function@wistd@@UAEXPAV?$__base@$$A6AJPA_WIPAI@Z@23@@Z 100089f0 f i all_processes_injector.obj
 0001:00007a10       ??R?$__func@V<lambda_1>@?1???$K32GetModuleFileNameExW@V?$basic_string@_WU?$char_traits@_W@std@@V?$allocator@_W@2@@std@@$0IA@@wil@@YAJPAXPAUHINSTANCE__@@AAV?$basic_string@_WU?$char_traits@_W@std@@V?$allocator@_W@2@@std@@@Z@$$A6AJPA_WIPAI@Z@__function@wistd@@UAEJ$$QAPA_W$$QAI$$QAPAI@Z 10008a10 f i all_processes_injector.obj
 0001:00007ab0       ??_E?$__base@$$A6AJPA_WIPAI@Z@__function@wistd@@UAEPAXI@Z 10008ab0 f i * CIL library *:* CIL module *
 0001:00007ab0       ??_G?$__base@$$A6AJPA_WIPAI@Z@__function@wistd@@UAEPAXI@Z 10008ab0 f i all_processes_injector.obj
 0001:00007ae0       ??$ReportFailure_Hr@$00@details@wil@@YAXPAXIPBD110JW4FailureFlags@1@@Z 10008ae0 f i all_processes_injector.obj
 0001:00007b20       ?Return_Hr@in1diag3@details@wil@@YAXPAXIPBDJ@Z 10008b20 f i all_processes_injector.obj
 0001:00007b70       ??0?$basic_string@_WU?$char_traits@_W@std@@V?$allocator@_W@2@@std@@QAE@I_W@Z 10008b70 f i all_processes_injector.obj
 0001:00007c40       ?make@?$string_maker@V?$basic_string@_WU?$char_traits@_W@std@@V?$allocator@_W@2@@std@@@details@wil@@QAEJPB_WI@Z 10008c40 f i all_processes_injector.obj
 0001:00007d60       ??$ReportFailure_Hr@$02@details@wil@@YAXPAXIPBD110JW4FailureFlags@1@@Z 10008d60 f i all_processes_injector.obj
 0001:00007da0       ?FailFast_Unexpected@in1diag3@details@wil@@YAXPAXIPBD@Z 10008da0 f i all_processes_injector.obj
 0001:00007de0       ??$ReportFailure_Return@$00@details@wil@@YAXPAXIPBD110ABUResultStatus@01@PB_WW4ReportFailureOptions@01@W4FailureFlags@1@@Z 10008de0 f i all_processes_injector.obj
 0001:000080a0       ??$ReportFailure_Base@$00$0A@@details@wil@@YAXPAXIPBD110ABUResultStatus@01@PB_WW4ReportFailureOptions@01@W4FailureFlags@1@@Z 100090a0 f i all_processes_injector.obj
 0001:000080b0       ??$ReportFailure_GetLastErrorHr@$00@details@wil@@YAJPAXIPBD110@Z 100090b0 f i all_processes_injector.obj
 0001:00008170       ?Return_GetLastError@in1diag3@details@wil@@YAJPAXIPBD@Z 10009170 f i all_processes_injector.obj
 0001:000081c0       ??$ReportFailure_Hr@$0A@@details@wil@@YAXPAXIPBD110JW4FailureFlags@1@@Z 100091c0 f i all_processes_injector.obj
 0001:00008210       ?_Throw_Hr@in1diag3@details@wil@@YAXPAXIPBDJ@Z 10009210 f i all_processes_injector.obj
 0001:00008230       ??1_Init_once_completer@std@@QAE@XZ 10009230 f i all_processes_injector.obj
 0001:00008250       ??1?$unique_any_t@V?$unique_storage@U?$resource_policy@PAXP6GXPAX@_E$1?ReleaseMutex@details@wil@@YGX0@ZU?$integral_constant@I$01@wistd@@PAXPAX$0A@$$T@details@wil@@@details@wil@@@wil@@QAE@XZ 10009250 f i all_processes_injector.obj
 0001:00008280       ??0runtime_error@std@@QAE@PBD@Z 10009280 f i all_processes_injector.obj
 0001:000082e0       ?append@?$basic_string@_WU?$char_traits@_W@std@@V?$allocator@_W@2@@std@@QAEAAV12@QB_W@Z 100092e0 f i all_processes_injector.obj
 0001:00008360       ??$ReportFailure_NoReturn@$02@details@wil@@YAXPAXIPBD110ABUResultStatus@01@PB_WW4ReportFailureOptions@01@@Z 10009360 f i all_processes_injector.obj
 0001:00008610       ??$ReportFailure_Base@$02$0A@@details@wil@@YAXPAXIPBD110ABUResultStatus@01@PB_WW4ReportFailureOptions@01@W4FailureFlags@1@@Z 10009610 f i all_processes_injector.obj
 0001:00008630       ??$ReportFailure_GetLastError@$02@details@wil@@YAKPAXIPBD110@Z 10009630 f i all_processes_injector.obj
 0001:00008690       ?_FailFast_GetLastError@in1diag3@details@wil@@YAXPAXIPBD@Z 10009690 f i all_processes_injector.obj
 0001:000086d0       ??1?$unique_any_t@V?$event_t@V?$unique_storage@U?$resource_policy@PAXP6GXPAX@_E$1?CloseHandle@details@wil@@YGX0@ZU?$integral_constant@I$0A@@wistd@@PAXPAX$0A@$$T@details@wil@@@details@wil@@Uerr_returncode_policy@3@@wil@@@wil@@QAE@XZ 100096d0 f i customization_session.obj
 0001:000086d0       ??1?$unique_any_t@V?$mutex_t@V?$unique_storage@U?$resource_policy@PAXP6GXPAX@_E$1?CloseHandle@details@wil@@YGX0@ZU?$integral_constant@I$0A@@wistd@@PAXPAX$0A@$$T@details@wil@@@details@wil@@Uerr_returncode_policy@3@@wil@@@wil@@QAE@XZ 100096d0 f i all_processes_injector.obj
 0001:000086d0       ??1?$unique_any_t@V?$semaphore_t@V?$unique_storage@U?$resource_policy@PAXP6GXPAX@_E$1?CloseHandle@details@wil@@YGX0@ZU?$integral_constant@I$0A@@wistd@@PAXPAX$0A@$$T@details@wil@@@details@wil@@Uerr_exception_policy@3@@wil@@@wil@@QAE@XZ 100096d0 f i customization_session.obj
 0001:000086d0       ??1?$unique_storage@U?$resource_policy@PAXP6GXPAX@_E$1?CloseHandle@details@wil@@YGX0@ZU?$integral_constant@I$0A@@wistd@@PAXPAX$0A@$$T@details@wil@@@details@wil@@QAE@XZ 100096d0 f i all_processes_injector.obj
 0001:00008700       __vswprintf_s_l            10009700 f i all_processes_injector.obj
 0001:00008730       _swprintf_s                10009730 f i all_processes_injector.obj
 0001:00008750       ?NtStatusToHr@details@wil@@YAJJ@Z 10009750 f i all_processes_injector.obj
 0001:00008800       ?FromStatus@ResultStatus@details@wil@@SA?AU123@J@Z 10009800 f i all_processes_injector.obj
 0001:00008820       ??$ReportFailure_NtStatus@$0A@@details@wil@@YAJPAXIPBD110J@Z 10009820 f i all_processes_injector.obj
 0001:00008870       ?_Throw_NtStatus@in1diag3@details@wil@@YAXPAXIPBDJ@Z 10009870 f i all_processes_injector.obj
 0001:00008890       ?image_export_dir@detail@wow64pp@@YA?AU_IMAGE_EXPORT_DIRECTORY@@_KAAVerror_code@std@@@Z 10009890 f i all_processes_injector.obj
 0001:00008c10       ??$read_memory@I@detail@wow64pp@@YAX_KPAIIAAVerror_code@std@@@Z 10009c10 f i all_processes_injector.obj
 0001:00008d30       ?ldr_procedure_address@detail@wow64pp@@YA_KAAVerror_code@std@@@Z 10009d30 f i all_processes_injector.obj
 0001:00009230       ?get_native_machine@detail@wow64pp@@YAGAAVerror_code@std@@@Z 1000a230 f i all_processes_injector.obj
 0001:000093c0       ??$read_memory@$$BY0CA@W4byte@std@@@detail@wow64pp@@YAX_KPAY0CA@W4byte@std@@IAAVerror_code@3@@Z 1000a3c0 f i all_processes_injector.obj
 0001:00009500       ?module_handle@wow64pp@@YA_KV?$basic_string_view@DU?$char_traits@D@std@@@std@@AAVerror_code@3@@Z 1000a500 f i all_processes_injector.obj
 0001:00009950       ?make_initial_call_function_arm64_data@detail@wow64pp@@YA?AUCALL_FUNCTION_ARM64_DATA@12@XZ 1000a950 f i all_processes_injector.obj
 0001:00009c40       ?get_call_function_arm64_data@detail@wow64pp@@YAPAUCALL_FUNCTION_ARM64_DATA@12@XZ 1000ac40 f i all_processes_injector.obj
 0001:00009cd0       ??$call_function@_K_KH_K@wow64pp@@YA_KAAVerror_code@std@@_K11H1@Z 1000acd0 f i all_processes_injector.obj
 0001:00009f10       ?import@wow64pp@@YA_K_KV?$basic_string_view@DU?$char_traits@D@std@@@std@@@Z 1000af10 f i all_processes_injector.obj
 0001:0000a0c0       ??$read_memory@UPEB_64@defs@wow64pp@@@detail@wow64pp@@YA?AUPEB_64@defs@1@_K@Z 1000b0c0 f i all_processes_injector.obj
 0001:0000a0c0       ??$read_memory@UPEB_LDR_DATA_64@defs@wow64pp@@@detail@wow64pp@@YA?AUPEB_LDR_DATA_64@defs@1@_K@Z 1000b0c0 f i all_processes_injector.obj
 0001:0000a0e0       ?get_cached_nt_wow64_query_information_process_64@detail@wow64pp@@YAP6GJPAXI0IPAI@ZAAVerror_code@std@@@Z 1000b0e0 f i all_processes_injector.obj
 0001:0000a1c0       ?peb_address@detail@wow64pp@@YA_KXZ 1000b1c0 f i all_processes_injector.obj
 0001:0000a270       ??$read_memory@$$BY0CA@W4byte@std@@@detail@wow64pp@@YAX_KPAY0CA@W4byte@std@@I@Z 1000b270 f i all_processes_injector.obj
 0001:0000a370       ??$read_memory@ULDR_DATA_TABLE_ENTRY_64@defs@wow64pp@@@detail@wow64pp@@YAX_KPAULDR_DATA_TABLE_ENTRY_64@defs@1@I@Z 1000b370 f i all_processes_injector.obj
 0001:0000a490       ??1?$unique_ptr@$$BY0A@_WU?$default_delete@$$BY0A@_W@std@@@std@@QAE@XZ 1000b490 f i all_processes_injector.obj
 0001:0000a4a0       ?get_cached_nt_wow64_read_virtual_memory_64@detail@wow64pp@@YAP6GJPAX_K01PA_K@ZAAVerror_code@std@@@Z 1000b4a0 f i all_processes_injector.obj
 0001:0000a580       ??0system_error@std@@QAE@Verror_code@1@@Z 1000b580 f i all_processes_injector.obj
 0001:0000a650       ?throw_error_code@detail@wow64pp@@YAXABVerror_code@std@@@Z 1000b650 f i all_processes_injector.obj
 0001:0000a680       ?get_last_error@detail@wow64pp@@YA?AVerror_code@std@@XZ 1000b680 f i all_processes_injector.obj
 0001:0000a6a0       ?throw_last_error@detail@wow64pp@@YAXPBD@Z 1000b6a0 f i all_processes_injector.obj
 0001:0000a6d0       ??$read_memory@_W@detail@wow64pp@@YAX_KPA_WI@Z 1000b6d0 f i all_processes_injector.obj
 0001:0000a800       ?append@?$basic_string@DU?$char_traits@D@std@@V?$allocator@D@2@@std@@QAEAAV12@QBDI@Z 1000b800 f i all_processes_injector.obj
 0001:0000a980       ??0?$basic_string@DU?$char_traits@D@std@@V?$allocator@D@2@@std@@QAE@ABV01@@Z 1000b980 f i all_processes_injector.obj
 0001:0000aa30       ??0_System_error@std@@IAE@Verror_code@1@ABV?$basic_string@DU?$char_traits@D@std@@V?$allocator@D@2@@1@@Z 1000ba30 f i all_processes_injector.obj
 0001:0000abf0       ??0system_error@std@@QAE@Verror_code@1@PBD@Z 1000bbf0 f i all_processes_injector.obj
 0001:0000ace0       ??0error_code@std@@QAE@HABVerror_category@1@@Z 1000bce0 f i all_processes_injector.obj
 0001:0000ad00       ??_E_Generic_error_category@std@@UAEPAXI@Z 1000bd00 f i * CIL library *:* CIL module *
 0001:0000ad00       ??_E_System_error_category@std@@UAEPAXI@Z 1000bd00 f i * CIL library *:* CIL module *
 0001:0000ad00       ??_G_Generic_error_category@std@@UAEPAXI@Z 1000bd00 f i all_processes_injector.obj
 0001:0000ad00       ??_G_System_error_category@std@@UAEPAXI@Z 1000bd00 f i all_processes_injector.obj
 0001:0000ad20       ?name@_System_error_category@std@@UBEPBDXZ 1000bd20 f i all_processes_injector.obj
 0001:0000ad30       ??1_System_error_message@std@@QAE@XZ 1000bd30 f i all_processes_injector.obj
 0001:0000ad40       ?message@_System_error_category@std@@UBE?AV?$basic_string@DU?$char_traits@D@std@@V?$allocator@D@2@@2@H@Z 1000bd40 f i all_processes_injector.obj
 0001:0000adf0       ?name@_Generic_error_category@std@@UBEPBDXZ 1000bdf0 f i all_processes_injector.obj
 0001:0000ae00       ??$_Allocate_for_capacity@$0A@@?$basic_string@DU?$char_traits@D@std@@V?$allocator@D@2@@std@@CAPADAAV?$allocator@D@1@AAI@Z 1000be00 f i all_processes_injector.obj
 0001:0000ae70       ??$_Construct@$00PBD@?$basic_string@DU?$char_traits@D@std@@V?$allocator@D@2@@std@@AAEXQBDI@Z 1000be70 f i all_processes_injector.obj
 0001:0000af10       ??0?$basic_string@DU?$char_traits@D@std@@V?$allocator@D@2@@std@@QAE@QBD@Z 1000bf10 f i all_processes_injector.obj
 0001:0000af50       ??1?$basic_string@DU?$char_traits@D@std@@V?$allocator@D@2@@std@@QAE@XZ 1000bf50 f i all_processes_injector.obj
 0001:0000afb0       ?message@_Generic_error_category@std@@UBE?AV?$basic_string@DU?$char_traits@D@std@@V?$allocator@D@2@@2@H@Z 1000bfb0 f i all_processes_injector.obj
 0001:0000b000       ?generic_category@std@@YAABVerror_category@1@XZ 1000c000 f i all_processes_injector.obj
 0001:0000b010       ?default_error_condition@_System_error_category@std@@UBE?AVerror_condition@2@H@Z 1000c010 f i all_processes_injector.obj
 0001:0000b080       ?equivalent@error_category@std@@UBE_NABVerror_code@2@H@Z 1000c080 f i all_processes_injector.obj
 0001:0000b0b0       ?default_error_condition@error_category@std@@UBE?AVerror_condition@2@H@Z 1000c0b0 f i all_processes_injector.obj
 0001:0000b0d0       ?equivalent@error_category@std@@UBE_NHABVerror_condition@2@@Z 1000c0d0 f i all_processes_injector.obj
 0001:0000b110       ?system_category@std@@YAABVerror_category@1@XZ 1000c110 f i all_processes_injector.obj
 0001:0000b120       ??_E_System_error@std@@UAEPAXI@Z 1000c120 f i * CIL library *:* CIL module *
 0001:0000b120       ??_Esystem_error@std@@UAEPAXI@Z 1000c120 f i * CIL library *:* CIL module *
 0001:0000b120       ??_G_System_error@std@@UAEPAXI@Z 1000c120 f i all_processes_injector.obj
 0001:0000b120       ??_Gsystem_error@std@@UAEPAXI@Z 1000c120 f i all_processes_injector.obj
 0001:0000b150       ??0system_error@std@@QAE@ABV01@@Z 1000c150 f i all_processes_injector.obj
 0001:0000b1a0       ??0_System_error@std@@QAE@ABV01@@Z 1000c1a0 f i all_processes_injector.obj
 0001:0000b1f0       ??0runtime_error@std@@QAE@ABV01@@Z 1000c1f0 f i all_processes_injector.obj
 0001:0000b230       ?module_handle@wow64pp@@YA_KV?$basic_string_view@DU?$char_traits@D@std@@@std@@@Z 1000c230 f i all_processes_injector.obj
 0001:0000b490       ?GetLastErrorFail@details@wil@@YAKPAXIPBD110@Z 1000c490 f i all_processes_injector.obj
 0001:0000b500       ??$ReportFailure_GetLastError@$0A@@details@wil@@YAKPAXIPBD110@Z 1000c500 f i all_processes_injector.obj
 0001:0000b560       ?_Throw_GetLastError@in1diag3@details@wil@@YAXPAXIPBD@Z 1000c560 f i all_processes_injector.obj
 0001:0000b580       ?_Find_filename@filesystem@std@@YAPB_WQB_WPB_W@Z 1000c580 f i all_processes_injector.obj
 0001:0000b5d0       ?_Find_root_name_end@filesystem@std@@YAPB_WQB_W0@Z 1000c5d0 f i all_processes_injector.obj
 0001:0000b6f0       _wmemcmp                   1000c6f0 f i all_processes_injector.obj
 0001:0000b8b0       ?assign@?$basic_string@_WU?$char_traits@_W@std@@V?$allocator@_W@2@@std@@QAEAAV12@QB_WI@Z 1000c8b0 f i all_processes_injector.obj
 0001:0000b9d0       ??_0path@filesystem@std@@QAEAAV012@ABV012@@Z 1000c9d0 f i all_processes_injector.obj
 0001:0000bbf0       ?replace_filename@path@filesystem@std@@QAEAAV123@ABV123@@Z 1000cbf0 f i all_processes_injector.obj
 0001:0000c150       ?DllInject@0@YAXPAX000_N@Z 1000d150 f   dll_inject.obj
 0001:0000c850       ??1?$unique_any_t@V?$unique_storage@U?$handle_null_resource_policy@P6GHPAX@Z$1?CloseHandle@@YGH0@Z@details@wil@@@details@wil@@@wil@@QAE@XZ 1000d850 f i dll_inject.obj
 0001:0000c8f0       ??$call_function@_K_K_K_K_K@wow64pp@@YA_KAAVerror_code@std@@_K11111@Z 1000d8f0 f i dll_inject.obj
 0001:0000cb60       ??$call_function@_KK_K_K_K_KK_K_K_K_K@wow64pp@@YA_KAAVerror_code@std@@_K1K1111K1111@Z 1000db60 f i dll_inject.obj
 0001:0000ce70       ??$_Convert_Source_to_wide@$$BY04_WU_Normal_conversion@filesystem@std@@@filesystem@std@@YA?AV?$basic_string@_WU?$char_traits@_W@std@@V?$allocator@_W@2@@1@AAY04$$CB_WU_Normal_conversion@01@@Z 1000de70 f i storage_manager.obj
 0001:0000ce70       ??$_Convert_Source_to_wide@$$BY0BG@_WU_Normal_conversion@filesystem@std@@@filesystem@std@@YA?AV?$basic_string@_WU?$char_traits@_W@std@@V?$allocator@_W@2@@1@AAY0BG@$$CB_WU_Normal_conversion@01@@Z 1000de70 f i mod.obj
 0001:0000ce70       ??$_Convert_Source_to_wide@$$BY0N@_WU_Normal_conversion@filesystem@std@@@filesystem@std@@YA?AV?$basic_string@_WU?$char_traits@_W@std@@V?$allocator@_W@2@@1@AAY0N@$$CB_WU_Normal_conversion@01@@Z 1000de70 f i dll_inject.obj
 0001:0000cee0       ??$?0PAD$0A@@?$basic_string@DU?$char_traits@D@std@@V?$allocator@D@2@@std@@QAE@PAD0ABV?$allocator@D@1@@Z 1000dee0 f i dll_inject.obj
 0001:0000cfb0       ??$resize_and_overwrite@V<lambda_1>@?4???Kfilesystem@std@@YA?AVpath@23@ABV423@0@Z@@?$basic_string@_WU?$char_traits@_W@std@@V?$allocator@_W@2@@std@@QAEXIV<lambda_1>@?4???Kfilesystem@1@YA?AVpath@31@ABV431@0@Z@@Z 1000dfb0 f i dll_inject.obj
 0001:0000d110       ??Kfilesystem@std@@YA?AVpath@01@ABV201@0@Z 1000e110 f i dll_inject.obj
 0001:0000d2e0       ?PatchEtwEventWrite@EtwStealth@@YA_NXZ 1000e2e0 f   etw_stealth.obj
 0001:0000d4c0       ?SuppressForCurrentThread@EtwStealth@@YAXXZ 1000e4c0 f   etw_stealth.obj
 0001:0000d4e0       ?ResumeForCurrentThread@EtwStealth@@YAXXZ 1000e4e0 f   etw_stealth.obj
 0001:0000d510       ?wcsmatch@Functions@@YA_NPB_WI0I@Z 1000e510 f   functions.obj
 0001:0000d5a0       ?SplitStringToViews@Functions@@YA?AV?$vector@V?$basic_string_view@_WU?$char_traits@_W@std@@@std@@V?$allocator@V?$basic_string_view@_WU?$char_traits@_W@std@@@std@@@2@@std@@V?$basic_string_view@_WU?$char_traits@_W@std@@@3@_W@Z 1000e5a0 f   functions.obj
 0001:0000d7a0       ?ReplaceAll@Functions@@YA?AV?$basic_string@_WU?$char_traits@_W@std@@V?$allocator@_W@2@@std@@V?$basic_string_view@_WU?$char_traits@_W@std@@@3@00_N@Z 1000e7a0 f   functions.obj
 0001:0000dae0       ?DoesPathMatchPattern@Functions@@YA_NV?$basic_string_view@_WU?$char_traits@_W@std@@@std@@0_N@Z 1000eae0 f   functions.obj
 0001:0000deb0       ?MyCreateRemoteThread@Functions@@YAPAXPAXP6GK0@Z0K@Z 1000eeb0 f   functions.obj
 0001:0000e050       ?GetNtVersionNumbers@Functions@@YAXPAK00@Z 1000f050 f   functions.obj
 0001:0000e180       ?ModuleGetPDBInfo@Functions@@YA_NPAXPAU_GUID@@PAK@Z 1000f180 f   functions.obj
 0001:0000e2d0       ?GetModuleVersion@Functions@@YA?AV?$basic_string@DU?$char_traits@D@std@@V?$allocator@D@2@@std@@PAUHINSTANCE__@@@Z 1000f2d0 f   functions.obj
 0001:0000e6c0       ?SetThreadDescriptionIfAvailable@Functions@@YAJPAXPB_W@Z 1000f6c0 f   functions.obj
 0001:0000e7f0       ??$append@V?$basic_string_view@_WU?$char_traits@_W@std@@@std@@$0A@@?$basic_string@_WU?$char_traits@_W@std@@V?$allocator@_W@2@@std@@QAEAAV01@ABV?$basic_string_view@_WU?$char_traits@_W@std@@@1@II@Z 1000f7f0 f i functions.obj
 0001:0000e880       ??$ExpandEnvironmentStringsW@V?$basic_string@_WU?$char_traits@_W@std@@V?$allocator@_W@2@@std@@$0BAA@@wil@@YA?AV?$basic_string@_WU?$char_traits@_W@std@@V?$allocator@_W@2@@std@@PB_W@Z 1000f880 f i functions.obj
 0001:0000e930       ??1?$vector@V?$basic_string@_WU?$char_traits@_W@std@@V?$allocator@_W@2@@std@@V?$allocator@V?$basic_string@_WU?$char_traits@_W@std@@V?$allocator@_W@2@@std@@@2@@std@@QAE@XZ 1000f930 f i functions.obj
 0001:0000e940       ??$ExpandEnvironmentStringsW@V?$basic_string@_WU?$char_traits@_W@std@@V?$allocator@_W@2@@std@@$0BAA@@wil@@YAJPB_WAAV?$basic_string@_WU?$char_traits@_W@std@@V?$allocator@_W@2@@std@@@Z 1000f940 f i functions.obj
 0001:0000e990       ??E_Iterator@?$split_view@V?$basic_string_view@_WU?$char_traits@_W@std@@@std@@V?$single_view@_W@ranges@2@@ranges@std@@QAEAAV0123@XZ 1000f990 f i functions.obj
 0001:0000ea10       ?_Tidy@?$vector@V?$basic_string@_WU?$char_traits@_W@std@@V?$allocator@_W@2@@std@@V?$allocator@V?$basic_string@_WU?$char_traits@_W@std@@V?$allocator@_W@2@@std@@@2@@std@@AAEXXZ 1000fa10 f i functions.obj
 0001:0000eaa0       ?_Buy_nonzero@?$vector@V?$basic_string_view@_WU?$char_traits@_W@std@@@std@@V?$allocator@V?$basic_string_view@_WU?$char_traits@_W@std@@@std@@@2@@std@@AAEXI@Z 1000faa0 f i functions.obj
 0001:0000eb40       ?_Xran@?$basic_string_view@_WU?$char_traits@_W@std@@@std@@CAXXZ 1000fb40 f i functions.obj
 0001:0000eb50       ?__clone@?$__func@V<lambda_1>@?1???$ExpandEnvironmentStringsW@V?$basic_string@_WU?$char_traits@_W@std@@V?$allocator@_W@2@@std@@$0BAA@@wil@@YAJPB_WAAV?$basic_string@_WU?$char_traits@_W@std@@V?$allocator@_W@2@@std@@@Z@$$A6AJPA_WIPAI@Z@__function@wistd@@UBEXPAV?$__base@$$A6AJPA_WIPAI@Z@23@@Z 1000fb50 f i functions.obj
 0001:0000eb50       ?__move@?$__func@V<lambda_1>@?1???$ExpandEnvironmentStringsW@V?$basic_string@_WU?$char_traits@_W@std@@V?$allocator@_W@2@@std@@$0BAA@@wil@@YAJPB_WAAV?$basic_string@_WU?$char_traits@_W@std@@V?$allocator@_W@2@@std@@@Z@$$A6AJPA_WIPAI@Z@__function@wistd@@UAEXPAV?$__base@$$A6AJPA_WIPAI@Z@23@@Z 1000fb50 f i functions.obj
 0001:0000eb70       ??R?$__func@V<lambda_1>@?1???$ExpandEnvironmentStringsW@V?$basic_string@_WU?$char_traits@_W@std@@V?$allocator@_W@2@@std@@$0BAA@@wil@@YAJPB_WAAV?$basic_string@_WU?$char_traits@_W@std@@V?$allocator@_W@2@@std@@@Z@$$A6AJPA_WIPAI@Z@__function@wistd@@UAEJ$$QAPA_W$$QAI$$QAPAI@Z 1000fb70 f i functions.obj
 0001:0000ebc0       ??_E?$__func@V<lambda_1>@?1???$ExpandEnvironmentStringsW@V?$basic_string@_WU?$char_traits@_W@std@@V?$allocator@_W@2@@std@@$0BAA@@wil@@YAJPB_WAAV?$basic_string@_WU?$char_traits@_W@std@@V?$allocator@_W@2@@std@@@Z@$$A6AJPA_WIPAI@Z@__function@wistd@@UAEPAXI@Z 1000fbc0 f i * CIL library *:* CIL module *
 0001:0000ebc0       ??_E?$__func@V<lambda_1>@?1???$GetEnvironmentVariableW@V?$basic_string@_WU?$char_traits@_W@std@@V?$allocator@_W@2@@std@@$0IA@@wil@@YAJPB_WAAV?$basic_string@_WU?$char_traits@_W@std@@V?$allocator@_W@2@@std@@@Z@$$A6AJPA_WIPAI@Z@__function@wistd@@UAEPAXI@Z 1000fbc0 f i * CIL library *:* CIL module *
 0001:0000ebc0       ??_G?$__func@V<lambda_1>@?1???$ExpandEnvironmentStringsW@V?$basic_string@_WU?$char_traits@_W@std@@V?$allocator@_W@2@@std@@$0BAA@@wil@@YAJPB_WAAV?$basic_string@_WU?$char_traits@_W@std@@V?$allocator@_W@2@@std@@@Z@$$A6AJPA_WIPAI@Z@__function@wistd@@UAEPAXI@Z 1000fbc0 f i functions.obj
 0001:0000ebc0       ??_G?$__func@V<lambda_1>@?1???$GetEnvironmentVariableW@V?$basic_string@_WU?$char_traits@_W@std@@V?$allocator@_W@2@@std@@$0IA@@wil@@YAJPB_WAAV?$basic_string@_WU?$char_traits@_W@std@@V?$allocator@_W@2@@std@@@Z@$$A6AJPA_WIPAI@Z@__function@wistd@@UAEPAXI@Z 1000fbc0 f i storage_manager.obj
 0001:0000ebf0       ??Y?$basic_string@DU?$char_traits@D@std@@V?$allocator@D@2@@std@@QAEAAV01@D@Z 1000fbf0 f i functions.obj
 0001:0000ed20       ?to_string@std@@YA?AV?$basic_string@DU?$char_traits@D@std@@V?$allocator@D@2@@1@H@Z 1000fd20 f i functions.obj
 0001:0000edc0       ??1?$vector@UThreadCallStackRegionInfo@@V?$allocator@UThreadCallStackRegionInfo@@@std@@@std@@QAE@XZ 1000fdc0 f i mods_manager.obj
 0001:0000edc0       ??1?$vector@U_IMAGE_CHPE_RANGE_ENTRY@SymbolEnum@@V?$allocator@U_IMAGE_CHPE_RANGE_ENTRY@SymbolEnum@@@std@@@std@@QAE@XZ 1000fdc0 f i mod.obj
 0001:0000edc0       ?_Tidy@?$vector@V?$basic_string_view@_WU?$char_traits@_W@std@@@std@@V?$allocator@V?$basic_string_view@_WU?$char_traits@_W@std@@@std@@@2@@std@@AAEXXZ 1000fdc0 f i functions.obj
 0001:0000ee20       ??1?$vector@V?$basic_string_view@_WU?$char_traits@_W@std@@@std@@V?$allocator@V?$basic_string_view@_WU?$char_traits@_W@std@@@std@@@2@@std@@QAE@XZ 1000fe20 f i functions.obj
 0001:0000ee30       ?SetHook@HwbpHook@@YA_NPAX0PAPAXK@Z 1000fe30 f   hwbp_hook.obj
 0001:0000f1a0       ?RemoveHookAllThreads@HwbpHook@@YA_NPAX@Z 100101a0 f   hwbp_hook.obj
 0001:0000f3d0       ??$_Emplace_reallocate@ABUHookContext@HwbpHook@@@?$vector@UHookContext@HwbpHook@@V?$allocator@UHookContext@HwbpHook@@@std@@@std@@AAEPAUHookContext@HwbpHook@@QAU23@ABU23@@Z 100103d0 f i hwbp_hook.obj
 0001:0000f5b0       ??1?$lock_guard@Vmutex@std@@@std@@QAE@XZ 100105b0 f i hwbp_hook.obj
 0001:0000f5c0       ?lock@_Mutex_base@std@@QAEXXZ 100105c0 f i hwbp_hook.obj
 0001:0000f840       ?Initialize@InjectionMonitor@@YA_NXZ 10010840 f   injection_monitor.obj
 0001:0000f900       ?RegisterHookRegion@InjectionMonitor@@YA_NPAXI@Z 10010900 f   injection_monitor.obj
 0001:0000fac0       ??1?$_Hash_vec@V?$allocator@V?$_List_unchecked_const_iterator@V?$_List_val@U?$_List_simple_types@V?$basic_string@_WU?$char_traits@_W@std@@V?$allocator@_W@2@@std@@@std@@@std@@U_Iterator_base0@2@@std@@@std@@@std@@QAE@XZ 10010ac0 f i mods_manager.obj
 0001:0000fac0       ??1?$_Hash_vec@V?$allocator@V?$_List_unchecked_iterator@V?$_List_val@U?$_List_simple_types@U?$pair@$$CBV?$basic_string@_WU?$char_traits@_W@std@@V?$allocator@_W@2@@std@@VMod@@@std@@@std@@@std@@@std@@@std@@@std@@QAE@XZ 10010ac0 f i mods_manager.obj
 0001:0000fac0       ??1?$_Hash_vec@V?$allocator@V?$_List_unchecked_iterator@V?$_List_val@U?$_List_simple_types@U?$pair@QAXURegionInfo@InjectionMonitor@@@std@@@std@@@std@@@std@@@std@@@std@@QAE@XZ 10010ac0 f i injection_monitor.obj
 0001:0000fb20       ??1?$list@U?$pair@QAXURegionInfo@InjectionMonitor@@@std@@V?$allocator@U?$pair@QAXURegionInfo@InjectionMonitor@@@std@@@2@@std@@QAE@XZ 10010b20 f i injection_monitor.obj
 0001:0000fb60       ??A?$unordered_map@PAXURegionInfo@InjectionMonitor@@U?$hash@PAX@std@@U?$equal_to@PAX@4@V?$allocator@U?$pair@QAXURegionInfo@InjectionMonitor@@@std@@@4@@std@@QAEAAURegionInfo@InjectionMonitor@@ABQAX@Z 10010b60 f i injection_monitor.obj
 0001:0000fb80       ??$_Try_emplace@ABQAX$$V@?$_Hash@V?$_Umap_traits@PAXURegionInfo@InjectionMonitor@@V?$_Uhash_compare@PAXU?$hash@PAX@std@@U?$equal_to@PAX@2@@std@@V?$allocator@U?$pair@QAXURegionInfo@InjectionMonitor@@@std@@@4@$0A@@std@@@std@@IAE?AU?$pair@PAU?$_List_node@U?$pair@QAXURegionInfo@InjectionMonitor@@@std@@PAX@std@@_N@1@ABQAX@Z 10010b80 f i injection_monitor.obj
 0001:0000fe30       ??$_Find_last@PAX@?$_Hash@V?$_Umap_traits@PAXURegionInfo@InjectionMonitor@@V?$_Uhash_compare@PAXU?$hash@PAX@std@@U?$equal_to@PAX@2@@std@@V?$allocator@U?$pair@QAXURegionInfo@InjectionMonitor@@@std@@@4@$0A@@std@@@std@@IBE?AU?$_Hash_find_last_result@PAU?$_List_node@U?$pair@QAXURegionInfo@InjectionMonitor@@@std@@PAX@std@@@1@ABQAXI@Z 10010e30 f i injection_monitor.obj
 0001:0000fea0       ??1?$_Alloc_construct_ptr@V?$allocator@U?$_List_node@U?$pair@QAXURegionInfo@InjectionMonitor@@@std@@PAX@std@@@std@@@std@@QAE@XZ 10010ea0 f i injection_monitor.obj
 0001:0000fea0       ??1?$_List_node_emplace_op2@V?$allocator@U?$_List_node@U?$pair@QAXURegionInfo@InjectionMonitor@@@std@@PAX@std@@@std@@@std@@QAE@XZ 10010ea0 f i injection_monitor.obj
 0001:0000fec0       ?_Assign_grow@?$_Hash_vec@V?$allocator@V?$_List_unchecked_iterator@V?$_List_val@U?$_List_simple_types@U?$pair@QAXURegionInfo@InjectionMonitor@@@std@@@std@@@std@@@std@@@std@@@std@@QAEXIV?$_List_unchecked_iterator@V?$_List_val@U?$_List_simple_types@U?$pair@QAXURegionInfo@InjectionMonitor@@@std@@@std@@@std@@@2@@Z 10010ec0 f i injection_monitor.obj
 0001:0000ffd0       ?_Forced_rehash@?$_Hash@V?$_Umap_traits@PAXURegionInfo@InjectionMonitor@@V?$_Uhash_compare@PAXU?$hash@PAX@std@@U?$equal_to@PAX@2@@std@@V?$allocator@U?$pair@QAXURegionInfo@InjectionMonitor@@@std@@@4@$0A@@std@@@std@@IAEXI@Z 10010fd0 f i injection_monitor.obj
 0001:00010150       _ceilf                     10011150 f i injection_monitor.obj
 0001:00010280       ??0ScopedThreadVerbosity@Logger@@QAE@W4Verbosity@LoggerBase@@@Z 10011280 f   logger.obj
 0001:00010320       ??1ScopedThreadVerbosity@Logger@@QAE@XZ 10011320 f   logger.obj
 0001:000103c0       ?GetInstance@Logger@@SAAAV1@XZ 100113c0 f   logger.obj
 0001:000104e0       ?ShouldLog@Logger@@QAE_NW4Verbosity@LoggerBase@@@Z 100114e0 f   logger.obj
 0001:00010520       ?GetThreadVerbosity@Logger@@CAAAV?$optional@W4Verbosity@LoggerBase@@@std@@XZ 10011520 f   logger.obj
 0001:00010790       ??1?$_Func_class@PAPAUCallbacks@SymbolEnum@@$$V@std@@QAE@XZ 10011790 f i symbol_enum.obj
 0001:00010790       ??1?$_Func_class@PAV?$optional@W4Verbosity@LoggerBase@@@std@@$$V@std@@QAE@XZ 10011790 f i logger.obj
 0001:00010790       ??1?$_Func_class@XH@std@@QAE@XZ 10011790 f i mod.obj
 0001:00010790       ??1?$_Func_class@XPAPAUCallbacks@SymbolEnum@@@std@@QAE@XZ 10011790 f i symbol_enum.obj
 0001:00010790       ??1?$_Func_class@XPAV?$optional@W4Verbosity@LoggerBase@@@std@@@std@@QAE@XZ 10011790 f i logger.obj
 0001:00010790       ??1?$_Func_class@_N$$V@std@@QAE@XZ 10011790 f i mod.obj
 0001:00010790       ??1?$function@$$A6APAPAUCallbacks@SymbolEnum@@XZ@std@@QAE@XZ 10011790 f i symbol_enum.obj
 0001:00010790       ??1?$function@$$A6APAV?$optional@W4Verbosity@LoggerBase@@@std@@XZ@std@@QAE@XZ 10011790 f i logger.obj
 0001:00010790       ??1?$function@$$A6AXPAPAUCallbacks@SymbolEnum@@@Z@std@@QAE@XZ 10011790 f i symbol_enum.obj
 0001:00010790       ??1?$function@$$A6AXPAV?$optional@W4Verbosity@LoggerBase@@@std@@@Z@std@@QAE@XZ 10011790 f i logger.obj
 0001:00010790       ??1?$function@$$A6AXPB_W@Z@std@@QAE@XZ 10011790 f i mods_manager.obj
 0001:000107c0       ?default_exit@?$ThreadLocal@PAUCallbacks@SymbolEnum@@@@CGXPAX@Z 100117c0 f i symbol_enum.obj
 0001:000107c0       ?default_exit@?$ThreadLocal@V?$optional@W4Verbosity@LoggerBase@@@std@@@@CGXPAX@Z 100117c0 f i logger.obj
 0001:00010810       ?_Delete_this@?$_Func_impl_no_alloc@U?$default_delete@PAUCallbacks@SymbolEnum@@@std@@XPAPAUCallbacks@SymbolEnum@@@std@@EAEX_N@Z 10011810 f i symbol_enum.obj
 0001:00010810       ?_Delete_this@?$_Func_impl_no_alloc@U?$default_delete@V?$optional@W4Verbosity@LoggerBase@@@std@@@std@@XPAV?$optional@W4Verbosity@LoggerBase@@@2@@std@@EAEX_N@Z 10011810 f i logger.obj
 0001:00010810       ?_Delete_this@?$_Func_impl_no_alloc@V<lambda_5_>@?0???0?$ThreadLocal@PAUCallbacks@SymbolEnum@@@@QAE@XZ@PAPAUCallbacks@SymbolEnum@@$$V@std@@EAEX_N@Z 10011810 f i symbol_enum.obj
 0001:00010810       ?_Delete_this@?$_Func_impl_no_alloc@V<lambda_5_>@?0???0?$ThreadLocal@V?$optional@W4Verbosity@LoggerBase@@@std@@@@QAE@XZ@PAV?$optional@W4Verbosity@LoggerBase@@@std@@$$V@std@@EAEX_N@Z 10011810 f i logger.obj
 0001:00010830       ?_Get@?$_Func_impl_no_alloc@U?$default_delete@PAUCallbacks@SymbolEnum@@@std@@XPAPAUCallbacks@SymbolEnum@@@std@@EBEPBXXZ 10011830 f i symbol_enum.obj
 0001:00010830       ?_Get@?$_Func_impl_no_alloc@U?$default_delete@V?$optional@W4Verbosity@LoggerBase@@@std@@@std@@XPAV?$optional@W4Verbosity@LoggerBase@@@2@@std@@EBEPBXXZ 10011830 f i logger.obj
 0001:00010830       ?_Get@?$_Func_impl_no_alloc@V<lambda_5_>@?0???0?$ThreadLocal@PAUCallbacks@SymbolEnum@@@@QAE@XZ@PAPAUCallbacks@SymbolEnum@@$$V@std@@EBEPBXXZ 10011830 f i symbol_enum.obj
 0001:00010830       ?_Get@?$_Func_impl_no_alloc@V<lambda_5_>@?0???0?$ThreadLocal@V?$optional@W4Verbosity@LoggerBase@@@std@@@@QAE@XZ@PAV?$optional@W4Verbosity@LoggerBase@@@std@@$$V@std@@EBEPBXXZ 10011830 f i logger.obj
 0001:00010840       ?_Target_type@?$_Func_impl_no_alloc@U?$default_delete@V?$optional@W4Verbosity@LoggerBase@@@std@@@std@@XPAV?$optional@W4Verbosity@LoggerBase@@@2@@std@@EBEABVtype_info@@XZ 10011840 f i logger.obj
 0001:00010850       ?_Do_call@?$_Func_impl_no_alloc@U?$default_delete@V?$optional@W4Verbosity@LoggerBase@@@std@@@std@@XPAV?$optional@W4Verbosity@LoggerBase@@@2@@std@@EAEX$$QAPAV?$optional@W4Verbosity@LoggerBase@@@2@@Z 10011850 f i logger.obj
 0001:00010870       ?_Copy@?$_Func_impl_no_alloc@U?$default_delete@V?$optional@W4Verbosity@LoggerBase@@@std@@@std@@XPAV?$optional@W4Verbosity@LoggerBase@@@2@@std@@EBEPAV?$_Func_base@XPAV?$optional@W4Verbosity@LoggerBase@@@std@@@2@PAX@Z 10011870 f i logger.obj
 0001:00010870       ?_Move@?$_Func_impl_no_alloc@U?$default_delete@V?$optional@W4Verbosity@LoggerBase@@@std@@@std@@XPAV?$optional@W4Verbosity@LoggerBase@@@2@@std@@EAEPAV?$_Func_base@XPAV?$optional@W4Verbosity@LoggerBase@@@std@@@2@PAX@Z 10011870 f i logger.obj
 0001:00010880       ?_Target_type@?$_Func_impl_no_alloc@V<lambda_5_>@?0???0?$ThreadLocal@V?$optional@W4Verbosity@LoggerBase@@@std@@@@QAE@XZ@PAV?$optional@W4Verbosity@LoggerBase@@@std@@$$V@std@@EBEABVtype_info@@XZ 10011880 f i logger.obj
 0001:00010890       ?_Do_call@?$_Func_impl_no_alloc@V<lambda_5_>@?0???0?$ThreadLocal@V?$optional@W4Verbosity@LoggerBase@@@std@@@@QAE@XZ@PAV?$optional@W4Verbosity@LoggerBase@@@std@@$$V@std@@EAEPAV?$optional@W4Verbosity@LoggerBase@@@2@XZ 10011890 f i logger.obj
 0001:000108a0       ?_Copy@?$_Func_impl_no_alloc@V<lambda_5_>@?0???0?$ThreadLocal@V?$optional@W4Verbosity@LoggerBase@@@std@@@@QAE@XZ@PAV?$optional@W4Verbosity@LoggerBase@@@std@@$$V@std@@EBEPAV?$_Func_base@PAV?$optional@W4Verbosity@LoggerBase@@@std@@$$V@2@PAX@Z 100118a0 f i logger.obj
 0001:000108a0       ?_Move@?$_Func_impl_no_alloc@V<lambda_5_>@?0???0?$ThreadLocal@V?$optional@W4Verbosity@LoggerBase@@@std@@@@QAE@XZ@PAV?$optional@W4Verbosity@LoggerBase@@@std@@$$V@std@@EAEPAV?$_Func_base@PAV?$optional@W4Verbosity@LoggerBase@@@std@@$$V@2@PAX@Z 100118a0 f i logger.obj
 0001:000108b0       ??0system_error@std@@QAE@HABVerror_category@1@PBD@Z 100118b0 f i logger.obj
 0001:000109a0       ??1Callbacks@SymbolEnum@@QAE@XZ 100119a0 f i mod.obj
 0001:000109f0       ??0Callbacks@SymbolEnum@@QAE@$$QAU01@@Z 100119f0 f i mod.obj
 0001:00011330       ??1?$unique_any_t@V?$unique_storage@U?$handle_invalid_resource_policy@P6GHPAX@Z$1?CloseHandle@@YGH0@Z@details@wil@@@details@wil@@@wil@@QAE@XZ 10012330 f i mod.obj
 0001:000123c0       ??1?$unique_any_t@V?$unique_storage@U?$resource_policy@PAUHINSTANCE__@@P6GHPAU1@@Z$1?FreeLibrary@@YGH0@ZU?$integral_constant@I$0A@@wistd@@PAU1@PAU1@$0A@$$T@details@wil@@@details@wil@@@wil@@QAE@XZ 100133c0 f i mod.obj
 0001:00013f60       ??0LoadedMod@@QAE@PB_W00_N11@Z 10014f60 f   mod.obj
 0001:00014440       ??1LoadedMod@@QAE@XZ       10015440 f   mod.obj
 0001:000147f0       ?Initialize@LoadedMod@@QAE_NXZ 100157f0 f   mod.obj
 0001:00014b50       ?GetIntValue@LoadedMod@@QAEHPB_WH@Z 10015b50 f   mod.obj
 0001:00014d20       ?SetIntValue@LoadedMod@@QAEHPB_WH@Z 10015d20 f   mod.obj
 0001:00014ef0       ?GetStringValue@LoadedMod@@QAEIPB_WPA_WI@Z 10015ef0 f   mod.obj
 0001:000151a0       ?SetStringValue@LoadedMod@@QAEHPB_W0@Z 100161a0 f   mod.obj
 0001:00015370       ?GetBinaryValue@LoadedMod@@QAEIPB_WPAXI@Z 10016370 f   mod.obj
 0001:00015620       ?SetBinaryValue@LoadedMod@@QAEHPB_WPBXI@Z 10016620 f   mod.obj
 0001:000157b0       ?DeleteValue@LoadedMod@@QAEHPB_W@Z 100167b0 f   mod.obj
 0001:00015940       ?GetModStoragePath@LoadedMod@@QAEIPA_WI@Z 10016940 f   mod.obj
 0001:00015b50       ?GetIntSetting@LoadedMod@@QAEHPB_WPAD@Z 10016b50 f   mod.obj
 0001:00015de0       ?GetStringSetting@LoadedMod@@QAEPB_WPB_WPAD@Z 10016de0 f   mod.obj
 0001:000160d0       ?SetFunctionHook@LoadedMod@@QAEHPAX0PAPAX@Z 100170d0 f   mod.obj
 0001:00016440       ?RemoveFunctionHook@LoadedMod@@QAEHPAX@Z 10017440 f   mod.obj
 0001:00016640       ?ApplyHookOperations@LoadedMod@@QAEHXZ 10017640 f   mod.obj
 0001:00016870       ?FindFirstSymbol4@LoadedMod@@QAEPAXPAUHINSTANCE__@@PBUtagWH_FIND_SYMBOL_OPTIONS@@PAUtagWH_FIND_SYMBOL@@@Z 10017870 f   mod.obj
 0001:00017940       ?FindNextSymbol2@LoadedMod@@QAEHPAXPAUtagWH_FIND_SYMBOL@@@Z 10018940 f   mod.obj
 0001:00017a80       ??1SymbolEnum@@QAE@XZ      10018a80 f i mod.obj
 0001:00017b30       ??1ModuleInfo@SymbolEnum@@QAE@XZ 10018b30 f i mod.obj
 0001:00017b40       ??1?$unique_any_t@V?$unique_storage@U?$resource_policy@PA_WP6AXPA_W@Z$1?MySysFreeString@@YAX0@ZU?$integral_constant@I$0A@@wistd@@PA_WPA_W$0A@$$T@details@wil@@@details@wil@@@wil@@QAE@XZ 10018b40 f i mod.obj
 0001:00017b90       ?HookSymbols@LoadedMod@@QAEHPAUHINSTANCE__@@PBUtagWH_SYMBOL_HOOK@@IPBUtagWH_HOOK_SYMBOLS_OPTIONS@@@Z 10018b90 f   mod.obj
 0001:00018d70       ?GetUrlContent@LoadedMod@@QAEPBUtagWH_URL_CONTENT@@PB_WPBUtagWH_GET_URL_CONTENT_OPTIONS@@@Z 10019d70 f   mod.obj
 0001:00019970       ?HookSymbolsGetOnlineCache@LoadedMod@@AAE?AV?$optional@V?$basic_string@_WU?$char_traits@_W@std@@V?$allocator@_W@2@@std@@@std@@PB_WV?$basic_string_view@_WU?$char_traits@_W@std@@@3@@Z 1001a970 f   mod.obj
 0001:0001a0d0       ?SetTask@LoadedMod@@AAEXPB_W@Z 1001b0d0 f   mod.obj
 0001:0001a180       ??0Mod@@QAE@PB_W@Z         1001b180 f   mod.obj
 0001:0001a240       ?Load@Mod@@QAE_N_N@Z       1001b240 f   mod.obj
 0001:0001a630       ?BeforeUninit@Mod@@QAEXXZ  1001b630 f   mod.obj
 0001:0001a770       ?ApplyChangedSettings@Mod@@QAE_NPA_N@Z 1001b770 f   mod.obj
 0001:0001a9b0       ?ShouldLoadInRunningProcess@Mod@@SA_NPB_W@Z 1001b9b0 f   mod.obj
 0001:0001aeb0       ?SetStatus@Mod@@AAEXPB_W@Z 1001beb0 f   mod.obj
 0001:0001af60       ??$?H_WU?$char_traits@_W@std@@V?$allocator@_W@1@@std@@YA?AV?$basic_string@_WU?$char_traits@_W@std@@V?$allocator@_W@2@@0@$$QAV10@QB_W@Z 1001bf60 f i mod.obj
 0001:0001afc0       ??$QueryFullProcessImageNameW@V?$basic_string@_WU?$char_traits@_W@std@@V?$allocator@_W@2@@std@@$0BAA@@wil@@YA?AV?$basic_string@_WU?$char_traits@_W@std@@V?$allocator@_W@2@@std@@PAXK@Z 1001bfc0 f i mod.obj
 0001:0001b0e0       ??$swprintf_s@$0CJ@@@YAHAAY0CJ@_WPB_WZZ 1001c0e0 f i mod.obj
 0001:0001b100       ??$?H_WU?$char_traits@_W@std@@V?$allocator@_W@1@@std@@YA?AV?$basic_string@_WU?$char_traits@_W@std@@V?$allocator@_W@2@@0@QB_WABV10@@Z 1001c100 f i mod.obj
 0001:0001b160       ??$?H_WU?$char_traits@_W@std@@V?$allocator@_W@1@@std@@YA?AV?$basic_string@_WU?$char_traits@_W@std@@V?$allocator@_W@2@@0@QB_W$$QAV10@@Z 1001c160 f i mod.obj
 0001:0001b500       ??$make_unique@VSymbolEnum@@PB_WAAPAUHINSTANCE__@@AAY00$$CB_WAAW4UndecorateMode@1@$0A@@std@@YA?AV?$unique_ptr@VSymbolEnum@@U?$default_delete@VSymbolEnum@@@std@@@0@$$QAPB_WAAPAUHINSTANCE__@@AAY00$$CB_WAAW4UndecorateMode@SymbolEnum@@@Z 1001c500 f i mod.obj
 0001:0001b5f0       ??$swprintf_s@$0DN@@@YAHAAY0DN@_WPB_WZZ 1001c5f0 f i mod.obj
 0001:0001b720       ??1?$vector@V?$basic_string@DU?$char_traits@D@std@@V?$allocator@D@2@@std@@V?$allocator@V?$basic_string@DU?$char_traits@D@std@@V?$allocator@D@2@@std@@@2@@std@@QAE@XZ 1001c720 f i mod.obj
 0001:0001b7a0       ??1?$unique_ptr@UtagWH_URL_CONTENT@@U?$default_delete@UtagWH_URL_CONTENT@@@std@@@std@@QAE@XZ 1001c7a0 f i mod.obj
 0001:0001b7a0       ??1?$unique_ptr@VSandboxObject@ModSandbox@@U?$default_delete@VSandboxObject@ModSandbox@@@std@@@std@@QAE@XZ 1001c7a0 f i mod.obj
 0001:0001b980       ??1?$unique_ptr@VSymbolEnum@@U?$default_delete@VSymbolEnum@@@std@@@std@@QAE@XZ 1001c980 f i mod.obj
 0001:0001ba10       ??1?$com_ptr_t@UIDiaDataSource@@Uerr_exception_policy@wil@@@wil@@QAE@XZ 1001ca10 f i symbol_enum.obj
 0001:0001ba10       ??1?$com_ptr_t@UIDiaEnumSymbols@@Uerr_exception_policy@wil@@@wil@@QAE@XZ 1001ca10 f i mod.obj
 0001:0001ba10       ??1?$com_ptr_t@UIDiaSession@@Uerr_exception_policy@wil@@@wil@@QAE@XZ 1001ca10 f i symbol_enum.obj
 0001:0001ba10       ??1?$com_ptr_t@UIDiaSymbol@@Uerr_exception_policy@wil@@@wil@@QAE@XZ 1001ca10 f i mod.obj
 0001:0001ba60       ??1?$unique_ptr@VLoadedMod@@U?$default_delete@VLoadedMod@@@std@@@std@@QAE@XZ 1001ca60 f i mod.obj
 0001:0001ba80       ?starts_with@?$basic_string@_WU?$char_traits@_W@std@@V?$allocator@_W@2@@std@@QBE_NQB_W@Z 1001ca80 f i mod.obj
 0001:0001bac0       ?starts_with@?$basic_string@_WU?$char_traits@_W@std@@V?$allocator@_W@2@@std@@QBE_NV?$basic_string_view@_WU?$char_traits@_W@std@@@2@@Z 1001cac0 f i mod.obj
 0001:0001bb00       ?starts_with@?$basic_string_view@_WU?$char_traits@_W@std@@@std@@QBE_NQB_W@Z 1001cb00 f i mod.obj
 0001:0001bc20       ??$_Convert_Source_to_wide@V?$basic_string@_WU?$char_traits@_W@std@@V?$allocator@_W@2@@std@@U_Normal_conversion@filesystem@2@@filesystem@std@@YA?AV?$basic_string@_WU?$char_traits@_W@std@@V?$allocator@_W@2@@1@ABV21@U_Normal_conversion@01@@Z 1001cc20 f i mod.obj
 0001:0001bc80       ??0?$basic_string@_WU?$char_traits@_W@std@@V?$allocator@_W@2@@std@@QAE@U_String_constructor_concat_tag@1@AAV01@1@Z 1001cc80 f i mod.obj
 0001:0001be30       ??0?$basic_string@_WU?$char_traits@_W@std@@V?$allocator@_W@2@@std@@QAE@U_String_constructor_concat_tag@1@ABV01@QB_WI2I@Z 1001ce30 f i mod.obj
 0001:0001c580       ??$_Emplace_reallocate@V?$basic_string@DU?$char_traits@D@std@@V?$allocator@D@2@@std@@@?$vector@V?$basic_string@DU?$char_traits@D@std@@V?$allocator@D@2@@std@@V?$allocator@V?$basic_string@DU?$char_traits@D@std@@V?$allocator@D@2@@std@@@2@@std@@AAEPAV?$basic_string@DU?$char_traits@D@std@@V?$allocator@D@2@@1@QAV21@$$QAV21@@Z 1001d580 f i mod.obj
 0001:0001c770       ??$_Destroy_range@V?$allocator@V?$basic_string@DU?$char_traits@D@std@@V?$allocator@D@2@@std@@@std@@@std@@YAXPAV?$basic_string@DU?$char_traits@D@std@@V?$allocator@D@2@@0@QAV10@AAV?$allocator@V?$basic_string@DU?$char_traits@D@std@@V?$allocator@D@2@@std@@@0@@Z 1001d770 f i mod.obj
 0001:0001c7e0       ??$_Uninitialized_move@PAV?$basic_string@DU?$char_traits@D@std@@V?$allocator@D@2@@std@@V?$allocator@V?$basic_string@DU?$char_traits@D@std@@V?$allocator@D@2@@std@@@2@@std@@YAPAV?$basic_string@DU?$char_traits@D@std@@V?$allocator@D@2@@0@QAV10@0PAV10@AAV?$allocator@V?$basic_string@DU?$char_traits@D@std@@V?$allocator@D@2@@std@@@0@@Z 1001d7e0 f i mod.obj
 0001:0001c920       ??$_Reallocate_grow_by@V<lambda_1>@?1??insert@?$basic_string@_WU?$char_traits@_W@std@@V?$allocator@_W@2@@std@@QAEAAV34@IQB_WI@Z@IPB_WI@?$basic_string@_WU?$char_traits@_W@std@@V?$allocator@_W@2@@std@@AAEAAV01@IV<lambda_1>@?1??insert@01@QAEAAV01@IQB_WI@Z@IPB_WI@Z 1001d920 f i mod.obj
 0001:0001ca50       ?close_reset@?$close_invoke_helper@$00P6GXPAX@_E$1?ReleaseMutex@details@wil@@YGX0@ZPAX@details@wil@@SAXPAX@Z 1001da50 f i mod.obj
 0001:0001ca90       ?_Throw_Win32@in1diag3@details@wil@@YAXPAXIPBDK@Z 1001da90 f i mod.obj
 0001:0001cab0       ?append@?$basic_string@DU?$char_traits@D@std@@V?$allocator@D@2@@std@@QAEAAV12@ID@Z 1001dab0 f i mod.obj
 0001:0001cc20       ?append@?$basic_string@_WU?$char_traits@_W@std@@V?$allocator@_W@2@@std@@QAEAAV12@ABV12@@Z 1001dc20 f i mod.obj
 0001:0001cc90       ??$?8_WU?$char_traits@_W@std@@@std@@YA_NV?$basic_string_view@_WU?$char_traits@_W@std@@@0@0@Z 1001dc90 f i mod.obj
 0001:0001ccd0       ??$_Convert_Source_to_wide@V?$basic_string_view@_WU?$char_traits@_W@std@@@std@@U_Normal_conversion@filesystem@2@@filesystem@std@@YA?AV?$basic_string@_WU?$char_traits@_W@std@@V?$allocator@_W@2@@1@ABV?$basic_string_view@_WU?$char_traits@_W@std@@@1@U_Normal_conversion@01@@Z 1001dcd0 f i mod.obj
 0001:0001cd30       ?filename@path@filesystem@std@@QBE?AV123@XZ 1001dd30 f i mod.obj
 0001:0001cda0       ?to_wstring@std@@YA?AV?$basic_string@_WU?$char_traits@_W@std@@V?$allocator@_W@2@@1@_K@Z 1001dda0 f i mod.obj
 0001:0001cef0       ?close_reset@?$close_invoke_helper@$00P6GXPAX@_E$1?CloseHandle@details@wil@@YGX0@ZPAX@details@wil@@SAXPAX@Z 1001def0 f i mod.obj
 0001:0001cf40       ?ApplyThreadLimits@SandboxObject@ModSandbox@@QAE_NPAX@Z 1001df40 f   mod_sandbox.obj
 0001:0001d150       _InternalWh_IsLogEnabled   1001e150 f   mods_api.obj
 0001:0001d170       _InternalWh_Log            1001e170 f   mods_api.obj
 0001:0001d1f0       _InternalWh_GetIntValue    1001e1f0 f   mods_api.obj
 0001:0001d210       _InternalWh_SetIntValue    1001e210 f   mods_api.obj
 0001:0001d230       _InternalWh_GetStringValue 1001e230 f   mods_api.obj
 0001:0001d250       _InternalWh_SetStringValue 1001e250 f   mods_api.obj
 0001:0001d270       _InternalWh_GetBinaryValue 1001e270 f   mods_api.obj
 0001:0001d290       _InternalWh_SetBinaryValue 1001e290 f   mods_api.obj
 0001:0001d2b0       _InternalWh_DeleteValue    1001e2b0 f   mods_api.obj
 0001:0001d2c0       _InternalWh_GetModStoragePath 1001e2c0 f   mods_api.obj
 0001:0001d2e0       _InternalWh_GetIntSetting  1001e2e0 f   mods_api.obj
 0001:0001d300       _InternalWh_GetStringSetting 1001e300 f   mods_api.obj
 0001:0001d320       _InternalWh_FreeStringSetting 1001e320 f   mods_api.obj
 0001:0001d390       _InternalWh_SetFunctionHook 1001e390 f   mods_api.obj
 0001:0001d3b0       _InternalWh_RemoveFunctionHook 1001e3b0 f   mods_api.obj
 0001:0001d3c0       _InternalWh_ApplyHookOperations 1001e3c0 f   mods_api.obj
 0001:0001d3d0       ?InternalWh_FindFirstSymbol@@YAPAXPAXPAUHINSTANCE__@@PB_WPAE@Z 1001e3d0 f   mods_api.obj
 0001:0001d440       ?InternalWh_FindFirstSymbol2@@YAPAXPAXPAUHINSTANCE__@@PB_WPAUtagWH_FIND_SYMBOL@@@Z 1001e440 f   mods_api.obj
 0001:0001d490       ?InternalWh_FindFirstSymbol3@@YAPAXPAXPAUHINSTANCE__@@PBEPAUtagWH_FIND_SYMBOL@@@Z 1001e490 f   mods_api.obj
 0001:0001d500       _InternalWh_FindFirstSymbol4 1001e500 f   mods_api.obj
 0001:0001d520       ?InternalWh_FindNextSymbol@@YAHPAX0PAE@Z 1001e520 f   mods_api.obj
 0001:0001d560       _InternalWh_FindNextSymbol2 1001e560 f   mods_api.obj
 0001:0001d580       _InternalWh_FindCloseSymbol 1001e580 f   mods_api.obj
 0001:0001d5f0       _InternalWh_HookSymbols    1001e5f0 f   mods_api.obj
 0001:0001d610       _InternalWh_Disasm         1001e610 f   mods_api.obj
 0001:0001d6f0       _InternalWh_GetUrlContent  1001e6f0 f   mods_api.obj
 0001:0001d710       _InternalWh_FreeUrlContent 1001e710 f   mods_api.obj
 0001:0001d780       ??0ModsManager@@QAE@XZ     1001e780 f   mods_manager.obj
 0001:0001d9d0       ??1?$unordered_map@V?$basic_string@_WU?$char_traits@_W@std@@V?$allocator@_W@2@@std@@VMod@@U?$hash@V?$basic_string@_WU?$char_traits@_W@std@@V?$allocator@_W@2@@std@@@2@U?$equal_to@V?$basic_string@_WU?$char_traits@_W@std@@V?$allocator@_W@2@@std@@@2@V?$allocator@U?$pair@$$CBV?$basic_string@_WU?$char_traits@_W@std@@V?$allocator@_W@2@@std@@VMod@@@std@@@2@@std@@QAE@XZ 1001e9d0 f i mods_manager.obj
 0001:0001da00       ??1ModsManager@@QAE@XZ     1001ea00 f   mods_manager.obj
 0001:0001dc30       ?AfterInit@ModsManager@@QAEXXZ 1001ec30 f   mods_manager.obj
 0001:0001dd50       ?BeforeUninit@ModsManager@@QAEXXZ 1001ed50 f   mods_manager.obj
 0001:0001de20       ?ReloadModsAndSettings@ModsManager@@QAEXXZ 1001ee20 f   mods_manager.obj
 0001:0001ec70       ??1?$unordered_set@V?$basic_string@_WU?$char_traits@_W@std@@V?$allocator@_W@2@@std@@U?$hash@V?$basic_string@_WU?$char_traits@_W@std@@V?$allocator@_W@2@@std@@@2@U?$equal_to@V?$basic_string@_WU?$char_traits@_W@std@@V?$allocator@_W@2@@std@@@2@V?$allocator@V?$basic_string@_WU?$char_traits@_W@std@@V?$allocator@_W@2@@std@@@2@@std@@QAE@XZ 1001fc70 f i mods_manager.obj
 0001:0001ec80       ??1?$_Hash@V?$_Uset_traits@V?$basic_string@_WU?$char_traits@_W@std@@V?$allocator@_W@2@@std@@V?$_Uhash_compare@V?$basic_string@_WU?$char_traits@_W@std@@V?$allocator@_W@2@@std@@U?$hash@V?$basic_string@_WU?$char_traits@_W@std@@V?$allocator@_W@2@@std@@@2@U?$equal_to@V?$basic_string@_WU?$char_traits@_W@std@@V?$allocator@_W@2@@std@@@2@@2@V?$allocator@V?$basic_string@_WU?$char_traits@_W@std@@V?$allocator@_W@2@@std@@@2@$0A@@std@@@std@@QAE@XZ 1001fc80 f i mods_manager.obj
 0001:0001ed20       ??$emplace@AAPB_WAAPB_W@?$_Hash@V?$_Umap_traits@V?$basic_string@_WU?$char_traits@_W@std@@V?$allocator@_W@2@@std@@VMod@@V?$_Uhash_compare@V?$basic_string@_WU?$char_traits@_W@std@@V?$allocator@_W@2@@std@@U?$hash@V?$basic_string@_WU?$char_traits@_W@std@@V?$allocator@_W@2@@std@@@2@U?$equal_to@V?$basic_string@_WU?$char_traits@_W@std@@V?$allocator@_W@2@@std@@@2@@2@V?$allocator@U?$pair@$$CBV?$basic_string@_WU?$char_traits@_W@std@@V?$allocator@_W@2@@std@@VMod@@@std@@@2@$0A@@std@@@std@@QAE?AU?$pair@V?$_List_iterator@V?$_List_val@U?$_List_simple_types@U?$pair@$$CBV?$basic_string@_WU?$char_traits@_W@std@@V?$allocator@_W@2@@std@@VMod@@@std@@@std@@@std@@@std@@_N@1@AAPB_W0@Z 1001fd20 f i mods_manager.obj
 0001:0001efc0       ??$emplace@AAPB_W@?$_Hash@V?$_Uset_traits@V?$basic_string@_WU?$char_traits@_W@std@@V?$allocator@_W@2@@std@@V?$_Uhash_compare@V?$basic_string@_WU?$char_traits@_W@std@@V?$allocator@_W@2@@std@@U?$hash@V?$basic_string@_WU?$char_traits@_W@std@@V?$allocator@_W@2@@std@@@2@U?$equal_to@V?$basic_string@_WU?$char_traits@_W@std@@V?$allocator@_W@2@@std@@@2@@2@V?$allocator@V?$basic_string@_WU?$char_traits@_W@std@@V?$allocator@_W@2@@std@@@2@$0A@@std@@@std@@QAE?AU?$pair@V?$_List_const_iterator@V?$_List_val@U?$_List_simple_types@V?$basic_string@_WU?$char_traits@_W@std@@V?$allocator@_W@2@@std@@@std@@@std@@@std@@_N@1@AAPB_W@Z 1001ffc0 f i mods_manager.obj
 0001:0001f1f0       ??$emplace_back@AAPB_W@?$vector@V?$basic_string@_WU?$char_traits@_W@std@@V?$allocator@_W@2@@std@@V?$allocator@V?$basic_string@_WU?$char_traits@_W@std@@V?$allocator@_W@2@@std@@@2@@std@@QAEAAV?$basic_string@_WU?$char_traits@_W@std@@V?$allocator@_W@2@@1@AAPB_W@Z 100201f0 f i mods_manager.obj
 0001:0001f260       ??$emplace@ABV?$basic_string@_WU?$char_traits@_W@std@@V?$allocator@_W@2@@std@@PB_W@?$_Hash@V?$_Umap_traits@V?$basic_string@_WU?$char_traits@_W@std@@V?$allocator@_W@2@@std@@VMod@@V?$_Uhash_compare@V?$basic_string@_WU?$char_traits@_W@std@@V?$allocator@_W@2@@std@@U?$hash@V?$basic_string@_WU?$char_traits@_W@std@@V?$allocator@_W@2@@std@@@2@U?$equal_to@V?$basic_string@_WU?$char_traits@_W@std@@V?$allocator@_W@2@@std@@@2@@2@V?$allocator@U?$pair@$$CBV?$basic_string@_WU?$char_traits@_W@std@@V?$allocator@_W@2@@std@@VMod@@@std@@@2@$0A@@std@@@std@@QAE?AU?$pair@V?$_List_iterator@V?$_List_val@U?$_List_simple_types@U?$pair@$$CBV?$basic_string@_WU?$char_traits@_W@std@@V?$allocator@_W@2@@std@@VMod@@@std@@@std@@@std@@@std@@_N@1@ABV?$basic_string@_WU?$char_traits@_W@std@@V?$allocator@_W@2@@1@$$QAPB_W@Z 10020260 f i mods_manager.obj
 0001:0001f470       ??1?$list@V?$basic_string@_WU?$char_traits@_W@std@@V?$allocator@_W@2@@std@@V?$allocator@V?$basic_string@_WU?$char_traits@_W@std@@V?$allocator@_W@2@@std@@@2@@std@@QAE@XZ 10020470 f i mods_manager.obj
 0001:0001f4c0       ??1?$list@U?$pair@$$CBV?$basic_string@_WU?$char_traits@_W@std@@V?$allocator@_W@2@@std@@VMod@@@std@@V?$allocator@U?$pair@$$CBV?$basic_string@_WU?$char_traits@_W@std@@V?$allocator@_W@2@@std@@VMod@@@std@@@2@@std@@QAE@XZ 100204c0 f i mods_manager.obj
 0001:0001f4e0       ??$_Find_last@V?$basic_string@_WU?$char_traits@_W@std@@V?$allocator@_W@2@@std@@@?$_Hash@V?$_Umap_traits@V?$basic_string@_WU?$char_traits@_W@std@@V?$allocator@_W@2@@std@@VMod@@V?$_Uhash_compare@V?$basic_string@_WU?$char_traits@_W@std@@V?$allocator@_W@2@@std@@U?$hash@V?$basic_string@_WU?$char_traits@_W@std@@V?$allocator@_W@2@@std@@@2@U?$equal_to@V?$basic_string@_WU?$char_traits@_W@std@@V?$allocator@_W@2@@std@@@2@@2@V?$allocator@U?$pair@$$CBV?$basic_string@_WU?$char_traits@_W@std@@V?$allocator@_W@2@@std@@VMod@@@std@@@2@$0A@@std@@@std@@IBE?AU?$_Hash_find_last_result@PAU?$_List_node@U?$pair@$$CBV?$basic_string@_WU?$char_traits@_W@std@@V?$allocator@_W@2@@std@@VMod@@@std@@PAX@std@@@1@ABV?$basic_string@_WU?$char_traits@_W@std@@V?$allocator@_W@2@@1@I@Z 100204e0 f i mods_manager.obj
 0001:0001f4e0       ??$_Find_last@V?$basic_string@_WU?$char_traits@_W@std@@V?$allocator@_W@2@@std@@@?$_Hash@V?$_Uset_traits@V?$basic_string@_WU?$char_traits@_W@std@@V?$allocator@_W@2@@std@@V?$_Uhash_compare@V?$basic_string@_WU?$char_traits@_W@std@@V?$allocator@_W@2@@std@@U?$hash@V?$basic_string@_WU?$char_traits@_W@std@@V?$allocator@_W@2@@std@@@2@U?$equal_to@V?$basic_string@_WU?$char_traits@_W@std@@V?$allocator@_W@2@@std@@@2@@2@V?$allocator@V?$basic_string@_WU?$char_traits@_W@std@@V?$allocator@_W@2@@std@@@2@$0A@@std@@@std@@IBE?AU?$_Hash_find_last_result@PAU?$_List_node@V?$basic_string@_WU?$char_traits@_W@std@@V?$allocator@_W@2@@std@@PAX@std@@@1@ABV?$basic_string@_WU?$char_traits@_W@std@@V?$allocator@_W@2@@1@I@Z 100204e0 f i mods_manager.obj
 0001:0001f580       ??1?$_List_node_emplace_op2@V?$allocator@U?$_List_node@V?$basic_string@_WU?$char_traits@_W@std@@V?$allocator@_W@2@@std@@PAX@std@@@std@@@std@@QAE@XZ 10020580 f i mods_manager.obj
 0001:0001f5b0       ??1?$_List_node_emplace_op2@V?$allocator@U?$_List_node@U?$pair@$$CBV?$basic_string@_WU?$char_traits@_W@std@@V?$allocator@_W@2@@std@@VMod@@@std@@PAX@std@@@std@@@std@@QAE@XZ 100205b0 f i mods_manager.obj
 0001:0001f630       ??$_Emplace_reallocate@AAPB_W@?$vector@V?$basic_string@_WU?$char_traits@_W@std@@V?$allocator@_W@2@@std@@V?$allocator@V?$basic_string@_WU?$char_traits@_W@std@@V?$allocator@_W@2@@std@@@2@@std@@AAEPAV?$basic_string@_WU?$char_traits@_W@std@@V?$allocator@_W@2@@1@QAV21@AAPB_W@Z 10020630 f i mods_manager.obj
 0001:0001f890       ??$_Emplace_reallocate@UThreadCallStackRegionInfo@@@?$vector@UThreadCallStackRegionInfo@@V?$allocator@UThreadCallStackRegionInfo@@@std@@@std@@AAEPAUThreadCallStackRegionInfo@@QAU2@$$QAU2@@Z 10020890 f i mods_manager.obj
 0001:0001fa00       ??$_Free_non_head@V?$allocator@U?$_List_node@U?$pair@$$CBV?$basic_string@_WU?$char_traits@_W@std@@V?$allocator@_W@2@@std@@VMod@@@std@@PAX@std@@@std@@@?$_List_node@U?$pair@$$CBV?$basic_string@_WU?$char_traits@_W@std@@V?$allocator@_W@2@@std@@VMod@@@std@@PAX@std@@SAXAAV?$allocator@U?$_List_node@U?$pair@$$CBV?$basic_string@_WU?$char_traits@_W@std@@V?$allocator@_W@2@@std@@VMod@@@std@@PAX@std@@@1@PAU01@@Z 10020a00 f i mods_manager.obj
 0001:0001fb50       ??1?$_Alloc_construct_ptr@V?$allocator@U?$_List_node@V?$basic_string@_WU?$char_traits@_W@std@@V?$allocator@_W@2@@std@@PAX@std@@@std@@@std@@QAE@XZ 10020b50 f i mods_manager.obj
 0001:0001fb70       ??1?$_Alloc_construct_ptr@V?$allocator@U?$_List_node@U?$pair@$$CBV?$basic_string@_WU?$char_traits@_W@std@@V?$allocator@_W@2@@std@@VMod@@@std@@PAX@std@@@std@@@std@@QAE@XZ 10020b70 f i mods_manager.obj
 0001:0001fb90       ?_Assign_grow@?$_Hash_vec@V?$allocator@V?$_List_unchecked_const_iterator@V?$_List_val@U?$_List_simple_types@V?$basic_string@_WU?$char_traits@_W@std@@V?$allocator@_W@2@@std@@@std@@@std@@U_Iterator_base0@2@@std@@@std@@@std@@QAEXIV?$_List_unchecked_const_iterator@V?$_List_val@U?$_List_simple_types@V?$basic_string@_WU?$char_traits@_W@std@@V?$allocator@_W@2@@std@@@std@@@std@@U_Iterator_base0@2@@2@@Z 10020b90 f i mods_manager.obj
 0001:0001fb90       ?_Assign_grow@?$_Hash_vec@V?$allocator@V?$_List_unchecked_iterator@V?$_List_val@U?$_List_simple_types@U?$pair@$$CBV?$basic_string@_WU?$char_traits@_W@std@@V?$allocator@_W@2@@std@@VMod@@@std@@@std@@@std@@@std@@@std@@@std@@QAEXIV?$_List_unchecked_iterator@V?$_List_val@U?$_List_simple_types@U?$pair@$$CBV?$basic_string@_WU?$char_traits@_W@std@@V?$allocator@_W@2@@std@@VMod@@@std@@@std@@@std@@@2@@Z 10020b90 f i mods_manager.obj
 0001:0001fc90       ?_Forced_rehash@?$_Hash@V?$_Uset_traits@V?$basic_string@_WU?$char_traits@_W@std@@V?$allocator@_W@2@@std@@V?$_Uhash_compare@V?$basic_string@_WU?$char_traits@_W@std@@V?$allocator@_W@2@@std@@U?$hash@V?$basic_string@_WU?$char_traits@_W@std@@V?$allocator@_W@2@@std@@@2@U?$equal_to@V?$basic_string@_WU?$char_traits@_W@std@@V?$allocator@_W@2@@std@@@2@@2@V?$allocator@V?$basic_string@_WU?$char_traits@_W@std@@V?$allocator@_W@2@@std@@@2@$0A@@std@@@std@@IAEXI@Z 10020c90 f i mods_manager.obj
 0001:0001fe80       ?_Forced_rehash@?$_Hash@V?$_Umap_traits@V?$basic_string@_WU?$char_traits@_W@std@@V?$allocator@_W@2@@std@@VMod@@V?$_Uhash_compare@V?$basic_string@_WU?$char_traits@_W@std@@V?$allocator@_W@2@@std@@U?$hash@V?$basic_string@_WU?$char_traits@_W@std@@V?$allocator@_W@2@@std@@@2@U?$equal_to@V?$basic_string@_WU?$char_traits@_W@std@@V?$allocator@_W@2@@std@@@2@@2@V?$allocator@U?$pair@$$CBV?$basic_string@_WU?$char_traits@_W@std@@V?$allocator@_W@2@@std@@VMod@@@std@@@2@$0A@@std@@@std@@IAEXI@Z 10020e80 f i mods_manager.obj
 0001:00020090       ??$_Uninitialized_move@PAV?$basic_string@_WU?$char_traits@_W@std@@V?$allocator@_W@2@@std@@V?$allocator@V?$basic_string@_WU?$char_traits@_W@std@@V?$allocator@_W@2@@std@@@2@@std@@YAPAV?$basic_string@_WU?$char_traits@_W@std@@V?$allocator@_W@2@@0@QAV10@0PAV10@AAV?$allocator@V?$basic_string@_WU?$char_traits@_W@std@@V?$allocator@_W@2@@std@@@0@@Z 10021090 f i mods_manager.obj
 0001:000200f0       ??$_Freenode@V?$allocator@U?$_List_node@U?$pair@$$CBV?$basic_string@_WU?$char_traits@_W@std@@V?$allocator@_W@2@@std@@VMod@@@std@@PAX@std@@@std@@@?$_List_node@U?$pair@$$CBV?$basic_string@_WU?$char_traits@_W@std@@V?$allocator@_W@2@@std@@VMod@@@std@@PAX@std@@SAXAAV?$allocator@U?$_List_node@U?$pair@$$CBV?$basic_string@_WU?$char_traits@_W@std@@V?$allocator@_W@2@@std@@VMod@@@std@@PAX@std@@@1@PAU01@@Z 100210f0 f i mods_manager.obj
 0001:00020150       ??1_Reallocation_guard@?$vector@V?$basic_string@_WU?$char_traits@_W@std@@V?$allocator@_W@2@@std@@V?$allocator@V?$basic_string@_WU?$char_traits@_W@std@@V?$allocator@_W@2@@std@@@2@@std@@QAE@XZ 10021150 f i mods_manager.obj
 0001:000201c0       ?LoadStompTarget@ModuleStomp@@YAPAXPAXABV?$basic_string@_WU?$char_traits@_W@std@@V?$allocator@_W@2@@std@@@Z 100211c0 f   module_stomp.obj
 0001:00020390       ??0NewProcessInjector@@QAE@PAX@Z 10021390 f   new_process_injector.obj
 0001:000207f0       ??1NewProcessInjector@@QAE@XZ 100217f0 f   new_process_injector.obj
 0001:000208b0       ?CreateProcessInternalW_Hook@NewProcessInjector@@CGHPAXPB_WPA_WPAU_SECURITY_ATTRIBUTES@@3HK01PAU_STARTUPINFOW@@PAU_PROCESS_INFORMATION@@PAPAX@Z 100218b0 f   new_process_injector.obj
 0001:000209d0       ?HandleCreatedProcess@NewProcessInjector@@AAEXPAU_PROCESS_INFORMATION@@@Z 100219d0 f   new_process_injector.obj
 0001:000211a0       ?ShouldSkipNewProcess@NewProcessInjector@@ABE_NV?$basic_string_view@_WU?$char_traits@_W@std@@@std@@@Z 100221a0 f   new_process_injector.obj
 0001:00021210       ?ShouldAttachExemptThread@NewProcessInjector@@ABE_NV?$basic_string_view@_WU?$char_traits@_W@std@@@std@@@Z 10022210 f   new_process_injector.obj
 0001:00021240       ??$sleep_for@_JU?$ratio@$00$00@std@@@this_thread@std@@YAXABV?$duration@_JU?$ratio@$00$00@std@@@chrono@1@@Z 10022240 f i new_process_injector.obj
 0001:00021460       ?now@steady_clock@chrono@std@@SA?AV?$time_point@Usteady_clock@chrono@std@@V?$duration@_JU?$ratio@$00$0DLJKMKAA@@std@@@23@@23@XZ 10022460 f i new_process_injector.obj
 0001:00021560       ??1thread@std@@QAE@XZ      10022560 f i new_process_injector.obj
 0001:00021570       _DllMain@12                10022570 f   main.obj
 0001:000215b0       ?LazyInitialize@@YA_NXZ    100225b0 f   main.obj
 0001:00021660       ?InjectInit@@YAHPBULOAD_LIBRARY_REMOTE_DATA@DllInject@@@Z 10022660 f   main.obj
 0001:000217d0       ?GlobalHookSessionStart@@YAPAXXZ 100227d0 f   main.obj
 0001:000218e0       ?GlobalHookSessionHandleNewProcesses@@YAHPAX@Z 100228e0 f   main.obj
 0001:00021960       ?GlobalHookSessionEnd@@YAHPAX@Z 10022960 f   main.obj
 0001:00021a00       ??1ScopedStaticSessionManagerProcess@CustomizationSession@@QAE@XZ 10022a00 f i customization_session.obj
 0001:00021a30       ?GetInstance@ScopedStaticSessionManagerProcess@CustomizationSession@@SAAAV?$optional@V?$unique_any_t@V?$unique_storage@U?$handle_null_only_resource_policy@P6GHPAX@Z$1?CloseHandle@@YGH0@Z@details@wil@@@details@wil@@@wil@@@std@@XZ 10022a30 f i customization_session.obj
 0001:00021ab0       ?<lambda_invoker_cdecl>@<lambda_1>@?2???R1?3??GetInstance@ScopedStaticSessionManagerProcess@CustomizationSession@@SAAAV?$optional@V?$unique_any_t@V?$unique_storage@U?$handle_null_only_resource_policy@P6GHPAX@Z$1?CloseHandle@@YGH0@Z@details@wil@@@details@wil@@@wil@@@std@@XZ@QBE@XZ@SA@XZ 10022ab0 f i customization_session.obj
 0001:00021e90       ?Start@CustomizationSession@@SAX_N0V?$unique_any_t@V?$unique_storage@U?$handle_null_only_resource_policy@P6GHPAX@Z$1?CloseHandle@@YGH0@Z@details@wil@@@details@wil@@@wil@@V?$unique_any_t@V?$mutex_t@V?$unique_storage@U?$resource_policy@PAXP6GXPAX@_E$1?CloseHandle@details@wil@@YGX0@ZU?$integral_constant@I$0A@@wistd@@PAXPAX$0A@$$T@details@wil@@@details@wil@@Uerr_returncode_policy@3@@wil@@@3@@Z 10022e90 f   customization_session.obj
 0001:00022070       ?GetSessionManagerProcessCreationTime@CustomizationSession@@SA?AU_FILETIME@@XZ 10023070 f   customization_session.obj
 0001:000220e0       ??0CustomizationSession@@QAE@UConstructorSecret@0@_N1V?$unique_any_t@V?$unique_storage@U?$handle_null_only_resource_policy@P6GHPAX@Z$1?CloseHandle@@YGH0@Z@details@wil@@@details@wil@@@wil@@V?$unique_any_t@V?$mutex_t@V?$unique_storage@U?$resource_policy@PAXP6GXPAX@_E$1?CloseHandle@details@wil@@YGX0@ZU?$integral_constant@I$0A@@wistd@@PAXPAX$0A@$$T@details@wil@@@details@wil@@Uerr_returncode_policy@3@@wil@@@3@@Z 100230e0 f   customization_session.obj
 0001:00022480       ??1?$unique_any_t@V?$unique_storage@U?$handle_null_only_resource_policy@P6GXPAX@_E$1??$ClosePrivateNamespaceHelper@$0A@@details@wil@@YGX0@Z@details@wil@@@details@wil@@@wil@@QAE@XZ 10023480 f i customization_session.obj
 0001:00022490       ??1?$optional@VMainLoopRunner@CustomizationSession@@@std@@QAE@XZ 10023490 f i customization_session.obj
 0001:000224b0       ??1CustomizationSession@@QAE@XZ 100234b0 f   customization_session.obj
 0001:00022680       ??1MinHookScopeInit@CustomizationSession@@QAE@XZ 10023680 f   customization_session.obj
 0001:000227e0       ??1MinHookScopeApply@CustomizationSession@@QAE@XZ 100237e0 f   customization_session.obj
 0001:000228a0       ??0MainLoopRunner@CustomizationSession@@QAE@XZ 100238a0 f   customization_session.obj
 0001:00022970       ??1?$optional@VModConfigChangeNotification@StorageManager@@@std@@QAE@XZ 10023970 f i customization_session.obj
 0001:00022980       ?Run@MainLoopRunner@CustomizationSession@@QAE?AW4Result@12@PAXPAK@Z 10023980 f   customization_session.obj
 0001:00022ba0       ?ContinueMonitoring@MainLoopRunner@CustomizationSession@@QAE_NXZ 10023ba0 f   customization_session.obj
 0001:00022ce0       ?GetInstance@CustomizationSession@@CAAAV?$optional@VCustomizationSession@@@std@@XZ 10023ce0 f   customization_session.obj
 0001:00022d80       ?StartInitialized@CustomizationSession@@AAEXV?$unique_any_t@V?$semaphore_t@V?$unique_storage@U?$resource_policy@PAXP6GXPAX@_E$1?CloseHandle@details@wil@@YGX0@ZU?$integral_constant@I$0A@@wistd@@PAXPAX$0A@$$T@details@wil@@@details@wil@@Uerr_exception_policy@3@@wil@@@wil@@V?$unique_any_t@V?$unique_storage@U?$resource_policy@PAXP6GXPAX@_E$1?ReleaseSemaphore@details@wil@@YGX0@ZU?$integral_constant@I$01@wistd@@PAXPAX$0A@$$T@details@wil@@@details@wil@@@3@_N@Z 10023d80 f   customization_session.obj
 0001:00023050       ?RunMainLoopAndDeleteThisWithThreadRecreate@CustomizationSession@@AAEXXZ 10024050 f   customization_session.obj
 0001:000233c0       ?RunMainLoop@CustomizationSession@@AAEXXZ 100243c0 f   customization_session.obj
 0001:000235f0       ?DeleteThis@CustomizationSession@@AAEXXZ 100245f0 f   customization_session.obj
 0001:00023730       ??$emplace@$$V@?$optional@VMainLoopRunner@CustomizationSession@@@std@@QAEAAVMainLoopRunner@CustomizationSession@@XZ 10024730 f i customization_session.obj
 0001:00023760       ??B?$optional@VMainLoopRunner@CustomizationSession@@@std@@QBE_NXZ 10024760 f i customization_session.obj
 0001:00023770       ??C?$optional@VMainLoopRunner@CustomizationSession@@@std@@QAEPAVMainLoopRunner@CustomizationSession@@XZ 10024770 f i customization_session.obj
 0001:00023780       ??1?$variant@Umonostate@std@@URegistryState@ModConfigChangeNotification@StorageManager@@UIniFileState@45@@std@@QAE@XZ 10024780 f i customization_session.obj
 0001:00023790       ?_Destroy@?$_Variant_base@Umonostate@std@@URegistryState@ModConfigChangeNotification@StorageManager@@UIniFileState@45@@std@@QAEXXZ 10024790 f i customization_session.obj
 0001:00023800       ??1?$unique_any_t@V?$unique_storage@U?$handle_invalid_resource_policy@P6GHPAX@Z$1?FindCloseChangeNotification@@YGH0@Z@details@wil@@@details@wil@@@wil@@QAE@XZ 10024800 f i customization_session.obj
 0001:00023820       ?close_reset@?$close_invoke_helper@$00P6GXPAX@_E$1?ReleaseSemaphore@details@wil@@YGX0@ZPAX@details@wil@@SAXPAX@Z 10024820 f i customization_session.obj
 0001:00023860       ?Throw_GetLastError@in1diag3@details@wil@@YAXPAXIPBD@Z 10024860 f i customization_session.obj
 0001:00023880       ??0bad_optional_access@std@@QAE@XZ 10024880 f i customization_session.obj
 0001:000238a0       ?what@bad_optional_access@std@@UBEPBDXZ 100248a0 f i customization_session.obj
 0001:000238b0       ??0bad_optional_access@std@@QAE@ABV01@@Z 100248b0 f i customization_session.obj
 0001:000238f0       ?_Throw_bad_optional_access@std@@YAXXZ 100248f0 f i customization_session.obj
 0001:00023920       ??1?$unique_any_t@V?$unique_storage@U?$resource_policy@PAXP6GXPAX@_E$1?ReleaseSemaphore@details@wil@@YGX0@ZU?$integral_constant@I$01@wistd@@PAXPAX$0A@$$T@details@wil@@@details@wil@@@wil@@QAE@XZ 10024920 f i customization_session.obj
 0001:00023af0       ??1?$unique_any_t@V?$unique_storage@U?$handle_null_only_resource_policy@P6GXPAX@Z$1?DeleteBoundaryDescriptor@@YGX0@Z@details@wil@@@details@wil@@@wil@@QAE@XZ 10024af0 f i session_private_namespace.obj
 0001:00023b00       ??1?$unique_any_t@V?$unique_storage@U?$resource_policy@PAXP6GPAXPAX@Z$1?FreeSid@@YGPAX0@ZU?$integral_constant@I$0A@@wistd@@PAXPAX$0A@$$T@details@wil@@@details@wil@@@wil@@QAE@XZ 10024b00 f i session_private_namespace.obj
 0001:000241b0       ?GetInstance@StorageManager@@SAAAV1@XZ 100251b0 f   storage_manager.obj
 0001:000242c0       ?GetAppConfig@StorageManager@@QAE?AV?$unique_ptr@VPortableSettings@@U?$default_delete@VPortableSettings@@@std@@@std@@PB_W@Z 100252c0 f   storage_manager.obj
 0001:00024450       ?GetModConfig@StorageManager@@QAE?AV?$unique_ptr@VPortableSettings@@U?$default_delete@VPortableSettings@@@std@@@std@@PB_W0@Z 10025450 f   storage_manager.obj
 0001:000246c0       ?GetModWritableConfig@StorageManager@@QAE?AV?$unique_ptr@VPortableSettings@@U?$default_delete@VPortableSettings@@@std@@@std@@PB_W0_N@Z 100256c0 f   storage_manager.obj
 0001:00024970       ?EnumMods@StorageManager@@QAEXV?$function@$$A6AXPB_W@Z@std@@@Z 10025970 f   storage_manager.obj
 0001:00024a70       ?GetModStoragePath@StorageManager@@QAE?AVpath@filesystem@std@@PB_W@Z 10025a70 f   storage_manager.obj
 0001:00024bc0       ?CreateModMetadataFile@StorageManager@@QAE?AV?$unique_any_t@V?$unique_storage@U?$handle_invalid_resource_policy@P6GHPAX@Z$1?CloseHandle@@YGH0@Z@details@wil@@@details@wil@@@wil@@PB_W0@Z 10025bc0 f   storage_manager.obj
 0001:00024d70       ?GetEnginePath@StorageManager@@QAE?AVpath@filesystem@std@@G@Z 10025d70 f   storage_manager.obj
 0001:00024f10       ??0StorageManager@@AAE@XZ  10025f10 f   storage_manager.obj
 0001:000256b0       ??1?$variant@Umonostate@std@@URegistryPath@StorageManager@@UIniFilePath@4@@std@@QAE@XZ 100266b0 f i storage_manager.obj
 0001:000256e0       ?RegistryEnumMods@StorageManager@@AAEXV?$function@$$A6AXPB_W@Z@std@@@Z 100266e0 f   storage_manager.obj
 0001:00025970       ?IniFilesEnumMods@StorageManager@@AAEXV?$function@$$A6AXPB_W@Z@std@@@Z 10026970 f   storage_manager.obj
 0001:00025c90       ??0ModConfigChangeNotification@StorageManager@@QAE@XZ 10026c90 f   storage_manager.obj
 0001:00026020       ??$_Convert_Source_to_wide@$$BY0M@_WU_Normal_conversion@filesystem@std@@@filesystem@std@@YA?AV?$basic_string@_WU?$char_traits@_W@std@@V?$allocator@_W@2@@1@AAY0M@$$CB_WU_Normal_conversion@01@@Z 10027020 f i storage_manager.obj
 0001:00026080       ??$_Convert_Source_to_wide@$$BY07_WU_Normal_conversion@filesystem@std@@@filesystem@std@@YA?AV?$basic_string@_WU?$char_traits@_W@std@@V?$allocator@_W@2@@1@AAY07$$CB_WU_Normal_conversion@01@@Z 10027080 f i storage_manager.obj
 0001:000260e0       ?__clone@?$__func@V<lambda_1>@?1???$GetEnvironmentVariableW@V?$basic_string@_WU?$char_traits@_W@std@@V?$allocator@_W@2@@std@@$0IA@@wil@@YAJPB_WAAV?$basic_string@_WU?$char_traits@_W@std@@V?$allocator@_W@2@@std@@@Z@$$A6AJPA_WIPAI@Z@__function@wistd@@UBEXPAV?$__base@$$A6AJPA_WIPAI@Z@23@@Z 100270e0 f i storage_manager.obj
 0001:000260e0       ?__move@?$__func@V<lambda_1>@?1???$GetEnvironmentVariableW@V?$basic_string@_WU?$char_traits@_W@std@@V?$allocator@_W@2@@std@@$0IA@@wil@@YAJPB_WAAV?$basic_string@_WU?$char_traits@_W@std@@V?$allocator@_W@2@@std@@@Z@$$A6AJPA_WIPAI@Z@__function@wistd@@UAEXPAV?$__base@$$A6AJPA_WIPAI@Z@23@@Z 100270e0 f i storage_manager.obj
 0001:00026100       ??R?$__func@V<lambda_1>@?1???$GetEnvironmentVariableW@V?$basic_string@_WU?$char_traits@_W@std@@V?$allocator@_W@2@@std@@$0IA@@wil@@YAJPB_WAAV?$basic_string@_WU?$char_traits@_W@std@@V?$allocator@_W@2@@std@@@Z@$$A6AJPA_WIPAI@Z@__function@wistd@@UAEJ$$QAPA_W$$QAI$$QAPAI@Z 10027100 f i storage_manager.obj
 0001:00026160       ?GetLastErrorFailHr@details@wil@@YAJXZ 10027160 f i storage_manager.obj
 0001:000261e0       ?stem@path@filesystem@std@@QBE?AV123@XZ 100271e0 f i storage_manager.obj
 0001:000262a0       ?extension@path@filesystem@std@@QBE?AV123@XZ 100272a0 f i storage_manager.obj
 0001:00026360       ?compare@path@filesystem@std@@QBEHV?$basic_string_view@_WU?$char_traits@_W@std@@@3@@Z 10027360 f i storage_manager.obj
 0001:00026520       ?compare@path@filesystem@std@@QBEHABV?$basic_string@_WU?$char_traits@_W@std@@V?$allocator@_W@2@@3@@Z 10027520 f i storage_manager.obj
 0001:00026550       ?is_regular_file@directory_entry@filesystem@std@@QBE_NXZ 10027550 f i storage_manager.obj
 0001:00026630       ??0filesystem_error@filesystem@std@@QAE@ABV?$basic_string@DU?$char_traits@D@std@@V?$allocator@D@2@@2@Verror_code@2@@Z 10027630 f i storage_manager.obj
 0001:00026710       ?_Throw_fs_error@filesystem@std@@YAXPBDW4__std_win_error@@@Z 10027710 f i storage_manager.obj
 0001:000267a0       ??Edirectory_iterator@filesystem@std@@QAEAAV012@XZ 100277a0 f i storage_manager.obj
 0001:00026880       ??1?$shared_ptr@U_Dir_enum_impl@filesystem@std@@@std@@QAE@XZ 10027880 f i storage_manager.obj
 0001:00026880       ??1directory_iterator@filesystem@std@@QAE@XZ 10027880 f i storage_manager.obj
 0001:000268b0       ??0_Creator@_Dir_enum_impl@filesystem@std@@QAE@ABVpath@23@W4directory_options@23@@Z 100278b0 f i storage_manager.obj
 0001:00026a70       ??1_Creator@_Dir_enum_impl@filesystem@std@@QAE@XZ 10027a70 f i storage_manager.obj
 0001:00026a90       ?_Destroy@?$_Ref_count_obj2@U_Dir_enum_impl@filesystem@std@@@std@@EAEXXZ 10027a90 f i storage_manager.obj
 0001:00026ab0       ??_E?$_Ref_count_obj2@U_Dir_enum_impl@filesystem@std@@@std@@UAEPAXI@Z 10027ab0 f i * CIL library *:* CIL module *
 0001:00026ab0       ??_G?$_Ref_count_obj2@U_Dir_enum_impl@filesystem@std@@@std@@UAEPAXI@Z 10027ab0 f i storage_manager.obj
 0001:00026ae0       ?_Delete_this@?$_Ref_count_obj2@U_Dir_enum_impl@filesystem@std@@@std@@EAEXXZ 10027ae0 f i storage_manager.obj
 0001:00026af0       ?_Get_deleter@_Ref_count_base@std@@UBEPAXABVtype_info@@@Z 10027af0 f i storage_manager.obj
 0001:00026b00       ??1directory_entry@filesystem@std@@QAE@XZ 10027b00 f i storage_manager.obj
 0001:00026b10       ??1_Find_file_handle@filesystem@std@@QAE@XZ 10027b10 f i storage_manager.obj
 0001:00026b20       ?_Refresh@_Dir_enum_impl@filesystem@std@@QAEXABU__std_fs_find_data@@@Z 10027b20 f i storage_manager.obj
 0001:00026bf0       ??0_Dir_enum_impl@filesystem@std@@QAE@$$QAU_Creator@012@W4directory_options@12@@Z 10027bf0 f i storage_manager.obj
 0001:00026cb0       ?exists@filesystem@std@@YA_NABVpath@12@AAVerror_code@2@@Z 10027cb0 f i storage_manager.obj
 0001:00026d50       ?_Throw_fs_error@filesystem@std@@YAXPBDABVerror_code@2@ABVpath@12@@Z 10027d50 f i storage_manager.obj
 0001:00026dd0       ?exists@filesystem@std@@YA_NABVpath@12@@Z 10027dd0 f i storage_manager.obj
 0001:00026e10       ?parent_path@path@filesystem@std@@QBE?AV123@XZ 10027e10 f i storage_manager.obj
 0001:00026ee0       ??$_Convert_Source_to_wide@PB_WU_Normal_conversion@filesystem@std@@@filesystem@std@@YA?AV?$basic_string@_WU?$char_traits@_W@std@@V?$allocator@_W@2@@1@ABQB_WU_Normal_conversion@01@@Z 10027ee0 f i storage_manager.obj
 0001:00026f50       ?create_directories@filesystem@std@@YA_NABVpath@12@AAVerror_code@2@@Z 10027f50 f i storage_manager.obj
 0001:00027200       ?_Refresh@file_status@filesystem@std@@QAEXW4__std_win_error@@ABU__std_fs_stats@@@Z 10028200 f i storage_manager.obj
 0001:000272b0       ??0system_error@std@@QAE@Verror_code@1@ABV?$basic_string@DU?$char_traits@D@std@@V?$allocator@D@2@@1@@Z 100282b0 f i storage_manager.obj
 0001:000272e0       ?make_error_code@std@@YA?AVerror_code@1@W4errc@1@@Z 100282e0 f i storage_manager.obj
 0001:000272f0       ?_Throw_system_error@std@@YAXW4errc@1@@Z 100282f0 f i storage_manager.obj
 0001:00027320       ?_Throw_system_error_from_std_win_error@std@@YAXW4__std_win_error@@@Z 10028320 f i storage_manager.obj
 0001:00027360       ??$_Convert_wide_to_narrow_replace_chars@U?$char_traits@D@std@@V?$allocator@D@2@@filesystem@std@@YA?AV?$basic_string@DU?$char_traits@D@std@@V?$allocator@D@2@@1@W4__std_code_page@@V?$basic_string_view@_WU?$char_traits@_W@std@@@1@ABV?$allocator@D@1@@Z 10028360 f i storage_manager.obj
 0001:00027470       ?_Pretty_message@filesystem_error@filesystem@std@@CA?AV?$basic_string@DU?$char_traits@D@std@@V?$allocator@D@2@@3@V?$basic_string_view@DU?$char_traits@D@std@@@3@ABVpath@23@1@Z 10028470 f i storage_manager.obj
 0001:00027740       ??0filesystem_error@filesystem@std@@QAE@ABV?$basic_string@DU?$char_traits@D@std@@V?$allocator@D@2@@2@ABVpath@12@Verror_code@2@@Z 10028740 f i storage_manager.obj
 0001:00027840       ?_Make_ec@std@@YA?AVerror_code@1@W4__std_win_error@@@Z 10028840 f i storage_manager.obj
 0001:00027850       ??1filesystem_error@filesystem@std@@UAE@XZ 10028850 f i storage_manager.obj
 0001:000278d0       ??_Efilesystem_error@filesystem@std@@UAEPAXI@Z 100288d0 f i * CIL library *:* CIL module *
 0001:000278d0       ??_Gfilesystem_error@filesystem@std@@UAEPAXI@Z 100288d0 f i storage_manager.obj
 0001:00027970       ?what@filesystem_error@filesystem@std@@UBEPBDXZ 10028970 f i storage_manager.obj
 0001:00027980       ??0filesystem_error@filesystem@std@@QAE@ABV012@@Z 10028980 f i storage_manager.obj
 0001:00027a30       ?_Throw_fs_error@filesystem@std@@YAXPBDW4__std_win_error@@ABVpath@12@@Z 10028a30 f i storage_manager.obj
 0001:00027ac0       ?status@filesystem@std@@YA?AVfile_status@12@ABVpath@12@@Z 10028ac0 f i storage_manager.obj
 0001:00027b50       ?is_directory@filesystem@std@@YA_NABVpath@12@@Z 10028b50 f i storage_manager.obj
 0001:00027b70       ??0bad_variant_access@std@@QAE@XZ 10028b70 f i storage_manager.obj
 0001:00027b90       ?what@bad_variant_access@std@@UBEPBDXZ 10028b90 f i storage_manager.obj
 0001:00027ba0       ??0bad_variant_access@std@@QAE@ABV01@@Z 10028ba0 f i storage_manager.obj
 0001:00027be0       ?_Throw_bad_variant_access@std@@YAXXZ 10028be0 f i storage_manager.obj
 0001:00027c10       ??$_Emplace_reallocate@$$V@?$vector@V?$basic_string_view@_WU?$char_traits@_W@std@@@std@@V?$allocator@V?$basic_string_view@_WU?$char_traits@_W@std@@@std@@@2@@std@@AAEPAV?$basic_string_view@_WU?$char_traits@_W@std@@@1@QAV21@@Z 10028c10 f i storage_manager.obj
 0001:00027d50       ?_Change_array@?$vector@V?$basic_string_view@_WU?$char_traits@_W@std@@@std@@V?$allocator@V?$basic_string_view@_WU?$char_traits@_W@std@@@std@@@2@@std@@AAEXQAV?$basic_string_view@_WU?$char_traits@_W@std@@@2@II@Z 10028d50 f i storage_manager.obj
 0001:00027dc0       ??$_Emplace_reallocate@AAPB_WI@?$vector@V?$basic_string_view@_WU?$char_traits@_W@std@@@std@@V?$allocator@V?$basic_string_view@_WU?$char_traits@_W@std@@@std@@@2@@std@@AAEPAV?$basic_string_view@_WU?$char_traits@_W@std@@@1@QAV21@AAPB_W$$QAI@Z 10028dc0 f i storage_manager.obj
 0001:00027f00       ?lexically_normal@path@filesystem@std@@QBE?AV123@XZ 10028f00 f i storage_manager.obj
 0001:000283e0       ?StringCchPrintfW@@YAJPA_WIPB_WZZ 100293e0 f i stdafx.obj
 0001:00028460       ?ProcessHeapAlloc@details@wil@@YAPAXKI@Z 10029460 f i stdafx.obj
 0001:00028500       ?create@shared_buffer@details@wil@@QAE_NI@Z 10029500 f i stdafx.obj
 0001:000285b0       ?GetModuleInformation@details@wil@@YG_NPAXPAIPADI@Z 100295b0 f i stdafx.obj
 0001:000286e0       ?GetCurrentModuleName@details@wil@@YGPBDXZ 100296e0 f i stdafx.obj
 0001:00028710       ?DebugBreak@details@wil@@YGXXZ 10029710 f i stdafx.obj
 0001:00028720       ?WilDynamicLoadRaiseFailFastException@details@wil@@YGXPAU_EXCEPTION_RECORD@@PAU_CONTEXT@@K@Z 10029720 f i stdafx.obj
 0001:00028750       ?SetFailureInfo@StoredFailureInfo@wil@@QAEXABUFailureInfo@2@@Z 10029750 f i stdafx.obj
 0001:00028f00       ??0ResultException@wil@@QAE@ABUFailureInfo@1@@Z 10029f00 f i stdafx.obj
 0001:00028f50       ?what@ResultException@wil@@UBEPBDXZ 10029f50 f i stdafx.obj
 0001:00029010       ??_EResultException@wil@@UAEPAXI@Z 1002a010 f i * CIL library *:* CIL module *
 0001:00029010       ??_GResultException@wil@@UAEPAXI@Z 1002a010 f i stdafx.obj
 0001:000290b0       ??1ResultException@wil@@UAE@XZ 1002a0b0 f i stdafx.obj
 0001:00029140       ?Rethrow@details@wil@@YGXXZ 1002a140 f i stdafx.obj
 0001:00029150       ?ThrowResultExceptionInternal@details@wil@@YGXABUFailureInfo@2@@Z 1002a150 f i stdafx.obj
 0001:00029170       ??0ResultException@wil@@QAE@ABV01@@Z 1002a170 f i stdafx.obj
 0001:00029220       ?CreateFromValueInternal@SemaphoreValue@details_abi@wil@@AAEJPB_W_N_K@Z 1002a220 f i stdafx.obj
 0001:000293a0       ?GetValueFromSemaphore@SemaphoreValue@details_abi@wil@@CAJPAXPAJ@Z 1002a3a0 f i stdafx.obj
 0001:00029550       ?TryGetValueInternal@SemaphoreValue@details_abi@wil@@CAJPB_W_NPA_KPA_N@Z 1002a550 f i stdafx.obj
 0001:000296e0       ?Set@ThreadLocalFailureInfo@details_abi@wil@@QAEXABUFailureInfo@3@I@Z 1002a6e0 f i stdafx.obj
 0001:00029980       ??1ThreadLocalData@details_abi@wil@@QAE@XZ 1002a980 f i stdafx.obj
 0001:000299f0       ?GetThreadLocalDataCache@details_abi@wil@@YAPAUThreadLocalData@12@_N@Z 1002a9f0 f i stdafx.obj
 0001:00029ac0       ?SetLastError@wil@@YAXABUFailureInfo@1@@Z 1002aac0 f i stdafx.obj
 0001:00029c70       ?GetThreadContext@ThreadFailureCallbackHolder@details@wil@@SA_NPAUFailureInfo@3@PAV123@PADI@Z 1002ac70 f i stdafx.obj
 0001:00029da0       ?GetContextAndNotifyFailure@details@wil@@YGXPAUFailureInfo@2@PADI@Z 1002ada0 f i stdafx.obj
 0001:00029eb0       ?Acquire@?$ProcessLocalStorageData@UProcessLocalData@details_abi@wil@@@details_abi@wil@@SAJPBDPAPAV123@@Z 1002aeb0 f i stdafx.obj
 0001:0002a060       ?Release@?$ProcessLocalStorageData@UProcessLocalData@details_abi@wil@@@details_abi@wil@@QAEXXZ 1002b060 f i stdafx.obj
 0001:0002a1a0       ?MakeAndInitialize@?$ProcessLocalStorageData@UProcessLocalData@details_abi@wil@@@details_abi@wil@@CAJPB_W$$QAV?$unique_any_t@V?$mutex_t@V?$unique_storage@U?$resource_policy@PAXP6GXPAX@_E$1?CloseHandle@details@wil@@YGX0@ZU?$integral_constant@I$0A@@wistd@@PAXPAX$0A@$$T@details@wil@@@details@wil@@Uerr_returncode_policy@3@@wil@@@3@PAPAV123@@Z 1002b1a0 f i stdafx.obj
 0001:0002a3b0       ??1?$ThreadLocalStorage@UThreadLocalData@details_abi@wil@@@details_abi@wil@@QAE@XZ 1002b3b0 f i stdafx.obj
 0001:0002a410       ?MySysFreeString@@YAXPA_W@Z 1002b410 f   symbol_enum.obj
 0001:0002acf0       ??0SymbolEnum@@QAE@PB_WPAUHINSTANCE__@@0W4UndecorateMode@0@UCallbacks@0@@Z 1002bcf0 f   symbol_enum.obj
 0001:0002af90       ?GetNextSymbol@SymbolEnum@@QAE?AV?$optional@USymbol@SymbolEnum@@@std@@XZ 1002bf90 f   symbol_enum.obj
 0001:0002b460       ?InitModuleInfo@SymbolEnum@@AAEXPAUHINSTANCE__@@@Z 1002c460 f   symbol_enum.obj
 0001:0002b5a0       ?LoadMsdia@SymbolEnum@@AAE?AV?$com_ptr_t@UIDiaDataSource@@Uerr_exception_policy@wil@@@wil@@XZ 1002c5a0 f   symbol_enum.obj
 0001:0002b8b0       ??$_Convert_Source_to_wide@$$BY0BE@_WU_Normal_conversion@filesystem@std@@@filesystem@std@@YA?AV?$basic_string@_WU?$char_traits@_W@std@@V?$allocator@_W@2@@1@AAY0BE@$$CB_WU_Normal_conversion@01@@Z 1002c8b0 f i symbol_enum.obj
 0001:0002b910       ??$_Assign_counted_range@PBU_IMAGE_CHPE_RANGE_ENTRY@SymbolEnum@@@?$vector@U_IMAGE_CHPE_RANGE_ENTRY@SymbolEnum@@V?$allocator@U_IMAGE_CHPE_RANGE_ENTRY@SymbolEnum@@@std@@@std@@AAEXPBU_IMAGE_CHPE_RANGE_ENTRY@SymbolEnum@@I@Z 1002c910 f i symbol_enum.obj
 0001:0002bac0       ?get@?$ThreadLocal@PAUCallbacks@SymbolEnum@@@@ABEPAPAUCallbacks@SymbolEnum@@XZ 1002cac0 f i symbol_enum.obj
 0001:0002bb20       ?_Target_type@?$_Func_impl_no_alloc@U?$default_delete@PAUCallbacks@SymbolEnum@@@std@@XPAPAUCallbacks@SymbolEnum@@@std@@EBEABVtype_info@@XZ 1002cb20 f i symbol_enum.obj
 0001:0002bb30       ?_Do_call@?$_Func_impl_no_alloc@U?$default_delete@PAUCallbacks@SymbolEnum@@@std@@XPAPAUCallbacks@SymbolEnum@@@std@@EAEX$$QAPAPAUCallbacks@SymbolEnum@@@Z 1002cb30 f i symbol_enum.obj
 0001:0002bb50       ?_Copy@?$_Func_impl_no_alloc@U?$default_delete@PAUCallbacks@SymbolEnum@@@std@@XPAPAUCallbacks@SymbolEnum@@@std@@EBEPAV?$_Func_base@XPAPAUCallbacks@SymbolEnum@@@2@PAX@Z 1002cb50 f i symbol_enum.obj
 0001:0002bb50       ?_Move@?$_Func_impl_no_alloc@U?$default_delete@PAUCallbacks@SymbolEnum@@@std@@XPAPAUCallbacks@SymbolEnum@@@std@@EAEPAV?$_Func_base@XPAPAUCallbacks@SymbolEnum@@@2@PAX@Z 1002cb50 f i symbol_enum.obj
 0001:0002bb60       ?_Target_type@?$_Func_impl_no_alloc@V<lambda_5_>@?0???0?$ThreadLocal@PAUCallbacks@SymbolEnum@@@@QAE@XZ@PAPAUCallbacks@SymbolEnum@@$$V@std@@EBEABVtype_info@@XZ 1002cb60 f i symbol_enum.obj
 0001:0002bb70       ?_Do_call@?$_Func_impl_no_alloc@V<lambda_5_>@?0???0?$ThreadLocal@PAUCallbacks@SymbolEnum@@@@QAE@XZ@PAPAUCallbacks@SymbolEnum@@$$V@std@@EAEPAPAUCallbacks@SymbolEnum@@XZ 1002cb70 f i symbol_enum.obj
 0001:0002bb90       ?_Copy@?$_Func_impl_no_alloc@V<lambda_5_>@?0???0?$ThreadLocal@PAUCallbacks@SymbolEnum@@@@QAE@XZ@PAPAUCallbacks@SymbolEnum@@$$V@std@@EBEPAV?$_Func_base@PAPAUCallbacks@SymbolEnum@@$$V@2@PAX@Z 1002cb90 f i symbol_enum.obj
 0001:0002bb90       ?_Move@?$_Func_impl_no_alloc@V<lambda_5_>@?0???0?$ThreadLocal@PAUCallbacks@SymbolEnum@@@@QAE@XZ@PAPAUCallbacks@SymbolEnum@@$$V@std@@EAEPAV?$_Func_base@PAPAUCallbacks@SymbolEnum@@$$V@2@PAX@Z 1002cb90 f i symbol_enum.obj
 0001:0002bba0       ?FindAlertableThread@ThreadPoolInject@@YAPAXPAX@Z 1002cba0 f   thread_pool_inject.obj
 0001:0002cf00       _SlimDetoursCopyInstruction@16 1002df00 f   Disassembler.obj
 0001:0002d0d0       _detour_skip_jmp           1002e0d0 f   Instruction.obj
 0001:0002d150       _detour_is_code_filler     1002e150 f   Instruction.obj
 0001:0002d320       _detour_thread_suspend     1002e320 f   Thread.obj
 0001:0002d5a0       _detour_thread_update      1002e5a0 f   Thread.obj
 0001:0002d700       _detour_writable_trampoline_regions 1002e700 f   Trampoline.obj
 0001:0002d770       _detour_runnable_trampoline_regions 1002e770 f   Trampoline.obj
 0001:0002d990       _detour_alloc_trampoline   1002e990 f   Trampoline.obj
 0001:0002dbb0       _detour_free_unused_trampoline_regions 1002ebb0 f   Trampoline.obj
 0001:0002dc60       _detour_free_trampoline_region_if_unused 1002ec60 f   Trampoline.obj
 0001:0002dcf0       _SlimDetoursTransactionBeginEx@4 1002ecf0 f   Transaction.obj
 0001:0002de90       _SlimDetoursTransactionAbort@0 1002ee90 f   Transaction.obj
 0001:0002dfe0       _SlimDetoursTransactionCommit@0 1002efe0 f   Transaction.obj
 0001:0002e380       _SlimDetoursAttach@8       1002f380 f   Transaction.obj
 0001:0002e650       _SlimDetoursDetachEx@12    1002f650 f   Transaction.obj
 0001:0002e780       _threadscan_thread_suspend 1002f780 f   Thread.obj
 0001:0002e9b0       _ThreadsCallStackWaitForRegions 1002f9b0 f   ThreadsCallStackWaitForRegions.obj
 0001:00032d20       _ZydisDecoderDecodeInstruction 10033d20 f   Zydis.obj
 0001:00032e00       _ZydisDecoderTreeGetChildNode 10033e00 f   Zydis.obj
 0001:00033480       _ZydisStringAppendShortCase 10034480 f i Zydis.obj
 0001:00033540       _ZydisStringAppendDecS     10034540 f i Zydis.obj
 0001:00033670       _ZydisStringAppendHexS     10034670 f i Zydis.obj
 0001:000337b0       _ZydisFormatterATTFormatInstruction 100347b0 f   Zydis.obj
 0001:00033b90       _ZydisFormatterATTFormatOperandMEM 10034b90 f   Zydis.obj
 0001:00033f70       _ZydisFormatterATTPrintMnemonic 10034f70 f   Zydis.obj
 0001:00034240       _ZydisFormatterATTPrintRegister 10035240 f   Zydis.obj
 0001:00034300       _ZydisFormatterATTPrintAddressABS 10035300 f   Zydis.obj
 0001:000343b0       _ZydisFormatterATTPrintDISP 100353b0 f   Zydis.obj
 0001:00034560       _ZydisFormatterATTPrintIMM 10035560 f   Zydis.obj
 0001:000345e0       _ZydisFormatterHelperGetExplicitSize 100355e0 f   Zydis.obj
 0001:00034680       _ZydisFormatterBaseFormatOperandREG 10035680 f   Zydis.obj
 0001:000346b0       _ZydisFormatterBaseFormatOperandPTR 100356b0 f   Zydis.obj
 0001:00034910       _ZydisFormatterBaseFormatOperandIMM 10035910 f   Zydis.obj
 0001:00034970       _ZydisFormatterBasePrintAddressABS 10035970 f   Zydis.obj
 0001:00034ae0       _ZydisFormatterBasePrintAddressREL 10035ae0 f   Zydis.obj
 0001:00034d30       _ZydisFormatterBasePrintIMM 10035d30 f   Zydis.obj
 0001:00034fe0       _ZydisFormatterBasePrintSegment 10035fe0 f   Zydis.obj
 0001:00035120       _ZydisFormatterBasePrintPrefixes 10036120 f   Zydis.obj
 0001:00035e50       _ZydisFormatterBasePrintDecorator 10036e50 f   Zydis.obj
 0001:00036e30       _ZydisFormatterIntelFormatInstruction 10037e30 f   Zydis.obj
 0001:00037210       _ZydisFormatterIntelFormatOperandMEM 10038210 f   Zydis.obj
 0001:00037600       _ZydisFormatterIntelPrintMnemonic 10038600 f   Zydis.obj
 0001:00037790       _ZydisFormatterIntelPrintRegister 10038790 f   Zydis.obj
 0001:000378a0       _ZydisFormatterIntelPrintDISP 100388a0 f   Zydis.obj
 0001:00037be0       _ZydisFormatterIntelPrintTypecast 10038be0 f   Zydis.obj
 0001:000380b0       _ZydisFormatterIntelFormatInstructionMASM 100390b0 f   Zydis.obj
 0001:000380d0       _ZydisFormatterIntelPrintAddressMASM 100390d0 f   Zydis.obj
 0001:00038270       _ZydisGetInstructionDefinition 10039270 f   Zydis.obj
 0001:00038480       _ZydisStringAppendDecU     10039480 f   Zydis.obj
 0001:000387a0       _ZydisStringAppendHexU     100397a0 f   Zydis.obj
 0001:000389c0       _ZydisCalcAbsoluteAddress  100399c0 f   Zydis.obj
 0001:00038b20       ?NoRegCoCreate@@YGJPB_WABU_GUID@@1PAPAX@Z 10039b20 f   diaguids:guidstr.obj
 0001:00038b92       ??0bad_alloc@std@@QAE@XZ   10039b92 f i libcpmt:xthrow.obj
 0001:00038bb0       ??0bad_function_call@std@@QAE@ABV01@@Z 10039bb0 f i libcpmt:xthrow.obj
 0001:00038bcb       ??0bad_function_call@std@@QAE@XZ 10039bcb f i libcpmt:xthrow.obj
 0001:00038be2       ??0length_error@std@@QAE@ABV01@@Z 10039be2 f i libcpmt:xthrow.obj
 0001:00038bfd       ??0length_error@std@@QAE@PBD@Z 10039bfd f i libcpmt:xthrow.obj
 0001:00038c1c       ??0out_of_range@std@@QAE@ABV01@@Z 10039c1c f i libcpmt:xthrow.obj
 0001:00038c37       ??0out_of_range@std@@QAE@PBD@Z 10039c37 f i libcpmt:xthrow.obj
 0001:00038c56       ??_Ebad_exception@std@@UAEPAXI@Z 10039c56 f i libvcruntime:frame.obj
 0001:00038c56       ??_Ebad_function_call@std@@UAEPAXI@Z 10039c56 f i libcpmt:xthrow.obj
 0001:00038c56       ??_Elength_error@std@@UAEPAXI@Z 10039c56 f i libcpmt:xthrow.obj
 0001:00038c56       ??_Eout_of_range@std@@UAEPAXI@Z 10039c56 f i libcpmt:xthrow.obj
 0001:00038c56       ??_Gbad_exception@std@@UAEPAXI@Z 10039c56 f i libvcruntime:frame.obj
 0001:00038c56       ??_Gbad_function_call@std@@UAEPAXI@Z 10039c56 f i libcpmt:xthrow.obj
 0001:00038c56       ??_Glength_error@std@@UAEPAXI@Z 10039c56 f i libcpmt:xthrow.obj
 0001:00038c56       ??_Gout_of_range@std@@UAEPAXI@Z 10039c56 f i libcpmt:xthrow.obj
 0001:00038c83       ?_Xbad_function_call@std@@YAXXZ 10039c83 f   libcpmt:xthrow.obj
 0001:00038ca0       ?_Xinvalid_argument@std@@YAXPBD@Z 10039ca0 f   libcpmt:xthrow.obj
 0001:00038cc0       ?_Xlength_error@std@@YAXPBD@Z 10039cc0 f   libcpmt:xthrow.obj
 0001:00038ce0       ?_Xout_of_range@std@@YAXPBD@Z 10039ce0 f   libcpmt:xthrow.obj
 0001:00038d00       ?what@bad_function_call@std@@UBEPBDXZ 10039d00 f i libcpmt:xthrow.obj
 0001:000399a0       ___std_find_first_of_trivial_pos_2@16 1003a9a0 f   libcpmt:vector_algorithms.obj
 0001:000399c0       ___std_find_last_trivial_2@12 1003a9c0 f   libcpmt:vector_algorithms.obj
 0001:000399d0       ___std_find_trivial_2@12   1003a9d0 f   libcpmt:vector_algorithms.obj
 0001:000399e0       ___std_search_2@16         1003a9e0 f   libcpmt:vector_algorithms.obj
 0001:000399e9       ?_Syserror_map@std@@YAPBDH@Z 1003a9e9 f   libcpmt:syserror.obj
 0001:00039a0e       ?_Winerror_map@std@@YAHH@Z 1003aa0e f   libcpmt:syserror.obj
 0001:00039a30       ___std_get_string_size_without_trailing_whitespace@8 1003aa30 f   libcpmt:syserror_import_lib.obj
 0001:00039a54       ___std_system_error_allocate_message@8 1003aa54 f   libcpmt:syserror_import_lib.obj
 0001:00039ace       ___std_system_error_deallocate_message@4 1003aace f   libcpmt:syserror_import_lib.obj
 0001:00039ad4       ___std_init_once_link_alternate_names_and_abort@0 1003aad4 f   libcpmt:xonce2.obj
 0001:00039ad9       ?_Throw_Cpp_error@std@@YAXH@Z 1003aad9 f   libcpmt:thread0.obj
 0001:00039b0e       __Mtx_lock                 1003ab0e f   libcpmt:mutex.obj
 0001:00039b1f       __Mtx_unlock               1003ab1f f   libcpmt:mutex.obj
 0001:00039c6d       __Thrd_detach              1003ac6d f   libcpmt:cthread.obj
 0001:00039c85       __Thrd_id                  1003ac85 f   libcpmt:cthread.obj
 0001:00039c8b       __Query_perf_counter       1003ac8b f   libcpmt:xtime.obj
 0001:00039ca2       __Query_perf_frequency     1003aca2 f   libcpmt:xtime.obj
 0001:00039ce7       __Timespec64_get_sys       1003ace7 f   libcpmt:xtime.obj
 0001:00039d25       __Xtime_get_ticks          1003ad25 f   libcpmt:xtime.obj
 0001:00039d4c       __Thrd_sleep_for@4         1003ad4c f   libcpmt:sharedmutex.obj
 0001:00039d52       __Cnd_do_broadcast_at_thread_exit 1003ad52 f   libcpmt:xnotify.obj
 0001:00039e16       ___std_fs_close_handle@4   1003ae16 f   libcpmt:filesystem.obj
 0001:00039e36       ___std_fs_code_page@0      1003ae36 f   libcpmt:filesystem.obj
 0001:00039e53       ___std_fs_convert_wide_to_narrow_replace_chars@20 1003ae53 f   libcpmt:filesystem.obj
 0001:00039ec2       ___std_fs_create_directory@4 1003aec2 f   libcpmt:filesystem.obj
 0001:00039f20       ___std_fs_directory_iterator_advance@8 1003af20 f   libcpmt:filesystem.obj
 0001:00039f41       ___std_fs_directory_iterator_close@4 1003af41 f   libcpmt:filesystem.obj
 0001:00039f61       ___std_fs_directory_iterator_open@12 1003af61 f   libcpmt:filesystem.obj
 0001:00039f98       ___std_fs_get_stats@16     1003af98 f   libcpmt:filesystem.obj
 0001:0003a222       ___std_fs_open_handle@16   1003b222 f   libcpmt:filesystem.obj
 0001:0003a256       __Cnd_broadcast            1003b256 f   libcpmt:cond.obj
 0001:0003a29e       ___crtGetSystemTimePreciseAsFileTime 1003b29e f   libcpmt:winapisupp.obj
 0001:0003a2f3       @__security_check_cookie@4 1003b2f3 f   LIBCMT:secchk.obj
 0001:0003a301       ___raise_securityfailure   1003b301 f   LIBCMT:gs_report.obj
 0001:0003a329       ___report_gsfailure        1003b329 f   LIBCMT:gs_report.obj
 0001:0003a424       ___report_rangecheckfailure 1003b424 f   LIBCMT:gs_report.obj
 0001:0003a431       ___report_securityfailure  1003b431 f   LIBCMT:gs_report.obj
 0001:0003a501       ??_Etype_info@@UAEPAXI@Z   1003b501 f i LIBCMT:std_type_info_static.obj
 0001:0003a501       ??_Gtype_info@@UAEPAXI@Z   1003b501 f i LIBCMT:std_type_info_static.obj
 0001:0003a524       ??3@YAXPAXI@Z              1003b524 f   LIBCMT:delete_scalar_size.obj
 0001:0003a532       ??3@YAXPAX@Z               1003b532 f   LIBCMT:delete_scalar.obj
 0001:0003a537       ??2@YAPAXI@Z               1003b537 f   LIBCMT:new_scalar.obj
 0001:0003a567       __Init_thread_abort        1003b567 f   LIBCMT:thread_safe_statics.obj
 0001:0003a595       __Init_thread_footer       1003b595 f   LIBCMT:thread_safe_statics.obj
 0001:0003a5e6       __Init_thread_header       1003b5e6 f   LIBCMT:thread_safe_statics.obj
 0001:0003a638       __Init_thread_wait_v2      1003b638 f   LIBCMT:thread_safe_statics.obj
 0001:0003a64d       ??_V@YAXPAX@Z              1003b64d f   LIBCMT:delete_array.obj
 0001:0003a652       ??_U@YAPAXI@Z              1003b652 f   LIBCMT:new_array.obj
 0001:0003a69d       ___scrt_acquire_startup_lock 1003b69d f   LIBCMT:utility.obj
 0001:0003a6cf       ___scrt_dllmain_after_initialize_c 1003b6cf f   LIBCMT:utility.obj
 0001:0003a6fa       ___scrt_dllmain_before_initialize_c 1003b6fa f   LIBCMT:utility.obj
 0001:0003a708       ___scrt_dllmain_crt_thread_attach 1003b708 f   LIBCMT:utility.obj
 0001:0003a727       ___scrt_dllmain_crt_thread_detach 1003b727 f   LIBCMT:utility.obj
 0001:0003a734       ___scrt_dllmain_exception_filter 1003b734 f   LIBCMT:utility.obj
 0001:0003a768       ___scrt_dllmain_uninitialize_c 1003b768 f   LIBCMT:utility.obj
 0001:0003a78b       ___scrt_dllmain_uninitialize_critical 1003b78b f   LIBCMT:utility.obj
 0001:0003a798       ___scrt_initialize_crt     1003b798 f   LIBCMT:utility.obj
 0001:0003a7d1       ___scrt_initialize_onexit_tables 1003b7d1 f   LIBCMT:utility.obj
 0001:0003a858       ___scrt_is_nonwritable_in_current_image 1003b858 f   LIBCMT:utility.obj
 0001:0003a8ef       ___scrt_release_startup_lock 1003b8ef f   LIBCMT:utility.obj
 0001:0003a90c       ___scrt_uninitialize_crt   1003b90c f   LIBCMT:utility.obj
 0001:0003a934       __onexit                   1003b934 f   LIBCMT:utility.obj
 0001:0003a962       _atexit                    1003b962 f   LIBCMT:utility.obj
 0001:0003a977       ??_M@YGXPAXIIP6EX0@Z@Z     1003b977 f   LIBCMT:ehvecdtr.obj
 0001:0003a9ff       ?__ArrayUnwind@@YGXPAXIIP6EX0@Z@Z 1003b9ff f   LIBCMT:ehvecdtr.obj
 0001:0003addc       __DllMainCRTStartup@12     1003bddc f   LIBCMT:dll_dllmain.obj
 0001:0003adff       ___isa_available_init      1003bdff f   LIBCMT:cpu_disp.obj
 0001:0003b119       __EH_epilog3               1003c119 f   LIBCMT:ehprolg3.obj
 0001:0003b12d       __EH_prolog3               1003c12d f   LIBCMT:ehprolg3.obj
 0001:0003b160       __EH_prolog3_catch         1003c160 f   LIBCMT:ehprolg3.obj
 0001:0003b1a0       __aulldiv                  1003c1a0 f   LIBCMT:ulldiv.obj
 0001:0003b210       __aullrem                  1003c210 f   LIBCMT:ullrem.obj
 0001:0003b285       ?__scrt_throw_std_bad_alloc@@YAXXZ 1003c285 f   LIBCMT:throw_bad_alloc.obj
 0001:0003b2a2       __get_startup_argv_mode    1003c2a2 f   LIBCMT:argv_mode.obj
 0001:0003b2a6       ___scrt_is_ucrt_dll_in_use 1003c2a6 f   LIBCMT:ucrt_detection.obj
 0001:0003b2b2       ___scrt_fastfail           1003c2b2 f   LIBCMT:utility_desktop.obj
 0001:0003b3c7       __crt_debugger_hook        1003c3c7 f   LIBCMT:utility_desktop.obj
 0001:0003b3e0       __SEH_prolog4              1003c3e0 f   LIBCMT:sehprolg4.obj
 0001:0003b472       ___security_init_cookie    1003c472 f   LIBCMT:gs_support.obj
 0001:0003b4bd       ?__scrt_initialize_type_info@@YAXXZ 1003c4bd f   LIBCMT:tncleanup.obj
 0001:0003b4c9       ?__scrt_uninitialize_type_info@@YAXXZ 1003c4c9 f   LIBCMT:tncleanup.obj
 0001:0003b4d5       ___local_stdio_scanf_options 1003c4d5 f i LIBCMT:default_local_stdio_options.obj
 0001:0003b4db       ___scrt_initialize_default_local_stdio_options 1003c4db f   LIBCMT:default_local_stdio_options.obj
 0001:0003b4f8       ___scrt_get_dyn_tls_init_callback 1003c4f8 f   LIBCMT:dyn_tls_init.obj
 0001:0003b4fe       __RTC_Initialize           1003c4fe f   LIBCMT:initsect.obj
 0001:0003b52a       __RTC_Terminate            1003c52a f   LIBCMT:initsect.obj
 0001:0003b556       ?GetRangeOfTrysToCheck@__FrameHandler3@@SA?AU?$pair@Viterator@TryBlockMap@__FrameHandler3@@V123@@std@@AAVTryBlockMap@1@HPAXPBU_s_FuncInfo@@H@Z 1003c556 f   libvcruntime:trnsctrl.obj
 0001:0003b5c5       ?_CallCatchBlock2@@YAPAXPAUEHRegistrationNode@@PBU_s_FuncInfo@@PAXHK@Z 1003c5c5 f   libvcruntime:trnsctrl.obj
 0001:0003b625       ?_CallSETranslator@@YAHPAUEHExceptionRecord@@PAUEHRegistrationNode@@PAX2PBU_s_FuncInfo@@H1@Z 1003c625 f   libvcruntime:trnsctrl.obj
 0001:0003b724       ?_JumpToContinuation@@YGXPAXPAUEHRegistrationNode@@@Z 1003c724 f   libvcruntime:trnsctrl.obj
 0001:0003b754       ?_UnwindNestedFrames@@YGXPAUEHRegistrationNode@@PAUEHExceptionRecord@@@Z 1003c754 f   libvcruntime:trnsctrl.obj
 0001:0003b7a8       __CatchGuardHandler        1003c7a8 f   libvcruntime:trnsctrl.obj
 0001:0003b7d9       __CreateFrameInfo          1003c7d9 f   libvcruntime:trnsctrl.obj
 0001:0003b7fd       __FindAndUnlinkFrame       1003c7fd f   libvcruntime:trnsctrl.obj
 0001:0003b845       __TranslatorGuardHandler   1003c845 f   libvcruntime:trnsctrl.obj
 0001:0003b8e4       ___CxxFrameHandler3        1003c8e4 f   libvcruntime:trnsctrl.obj
 0001:0003b91a       ___DestructExceptionObject 1003c91a f   libvcruntime:ehhelpers.obj
 0001:0003b9c2       ?_CallMemberFunction0@@YGXQAX0@Z 1003c9c2 f i libvcruntime:ehhelpers.obj
 0001:0003ba27       __IsExceptionObjectToBeDestroyed 1003ca27 f   libvcruntime:ehhelpers.obj
 0001:0003ba4d       ___AdjustPointer           1003ca4d f   libvcruntime:ehhelpers.obj
 0001:0003ba72       ___FrameUnwindFilter       1003ca72 f   libvcruntime:ehhelpers.obj
 0001:0003bac8       ___current_exception       1003cac8 f   libvcruntime:ehhelpers.obj
 0001:0003bad1       ___current_exception_context 1003cad1 f   libvcruntime:ehhelpers.obj
 0001:0003bada       ___std_terminate           1003cada f   libvcruntime:ehhelpers.obj
 0001:0003badf       ___std_exception_copy      1003cadf f   libvcruntime:std_exception.obj
 0001:0003bb42       ___std_exception_destroy   1003cb42 f   libvcruntime:std_exception.obj
 0001:0003bb64       __get_purecall_handler     1003cb64 f   libvcruntime:purevirt.obj
 0001:0003bb6b       __purecall                 1003cb6b f   libvcruntime:purevirt.obj
 0001:0003bbd0       __except_handler4          1003cbd0 f   libvcruntime:chandler4.obj
 0001:0003bd2e       _wcsstr                    1003cd2e f   libvcruntime:wcsstr.obj
 0001:0003bfc0       _memset                    1003cfc0 f   libvcruntime:memset.obj
 0001:0003c11a       __CxxThrowException@8      1003d11a f   libvcruntime:throw.obj
 0001:0003c190       _memcpy                    1003d190 f   libvcruntime:memcpy.obj
 0001:0003c190       _memmove                   1003d190 f   libvcruntime:memmove.obj
 0001:0003c710       ___vcrt_initialize         1003d710 f   libvcruntime:initialization.obj
 0001:0003c72f       ___vcrt_thread_attach      1003d72f f   libvcruntime:initialization.obj
 0001:0003c73a       ___vcrt_thread_detach      1003d73a f   libvcruntime:initialization.obj
 0001:0003c742       ___vcrt_uninitialize       1003d742 f   libvcruntime:initialization.obj
 0001:0003c759       ___vcrt_uninitialize_critical 1003d759 f   libvcruntime:initialization.obj
 0001:0003c761       ___std_type_info_compare   1003d761 f   libvcruntime:std_type_info.obj
 0001:0003c79d       ___std_type_info_destroy_list 1003d79d f   libvcruntime:std_type_info.obj
 0001:0003c7c0       ___vcrt_freefls@4          1003d7c0 f   libvcruntime:per_thread_data.obj
 0001:0003c7dc       ___vcrt_freeptd_for_this_thread 1003d7dc f   libvcruntime:per_thread_data.obj
 0001:0003c807       ___vcrt_getptd             1003d807 f   libvcruntime:per_thread_data.obj
 0001:0003c815       ___vcrt_getptd_noexit      1003d815 f   libvcruntime:per_thread_data.obj
 0001:0003c8a7       ___vcrt_initialize_ptd     1003d8a7 f   libvcruntime:per_thread_data.obj
 0001:0003c8da       ___vcrt_uninitialize_ptd   1003d8da f   libvcruntime:per_thread_data.obj
 0001:0003d02c       ??$TypeMatchHelper@V__FrameHandler3@@@@YAHPBU_s_HandlerType@@PBU_s_CatchableType@@PBU_s_ThrowInfo@@@Z 1003e02c f i libvcruntime:frame.obj
 0001:0003d0ba       ??$__InternalCxxFrameHandler@V__FrameHandler3@@@@YA?AW4_EXCEPTION_DISPOSITION@@PAUEHExceptionRecord@@PAUEHRegistrationNode@@PAU_CONTEXT@@PAXPBU_s_FuncInfo@@H1E@Z 1003e0ba f i libvcruntime:frame.obj
 0001:0003d1bc       ??$__InternalCxxFrameHandlerWrapper@V__FrameHandler3@@@@YA?AW4_EXCEPTION_DISPOSITION@@PAUEHExceptionRecord@@PAUEHRegistrationNode@@PAU_CONTEXT@@PAXPBU_s_FuncInfo@@H1E@Z 1003e1bc f i libvcruntime:frame.obj
 0001:0003d1c5       ??0bad_exception@std@@QAE@ABV01@@Z 1003e1c5 f i libvcruntime:frame.obj
 0001:0003d1e0       ??0bad_exception@std@@QAE@XZ 1003e1e0 f i libvcruntime:frame.obj
 0001:0003d1fe       ??8type_info@@QBE_NABV0@@Z 1003e1fe f i libvcruntime:frame.obj
 0001:0003d478       ?FrameUnwindToEmptyState@__FrameHandler3@@SAXPAUEHRegistrationNode@@PAXPBU_s_FuncInfo@@@Z 1003e478 f   libvcruntime:frame.obj
 0001:0003d490       ?FrameUnwindToState@__FrameHandler3@@SAXPAUEHRegistrationNode@@PAXPBU_s_FuncInfo@@H@Z 1003e490 f   libvcruntime:frame.obj
 0001:0003d618       ?_CallMemberFunction1@@YGXQAX00@Z 1003e618 f i libvcruntime:frame.obj
 0001:0003d628       ?_CallMemberFunction2@@YGXQAX00H@Z 1003e628 f i libvcruntime:frame.obj
 0001:0003d63b       ?getESTypes@__FrameHandler3@@SAPBU_s_ESTypeList@@PBU_s_FuncInfo@@@Z 1003e63b f i libvcruntime:frame.obj
 0001:0003d650       __CallSettingFrame@12      1003e650 f   libvcruntime:lowhelpr.obj
 0001:0003d677       __NLG_Return               1003e677     libvcruntime:lowhelpr.obj
 0001:0003d69c       ___except_validate_context_record 1003e69c f   libvcruntime:jbcxrval.obj
 0001:0003d6d0       __local_unwind4            1003e6d0 f   libvcruntime:exsup4.obj
 0001:0003d7c0       @_EH4_CallFilterFunc@8     1003e7c0 f   libvcruntime:exsup4.obj
 0001:0003d7e0       @_EH4_TransferToHandler@8  1003e7e0 f   libvcruntime:exsup4.obj
 0001:0003d800       @_EH4_GlobalUnwind2@8      1003e800 f   libvcruntime:exsup4.obj
 0001:0003d820       @_EH4_LocalUnwind@16       1003e820 f   libvcruntime:exsup4.obj
 0001:0003d837       ___vcrt_initialize_locks   1003e837 f   libvcruntime:locks.obj
 0001:0003d873       ___vcrt_uninitialize_locks 1003e873 f   libvcruntime:locks.obj
 0001:0003d98d       ___vcrt_FlsAlloc           1003e98d f   libvcruntime:winapi_downlevel.obj
 0001:0003d9c8       ___vcrt_FlsFree            1003e9c8 f   libvcruntime:winapi_downlevel.obj
 0001:0003da03       ___vcrt_FlsGetValue        1003ea03 f   libvcruntime:winapi_downlevel.obj
 0001:0003da3e       ___vcrt_FlsSetValue        1003ea3e f   libvcruntime:winapi_downlevel.obj
 0001:0003da7c       ___vcrt_InitializeCriticalSectionEx 1003ea7c f   libvcruntime:winapi_downlevel.obj
 0001:0003dac3       _unexpected                1003eac3 f   libvcruntime:unexpected.obj
 0001:0003dae0       ?GetCurrentState@__FrameHandler3@@SAHPAUEHRegistrationNode@@PAXPBU_s_FuncInfo@@@Z 1003eae0 f   libvcruntime:ehstate.obj
 0001:0003dafd       ?SetState@__FrameHandler3@@SAXPAUEHRegistrationNode@@PBU_s_FuncInfo@@H@Z 1003eafd f   libvcruntime:ehstate.obj
 0001:0003db10       __NLG_Notify1              1003eb10 f   libvcruntime:exsup.obj
 0001:0003db20       __NLG_Notify               1003eb20 f   libvcruntime:exsup.obj
 0001:0003db37       __NLG_Dispatch             1003eb37     libvcruntime:exsup.obj
 0001:0003db37       __NLG_Dispatch2            1003eb37     libvcruntime:exsup.obj
 0001:0003db40       __NLG_Call                 1003eb40 f   libvcruntime:exsup.obj
 0001:0003db42       __NLG_Return2              1003eb42     libvcruntime:exsup.obj
 0001:0003dff5       ??$count@D@formatting_buffer@__crt_stdio_output@@QBEIXZ 1003eff5 f i libucrt:output.obj
 0001:0003e00d       ??$count@_W@formatting_buffer@__crt_stdio_output@@QBEIXZ 1003f00d f i libucrt:output.obj
 0001:0003e026       ??$ensure_buffer_is_big_enough@D@formatting_buffer@__crt_stdio_output@@QAE_NIAAV__crt_cached_ptd_host@@@Z 1003f026 f i libucrt:output.obj
 0001:0003e0a6       ??$ensure_buffer_is_big_enough@_W@formatting_buffer@__crt_stdio_output@@QAE_NIAAV__crt_cached_ptd_host@@@Z 1003f0a6 f i libucrt:output.obj
 0001:0003e127       ??$is_overflow_condition@K@__crt_strtox@@YA_NIK@Z 1003f127 f i libucrt:output.obj
 0001:0003e15b       ??$is_wide_character_specifier@_W@__crt_stdio_output@@YA_N_K_WW4length_modifier@0@@Z 1003f15b f i libucrt:output.obj
 0001:0003e1a9       ??$make_c_string_character_source@_WPAPA_W@__crt_strtox@@YA?AV?$c_string_character_source@_W@0@QB_WQAPA_W@Z 1003f1a9 f i libucrt:output.obj
 0001:0003e1c4       ??$parse_integer@KV?$c_string_character_source@_W@__crt_strtox@@$0A@@__crt_strtox@@YAKAAV__crt_cached_ptd_host@@V?$c_string_character_source@_W@0@H_N@Z 1003f1c4 f i libucrt:output.obj
 0001:0003e7a8       ??$scratch_data@D@formatting_buffer@__crt_stdio_output@@QAEPADXZ 1003f7a8 f i libucrt:output.obj
 0001:0003e7c6       ??$type_case_integer@$07@?$output_processor@_WV?$string_output_adapter@_W@__crt_stdio_output@@V?$format_validation_base@_WV?$string_output_adapter@_W@__crt_stdio_output@@@2@@__crt_stdio_output@@AAE_N_N@Z 1003f7c6 f i libucrt:output.obj
 0001:0003e7c6       ??$type_case_integer@$07@?$output_processor@_WV?$string_output_adapter@_W@__crt_stdio_output@@V?$standard_base@_WV?$string_output_adapter@_W@__crt_stdio_output@@@2@@__crt_stdio_output@@AAE_N_N@Z 1003f7c6 f i libucrt:output.obj
 0001:0003e958       ??$type_case_integer@$09@?$output_processor@_WV?$string_output_adapter@_W@__crt_stdio_output@@V?$format_validation_base@_WV?$string_output_adapter@_W@__crt_stdio_output@@@2@@__crt_stdio_output@@AAE_N_N@Z 1003f958 f i libucrt:output.obj
 0001:0003e958       ??$type_case_integer@$09@?$output_processor@_WV?$string_output_adapter@_W@__crt_stdio_output@@V?$standard_base@_WV?$string_output_adapter@_W@__crt_stdio_output@@@2@@__crt_stdio_output@@AAE_N_N@Z 1003f958 f i libucrt:output.obj
 0001:0003eaea       ??$type_case_integer@$0BA@@?$output_processor@_WV?$string_output_adapter@_W@__crt_stdio_output@@V?$format_validation_base@_WV?$string_output_adapter@_W@__crt_stdio_output@@@2@@__crt_stdio_output@@AAE_N_N@Z 1003faea f i libucrt:output.obj
 0001:0003eaea       ??$type_case_integer@$0BA@@?$output_processor@_WV?$string_output_adapter@_W@__crt_stdio_output@@V?$standard_base@_WV?$string_output_adapter@_W@__crt_stdio_output@@@2@@__crt_stdio_output@@AAE_N_N@Z 1003faea f i libucrt:output.obj
 0001:0003ec7c       ??$type_case_integer_parse_into_buffer@I$07@?$output_processor@_WV?$string_output_adapter@_W@__crt_stdio_output@@V?$format_validation_base@_WV?$string_output_adapter@_W@__crt_stdio_output@@@2@@__crt_stdio_output@@AAEXI_N@Z 1003fc7c f i libucrt:output.obj
 0001:0003ec7c       ??$type_case_integer_parse_into_buffer@I$07@?$output_processor@_WV?$string_output_adapter@_W@__crt_stdio_output@@V?$standard_base@_WV?$string_output_adapter@_W@__crt_stdio_output@@@2@@__crt_stdio_output@@AAEXI_N@Z 1003fc7c f i libucrt:output.obj
 0001:0003eced       ??$type_case_integer_parse_into_buffer@I$09@?$output_processor@_WV?$string_output_adapter@_W@__crt_stdio_output@@V?$format_validation_base@_WV?$string_output_adapter@_W@__crt_stdio_output@@@2@@__crt_stdio_output@@AAEXI_N@Z 1003fced f i libucrt:output.obj
 0001:0003eced       ??$type_case_integer_parse_into_buffer@I$09@?$output_processor@_WV?$string_output_adapter@_W@__crt_stdio_output@@V?$standard_base@_WV?$string_output_adapter@_W@__crt_stdio_output@@@2@@__crt_stdio_output@@AAEXI_N@Z 1003fced f i libucrt:output.obj
 0001:0003ed82       ??$type_case_integer_parse_into_buffer@I$0BA@@?$output_processor@_WV?$string_output_adapter@_W@__crt_stdio_output@@V?$format_validation_base@_WV?$string_output_adapter@_W@__crt_stdio_output@@@2@@__crt_stdio_output@@AAEXI_N@Z 1003fd82 f i libucrt:output.obj
 0001:0003ed82       ??$type_case_integer_parse_into_buffer@I$0BA@@?$output_processor@_WV?$string_output_adapter@_W@__crt_stdio_output@@V?$standard_base@_WV?$string_output_adapter@_W@__crt_stdio_output@@@2@@__crt_stdio_output@@AAEXI_N@Z 1003fd82 f i libucrt:output.obj
 0001:0003ee0d       ??$type_case_integer_parse_into_buffer@_K$07@?$output_processor@_WV?$string_output_adapter@_W@__crt_stdio_output@@V?$format_validation_base@_WV?$string_output_adapter@_W@__crt_stdio_output@@@2@@__crt_stdio_output@@AAEX_K_N@Z 1003fe0d f i libucrt:output.obj
 0001:0003ee0d       ??$type_case_integer_parse_into_buffer@_K$07@?$output_processor@_WV?$string_output_adapter@_W@__crt_stdio_output@@V?$standard_base@_WV?$string_output_adapter@_W@__crt_stdio_output@@@2@@__crt_stdio_output@@AAEX_K_N@Z 1003fe0d f i libucrt:output.obj
 0001:0003ee8d       ??$type_case_integer_parse_into_buffer@_K$09@?$output_processor@_WV?$string_output_adapter@_W@__crt_stdio_output@@V?$format_validation_base@_WV?$string_output_adapter@_W@__crt_stdio_output@@@2@@__crt_stdio_output@@AAEX_K_N@Z 1003fe8d f i libucrt:output.obj
 0001:0003ee8d       ??$type_case_integer_parse_into_buffer@_K$09@?$output_processor@_WV?$string_output_adapter@_W@__crt_stdio_output@@V?$standard_base@_WV?$string_output_adapter@_W@__crt_stdio_output@@@2@@__crt_stdio_output@@AAEX_K_N@Z 1003fe8d f i libucrt:output.obj
 0001:0003ef32       ??$type_case_integer_parse_into_buffer@_K$0BA@@?$output_processor@_WV?$string_output_adapter@_W@__crt_stdio_output@@V?$format_validation_base@_WV?$string_output_adapter@_W@__crt_stdio_output@@@2@@__crt_stdio_output@@AAEX_K_N@Z 1003ff32 f i libucrt:output.obj
 0001:0003ef32       ??$type_case_integer_parse_into_buffer@_K$0BA@@?$output_processor@_WV?$string_output_adapter@_W@__crt_stdio_output@@V?$standard_base@_WV?$string_output_adapter@_W@__crt_stdio_output@@@2@@__crt_stdio_output@@AAEX_K_N@Z 1003ff32 f i libucrt:output.obj
 0001:0003efc4       ??0?$output_adapter_data@_WV?$string_output_adapter@_W@__crt_stdio_output@@@__crt_stdio_output@@IAE@ABV?$string_output_adapter@_W@1@_KQB_WAAV__crt_cached_ptd_host@@QAD@Z 1003ffc4 f i libucrt:output.obj
 0001:0003f030       ??0__crt_cached_ptd_host@@QAE@QAU__crt_locale_pointers@@@Z 10040030 f i libucrt:output.obj
 0001:0003f090       ??1__crt_cached_ptd_host@@QAE@XZ 10040090 f i libucrt:output.obj
 0001:0003f0cc       ??1formatting_buffer@__crt_stdio_output@@QAE@XZ 100400cc f i libucrt:output.obj
 0001:0003f0e6       ??4?$__crt_unique_heap_ptr@DU__crt_internal_free_policy@@@@QAEAAV0@$$QAV0@@Z 100400e6 f i libucrt:output.obj
 0001:0003f10a       ?crop_zeroes@__crt_stdio_output@@YAXPADQAU__crt_locale_pointers@@@Z 1004010a f i libucrt:output.obj
 0001:0003f174       ?find_next_state@?$output_processor@_WV?$string_output_adapter@_W@__crt_stdio_output@@V?$format_validation_base@_WV?$string_output_adapter@_W@__crt_stdio_output@@@2@@__crt_stdio_output@@ABE?AW4state@2@_WW432@@Z 10040174 f i libucrt:output.obj
 0001:0003f1b0       ?find_next_state@?$output_processor@_WV?$string_output_adapter@_W@__crt_stdio_output@@V?$standard_base@_WV?$string_output_adapter@_W@__crt_stdio_output@@@2@@__crt_stdio_output@@ABE?AW4state@2@_WW432@@Z 100401b0 f i libucrt:output.obj
 0001:0003f1ea       ?force_decimal_point@__crt_stdio_output@@YAXPADQAU__crt_locale_pointers@@@Z 100401ea f i libucrt:output.obj
 0001:0003f250       ?force_synchronize_per_thread_data@__crt_cached_ptd_host@@AAEPAU__acrt_ptd@@XZ 10040250 f i libucrt:output.obj
 0001:0003f2a0       ?get_raw_ptd@__crt_cached_ptd_host@@QAEPAU__acrt_ptd@@XZ 100402a0 f i libucrt:output.obj
 0001:0003f2fc       ?parse_int_from_format_string@?$output_processor@_WV?$string_output_adapter@_W@__crt_stdio_output@@V?$format_validation_base@_WV?$string_output_adapter@_W@__crt_stdio_output@@@2@@__crt_stdio_output@@AAE_NQAH@Z 100402fc f i libucrt:output.obj
 0001:0003f2fc       ?parse_int_from_format_string@?$output_processor@_WV?$string_output_adapter@_W@__crt_stdio_output@@V?$standard_base@_WV?$string_output_adapter@_W@__crt_stdio_output@@@2@@__crt_stdio_output@@AAE_NQAH@Z 100402fc f i libucrt:output.obj
 0001:0003f376       ?process@?$output_processor@_WV?$string_output_adapter@_W@__crt_stdio_output@@V?$format_validation_base@_WV?$string_output_adapter@_W@__crt_stdio_output@@@2@@__crt_stdio_output@@QAEHXZ 10040376 f i libucrt:output.obj
 0001:0003f5ce       ?process@?$output_processor@_WV?$string_output_adapter@_W@__crt_stdio_output@@V?$standard_base@_WV?$string_output_adapter@_W@__crt_stdio_output@@@2@@__crt_stdio_output@@QAEHXZ 100405ce f i libucrt:output.obj
 0001:0003f80a       ?state_case_size@?$output_processor@_WV?$string_output_adapter@_W@__crt_stdio_output@@V?$format_validation_base@_WV?$string_output_adapter@_W@__crt_stdio_output@@@2@@__crt_stdio_output@@AAE_NXZ 1004080a f i libucrt:output.obj
 0001:0003f80a       ?state_case_size@?$output_processor@_WV?$string_output_adapter@_W@__crt_stdio_output@@V?$standard_base@_WV?$string_output_adapter@_W@__crt_stdio_output@@@2@@__crt_stdio_output@@AAE_NXZ 1004080a f i libucrt:output.obj
 0001:0003f994       ?state_case_type@?$output_processor@_WV?$string_output_adapter@_W@__crt_stdio_output@@V?$format_validation_base@_WV?$string_output_adapter@_W@__crt_stdio_output@@@2@@__crt_stdio_output@@AAE_NXZ 10040994 f i libucrt:output.obj
 0001:0003f994       ?state_case_type@?$output_processor@_WV?$string_output_adapter@_W@__crt_stdio_output@@V?$standard_base@_WV?$string_output_adapter@_W@__crt_stdio_output@@@2@@__crt_stdio_output@@AAE_NXZ 10040994 f i libucrt:output.obj
 0001:0003feaa       ?to_integer_size@__crt_stdio_output@@YAIW4length_modifier@1@@Z 10040eaa f i libucrt:output.obj
 0001:0003fefe       ?type_case_Z@?$output_processor@_WV?$string_output_adapter@_W@__crt_stdio_output@@V?$format_validation_base@_WV?$string_output_adapter@_W@__crt_stdio_output@@@2@@__crt_stdio_output@@AAE_NXZ 10040efe f i libucrt:output.obj
 0001:0003fefe       ?type_case_Z@?$output_processor@_WV?$string_output_adapter@_W@__crt_stdio_output@@V?$standard_base@_WV?$string_output_adapter@_W@__crt_stdio_output@@@2@@__crt_stdio_output@@AAE_NXZ 10040efe f i libucrt:output.obj
 0001:0003ff72       ?type_case_a@?$output_processor@_WV?$string_output_adapter@_W@__crt_stdio_output@@V?$format_validation_base@_WV?$string_output_adapter@_W@__crt_stdio_output@@@2@@__crt_stdio_output@@AAE_NXZ 10040f72 f i libucrt:output.obj
 0001:0003ff72       ?type_case_a@?$output_processor@_WV?$string_output_adapter@_W@__crt_stdio_output@@V?$standard_base@_WV?$string_output_adapter@_W@__crt_stdio_output@@@2@@__crt_stdio_output@@AAE_NXZ 10040f72 f i libucrt:output.obj
 0001:0004013f       ?type_case_c_tchar@?$output_processor@_WV?$string_output_adapter@_W@__crt_stdio_output@@V?$format_validation_base@_WV?$string_output_adapter@_W@__crt_stdio_output@@@2@@__crt_stdio_output@@AAE_N_W@Z 1004113f f i libucrt:output.obj
 0001:0004013f       ?type_case_c_tchar@?$output_processor@_WV?$string_output_adapter@_W@__crt_stdio_output@@V?$standard_base@_WV?$string_output_adapter@_W@__crt_stdio_output@@@2@@__crt_stdio_output@@AAE_N_W@Z 1004113f f i libucrt:output.obj
 0001:000401e4       ?type_case_n@?$output_processor@_WV?$string_output_adapter@_W@__crt_stdio_output@@V?$format_validation_base@_WV?$string_output_adapter@_W@__crt_stdio_output@@@2@@__crt_stdio_output@@AAE_NXZ 100411e4 f i libucrt:output.obj
 0001:000401e4       ?type_case_n@?$output_processor@_WV?$string_output_adapter@_W@__crt_stdio_output@@V?$standard_base@_WV?$string_output_adapter@_W@__crt_stdio_output@@@2@@__crt_stdio_output@@AAE_NXZ 100411e4 f i libucrt:output.obj
 0001:00040269       ?type_case_o@?$output_processor@_WV?$string_output_adapter@_W@__crt_stdio_output@@V?$format_validation_base@_WV?$string_output_adapter@_W@__crt_stdio_output@@@2@@__crt_stdio_output@@AAE_NXZ 10041269 f i libucrt:output.obj
 0001:00040269       ?type_case_o@?$output_processor@_WV?$string_output_adapter@_W@__crt_stdio_output@@V?$standard_base@_WV?$string_output_adapter@_W@__crt_stdio_output@@@2@@__crt_stdio_output@@AAE_NXZ 10041269 f i libucrt:output.obj
 0001:00040286       ?type_case_p@?$output_processor@_WV?$string_output_adapter@_W@__crt_stdio_output@@V?$format_validation_base@_WV?$string_output_adapter@_W@__crt_stdio_output@@@2@@__crt_stdio_output@@AAE_NXZ 10041286 f i libucrt:output.obj
 0001:00040286       ?type_case_p@?$output_processor@_WV?$string_output_adapter@_W@__crt_stdio_output@@V?$standard_base@_WV?$string_output_adapter@_W@__crt_stdio_output@@@2@@__crt_stdio_output@@AAE_NXZ 10041286 f i libucrt:output.obj
 0001:0004029c       ?type_case_s@?$output_processor@_WV?$string_output_adapter@_W@__crt_stdio_output@@V?$format_validation_base@_WV?$string_output_adapter@_W@__crt_stdio_output@@@2@@__crt_stdio_output@@AAE_NXZ 1004129c f i libucrt:output.obj
 0001:0004029c       ?type_case_s@?$output_processor@_WV?$string_output_adapter@_W@__crt_stdio_output@@V?$standard_base@_WV?$string_output_adapter@_W@__crt_stdio_output@@@2@@__crt_stdio_output@@AAE_NXZ 1004129c f i libucrt:output.obj
 0001:00040311       ?type_case_s_compute_narrow_string_length@?$output_processor@_WV?$string_output_adapter@_W@__crt_stdio_output@@V?$format_validation_base@_WV?$string_output_adapter@_W@__crt_stdio_output@@@2@@__crt_stdio_output@@AAEHH_W@Z 10041311 f i libucrt:output.obj
 0001:00040311       ?type_case_s_compute_narrow_string_length@?$output_processor@_WV?$string_output_adapter@_W@__crt_stdio_output@@V?$standard_base@_WV?$string_output_adapter@_W@__crt_stdio_output@@@2@@__crt_stdio_output@@AAEHH_W@Z 10041311 f i libucrt:output.obj
 0001:000403d7       ?unget@?$c_string_character_source@_W@__crt_strtox@@QAEX_W@Z 100413d7 f i libucrt:output.obj
 0001:00040410       ?update_locale_slow@__crt_cached_ptd_host@@AAEXXZ 10041410 f i libucrt:output.obj
 0001:0004046b       ?validate@?$c_string_character_source@_W@__crt_strtox@@QBE_NXZ 1004146b f i libucrt:output.obj
 0001:00040486       ?validate@?$string_output_adapter@_W@__crt_stdio_output@@QBE_NAAV__crt_cached_ptd_host@@@Z 10041486 f i libucrt:output.obj
 0001:000404b7       ?write_string@?$string_output_adapter@_W@__crt_stdio_output@@QBEXQB_WHQAHAAV__crt_cached_ptd_host@@@Z 100414b7 f i libucrt:output.obj
 0001:00040530       ___acrt_locale_get_ctype_array_value 10041530 f i libucrt:output.obj
 0001:00040552       ___stdio_common_vsnwprintf_s 10041552 f   libucrt:output.obj
 0001:00040596       ___stdio_common_vswprintf  10041596 f   libucrt:output.obj
 0001:000405d7       ___stdio_common_vswprintf_s 100415d7 f   libucrt:output.obj
 0001:00040618       ?check_synchronize_global_state_index@__crt_cached_ptd_host@@AAEIXZ 10041618 f i libucrt:invalid_parameter.obj
 0001:00040641       ___acrt_call_reportfault   10041641 f   libucrt:invalid_parameter.obj
 0001:0004077a       ___acrt_initialize_invalid_parameter_handler 1004177a f   libucrt:invalid_parameter.obj
 0001:00040789       __invalid_parameter        10041789 f   libucrt:invalid_parameter.obj
 0001:000407c0       __invalid_parameter_internal 100417c0 f   libucrt:invalid_parameter.obj
 0001:0004083d       __invalid_parameter_noinfo 1004183d f   libucrt:invalid_parameter.obj
 0001:0004084d       __invoke_watson            1004184d f   libucrt:invalid_parameter.obj
 0001:00040881       ??$is_overflow_condition@_K@__crt_strtox@@YA_NI_K@Z 10041881 f i libucrt:strtox.obj
 0001:000408c2       ??$parse_integer@KV?$c_string_character_source@_W@__crt_strtox@@$00@__crt_strtox@@YAKAAV__crt_cached_ptd_host@@V?$c_string_character_source@_W@0@H_N@Z 100418c2 f i libucrt:strtox.obj
 0001:00040ee5       ??$parse_integer@_KV?$c_string_character_source@_W@__crt_strtox@@$00@__crt_strtox@@YA_KAAV__crt_cached_ptd_host@@V?$c_string_character_source@_W@0@H_N@Z 10041ee5 f i libucrt:strtox.obj
 0001:000414b4       _wcstol                    100424b4 f   libucrt:strtox.obj
 0001:000414fa       _wcstoull                  100424fa f   libucrt:strtox.obj
 0001:000415c5       ___acrt_errno_from_os_error 100425c5 f   libucrt:errno.obj
 0001:00041624       ___acrt_errno_map_os_error 10042624 f   libucrt:errno.obj
 0001:00041647       ___acrt_errno_map_os_error_ptd 10042647 f   libucrt:errno.obj
 0001:0004166b       ___doserrno                1004266b f   libucrt:errno.obj
 0001:00041680       __errno                    10042680 f   libucrt:errno.obj
 0001:000416a0       ??0_LocaleUpdate@@QAE@QAU__crt_locale_pointers@@@Z 100426a0 f i libucrt:stricmp.obj
 0001:00041770       __stricmp                  10042770 f   libucrt:stricmp.obj
 0001:000417f0       __stricmp_l                100427f0 f   libucrt:stricmp.obj
 0001:00041910       _abort                     10042910 f   libucrt:abort.obj
 0001:00041960       _strnlen                   10042960 f   libucrt:strnlen.obj
 0001:00041ac0       _wcsnlen                   10042ac0 f   libucrt:strnlen.obj
 0001:00041ca0       _wcscpy_s                  10042ca0 f   libucrt:wcscpy_s.obj
 0001:00041d40       _strcpy_s                  10042d40 f   libucrt:strcpy_s.obj
 0001:00041dcf       _terminate                 10042dcf f   libucrt:terminate.obj
 0001:00041f67       __beginthreadex            10042f67 f   libucrt:thread.obj
 0001:00041fea       __endthreadex              10042fea f   libucrt:thread.obj
 0001:00042000       _iscntrl                   10043000 f   libucrt:_ctype.obj
 0001:00042090       _isspace                   10043090 f   libucrt:_ctype.obj
 0001:00042120       _strncmp                   10043120 f   libucrt:strncmp.obj
 0001:00042198       ___acrt_initialize_stdio   10043198 f   libucrt:_file.obj
 0001:00042260       ___acrt_uninitialize_stdio 10043260 f   libucrt:_file.obj
 0001:000422ac       __lock_file                100432ac f   libucrt:_file.obj
 0001:000422c0       __unlock_file              100432c0 f   libucrt:_file.obj
 0001:000422e0       _calloc                    100432e0 f   libucrt:calloc.obj
 0001:000422f0       _free                      100432f0 f   libucrt:free.obj
 0001:000422f5       ____lc_codepage_func       100432f5 f   libucrt:initctype.obj
 0001:00042320       _malloc                    10043320 f   libucrt:malloc.obj
 0001:00042330       __callnewh                 10043330 f   libucrt:new_handler.obj
 0001:00042370       ___acrt_initialize_new_handler 10043370 f   libucrt:new_handler.obj
 0001:00042390       __query_new_handler        10043390 f   libucrt:new_handler.obj
 0001:000423f0       __set_new_handler          100433f0 f   libucrt:new_handler.obj
 0001:00042460       ?_set_new_handler@@YAP6AHI@ZH@Z 10043460 f   libucrt:new_handler.obj
 0001:0004246d       ??$__crt_fast_decode_pointer@P6AHI@Z@@YAP6AHI@ZQ6AHI@Z@Z 1004346d f i libucrt:new_handler.obj
 0001:0004246d       ??$__crt_fast_decode_pointer@P6AXH@Z@@YAP6AXH@ZQ6AXH@Z@Z 1004346d f i libucrt:signal.obj
 0001:0004246d       ??$__crt_fast_decode_pointer@P6GXPAXK0@Z@@YAP6GXPAXK0@ZQ6GX0K0@Z@Z 1004346d f i libucrt:exit.obj
 0001:00042488       ??$__crt_fast_encode_pointer@P6AHI@Z@@YAP6AHI@ZQ6AHI@Z@Z 10043488 f i libucrt:new_handler.obj
 0001:00042488       ??$__crt_fast_encode_pointer@P6AHXZ@@YAP6AHXZQ6AHXZ@Z 10043488 f i libucrt:onexit.obj
 0001:00042488       ??$__crt_fast_encode_pointer@PAP6AXXZ@@YAPAP6AXXZQAP6AXXZ@Z 10043488 f i libucrt:onexit.obj
 0001:000424a7       __seh_filter_dll           100434a7 f   libucrt:exception_filter.obj
 0001:000424c7       __seh_filter_exe           100434c7 f   libucrt:exception_filter.obj
 0001:000428f2       ___acrt_initialize_thread_local_exit_callback 100438f2 f   libucrt:exit.obj
 0001:00042901       __cexit                    10043901 f   libucrt:exit.obj
 0001:00042910       __exit                     10043910 f   libucrt:exit.obj
 0001:00042926       __is_c_termination_complete 10043926 f   libucrt:exit.obj
 0001:00042bdc       ___acrt_allocate_buffer_for_argv 10043bdc f   libucrt:argv_parsing.obj
 0001:00042c2b       __configure_narrow_argv    10043c2b f   libucrt:argv_parsing.obj
 0001:00042dda       ___dcrt_uninitialize_environments_nolock 10043dda f   libucrt:environment_initialization.obj
 0001:00042e2b       __initialize_narrow_environment 10043e2b f   libucrt:environment_initialization.obj
 0001:000430d3       __crt_atexit               100440d3 f   libucrt:onexit.obj
 0001:000430e9       __execute_onexit_table     100440e9 f   libucrt:onexit.obj
 0001:00043127       __initialize_onexit_table  10044127 f   libucrt:onexit.obj
 0001:00043150       __register_onexit_function 10044150 f   libucrt:onexit.obj
 0001:000431aa       ___acrt_uninitialize_command_line 100441aa f   libucrt:argv_data.obj
 0001:00043281       ___acrt_initialize         10044281 f   libucrt:initialization.obj
 0001:00043293       ___acrt_thread_attach      10044293 f   libucrt:initialization.obj
 0001:0004329e       ___acrt_thread_detach      1004429e f   libucrt:initialization.obj
 0001:000432a6       ___acrt_uninitialize       100442a6 f   libucrt:initialization.obj
 0001:000432d6       ___acrt_uninitialize_critical 100442d6 f   libucrt:initialization.obj
 0001:000432e8       __initterm                 100442e8 f   libucrt:initterm.obj
 0001:00043313       __initterm_e               10044313 f   libucrt:initterm.obj
 0001:00043342       @_guard_check_icall@4      10044342 f i libucrt:checkcfg.obj
 0001:00043350       _wcsncmp                   10044350 f   libucrt:wcsncmp.obj
 0001:000433a0       __free_base                100443a0 f   libucrt:free_base.obj
 0001:000433f0       __malloc_base              100443f0 f   libucrt:malloc_base.obj
 0001:00043441       ___acrt_update_locale_info 10044441 f   libucrt:locale_update.obj
 0001:0004346e       ___acrt_update_locale_info_explicit 1004446e f   libucrt:locale_update.obj
 0001:0004349f       ___acrt_update_multibyte_info 1004449f f   libucrt:locale_update.obj
 0001:000434cc       ___acrt_update_multibyte_info_explicit 100444cc f   libucrt:locale_update.obj
 0001:000434fd       ?__acrt_fp_classify@@YA?AW4__acrt_fp_class@@ABN@Z 100444fd f i libucrt:cvt.obj
 0001:00043eac       ___acrt_fp_format          10044eac f   libucrt:cvt.obj
 0001:0004402c       __mbtowc_internal          1004502c f   libucrt:mbtowc.obj
 0001:0004415c       ?__mblen_utf8@__crt_mbstring@@YAHPBD@Z 1004515c f   libucrt:mbrtoc32.obj
 0001:0004419d       ?__mbrtoc32_utf8@__crt_mbstring@@YAIPA_UPBDIPAU_Mbstatet@@AAV__crt_cached_ptd_host@@@Z 1004519d f   libucrt:mbrtoc32.obj
 0001:00044382       ?__mbrtowc_utf8@__crt_mbstring@@YAIPA_WPBDIPAU_Mbstatet@@AAV__crt_cached_ptd_host@@@Z 10045382 f   libucrt:mbrtowc.obj
 0001:000443c5       ?__mbsrtowcs_utf8@__crt_mbstring@@YAIPA_WPAPBDIPAU_Mbstatet@@AAV__crt_cached_ptd_host@@@Z 100453c5 f   libucrt:mbrtowc.obj
 0001:000444d8       __fileno                   100454d8 f   libucrt:fileno.obj
 0001:000444ff       __get_printf_count_output  100454ff f   libucrt:printf_count_output.obj
 0001:00044807       ?internal_get_ptd_head_slow@@YAPAU__acrt_ptd@@XZ 10045807 f   libucrt:per_thread_data.obj
 0001:000448fa       ___acrt_freeptd            100458fa f   libucrt:per_thread_data.obj
 0001:0004493e       ___acrt_getptd             1004593e f   libucrt:per_thread_data.obj
 0001:0004494c       ___acrt_getptd_head        1004594c f   libucrt:per_thread_data.obj
 0001:0004498f       ___acrt_getptd_noexit      1004598f f   libucrt:per_thread_data.obj
 0001:00044a1b       ___acrt_getptd_noexit_explicit 10045a1b f   libucrt:per_thread_data.obj
 0001:00044a64       ___acrt_initialize_ptd     10045a64 f   libucrt:per_thread_data.obj
 0001:00044a9a       ___acrt_uninitialize_ptd   10045a9a f   libucrt:per_thread_data.obj
 0001:00044b22       ___acrt_set_locale_changed 10045b22 f   libucrt:wsetlocale.obj
 0001:00044b2d       ___acrt_uninitialize_locale 10045b2d f   libucrt:wsetlocale.obj
 0001:00044cb4       ___acrt_initialize_lowio   10045cb4 f   libucrt:ioinit.obj
 0001:00044d14       ___acrt_uninitialize_lowio 10045d14 f   libucrt:ioinit.obj
 0001:00044d40       _iswctype                  10045d40 f   libucrt:iswctype.obj
 0001:00044da9       __isctype_l                10045da9 f   libucrt:isctype.obj
 0001:00044f46       ___acrt_get_sigabrt_handler 10045f46 f   libucrt:signal.obj
 0001:00044f6d       ___acrt_initialize_signal_handlers 10045f6d f   libucrt:signal.obj
 0001:00044f8b       _raise                     10045f8b f   libucrt:signal.obj
 0001:00045180       __calloc_base              10046180 f   libucrt:calloc_base.obj
 0001:00045390       ___acrt_AppPolicyGetProcessTerminationMethodInternal@4 10046390 f   libucrt:winapi_thunks.obj
 0001:000453df       ___acrt_AppPolicyGetThreadInitializationTypeInternal@4 100463df f   libucrt:winapi_thunks.obj
 0001:0004542e       ___acrt_AreFileApisANSI@0  1004642e f   libucrt:winapi_thunks.obj
 0001:0004544d       ___acrt_FlsAlloc@4         1004644d f   libucrt:winapi_thunks.obj
 0001:00045459       ___acrt_FlsFree@4          10046459 f   libucrt:winapi_thunks.obj
 0001:00045465       ___acrt_FlsGetValue2@4     10046465 f   libucrt:winapi_thunks.obj
 0001:00045472       ___acrt_FlsGetValue@4      10046472 f   libucrt:winapi_thunks.obj
 0001:0004547e       ___acrt_FlsSetValue@8      1004647e f   libucrt:winapi_thunks.obj
 0001:0004548a       ___acrt_InitializeCriticalSectionEx@12 1004648a f   libucrt:winapi_thunks.obj
 0001:00045496       ___acrt_LCMapStringEx@36   10046496 f   libucrt:winapi_thunks.obj
 0001:000454f3       ___acrt_LocaleNameToLCID@8 100464f3 f   libucrt:winapi_thunks.obj
 0001:00045524       ___acrt_RoInitialize@4     10046524 f   libucrt:winapi_thunks.obj
 0001:0004556e       ___acrt_RoUninitialize@0   1004656e f   libucrt:winapi_thunks.obj
 0001:000455ab       ___acrt_initialize_winapi_thunks 100465ab f   libucrt:winapi_thunks.obj
 0001:000455ce       ___acrt_tls2_supported     100465ce f   libucrt:winapi_thunks.obj
 0001:000455ff       ___acrt_uninitialize_winapi_thunks 100465ff f   libucrt:winapi_thunks.obj
 0001:00045635       ___acrt_get_begin_thread_init_policy 10046635 f   libucrt:win_policies.obj
 0001:0004566f       ___acrt_get_process_end_policy 1004666f f   libucrt:win_policies.obj
 0001:00045696       __fcloseall                10046696 f   libucrt:closeall.obj
 0001:00045919       ___acrt_stdio_flush_nolock 10046919 f   libucrt:fflush.obj
 0001:00045982       __fflush_nolock            10046982 f   libucrt:fflush.obj
 0001:000459e7       __flushall                 100469e7 f   libucrt:fflush.obj
 0001:000459f0       ___acrt_stdio_free_buffer_nolock 100469f0 f   libucrt:_freebuf.obj
 0001:00045a30       __freea_crt                10046a30 f i libucrt:getlocaleinfoa.obj
 0001:00045a50       ___acrt_GetStringTypeA     10046a50 f   libucrt:getstringtypea.obj
 0001:00045d3b       ___acrt_LCMapStringA       10046d3b f   libucrt:lcmapstringa.obj
 0001:00045d84       ___acrt_initialize_locks   10046d84 f   libucrt:locks.obj
 0001:00045dc5       ___acrt_lock               10046dc5 f   libucrt:locks.obj
 0001:00045ddc       ___acrt_uninitialize_locks 10046ddc f   libucrt:locks.obj
 0001:00045e0d       ___acrt_unlock             10046e0d f   libucrt:locks.obj
 0001:00045e24       ___acrt_app_verifier_enabled 10046e24 f   libucrt:peb_access.obj
 0001:00045e36       ___acrt_is_secure_process  10046e36 f   libucrt:peb_access.obj
 0001:00045e61       ??$__acrt_convert_wcs_mbs_cp@D_WV<lambda_62f6974d9771e494a5ea317cc32e971c>@@U__crt_win32_buffer_internal_dynamic_resizing@@@@YAHQBDAAV?$__crt_win32_buffer@_WU__crt_win32_buffer_internal_dynamic_resizing@@@@ABV<lambda_62f6974d9771e494a5ea317cc32e971c>@@I@Z 10046e61 f i libucrt:argv_wildcards.obj
 0001:00045f13       ??$__acrt_convert_wcs_mbs_cp@_WDV<lambda_28bda7af82a03b66c1cb3803a755f95d>@@U__crt_win32_buffer_internal_dynamic_resizing@@@@YAHQB_WAAV?$__crt_win32_buffer@DU__crt_win32_buffer_internal_dynamic_resizing@@@@ABV<lambda_28bda7af82a03b66c1cb3803a755f95d>@@I@Z 10046f13 f i libucrt:argv_wildcards.obj
 0001:00045fd9       ??$__acrt_mbs_to_wcs_cp@U__crt_win32_buffer_internal_dynamic_resizing@@@@YAHQBDAAV?$__crt_win32_buffer@_WU__crt_win32_buffer_internal_dynamic_resizing@@@@I@Z 10046fd9 f i libucrt:argv_wildcards.obj
 0001:000464d5       ??R<lambda_0fec1a7b3f42a53036604e18c2d5e07e>@@QBE@IQB_WQADI@Z 100474d5 f i libucrt:getmodulefilenamea.obj
 0001:000464d5       ??R<lambda_28bda7af82a03b66c1cb3803a755f95d>@@QBE@IQB_WQADI@Z 100474d5 f i libucrt:argv_wildcards.obj
 0001:000464f9       ?__acrt_get_utf8_acp_compatibility_codepage@@YAIXZ 100474f9 f i libucrt:argv_wildcards.obj
 0001:00046538       ?_deallocate@?$__crt_win32_buffer@DU__crt_win32_buffer_internal_dynamic_resizing@@@@AAEXXZ 10047538 f i libucrt:argv_wildcards.obj
 0001:00046538       ?_deallocate@?$__crt_win32_buffer@_WU__crt_win32_buffer_internal_dynamic_resizing@@@@AAEXXZ 10047538 f i libucrt:argv_wildcards.obj
 0001:00046552       ?allocate@?$__crt_win32_buffer@DU__crt_win32_buffer_internal_dynamic_resizing@@@@QAEHI@Z 10047552 f i libucrt:argv_wildcards.obj
 0001:0004658e       ?allocate@?$__crt_win32_buffer@_WU__crt_win32_buffer_internal_dynamic_resizing@@@@QAEHI@Z 1004758e f i libucrt:argv_wildcards.obj
 0001:000465cd       ?allocate@__crt_win32_buffer_internal_dynamic_resizing@@SAHQAPAXIABV__crt_win32_buffer_empty_debug_info@@@Z 100475cd f i libucrt:argv_wildcards.obj
 0001:00046675       ___acrt_expand_narrow_argv_wildcards 10047675 f   libucrt:argv_wildcards.obj
 0001:00046680       ??$__acrt_convert_wcs_mbs_cp@_WDV<lambda_0fec1a7b3f42a53036604e18c2d5e07e>@@U__crt_win32_buffer_no_resizing@@@@YAHQB_WAAV?$__crt_win32_buffer@DU__crt_win32_buffer_no_resizing@@@@ABV<lambda_0fec1a7b3f42a53036604e18c2d5e07e>@@I@Z 10047680 f i libucrt:getmodulefilenamea.obj
 0001:00046742       ?allocate@?$__crt_win32_buffer@DU__crt_win32_buffer_no_resizing@@@@QAEHI@Z 10047742 f i libucrt:getmodulefilenamea.obj
 0001:00046769       ?set_to_nullptr@?$__crt_win32_buffer@DU__crt_win32_buffer_no_resizing@@@@QAEXXZ 10047769 f i libucrt:getmodulefilenamea.obj
 0001:0004677d       ___acrt_GetModuleFileNameA 1004777d f   libucrt:getmodulefilenamea.obj
 0001:00046d9a       ___acrt_initialize_multibyte 10047d9a f   libucrt:mbctype.obj
 0001:00046de2       ___acrt_update_thread_multibyte_data 10047de2 f   libucrt:mbctype.obj
 0001:00046df5       __setmbcp_nolock           10047df5 f   libucrt:mbctype.obj
 0001:000470cb       __ismbblead                100480cb f   libucrt:ismbbyte.obj
 0001:000470e3       ___acrt_initialize_command_line 100480e3 f   libucrt:argv_data.obj
 0001:00047194       ___acrt_MultiByteToWideChar 10048194 f   libucrt:multibytetowidechar.obj
 0001:0004724e       ___acrt_WideCharToMultiByte 1004824e f   libucrt:widechartomultibyte.obj
 0001:000472ef       ___dcrt_get_narrow_environment_from_os 100482ef f   libucrt:get_environment_from_os.obj
 0001:00047390       __recalloc_base            10048390 f   libucrt:recalloc.obj
 0001:00047410       __recalloc                 10048410 f   libucrt:recalloc.obj
 0001:00047420       __get_heap_handle          10048420 f   libucrt:heap_handle.obj
 0001:00047430       ___acrt_initialize_heap    10048430 f   libucrt:heap_handle.obj
 0001:00047450       ___acrt_uninitialize_heap  10048450 f   libucrt:heap_handle.obj
 0001:00047460       ___acrt_getheap            10048460 f   libucrt:heap_handle.obj
 0001:00047466       ___acrt_execute_initializers 10048466 f   libucrt:shared_initialization.obj
 0001:000474ce       ___acrt_execute_uninitializers 100484ce f   libucrt:shared_initialization.obj
 0001:00047500       ___acrt_has_user_matherr   10048500 f   libucrt:matherr.obj
 0001:00047520       ___acrt_initialize_user_matherr 10048520 f   libucrt:matherr.obj
 0001:00047530       ___acrt_invoke_user_matherr 10048530 f   libucrt:matherr.obj
 0001:00047570       __query_new_mode           10048570 f   libucrt:new_mode.obj
 0001:00047580       __set_new_mode             10048580 f   libucrt:new_mode.obj
 0001:000475af       ___acrt_add_locale_ref     100485af f   libucrt:locale_refcounting.obj
 0001:0004762c       ___acrt_free_locale        1004862c f   libucrt:locale_refcounting.obj
 0001:00047774       ___acrt_locale_add_lc_time_reference 10048774 f   libucrt:locale_refcounting.obj
 0001:0004779d       ___acrt_locale_free_lc_time_if_unreferenced 1004879d f   libucrt:locale_refcounting.obj
 0001:000477ce       ___acrt_locale_release_lc_time_reference 100487ce f   libucrt:locale_refcounting.obj
 0001:000477f7       ___acrt_release_locale_ref 100487f7 f   libucrt:locale_refcounting.obj
 0001:00047878       ___acrt_update_thread_locale_data 10048878 f   libucrt:locale_refcounting.obj
 0001:000478f9       __updatetlocinfoEx_nolock  100488f9 f   libucrt:locale_refcounting.obj
 0001:000479fa       ___acrt_fp_strflt_to_string 100489fa f   libucrt:_fptostr.obj
 0001:00047b00       ?divide@__crt_strtox@@YA_KAAUbig_integer@1@ABU21@@Z 10048b00 f i libucrt:cfout.obj
 0001:00047fd7       ___acrt_fltout             10048fd7 f   libucrt:cfout.obj
 0001:000494b0       _fegetround                1004a4b0 f   libucrt:fegetround.obj
 0001:000494bf       ?reset_and_return@__crt_mbstring@@YAIIPAU_Mbstatet@@@Z 1004a4bf f   libucrt:common_utf8.obj
 0001:000494d3       ?return_illegal_sequence@__crt_mbstring@@YAIPAU_Mbstatet@@AAV__crt_cached_ptd_host@@@Z 1004a4d3 f   libucrt:common_utf8.obj
 0001:000494f5       __isatty                   1004a4f5 f   libucrt:isatty.obj
 0001:0004954b       ___acrt_locale_free_monetary 1004a54b f   libucrt:initmon.obj
 0001:00049649       ___acrt_locale_free_numeric 1004a649 f   libucrt:initnum.obj
 0001:000496d7       ___acrt_locale_free_time   1004a6d7 f   libucrt:inittime.obj
 0001:000497bb       ___acrt_lowio_create_handle_array 1004a7bb f   libucrt:osfinfo.obj
 0001:00049836       ___acrt_lowio_destroy_handle_array 1004a836 f   libucrt:osfinfo.obj
 0001:0004986b       ___acrt_lowio_ensure_fh_exists 1004a86b f   libucrt:osfinfo.obj
 0001:00049909       ___acrt_lowio_lock_fh      1004a909 f   libucrt:osfinfo.obj
 0001:0004992c       ___acrt_lowio_unlock_fh    1004a92c f   libucrt:osfinfo.obj
 0001:0004994f       __free_osfhnd              1004a94f f   libucrt:osfinfo.obj
 0001:000499e0       __get_osfhandle            1004a9e0 f   libucrt:osfinfo.obj
 0001:00049a4a       ___acrt_GetStringTypeW     1004aa4a f   libucrt:getstringtypew.obj
 0001:00049ab7       ___acrt_DownlevelLocaleNameToLCID 1004aab7 f   libucrt:lcidtoname_downlevel.obj
 0001:00049c08       _fclose                    1004ac08 f   libucrt:fclose.obj
 0001:00049cda       __commit                   1004acda f   libucrt:commit.obj
 0001:0004a4fd       __write_internal           1004b4fd f   libucrt:write.obj
 0001:0004a60e       __write_nolock             1004b60e f   libucrt:write.obj
 0001:0004a8ad       __lseeki64_nolock_internal 1004b8ad f   libucrt:lseek.obj
 0001:0004a8d0       _strncpy_s                 1004b8d0 f   libucrt:strncpy_s.obj
 0001:0004a9d0       ___strncnt                 1004b9d0 f   libucrt:strncnt.obj
 0001:0004a9f0       _qsort                     1004b9f0 f   libucrt:qsort.obj
 0001:0004ae30       _strpbrk                   1004be30 f   libucrt:strpbrk.obj
 0001:0004ae70       __mbsdec                   1004be70 f   libucrt:mbsdec.obj
 0001:0004ae87       __mbsdec_l                 1004be87 f   libucrt:mbsdec.obj
 0001:0004af20       __msize_base               1004bf20 f   libucrt:msize.obj
 0001:0004af60       __msize                    1004bf60 f   libucrt:msize.obj
 0001:0004af70       __realloc_base             1004bf70 f   libucrt:realloc_base.obj
 0001:0004afe0       __controlfp_s              1004bfe0 f   libucrt:contrlfp.obj
 0001:0004b050       _fegetenv                  1004c050 f   libucrt:fegetenv.obj
 0001:0004b070       _fesetenv                  1004c070 f   libucrt:fesetenv.obj
 0001:0004b0d0       _feholdexcept              1004c0d0 f   libucrt:feholdexcept.obj
 0001:0004b130       __libm_sse2_log10_precise  1004c130 f   libucrt:log10_sse2_precise.obj
 0001:0004b3e0       __ceil_no_sse41            1004c3e0 f   libucrt:ceil_pentium4.obj
 0001:0004b420       _ceil                      1004c420 f   libucrt:ceil_pentium4.obj
 0001:0004b440       __ceil_pentium4            1004c440 f   libucrt:ceil_pentium4.obj
 0001:0004b520       ___acrt_fenv_get_common_round_control 1004c520 f   libucrt:_fenvutils.obj
 0001:0004b550       ___acrt_fenv_get_control   1004c550 f   libucrt:_fenvutils.obj
 0001:0004b730       ___acrt_fenv_get_status    1004c730 f   libucrt:_fenvutils.obj
 0001:0004b7e0       ___acrt_fenv_set_control   1004c7e0 f   libucrt:_fenvutils.obj
 0001:0004ba30       ___acrt_fenv_set_status    1004ca30 f   libucrt:_fenvutils.obj
 0001:0004bb40       ___ascii_wcsnicmp          1004cb40 f   libucrt:wcsnicmp.obj
 0001:0004bba7       __query_app_type           1004cba7 f   libucrt:report_runtime_error.obj
 0001:0004bc3e       __close_internal           1004cc3e f   libucrt:close.obj
 0001:0004bce1       __close_nolock_internal    1004cce1 f   libucrt:close.obj
 0001:0004bd81       ?__acrt_stdio_free_stream@@YAXV__crt_stdio_stream@@@Z 1004cd81 f   libucrt:stream.obj
 0001:0004bdbc       __putwch_nolock            1004cdbc f   libucrt:putwch.obj
 0001:0004bec0       __clearfp                  1004cec0 f   libucrt:ieee87.obj
 0001:0004bfe0       __control87                1004cfe0 f   libucrt:ieee87.obj
 0001:0004c470       ___libm_error_support      1004d470 f   libucrt:libm_error.obj
 0001:0004c710       __CIlog10                  1004d710 f   libucrt:log10_impl.obj
 0001:0004c74b       __CIlog10_default          1004d74b f   libucrt:log10_impl.obj
 0001:0004c75f       __log10_default            1004d75f     libucrt:log10_impl.obj
 0001:0004c820       ___acrt_initialize_sse2    1004d820 f   libucrt:mathfcns.obj
 0001:0004c830       __ceil_default             1004d830 f   libucrt:ceil.obj
 0001:0004c942       ___dcrt_lowio_ensure_console_output_initialized 1004d942 f   libucrt:initcon.obj
 0001:0004c961       ___dcrt_terminate_console_output 1004d961 f   libucrt:initcon.obj
 0001:0004c978       ___dcrt_write_console      1004d978 f   libucrt:initcon.obj
 0001:0004c9d0       ___ascii_strnicmp          1004d9d0 f   libucrt:_strnicm.obj
 0001:0004ca40       ___set_fpsr_sse2           1004da40 f   libucrt:fpctrl.obj
 0001:0004cb20       __clrfp                    1004db20 f   libucrt:fpctrl.obj
 0001:0004cb40       __ctrlfp                   1004db40 f   libucrt:fpctrl.obj
 0001:0004cb70       __set_statfp               1004db70 f   libucrt:fpctrl.obj
 0001:0004cbd0       __statfp                   1004dbd0 f   libucrt:fpctrl.obj
 0001:0004cbf0       __CIlog10_pentium4         1004dbf0 f   libucrt:log10_pentium4.obj
 0001:0004cc08       __log10_pentium4           1004dc08     libucrt:log10_pentium4.obj
 0001:0004cea0       __fFEXP                    1004dea0 f   libucrt:87tran.obj
 0001:0004cef7       __rtinfpopse               1004def7     libucrt:87tran.obj
 0001:0004cef9       __rtinfnpopse              1004def9     libucrt:87tran.obj
 0001:0004cf09       __fFLN                     1004df09     libucrt:87tran.obj
 0001:0004cfbe       __rtinfpop                 1004dfbe     libucrt:87tran.obj
 0001:0004cfc0       __rtinfnpop                1004dfc0     libucrt:87tran.obj
 0001:0004cfd0       __rtforexpinf              1004dfd0 f   libucrt:87tran.obj
 0001:0004cfdd       __ffexpm1                  1004dfdd     libucrt:87tran.obj
 0001:0004d090       __trandisp1                1004e090 f   libucrt:87disp.obj
 0001:0004d105       __trandisp2                1004e105 f   libucrt:87disp.obj
 0001:0004d19f       __rttospopde               1004e19f     libucrt:87disp.obj
 0001:0004d1a4       __rttospop                 1004e1a4     libucrt:87disp.obj
 0001:0004d1b0       __rtnospop                 1004e1b0 f   libucrt:87disp.obj
 0001:0004d1c0       __rttosnpop                1004e1c0 f   libucrt:87disp.obj
 0001:0004d1c1       __rtnospopde               1004e1c1     libucrt:87disp.obj
 0001:0004d1c8       __rtzeropop                1004e1c8     libucrt:87disp.obj
 0001:0004d1ca       __rtzeronpop               1004e1ca     libucrt:87disp.obj
 0001:0004d1d0       __rtzerospop               1004e1d0 f   libucrt:87disp.obj
 0001:0004d1dd       __rtonepop                 1004e1dd     libucrt:87disp.obj
 0001:0004d1e0       __rtonenpop                1004e1e0 f   libucrt:87disp.obj
 0001:0004d1f0       __tosnan1                  1004e1f0 f   libucrt:87disp.obj
 0001:0004d220       __nosnan2                  1004e220 f   libucrt:87disp.obj
 0001:0004d230       __tosnan2                  1004e230 f   libucrt:87disp.obj
 0001:0004d260       __nan2                     1004e260 f   libucrt:87disp.obj
 0001:0004d2a0       __rtindfpop                1004e2a0 f   libucrt:87disp.obj
 0001:0004d2a2       __rtindfnpop               1004e2a2     libucrt:87disp.obj
 0001:0004d2b3       __rttosnpopde              1004e2b3     libucrt:87disp.obj
 0001:0004d2c0       __rtatan2inf               1004e2c0 f   libucrt:87disp.obj
 0001:0004d2dd       __rtchsifneg               1004e2dd     libucrt:87disp.obj
 0001:0004d2f0       __twoToTOS                 1004e2f0 f   libucrt:common.obj
 0001:0004d305       __load_CW                  1004e305 f   libucrt:common.obj
 0001:0004d31c       __convertTOStoQNaN         1004e31c f   libucrt:common.obj
 0001:0004d335       __fload_withFB             1004e335 f   libucrt:common.obj
 0001:0004d378       __checkTOS_withFB          1004e378 f   libucrt:common.obj
 0001:0004d38e       __fast_exit                1004e38e f   libucrt:common.obj
 0001:0004d39b       __math_exit                1004e39b f   libucrt:common.obj
 0001:0004d3c5       __check_overflow_exit      1004e3c5 f   libucrt:common.obj
 0001:0004d3d9       __check_range_exit         1004e3d9 f   libucrt:common.obj
 0001:0004d480       __startTwoArgErrorHandling 1004e480 f   libucrt:genexcep.obj
 0001:0004d497       __startOneArgErrorHandling 1004e497 f   libucrt:genexcep.obj
 0001:0004d4e0       __frnd                     1004e4e0 f   libucrt:frnd.obj
 0001:0004d500       __except1                  1004e500 f   libucrt:fpexcept.obj
 0001:0004d640       __handle_exc               1004e640 f   libucrt:fpexcept.obj
 0001:0004d970       __raise_exc                1004e970 f   libucrt:fpexcept.obj
 0001:0004d9a0       __raise_exc_ex             1004e9a0 f   libucrt:fpexcept.obj
 0001:0004dcd0       __set_errno_from_matherr   1004ecd0 f   libucrt:fpexcept.obj
 0001:0004dd10       __umatherr                 1004ed10 f   libucrt:fpexcept.obj
 0001:0004de10       __decomp                   1004ee10 f i libucrt:frexp.obj
 0001:0004df20       __sptype                   1004ef20 f i libucrt:frexp.obj
 0001:0004dfa0       __powhlp                   1004efa0 f   libucrt:powhlp.obj
 0001:0004e1a0       __87except                 1004f1a0 f   libucrt:87except.obj
 0001:0004e2e0       __fpclass                  1004f2e0 f   libucrt:ieeemisc.obj
 0001:0004e3b0       __FindPESection            1004f3b0 f   LIBCMT:pesect.obj
 0001:0004e400       __IsNonwritableInCurrentImage 1004f400 f   LIBCMT:pesect.obj
 0001:0004e4c0       __ValidateImageBase        1004f4c0 f   LIBCMT:pesect.obj
 0001:0004e500       __aulldvrm                 1004f500 f   LIBCMT:ulldvrm.obj
 0001:0004e5a0       __allmul                   1004f5a0 f   LIBCMT:llmul.obj
 0001:0004e5e0       __alldiv                   1004f5e0 f   LIBCMT:lldiv.obj
 0001:0004e690       __alldvrm                  1004f690 f   LIBCMT:lldvrm.obj
 0001:0004e770       __allrem                   1004f770 f   LIBCMT:llrem.obj
 0001:0004e830       __aullshr                  1004f830 f   LIBCMT:ullshr.obj
 0001:0004e850       __alloca_probe_16          1004f850 f   LIBCMT:alloca16.obj
 0001:0004e866       __alloca_probe_8           1004f866     LIBCMT:alloca16.obj
 0001:0004e880       __allshl                   1004f880 f   LIBCMT:llshl.obj
 0001:0004e8a0       __alloca_probe             1004f8a0 f   LIBCMT:chkstk.obj
 0001:0004e8a0       __chkstk                   1004f8a0 f   LIBCMT:chkstk.obj
 0001:0004e8d0       _strrchr                   1004f8d0 f   libvcruntime:strrchr.obj
 0001:0004ea10       __filter_x86_sse2_floating_point_exception 1004fa10 f   LIBCMT:x86_exception_filter.obj
 0001:0004ea10       __filter_x86_sse2_floating_point_exception_default 1004fa10 f   LIBCMT:x86_exception_filter.obj
 0001:0004ea90       __ftol3                    1004fa90 f   LIBCMT:ftol3.obj
 0003:00000000       __imp__RegNotifyChangeKeyValue@20 10055000     advapi32:ADVAPI32.dll
 0003:00000004       __imp__RegEnumKeyExW@32    10055004     advapi32:ADVAPI32.dll
 0003:00000008       __imp__FreeSid@4           10055008     advapi32:ADVAPI32.dll
 0003:0000000c       __imp__AllocateAndInitializeSid@44 1005500c     advapi32:ADVAPI32.dll
 0003:00000010       __imp__RegGetValueW@28     10055010     advapi32:ADVAPI32.dll
 0003:00000014       __imp__LsaNtStatusToWinError@4 10055014     advapi32:ADVAPI32.dll
 0003:00000018       __imp__ConvertStringSecurityDescriptorToSecurityDescriptorW@16 10055018     advapi32:ADVAPI32.dll
 0003:0000001c       __imp__RegCloseKey@4       1005501c     advapi32:ADVAPI32.dll
 0003:00000020       __imp__RegEnumValueW@32    10055020     advapi32:ADVAPI32.dll
 0003:00000024       __imp__RegQueryInfoKeyW@48 10055024     advapi32:ADVAPI32.dll
 0003:00000028       __imp__RegQueryValueExW@24 10055028     advapi32:ADVAPI32.dll
 0003:0000002c       __imp__RegDeleteValueW@8   1005502c     advapi32:ADVAPI32.dll
 0003:00000030       __imp__RegSetValueExW@24   10055030     advapi32:ADVAPI32.dll
 0003:00000034       __imp__RegCreateKeyExW@36  10055034     advapi32:ADVAPI32.dll
 0003:00000038       \177ADVAPI32_NULL_THUNK_DATA 10055038     advapi32:ADVAPI32.dll
 0003:0000003c       __imp__OutputDebugStringW@4 1005503c     kernel32:KERNEL32.dll
 0003:00000040       __imp__GetCurrentThreadId@0 10055040     kernel32:KERNEL32.dll
 0003:00000044       __imp__FormatMessageW@28   10055044     kernel32:KERNEL32.dll
 0003:00000048       __imp__IsDebuggerPresent@0 10055048     kernel32:KERNEL32.dll
 0003:0000004c       __imp__CreateFileW@28      1005504c     kernel32:KERNEL32.dll
 0003:00000050       __imp__WriteFile@20        10055050     kernel32:KERNEL32.dll
 0003:00000054       __imp__CloseHandle@4       10055054     kernel32:KERNEL32.dll
 0003:00000058       __imp__SetLastError@4      10055058     kernel32:KERNEL32.dll
 0003:0000005c       __imp__GetPrivateProfileStringW@24 1005505c     kernel32:KERNEL32.dll
 0003:00000060       __imp__GetLastError@0      10055060     kernel32:KERNEL32.dll
 0003:00000064       __imp__WritePrivateProfileStringW@16 10055064     kernel32:KERNEL32.dll
 0003:00000068       __imp__ClosePrivateNamespace@8 10055068     kernel32:KERNEL32.dll
 0003:0000006c       __imp__GetModuleHandleW@4  1005506c     kernel32:KERNEL32.dll
 0003:00000070       __imp__GetProcAddress@8    10055070     kernel32:KERNEL32.dll
 0003:00000074       __imp__GetCurrentProcess@0 10055074     kernel32:KERNEL32.dll
 0003:00000078       __imp__IsWow64Process@8    10055078     kernel32:KERNEL32.dll
 0003:0000007c       __imp__TerminateProcess@8  1005507c     kernel32:KERNEL32.dll
 0003:00000080       __imp__CreateProcessW@40   10055080     kernel32:KERNEL32.dll
 0003:00000084       __imp__DuplicateHandle@28  10055084     kernel32:KERNEL32.dll
 0003:00000088       __imp__LeaveCriticalSection@4 10055088     kernel32:KERNEL32.dll
 0003:0000008c       __imp__VirtualProtect@16   1005508c     kernel32:KERNEL32.dll
 0003:00000090       __imp__EnterCriticalSection@4 10055090     kernel32:KERNEL32.dll
 0003:00000094       __imp__InitializeCriticalSection@4 10055094     kernel32:KERNEL32.dll
 0003:00000098       __imp__GetCurrentProcessId@0 10055098     kernel32:KERNEL32.dll
 0003:0000009c       __imp__CreateMutexW@12     1005509c     kernel32:KERNEL32.dll
 0003:000000a0       __imp__OpenMutexW@12       100550a0     kernel32:KERNEL32.dll
 0003:000000a4       __imp__WaitForSingleObject@8 100550a4     kernel32:KERNEL32.dll
 0003:000000a8       __imp__GetProcessId@4      100550a8     kernel32:KERNEL32.dll
 0003:000000ac       __imp__ResumeThread@4      100550ac     kernel32:KERNEL32.dll
 0003:000000b0       __imp__SuspendThread@4     100550b0     kernel32:KERNEL32.dll
 0003:000000b4       __imp__GetThreadContext@8  100550b4     kernel32:KERNEL32.dll
 0003:000000b8       __imp__ReleaseMutex@4      100550b8     kernel32:KERNEL32.dll
 0003:000000bc       __imp__QueryFullProcessImageNameW@16 100550bc     kernel32:KERNEL32.dll
 0003:000000c0       __imp__LocalFree@4         100550c0     kernel32:KERNEL32.dll
 0003:000000c4       __imp__K32GetModuleFileNameExW@16 100550c4     kernel32:KERNEL32.dll
 0003:000000c8       __imp__GetModuleFileNameW@12 100550c8     kernel32:KERNEL32.dll
 0003:000000cc       __imp__GetNativeSystemInfo@4 100550cc     kernel32:KERNEL32.dll
 0003:000000d0       __imp__VirtualFreeEx@16    100550d0     kernel32:KERNEL32.dll
 0003:000000d4       __imp__VirtualAllocEx@20   100550d4     kernel32:KERNEL32.dll
 0003:000000d8       __imp__WriteProcessMemory@20 100550d8     kernel32:KERNEL32.dll
 0003:000000dc       __imp__VirtualProtectEx@20 100550dc     kernel32:KERNEL32.dll
 0003:000000e0       __imp__TlsAlloc@0          100550e0     kernel32:KERNEL32.dll
 0003:000000e4       __imp__TlsSetValue@8       100550e4     kernel32:KERNEL32.dll
 0003:000000e8       __imp__TlsFree@4           100550e8     kernel32:KERNEL32.dll
 0003:000000ec       __imp__TlsGetValue@4       100550ec     kernel32:KERNEL32.dll
 0003:000000f0       __imp__LCMapStringEx@36    100550f0     kernel32:KERNEL32.dll
 0003:000000f4       __imp__GetVersionExW@4     100550f4     kernel32:KERNEL32.dll
 0003:000000f8       __imp__FreeLibrary@4       100550f8     kernel32:KERNEL32.dll
 0003:000000fc       __imp__LoadLibraryExW@12   100550fc     kernel32:KERNEL32.dll
 0003:00000100       __imp__FindResourceW@12    10055100     kernel32:KERNEL32.dll
 0003:00000104       __imp__LoadResource@8      10055104     kernel32:KERNEL32.dll
 0003:00000108       __imp__ExpandEnvironmentStringsW@12 10055108     kernel32:KERNEL32.dll
 0003:0000010c       __imp__OpenThread@12       1005510c     kernel32:KERNEL32.dll
 0003:00000110       __imp__SetThreadContext@8  10055110     kernel32:KERNEL32.dll
 0003:00000114       __imp__CreateToolhelp32Snapshot@8 10055114     kernel32:KERNEL32.dll
 0003:00000118       __imp__Thread32First@8     10055118     kernel32:KERNEL32.dll
 0003:0000011c       __imp__Thread32Next@8      1005511c     kernel32:KERNEL32.dll
 0003:00000120       __imp__AddVectoredExceptionHandler@8 10055120     kernel32:KERNEL32.dll
 0003:00000124       __imp__VirtualQuery@12     10055124     kernel32:KERNEL32.dll
 0003:00000128       __imp__FlsFree@4           10055128     kernel32:KERNEL32.dll
 0003:0000012c       __imp__FlsGetValue@4       1005512c     kernel32:KERNEL32.dll
 0003:00000130       __imp__FlsSetValue@8       10055130     kernel32:KERNEL32.dll
 0003:00000134       __imp__FlsAlloc@4          10055134     kernel32:KERNEL32.dll
 0003:00000138       __imp__WaitForSingleObjectEx@12 10055138     kernel32:KERNEL32.dll
 0003:0000013c       __imp__GetSystemTimeAsFileTime@4 1005513c     kernel32:KERNEL32.dll
 0003:00000140       __imp__GetCurrentThread@0  10055140     kernel32:KERNEL32.dll
 0003:00000144       __imp__GetTickCount@0      10055144     kernel32:KERNEL32.dll
 0003:00000148       __imp__Sleep@4             10055148     kernel32:KERNEL32.dll
 0003:0000014c       __imp__GetCommandLineW@0   1005514c     kernel32:KERNEL32.dll
 0003:00000150       __imp__SetThreadPriority@8 10055150     kernel32:KERNEL32.dll
 0003:00000154       __imp__GetExitCodeThread@8 10055154     kernel32:KERNEL32.dll
 0003:00000158       __imp__GetThreadId@4       10055158     kernel32:KERNEL32.dll
 0003:0000015c       __imp__ReleaseSemaphore@12 1005515c     kernel32:KERNEL32.dll
 0003:00000160       __imp__GetProcessTimes@20  10055160     kernel32:KERNEL32.dll
 0003:00000164       __imp__WaitForMultipleObjects@16 10055164     kernel32:KERNEL32.dll
 0003:00000168       __imp__SetThreadErrorMode@8 10055168     kernel32:KERNEL32.dll
 0003:0000016c       __imp__FreeLibraryAndExitThread@8 1005516c     kernel32:KERNEL32.dll
 0003:00000170       __imp__GetModuleHandleExW@12 10055170     kernel32:KERNEL32.dll
 0003:00000174       __imp__CreateSemaphoreExW@24 10055174     kernel32:KERNEL32.dll
 0003:00000178       __imp__FindCloseChangeNotification@4 10055178     kernel32:KERNEL32.dll
 0003:0000017c       __imp__CreateBoundaryDescriptorW@8 1005517c     kernel32:KERNEL32.dll
 0003:00000180       __imp__AddSIDToBoundaryDescriptor@8 10055180     kernel32:KERNEL32.dll
 0003:00000184       __imp__AddIntegrityLabelToBoundaryDescriptor@8 10055184     kernel32:KERNEL32.dll
 0003:00000188       __imp__CreatePrivateNamespaceW@12 10055188     kernel32:KERNEL32.dll
 0003:0000018c       __imp__OpenPrivateNamespaceW@8 1005518c     kernel32:KERNEL32.dll
 0003:00000190       __imp__DeleteBoundaryDescriptor@4 10055190     kernel32:KERNEL32.dll
 0003:00000194       __imp__GetEnvironmentVariableW@12 10055194     kernel32:KERNEL32.dll
 0003:00000198       __imp__SetFilePointer@16   10055198     kernel32:KERNEL32.dll
 0003:0000019c       __imp__SetEndOfFile@4      1005519c     kernel32:KERNEL32.dll
 0003:000001a0       __imp__FindFirstChangeNotificationW@12 100551a0     kernel32:KERNEL32.dll
 0003:000001a4       __imp__CreateEventW@16     100551a4     kernel32:KERNEL32.dll
 0003:000001a8       __imp__FindNextChangeNotification@4 100551a8     kernel32:KERNEL32.dll
 0003:000001ac       __imp__GetModuleFileNameA@12 100551ac     kernel32:KERNEL32.dll
 0003:000001b0       __imp__HeapFree@12         100551b0     kernel32:KERNEL32.dll
 0003:000001b4       __imp__OpenSemaphoreW@12   100551b4     kernel32:KERNEL32.dll
 0003:000001b8       __imp__HeapAlloc@12        100551b8     kernel32:KERNEL32.dll
 0003:000001bc       __imp__CreateMutexExW@16   100551bc     kernel32:KERNEL32.dll
 0003:000001c0       __imp__WriteConsoleW@20    100551c0     kernel32:KERNEL32.dll
 0003:000001c4       __imp__WideCharToMultiByte@32 100551c4     kernel32:KERNEL32.dll
 0003:000001c8       __imp__DebugBreak@0        100551c8     kernel32:KERNEL32.dll
 0003:000001cc       __imp__HeapReAlloc@16      100551cc     kernel32:KERNEL32.dll
 0003:000001d0       __imp__DeleteCriticalSection@4 100551d0     kernel32:KERNEL32.dll
 0003:000001d4       __imp__LCMapStringW@24     100551d4     kernel32:KERNEL32.dll
 0003:000001d8       __imp__SetFilePointerEx@20 100551d8     kernel32:KERNEL32.dll
 0003:000001dc       __imp__GetStringTypeW@16   100551dc     kernel32:KERNEL32.dll
 0003:000001e0       __imp__IsValidCodePage@4   100551e0     kernel32:KERNEL32.dll
 0003:000001e4       __imp__GetACP@0            100551e4     kernel32:KERNEL32.dll
 0003:000001e8       __imp__GetOEMCP@0          100551e8     kernel32:KERNEL32.dll
 0003:000001ec       __imp__GetCommandLineA@0   100551ec     kernel32:KERNEL32.dll
 0003:000001f0       __imp__GetEnvironmentStringsW@0 100551f0     kernel32:KERNEL32.dll
 0003:000001f4       __imp__FreeEnvironmentStringsW@4 100551f4     kernel32:KERNEL32.dll
 0003:000001f8       __imp__SetStdHandle@8      100551f8     kernel32:KERNEL32.dll
 0003:000001fc       __imp__FlushFileBuffers@4  100551fc     kernel32:KERNEL32.dll
 0003:00000200       __imp__GetConsoleOutputCP@0 10055200     kernel32:KERNEL32.dll
 0003:00000204       __imp__GetConsoleMode@8    10055204     kernel32:KERNEL32.dll
 0003:00000208       __imp__HeapSize@12         10055208     kernel32:KERNEL32.dll
 0003:0000020c       __imp__DecodePointer@4     1005520c     kernel32:KERNEL32.dll
 0003:00000210       __imp__LockResource@4      10055210     kernel32:KERNEL32.dll
 0003:00000214       __imp__GetProcessHeap@0    10055214     kernel32:KERNEL32.dll
 0003:00000218       __imp__FormatMessageA@28   10055218     kernel32:KERNEL32.dll
 0003:0000021c       __imp__GetLocaleInfoEx@16  1005521c     kernel32:KERNEL32.dll
 0003:00000220       __imp__InitOnceBeginInitialize@16 10055220     kernel32:KERNEL32.dll
 0003:00000220       __imp____std_init_once_begin_initialize@16 10055220     kernel32:KERNEL32.dll
 0003:00000224       __imp__InitOnceComplete@12 10055224     kernel32:KERNEL32.dll
 0003:00000224       __imp____std_init_once_complete@12 10055224     kernel32:KERNEL32.dll
 0003:00000228       __imp__ReleaseSRWLockExclusive@4 10055228     kernel32:KERNEL32.dll
 0003:0000022c       __imp__AcquireSRWLockExclusive@4 1005522c     kernel32:KERNEL32.dll
 0003:00000230       __imp__TryAcquireSRWLockExclusive@4 10055230     kernel32:KERNEL32.dll
 0003:00000234       __imp__QueryPerformanceCounter@4 10055234     kernel32:KERNEL32.dll
 0003:00000238       __imp__QueryPerformanceFrequency@4 10055238     kernel32:KERNEL32.dll
 0003:0000023c       __imp__SleepConditionVariableSRW@16 1005523c     kernel32:KERNEL32.dll
 0003:00000240       __imp__CreateDirectoryW@8  10055240     kernel32:KERNEL32.dll
 0003:00000244       __imp__FindClose@4         10055244     kernel32:KERNEL32.dll
 0003:00000248       __imp__FindFirstFileW@8    10055248     kernel32:KERNEL32.dll
 0003:0000024c       __imp__FindFirstFileExW@24 1005524c     kernel32:KERNEL32.dll
 0003:00000250       __imp__FindNextFileW@8     10055250     kernel32:KERNEL32.dll
 0003:00000254       __imp__GetFileAttributesExW@12 10055254     kernel32:KERNEL32.dll
 0003:00000258       __imp__AreFileApisANSI@0   10055258     kernel32:KERNEL32.dll
 0003:0000025c       __imp__GetFileInformationByHandleEx@16 1005525c     kernel32:KERNEL32.dll
 0003:00000260       __imp__MultiByteToWideChar@24 10055260     kernel32:KERNEL32.dll
 0003:00000264       __imp__WakeAllConditionVariable@4 10055264     kernel32:KERNEL32.dll
 0003:00000268       __imp__InitializeCriticalSectionEx@12 10055268     kernel32:KERNEL32.dll
 0003:0000026c       __imp__UnhandledExceptionFilter@4 1005526c     kernel32:KERNEL32.dll
 0003:00000270       __imp__SetUnhandledExceptionFilter@4 10055270     kernel32:KERNEL32.dll
 0003:00000274       __imp__IsProcessorFeaturePresent@4 10055274     kernel32:KERNEL32.dll
 0003:00000278       __imp__GetStartupInfoW@4   10055278     kernel32:KERNEL32.dll
 0003:0000027c       __imp__InitializeSListHead@4 1005527c     kernel32:KERNEL32.dll
 0003:00000280       __imp__RaiseException@16   10055280     kernel32:KERNEL32.dll
 0003:00000284       __imp__InterlockedFlushSList@4 10055284     kernel32:KERNEL32.dll
 0003:00000288       __imp__EncodePointer@4     10055288     kernel32:KERNEL32.dll
 0003:0000028c       __imp__InitializeCriticalSectionAndSpinCount@8 1005528c     kernel32:KERNEL32.dll
 0003:00000290       __imp__CreateThread@24     10055290     kernel32:KERNEL32.dll
 0003:00000294       __imp__ExitThread@4        10055294     kernel32:KERNEL32.dll
 0003:00000298       __imp__GetCPInfo@8         10055298     kernel32:KERNEL32.dll
 0003:0000029c       __imp__ExitProcess@4       1005529c     kernel32:KERNEL32.dll
 0003:000002a0       __imp__GetStdHandle@4      100552a0     kernel32:KERNEL32.dll
 0003:000002a4       __imp__GetFileType@4       100552a4     kernel32:KERNEL32.dll
 0003:000002a8       \177KERNEL32_NULL_THUNK_DATA 100552a8     kernel32:KERNEL32.dll
 0003:000002ac       __imp__RtlUnwind@16        100552ac     ntdll:ntdll.dll
 0003:000002b0       __imp__NtProtectVirtualMemory@20 100552b0     ntdll:ntdll.dll
 0003:000002b4       __imp__NtAllocateVirtualMemory@24 100552b4     ntdll:ntdll.dll
 0003:000002b8       __imp__NtFlushInstructionCache@12 100552b8     ntdll:ntdll.dll
 0003:000002bc       __imp__NtFreeVirtualMemory@16 100552bc     ntdll:ntdll.dll
 0003:000002c0       __imp__NtResumeThread@8    100552c0     ntdll:ntdll.dll
 0003:000002c4       __imp__NtQueryInformationThread@20 100552c4     ntdll:ntdll.dll
 0003:000002c8       __imp__NtSetContextThread@8 100552c8     ntdll:ntdll.dll
 0003:000002cc       __imp__NtGetNextThread@24  100552cc     ntdll:ntdll.dll
 0003:000002d0       __imp__NtSuspendThread@8   100552d0     ntdll:ntdll.dll
 0003:000002d4       __imp__NtGetContextThread@8 100552d4     ntdll:ntdll.dll
 0003:000002d8       __imp__NtQueryValueKey@24  100552d8     ntdll:ntdll.dll
 0003:000002dc       __imp__RtlCreateHeap@24    100552dc     ntdll:ntdll.dll
 0003:000002e0       __imp__RtlFreeHeap@12      100552e0     ntdll:ntdll.dll
 0003:000002e4       __imp__NtClose@4           100552e4     ntdll:ntdll.dll
 0003:000002e8       __imp__RtlReAllocateHeap@16 100552e8     ntdll:ntdll.dll
 0003:000002ec       __imp__NtOpenKey@12        100552ec     ntdll:ntdll.dll
 0003:000002f0       __imp__NtQuerySystemInformation@16 100552f0     ntdll:ntdll.dll
 0003:000002f4       __imp__RtlAllocateHeap@12  100552f4     ntdll:ntdll.dll
 0003:000002f8       __imp__RtlDestroyHeap@4    100552f8     ntdll:ntdll.dll
 0003:000002fc       __imp__NtQueryVirtualMemory@24 100552fc     ntdll:ntdll.dll
 0003:00000300       \177ntdll_NULL_THUNK_DATA  10055300     ntdll:ntdll.dll
 0003:00000304       ___guard_check_icall_fptr  10055304     LIBCMT:guard_support.obj
 0003:00000308       ___castguard_check_failure_os_handled_fptr 10055308     LIBCMT:guard_support.obj
 0003:0000030c       ___xc_a                    1005530c     LIBCMT:initializers.obj
 0003:00000330       ___xc_z                    10055330     LIBCMT:initializers.obj
 0003:00000334       ___xi_a                    10055334     LIBCMT:initializers.obj
 0003:0000033c       ___acrt_stdio_initializer  1005533c     libucrt:stdio_initializer.obj
 0003:00000340       ___acrt_multibyte_initializer 10055340     libucrt:multibyte_initializer.obj
 0003:00000344       ___acrt_tran_sse2_initializer 10055344     libucrt:sse2_initializer.obj
 0003:00000348       ___xi_z                    10055348     LIBCMT:initializers.obj
 0003:0000034c       ___xl_a                    1005534c     LIBCMT:tlssup.obj
 0003:00000350       ___xl_z                    10055350     LIBCMT:tlssup.obj
 0003:00000354       ___xp_a                    10055354     LIBCMT:initializers.obj
 0003:00000358       ___acrt_locale_terminator  10055358     libucrt:locale_initializer.obj
 0003:0000035c       ___dcrt_console_output_terminator 1005535c     libucrt:console_output_initializer.obj
 0003:00000360       ___acrt_stdio_terminator   10055360     libucrt:stdio_initializer.obj
 0003:00000364       ___xp_z                    10055364     LIBCMT:initializers.obj
 0003:00000368       ___xt_a                    10055368     LIBCMT:initializers.obj
 0003:0000036c       ___xt_z                    1005536c     LIBCMT:initializers.obj
 0003:000003b4       __GUID_00000001_0000_0000_c000_000000000046 100553b4     diaguids:guidstr.obj
 0003:000003c4       ??_C@_0BC@JDLGBILA@DllGetClassObject@ 100553c4     diaguids:guidstr.obj
 0003:000003d8       _CLSID_DiaSource           100553d8     diaguids:dia2_i.obj
 0003:000003e8       _FOLDERID_ProgramData      100553e8     shell32:shguid.obj
 0003:000003fc       ??_7exception@std@@6B@     100553fc     libcpmt:xthrow.obj
 0003:00000408       ??_7bad_alloc@std@@6B@     10055408     libcpmt:xthrow.obj
 0003:00000410       ??_C@_0P@GHFPNOJB@bad?5allocation@ 10055410     libcpmt:xthrow.obj
 0003:00000424       ??_7bad_function_call@std@@6B@ 10055424     libcpmt:xthrow.obj
 0003:0000042c       ??_C@_0BC@DPJNKNAF@bad?5function?5call@ 1005542c     libcpmt:xthrow.obj
 0003:00000444       ??_7logic_error@std@@6B@   10055444     libcpmt:xthrow.obj
 0003:00000450       ??_7invalid_argument@std@@6B@ 10055450     libcpmt:xthrow.obj
 0003:0000045c       ??_7length_error@std@@6B@  1005545c     libcpmt:xthrow.obj
 0003:00000468       ??_7out_of_range@std@@6B@  10055468     libcpmt:xthrow.obj
 0003:00000474       ??_7runtime_error@std@@6B@ 10055474     libcpmt:xthrow.obj
 0003:000029b0       __xmm@ff00ff00ff00ff00ff00ff00ff00ff00 100579b0     libcpmt:vector_algorithms.obj
 0003:000029c0       __ymm@0000001f0000001f0000001f0000001f0000001f0000001f0000001f0000001f 100579c0     libcpmt:vector_algorithms.obj
 0003:000029e0       __ymm@ffffff00ffffff00ffffff00ffffff00ffffff00ffffff00ffffff00ffffff00 100579e0     libcpmt:vector_algorithms.obj
 0003:00002f18       ??_C@_07IPNMCAN@success@   10057f18     libcpmt:syserror.obj
 0003:00002f20       ??_C@_0BN@LKKBCCDB@address?5family?5not?5supported@ 10057f20     libcpmt:syserror.obj
 0003:00002f40       ??_C@_0P@LDMLAFHI@address?5in?5use@ 10057f40     libcpmt:syserror.obj
 0003:00002f50       ??_C@_0BG@DHPCNBJB@address?5not?5available@ 10057f50     libcpmt:syserror.obj
 0003:00002f68       ??_C@_0BC@DFIBIBIL@already?5connected@ 10057f68     libcpmt:syserror.obj
 0003:00002f7c       ??_C@_0BH@CAKOHOMI@argument?5list?5too?5long@ 10057f7c     libcpmt:syserror.obj
 0003:00002f94       ??_C@_0BH@CGIMPKIM@argument?5out?5of?5domain@ 10057f94     libcpmt:syserror.obj
 0003:00002fac       ??_C@_0M@KGHGGJGL@bad?5address@ 10057fac     libcpmt:syserror.obj
 0003:00002fb8       ??_C@_0BE@MPJPGCEO@bad?5file?5descriptor@ 10057fb8     libcpmt:syserror.obj
 0003:00002fcc       ??_C@_0M@PMMIEFCP@bad?5message@ 10057fcc     libcpmt:syserror.obj
 0003:00002fd8       ??_C@_0M@KPHOFDBE@broken?5pipe@ 10057fd8     libcpmt:syserror.obj
 0003:00002fe4       ??_C@_0BD@MGNDDEGM@connection?5aborted@ 10057fe4     libcpmt:syserror.obj
 0003:00002ff8       ??_C@_0BP@KAIHPOGN@connection?5already?5in?5progress@ 10057ff8     libcpmt:syserror.obj
 0003:00003018       ??_C@_0BD@PJLIIJEL@connection?5refused@ 10058018     libcpmt:syserror.obj
 0003:0000302c       ??_C@_0BB@IECNJNOI@connection?5reset@ 1005802c     libcpmt:syserror.obj
 0003:00003040       ??_C@_0BC@PPHBOELF@cross?5device?5link@ 10058040     libcpmt:syserror.obj
 0003:00003054       ??_C@_0BN@KDMIFEIP@destination?5address?5required@ 10058054     libcpmt:syserror.obj
 0003:00003074       ??_C@_0BI@NGCEHDD@device?5or?5resource?5busy@ 10058074     libcpmt:syserror.obj
 0003:0000308c       ??_C@_0BE@JIDOCPHM@directory?5not?5empty@ 1005808c     libcpmt:syserror.obj
 0003:000030a0       ??_C@_0BI@BNCLIGPB@executable?5format?5error@ 100580a0     libcpmt:syserror.obj
 0003:000030b8       ??_C@_0M@MIDIAGJP@file?5exists@ 100580b8     libcpmt:syserror.obj
 0003:000030c4       ??_C@_0P@DNAJLBJK@file?5too?5large@ 100580c4     libcpmt:syserror.obj
 0003:000030d4       ??_C@_0BC@EJHOMAAK@filename?5too?5long@ 100580d4     libcpmt:syserror.obj
 0003:000030e8       ??_C@_0BH@KEFGLDAF@function?5not?5supported@ 100580e8     libcpmt:syserror.obj
 0003:00003100       ??_C@_0BB@DHFDFGDM@host?5unreachable@ 10058100     libcpmt:syserror.obj
 0003:00003114       ??_C@_0BD@JPHBMONG@identifier?5removed@ 10058114     libcpmt:syserror.obj
 0003:00003128       ??_C@_0BG@CDNPAGJK@illegal?5byte?5sequence@ 10058128     libcpmt:syserror.obj
 0003:00003140       ??_C@_0CD@BNPLBMNA@inappropriate?5io?5control?5operat@ 10058140     libcpmt:syserror.obj
 0003:00003164       ??_C@_0M@EGEKIIMP@interrupted@ 10058164     libcpmt:syserror.obj
 0003:00003170       ??_C@_0BB@FCMFBGOM@invalid?5argument@ 10058170     libcpmt:syserror.obj
 0003:00003184       ??_C@_0N@OHAFKDEK@invalid?5seek@ 10058184     libcpmt:syserror.obj
 0003:00003194       ??_C@_08GLNPIFBN@io?5error@ 10058194     libcpmt:syserror.obj
 0003:000031a0       ??_C@_0P@FLLDBIDK@is?5a?5directory@ 100581a0     libcpmt:syserror.obj
 0003:000031b0       ??_C@_0N@IFLPBIOP@message?5size@ 100581b0     libcpmt:syserror.obj
 0003:000031c0       ??_C@_0N@KIIEAAIO@network?5down@ 100581c0     libcpmt:syserror.obj
 0003:000031d0       ??_C@_0O@FNPDBHEE@network?5reset@ 100581d0     libcpmt:syserror.obj
 0003:000031e0       ??_C@_0BE@IFNCKGE@network?5unreachable@ 100581e0     libcpmt:syserror.obj
 0003:000031f4       ??_C@_0BA@PFFCAOFK@no?5buffer?5space@ 100581f4     libcpmt:syserror.obj
 0003:00003204       ??_C@_0BB@IEPBLJHK@no?5child?5process@ 10058204     libcpmt:syserror.obj
 0003:00003218       ??_C@_07PLECNNKG@no?5link@ 10058218     libcpmt:syserror.obj
 0003:00003220       ??_C@_0BC@NJECKMKE@no?5lock?5available@ 10058220     libcpmt:syserror.obj
 0003:00003234       ??_C@_0BF@PBGGPKKE@no?5message?5available@ 10058234     libcpmt:syserror.obj
 0003:0000324c       ??_C@_0L@EDOLMPAK@no?5message@ 1005824c     libcpmt:syserror.obj
 0003:00003258       ??_C@_0BD@EAMBFIDF@no?5protocol?5option@ 10058258     libcpmt:syserror.obj
 0003:0000326c       ??_C@_0BD@IJDJKDEA@no?5space?5on?5device@ 1005826c     libcpmt:syserror.obj
 0003:00003280       ??_C@_0BE@MKFDAFMP@no?5stream?5resources@ 10058280     libcpmt:syserror.obj
 0003:00003294       ??_C@_0BK@IMCPHCBI@no?5such?5device?5or?5address@ 10058294     libcpmt:syserror.obj
 0003:000032b0       ??_C@_0P@FDINDDOK@no?5such?5device@ 100582b0     libcpmt:syserror.obj
 0003:000032c0       ??_C@_0BK@NDOCBPGE@no?5such?5file?5or?5directory@ 100582c0     libcpmt:syserror.obj
 0003:000032dc       ??_C@_0BA@ENLPPKBN@no?5such?5process@ 100582dc     libcpmt:syserror.obj
 0003:000032ec       ??_C@_0BA@DOCPFFJG@not?5a?5directory@ 100582ec     libcpmt:syserror.obj
 0003:000032fc       ??_C@_0N@POEIPGGF@not?5a?5socket@ 100582fc     libcpmt:syserror.obj
 0003:0000330c       ??_C@_0N@LGAPMMPI@not?5a?5stream@ 1005830c     libcpmt:syserror.obj
 0003:0000331c       ??_C@_0O@GLMIBBEG@not?5connected@ 1005831c     libcpmt:syserror.obj
 0003:0000332c       ??_C@_0BC@ENOOLCNF@not?5enough?5memory@ 1005832c     libcpmt:syserror.obj
 0003:00003340       ??_C@_0O@NHEDABJP@not?5supported@ 10058340     libcpmt:syserror.obj
 0003:00003350       ??_C@_0BD@MOLBPMEA@operation?5canceled@ 10058350     libcpmt:syserror.obj
 0003:00003364       ??_C@_0BG@KDKHOPCO@operation?5in?5progress@ 10058364     libcpmt:syserror.obj
 0003:0000337c       ??_C@_0BI@OHIEJAAB@operation?5not?5permitted@ 1005837c     libcpmt:syserror.obj
 0003:00003394       ??_C@_0BI@LNEGIFLN@operation?5not?5supported@ 10058394     libcpmt:syserror.obj
 0003:000033ac       ??_C@_0BG@OEMDKMEE@operation?5would?5block@ 100583ac     libcpmt:syserror.obj
 0003:000033c4       ??_C@_0L@BLPOFLNJ@owner?5dead@ 100583c4     libcpmt:syserror.obj
 0003:000033d0       ??_C@_0BC@CIJDGCDI@permission?5denied@ 100583d0     libcpmt:syserror.obj
 0003:000033e4       ??_C@_0P@FNPOCJBE@protocol?5error@ 100583e4     libcpmt:syserror.obj
 0003:000033f4       ??_C@_0BH@JPPPLHJB@protocol?5not?5supported@ 100583f4     libcpmt:syserror.obj
 0003:0000340c       ??_C@_0BG@EICBIHDP@read?5only?5file?5system@ 1005840c     libcpmt:syserror.obj
 0003:00003424       ??_C@_0BO@BJBOMOEJ@resource?5deadlock?5would?5occur@ 10058424     libcpmt:syserror.obj
 0003:00003444       ??_C@_0BP@LKNGHENJ@resource?5unavailable?5try?5again@ 10058444     libcpmt:syserror.obj
 0003:00003464       ??_C@_0BE@GOIPJJHG@result?5out?5of?5range@ 10058464     libcpmt:syserror.obj
 0003:00003478       ??_C@_0BG@MPLKFPAE@state?5not?5recoverable@ 10058478     libcpmt:syserror.obj
 0003:00003490       ??_C@_0P@DIIFGFCG@stream?5timeout@ 10058490     libcpmt:syserror.obj
 0003:000034a0       ??_C@_0P@IPFDMIFL@text?5file?5busy@ 100584a0     libcpmt:syserror.obj
 0003:000034b0       ??_C@_09KJPPMAOI@timed?5out@ 100584b0     libcpmt:syserror.obj
 0003:000034bc       ??_C@_0BO@HACHBEKI@too?5many?5files?5open?5in?5system@ 100584bc     libcpmt:syserror.obj
 0003:000034dc       ??_C@_0BE@GHAFMPAH@too?5many?5files?5open@ 100584dc     libcpmt:syserror.obj
 0003:000034f0       ??_C@_0P@HCOMKFCC@too?5many?5links@ 100584f0     libcpmt:syserror.obj
 0003:00003500       ??_C@_0BO@EFGOJEF@too?5many?5symbolic?5link?5levels@ 10058500     libcpmt:syserror.obj
 0003:00003520       ??_C@_0BA@KGKGOOJA@value?5too?5large@ 10058520     libcpmt:syserror.obj
 0003:00003530       ??_C@_0BE@MIEJDDNH@wrong?5protocol?5type@ 10058530     libcpmt:syserror.obj
 0003:00003544       ??_C@_0O@BFJCFAAK@unknown?5error@ 10058544     libcpmt:syserror.obj
 0003:00003658       ??_C@_1CM@BFAMBNFD@?$AA?$CB?$AAx?$AA?9?$AAs?$AAy?$AAs?$AA?9?$AAd?$AAe?$AAf?$AAa?$AAu?$AAl?$AAt?$AA?9@ 10058658     libcpmt:syserror_import_lib.obj
 0003:000036c0       ??_7bad_array_new_length@std@@6B@ 100586c0     libcpmt:thread0.obj
 0003:000036cc       ??_7_System_error@std@@6B@ 100586cc     libcpmt:thread0.obj
 0003:000036d8       ??_7system_error@std@@6B@  100586d8     libcpmt:thread0.obj
 0003:000036e4       ??_7_Generic_error_category@std@@6B@ 100586e4     libcpmt:thread0.obj
 0003:000036fc       ??_C@_0O@NNMIPI@GetTempPath2W@ 100586fc     libcpmt:filesystem.obj
 0003:0000370c       ??_C@_0BP@FPNJPEJC@GetSystemTimePreciseAsFileTime@ 1005870c     libcpmt:winapisupp.obj
 0003:00003738       ??_7type_info@@6B@         10058738     LIBCMT:std_type_info_static.obj
 0003:0000373c       __pDefaultRawDllMain       1005873c     LIBCMT:dll_dllmain.obj
 0003:0000373c       __pRawDllMain              1005873c     LIBCMT:dll_dllmain.obj
 0003:00003740       __pDestructExceptionObject 10058740     libvcruntime:ehhelpers.obj
 0003:00003750       __xmm@00000000000000000000000000000000 10058750     libvcruntime:wcsstr.obj
 0003:00003764       ??_7bad_exception@std@@6B@ 10058764     libvcruntime:frame.obj
 0003:0000376c       ??_C@_0O@DPKOEFFH@bad?5exception@ 1005876c     libvcruntime:frame.obj
 0003:00003b08       ??_C@_08EHJDFFNH@__based?$CI@ 10058b08     libvcruntime:undname.obj
 0003:00003b14       ??_C@_07KOLFKCDI@__cdecl@  10058b14     libvcruntime:undname.obj
 0003:00003b1c       ??_C@_09IFJBGAPI@__stdcall@ 10058b1c     libvcruntime:undname.obj
 0003:00003b28       ??_C@_0L@NPHFGOKO@__thiscall@ 10058b28     libvcruntime:undname.obj
 0003:00003b34       ??_C@_0L@JMKHOMEK@__fastcall@ 10058b34     libvcruntime:undname.obj
 0003:00003b40       ??_C@_0N@BCKKPABJ@__vectorcall@ 10058b40     libvcruntime:undname.obj
 0003:00003b50       ??_C@_0BA@NAGGFLJK@__preserve_none@ 10058b50     libvcruntime:undname.obj
 0003:00003b60       ??_C@_09HIJEGCPM@__clrcall@ 10058b60     libvcruntime:undname.obj
 0003:00003b6c       ??_C@_06GHPCKEAG@__eabi@   10058b6c     libvcruntime:undname.obj
 0003:00003b74       ??_C@_09IOPIDJLG@__swift_1@ 10058b74     libvcruntime:undname.obj
 0003:00003b80       ??_C@_09KFNFGKHF@__swift_2@ 10058b80     libvcruntime:undname.obj
 0003:00003b8c       ??_C@_09LMMOFLDE@__swift_3@ 10058b8c     libvcruntime:undname.obj
 0003:00003b98       ??_C@_07JOMMBBKO@__ptr64@  10058b98     libvcruntime:undname.obj
 0003:00003ba0       ??_C@_0L@PILCLIHE@__restrict@ 10058ba0     libvcruntime:undname.obj
 0003:00003bac       ??_C@_0M@GFIIJFMG@__unaligned@ 10058bac     libvcruntime:undname.obj
 0003:00003bb8       ??_C@_09DHDLOLLB@restrict?$CI@ 10058bb8     libvcruntime:undname.obj
 0003:00003bc4       ??_C@_04NIHEBCM@?5new@     10058bc4     libvcruntime:undname.obj
 0003:00003bcc       ??_C@_07FPCDHGMM@?5delete@ 10058bcc     libvcruntime:undname.obj
 0003:00003bd4       ??_C@_01NEMOKFLO@?$DN@     10058bd4     libvcruntime:undname.obj
 0003:00003bd8       ??_C@_02GPIOPFAK@?$DO?$DO@ 10058bd8     libvcruntime:undname.obj
 0003:00003bdc       ??_C@_02FODMEDOG@?$DM?$DM@ 10058bdc     libvcruntime:undname.obj
 0003:00003be0       ??_C@_01DCLJPIOD@?$CB@     10058be0     libvcruntime:undname.obj
 0003:00003be4       ??_C@_02EGOFBIJA@?$DN?$DN@ 10058be4     libvcruntime:undname.obj
 0003:00003be8       ??_C@_02FDNJECIE@?$CB?$DN@ 10058be8     libvcruntime:undname.obj
 0003:00003bec       ??_C@_02GPECMEKF@?$FL?$FN@ 10058bec     libvcruntime:undname.obj
 0003:00003bf0       ??_C@_08LHJFAFGD@operator@ 10058bf0     libvcruntime:undname.obj
 0003:00003bfc       ??_C@_02HBOOOICD@?9?$DO@   10058bfc     libvcruntime:undname.obj
 0003:00003c00       ??_C@_02ECNGHCIF@?$CL?$CL@ 10058c00     libvcruntime:undname.obj
 0003:00003c04       ??_C@_02BAABKJLB@?9?9@     10058c04     libvcruntime:undname.obj
 0003:00003c08       ??_C@_01HNPIGOCE@?$CG@     10058c08     libvcruntime:undname.obj
 0003:00003c0c       ??_C@_03MNHNFDLC@?9?$DO?$CK@ 10058c0c     libvcruntime:undname.obj
 0003:00003c10       ??_C@_01KMDKNFGN@?1@       10058c10     libvcruntime:undname.obj
 0003:00003c14       ??_C@_01MNNFJEPP@?$DM@     10058c14     libvcruntime:undname.obj
 0003:00003c18       ??_C@_02EHCHHCKH@?$DM?$DN@ 10058c18     libvcruntime:undname.obj
 0003:00003c1c       ??_C@_01PPODPGHN@?$DO@     10058c1c     libvcruntime:undname.obj
 0003:00003c20       ??_C@_02EEKDKGMJ@?$DO?$DN@ 10058c20     libvcruntime:undname.obj
 0003:00003c24       ??_C@_02HCKGKOFO@?$CI?$CJ@ 10058c24     libvcruntime:undname.obj
 0003:00003c28       ??_C@_01PJKLJHI@?$HO@      10058c28     libvcruntime:undname.obj
 0003:00003c2c       ??_C@_01JKBOJNNK@?$FO@     10058c2c     libvcruntime:undname.obj
 0003:00003c30       ??_C@_01DNKMNLPK@?$HM@     10058c30     libvcruntime:undname.obj
 0003:00003c34       ??_C@_02PPKAJPJL@?$CG?$CG@ 10058c34     libvcruntime:undname.obj
 0003:00003c38       ??_C@_02NONPIBCD@?$HM?$HM@ 10058c38     libvcruntime:undname.obj
 0003:00003c3c       ??_C@_02FPIMKNGF@?$CK?$DN@ 10058c3c     libvcruntime:undname.obj
 0003:00003c40       ??_C@_02FOEOMHFC@?$CL?$DN@ 10058c40     libvcruntime:undname.obj
 0003:00003c44       ??_C@_02FKMDLLOA@?9?$DN@   10058c44     libvcruntime:undname.obj
 0003:00003c48       ??_C@_02FJEHGPIO@?1?$DN@   10058c48     libvcruntime:undname.obj
 0003:00003c4c       ??_C@_02FENAOKFI@?$CF?$DN@ 10058c4c     libvcruntime:undname.obj
 0003:00003c50       ??_C@_03IKFCCPFF@?$DO?$DO?$DN@ 10058c50     libvcruntime:undname.obj
 0003:00003c54       ??_C@_03CDNPDDLA@?$DM?$DM?$DN@ 10058c54     libvcruntime:undname.obj
 0003:00003c58       ??_C@_02FGJGFEAB@?$CG?$DN@ 10058c58     libvcruntime:undname.obj
 0003:00003c5c       ??_C@_02DHLNPPGH@?$HM?$DN@ 10058c5c     libvcruntime:undname.obj
 0003:00003c60       ??_C@_02MHEGNOJ@?$FO?$DN@  10058c60     libvcruntime:undname.obj
 0003:00003c64       ??_C@_09IFPLHPGF@?$GAvftable?8@ 10058c64     libvcruntime:undname.obj
 0003:00003c70       ??_C@_09BLBHBJP@?$GAvbtable?8@ 10058c70     libvcruntime:undname.obj
 0003:00003c7c       ??_C@_07FEEIOKP@?$GAvcall?8@ 10058c7c     libvcruntime:undname.obj
 0003:00003c84       ??_C@_08LLFFHHDJ@?$GAtypeof?8@ 10058c84     libvcruntime:undname.obj
 0003:00003c90       ??_C@_0BF@KDPPACIK@?$GAlocal?5static?5guard?8@ 10058c90     libvcruntime:undname.obj
 0003:00003ca8       ??_C@_08OBABFOLI@?$GAstring?8@ 10058ca8     libvcruntime:undname.obj
 0003:00003cb4       ??_C@_0BD@JDLKDPAB@?$GAvbase?5destructor?8@ 10058cb4     libvcruntime:undname.obj
 0003:00003cc8       ??_C@_0BN@DEGPLNFK@?$GAvector?5deleting?5destructor?8@ 10058cc8     libvcruntime:undname.obj
 0003:00003ce8       ??_C@_0BO@OBMKPJIG@?$GAdefault?5constructor?5closure?8@ 10058ce8     libvcruntime:undname.obj
 0003:00003d08       ??_C@_0BN@IMDCHIKM@?$GAscalar?5deleting?5destructor?8@ 10058d08     libvcruntime:undname.obj
 0003:00003d28       ??_C@_0BO@PFGOCPJJ@?$GAvector?5constructor?5iterator?8@ 10058d28     libvcruntime:undname.obj
 0003:00003d48       ??_C@_0BN@LFPFMEDL@?$GAvector?5destructor?5iterator?8@ 10058d48     libvcruntime:undname.obj
 0003:00003d68       ??_C@_0CE@IKBNEHA@?$GAvector?5vbase?5constructor?5itera@ 10058d68     libvcruntime:undname.obj
 0003:00003d8c       ??_C@_0BL@NILFHHPC@?$GAvirtual?5displacement?5map?8@ 10058d8c     libvcruntime:undname.obj
 0003:00003da8       ??_C@_0CB@JONCMFFK@?$GAeh?5vector?5constructor?5iterator@ 10058da8     libvcruntime:undname.obj
 0003:00003dcc       ??_C@_0CA@GCEOPDGL@?$GAeh?5vector?5destructor?5iterator?8@ 10058dcc     libvcruntime:undname.obj
 0003:00003dec       ??_C@_0CH@OOJPLCPH@?$GAeh?5vector?5vbase?5constructor?5it@ 10058dec     libvcruntime:undname.obj
 0003:00003e14       ??_C@_0BL@LLKPOHJI@?$GAcopy?5constructor?5closure?8@ 10058e14     libvcruntime:undname.obj
 0003:00003e30       ??_C@_0BA@KBCDOMBN@?$GAudt?5returning?8@ 10058e30     libvcruntime:undname.obj
 0003:00003e40       ??_C@_03KLGMFNMG@?$GAEH@   10058e40     libvcruntime:undname.obj
 0003:00003e44       ??_C@_05KHLCHHI@?$GARTTI@  10058e44     libvcruntime:undname.obj
 0003:00003e4c       ??_C@_0BA@KKLDJDLB@?$GAlocal?5vftable?8@ 10058e4c     libvcruntime:undname.obj
 0003:00003e5c       ??_C@_0CE@IIHCMGGL@?$GAlocal?5vftable?5constructor?5clos@ 10058e5c     libvcruntime:undname.obj
 0003:00003e80       ??_C@_06FHBGPFGH@?5new?$FL?$FN@ 10058e80     libvcruntime:undname.obj
 0003:00003e88       ??_C@_09LBNFPBCA@?5delete?$FL?$FN@ 10058e88     libvcruntime:undname.obj
 0003:00003e94       ??_C@_0P@HJKNJFNN@?$GAomni?5callsig?8@ 10058e94     libvcruntime:undname.obj
 0003:00003ea4       ??_C@_0BL@CNOONJFP@?$GAplacement?5delete?5closure?8@ 10058ea4     libvcruntime:undname.obj
 0003:00003ec0       ??_C@_0BN@CKNJLHMB@?$GAplacement?5delete?$FL?$FN?5closure?8@ 10058ec0     libvcruntime:undname.obj
 0003:00003ee0       ??_C@_0CG@CFDHKGGD@?$GAmanaged?5vector?5constructor?5ite@ 10058ee0     libvcruntime:undname.obj
 0003:00003f08       ??_C@_0CF@IMGKMJNO@?$GAmanaged?5vector?5destructor?5iter@ 10058f08     libvcruntime:undname.obj
 0003:00003f30       ??_C@_0CG@HLDDJMAG@?$GAeh?5vector?5copy?5constructor?5ite@ 10058f30     libvcruntime:undname.obj
 0003:00003f58       ??_C@_0CM@FCBBDIGB@?$GAeh?5vector?5vbase?5copy?5construct@ 10058f58     libvcruntime:undname.obj
 0003:00003f84       ??_C@_0BL@CLIPGLGB@?$GAdynamic?5initializer?5for?5?8@ 10058f84     libvcruntime:undname.obj
 0003:00003fa0       ??_C@_0CB@PDBIFEP@?$GAdynamic?5atexit?5destructor?5for?5@ 10058fa0     libvcruntime:undname.obj
 0003:00003fc4       ??_C@_0CD@CGAJBKEJ@?$GAvector?5copy?5constructor?5iterat@ 10058fc4     libvcruntime:undname.obj
 0003:00003fe8       ??_C@_0CJ@GJELGAMM@?$GAvector?5vbase?5copy?5constructor?5@ 10058fe8     libvcruntime:undname.obj
 0003:00004014       ??_C@_0CL@FGIJHLCE@?$GAmanaged?5vector?5copy?5constructo@ 10059014     libvcruntime:undname.obj
 0003:00004040       ??_C@_0BM@PMGGMLDN@?$GAlocal?5static?5thread?5guard?8@ 10059040     libvcruntime:undname.obj
 0003:0000405c       ??_C@_0N@BDNMDMOL@operator?5?$CC?$CC?5@ 1005905c     libvcruntime:undname.obj
 0003:0000406c       ??_C@_0BC@GGEBGALA@operator?5co_await@ 1005906c     libvcruntime:undname.obj
 0003:00004080       ??_C@_0M@GAAIMMOH@operator?$DM?$DN?$DO@ 10059080     libvcruntime:undname.obj
 0003:0000408c       ??_C@_0BC@DAFEJGAK@?5Type?5Descriptor?8@ 1005908c     libvcruntime:undname.obj
 0003:000040a0       ??_C@_0BM@LDKODKLH@?5Base?5Class?5Descriptor?5at?5?$CI@ 100590a0     libvcruntime:undname.obj
 0003:000040bc       ??_C@_0BD@LGICGFMM@?5Base?5Class?5Array?8@ 100590bc     libvcruntime:undname.obj
 0003:000040d0       ??_C@_0BN@MECKDCOJ@?5Class?5Hierarchy?5Descriptor?8@ 100590d0     libvcruntime:undname.obj
 0003:000040f0       ??_C@_0BK@CFCOFLF@?5Complete?5Object?5Locator?8@ 100590f0     libvcruntime:undname.obj
 0003:0000410c       ??_C@_0BG@JNJLAMPM@?$GAanonymous?5namespace?8@ 1005910c     libvcruntime:undname.obj
 0003:00004130       ??_C@_1DM@KHCHBNEB@?$AAa?$AAp?$AAi?$AA?9?$AAm?$AAs?$AA?9?$AAw?$AAi?$AAn?$AA?9?$AAc?$AAo?$AAr?$AAe@ 10059130     libvcruntime:winapi_downlevel.obj
 0003:0000416c       ??_C@_1DK@LPPGFMPP@?$AAa?$AAp?$AAi?$AA?9?$AAm?$AAs?$AA?9?$AAw?$AAi?$AAn?$AA?9?$AAc?$AAo?$AAr?$AAe@ 1005916c     libvcruntime:winapi_downlevel.obj
 0003:000041a8       ??_C@_1BC@GDMECMAK@?$AAk?$AAe?$AAr?$AAn?$AAe?$AAl?$AA3?$AA2@ 100591a8     libvcruntime:winapi_downlevel.obj
 0003:000041bc       ??_C@_1BA@PFFKHIOG@?$AAa?$AAp?$AAi?$AA?9?$AAm?$AAs?$AA?9@ 100591bc     libvcruntime:winapi_downlevel.obj
 0003:000041d4       ??_C@_08KNHFBNJ@FlsAlloc@  100591d4     libvcruntime:winapi_downlevel.obj
 0003:000041e8       ??_C@_07PEJMOBNF@FlsFree@  100591e8     libvcruntime:winapi_downlevel.obj
 0003:000041f8       ??_C@_0M@GDNOONDI@FlsGetValue@ 100591f8     libvcruntime:winapi_downlevel.obj
 0003:0000420c       ??_C@_0M@JCPCPOEF@FlsSetValue@ 1005920c     libvcruntime:winapi_downlevel.obj
 0003:00004220       ??_C@_0BM@HCFOFFN@InitializeCriticalSectionEx@ 10059220     libvcruntime:winapi_downlevel.obj
 0003:00004240       ?standard_lookup_table_spectre@__crt_stdio_output@@3V?$spectre_mitigated_lookup_table@Ustate_transition_pair@__crt_stdio_output@@$0IA@@1@B 10059240     libucrt:output.obj
 0003:00004340       ?format_validation_lookup_table_spectre@__crt_stdio_output@@3V?$spectre_mitigated_lookup_table@Ustate_transition_pair@__crt_stdio_output@@$0IA@@1@B 10059340     libucrt:output.obj
 0003:00004440       ??_C@_1O@CEDCILHN@?$AA?$CI?$AAn?$AAu?$AAl?$AAl?$AA?$CJ@ 10059440     libucrt:output.obj
 0003:00004450       ??_C@_06OJHGLDPL@?$CInull?$CJ@ 10059450     libucrt:output.obj
 0003:000045c0       ___acrt_exception_action_table 100595c0     libucrt:exception_filter.obj
 0003:00004650       ___acrt_signal_action_table_count 10059650     libucrt:exception_filter.obj
 0003:00004654       ___acrt_signal_action_first_fpe_index 10059654     libucrt:exception_filter.obj
 0003:00004658       ___acrt_signal_action_fpe_count 10059658     libucrt:exception_filter.obj
 0003:0000465c       ??_C@_1BI@BGOHAHKC@?$AAm?$AAs?$AAc?$AAo?$AAr?$AAe?$AAe?$AA?4?$AAd?$AAl?$AAl@ 1005965c     libucrt:exit.obj
 0003:00004674       ??_C@_0P@MIGLKIOC@CorExitProcess@ 10059674     libucrt:exit.obj
 0003:00004748       ??_C@_03OEIAHPBN@INF@      10059748     libucrt:cvt.obj
 0003:0000474c       ??_C@_03OJHLLCGB@inf@      1005974c     libucrt:cvt.obj
 0003:00004750       ??_C@_03LKNCIKJB@NAN@      10059750     libucrt:cvt.obj
 0003:00004754       ??_C@_03LHCJEHON@nan@      10059754     libucrt:cvt.obj
 0003:00004758       ??_C@_09OFJJIMPC@NAN?$CISNAN?$CJ@ 10059758     libucrt:cvt.obj
 0003:00004764       ??_C@_09IPFBKMDL@nan?$CIsnan?$CJ@ 10059764     libucrt:cvt.obj
 0003:00004770       ??_C@_08IKHNHAJ@NAN?$CIIND?$CJ@ 10059770     libucrt:cvt.obj
 0003:0000477c       ??_C@_08OFCDMILK@nan?$CIind?$CJ@ 1005977c     libucrt:cvt.obj
 0003:00004788       ??_C@_05KLBDPFGC@e?$CL000@ 10059788     libucrt:cvt.obj
 0003:00004790       ___lc_time_c               10059790     libucrt:nlsdata.obj
 0003:000048f4       ??_C@_03KOEHGMDN@Sun@      100598f4     libucrt:nlsdata.obj
 0003:000048f8       ??_C@_03PDAGKDH@Mon@       100598f8     libucrt:nlsdata.obj
 0003:000048fc       ??_C@_03NAGEINEP@Tue@      100598fc     libucrt:nlsdata.obj
 0003:00004900       ??_C@_03MHOMLAJA@Wed@      10059900     libucrt:nlsdata.obj
 0003:00004904       ??_C@_03IOFIKPDN@Thu@      10059904     libucrt:nlsdata.obj
 0003:00004908       ??_C@_03IDIOELNC@Fri@      10059908     libucrt:nlsdata.obj
 0003:0000490c       ??_C@_03FEFJNEK@Sat@       1005990c     libucrt:nlsdata.obj
 0003:00004910       ??_C@_06OOPIFAJ@Sunday@    10059910     libucrt:nlsdata.obj
 0003:00004918       ??_C@_06JLEDEDGH@Monday@   10059918     libucrt:nlsdata.obj
 0003:00004920       ??_C@_07BAAGCFCM@Tuesday@  10059920     libucrt:nlsdata.obj
 0003:00004928       ??_C@_09DLIGFAKA@Wednesday@ 10059928     libucrt:nlsdata.obj
 0003:00004934       ??_C@_08HACCIKIA@Thursday@ 10059934     libucrt:nlsdata.obj
 0003:00004940       ??_C@_06JECMNKMI@Friday@   10059940     libucrt:nlsdata.obj
 0003:00004948       ??_C@_08INBOOONO@Saturday@ 10059948     libucrt:nlsdata.obj
 0003:00004954       ??_C@_03JIHJHPIE@Jan@      10059954     libucrt:nlsdata.obj
 0003:00004958       ??_C@_03HJBDCHOM@Feb@      10059958     libucrt:nlsdata.obj
 0003:0000495c       ??_C@_03ODNJBKGA@Mar@      1005995c     libucrt:nlsdata.obj
 0003:00004960       ??_C@_03LEOLGMJP@Apr@      10059960     libucrt:nlsdata.obj
 0003:00004964       ??_C@_03CNMDKL@May@        10059964     libucrt:nlsdata.obj
 0003:00004968       ??_C@_03IDFGHECI@Jun@      10059968     libucrt:nlsdata.obj
 0003:0000496c       ??_C@_03LBGABGKK@Jul@      1005996c     libucrt:nlsdata.obj
 0003:00004970       ??_C@_03IFJFEIGA@Aug@      10059970     libucrt:nlsdata.obj
 0003:00004974       ??_C@_03GGCAPAJC@Sep@      10059974     libucrt:nlsdata.obj
 0003:00004978       ??_C@_03BMAOKBAD@Oct@      10059978     libucrt:nlsdata.obj
 0003:0000497c       ??_C@_03JPJOFNIA@Nov@      1005997c     libucrt:nlsdata.obj
 0003:00004980       ??_C@_03MKABNOCG@Dec@      10059980     libucrt:nlsdata.obj
 0003:00004984       ??_C@_07CGJPFGJA@January@  10059984     libucrt:nlsdata.obj
 0003:0000498c       ??_C@_08GNJGEPFN@February@ 1005998c     libucrt:nlsdata.obj
 0003:00004998       ??_C@_05HPCKOFNC@March@    10059998     libucrt:nlsdata.obj
 0003:000049a0       ??_C@_05DMJDNLEJ@April@    100599a0     libucrt:nlsdata.obj
 0003:000049a8       ??_C@_04CNLMGBGM@June@     100599a8     libucrt:nlsdata.obj
 0003:000049b0       ??_C@_04MIEPOIFP@July@     100599b0     libucrt:nlsdata.obj
 0003:000049b8       ??_C@_06LBBHFDDG@August@   100599b8     libucrt:nlsdata.obj
 0003:000049c0       ??_C@_09BHHEALKD@September@ 100599c0     libucrt:nlsdata.obj
 0003:000049cc       ??_C@_07JJNFCEND@October@  100599cc     libucrt:nlsdata.obj
 0003:000049d4       ??_C@_08HCHEGEOA@November@ 100599d4     libucrt:nlsdata.obj
 0003:000049e0       ??_C@_08EDHMEBNP@December@ 100599e0     libucrt:nlsdata.obj
 0003:000049ec       ??_C@_02DEDBPAFC@AM@       100599ec     libucrt:nlsdata.obj
 0003:000049f0       ??_C@_02CJNFDJBF@PM@       100599f0     libucrt:nlsdata.obj
 0003:000049f4       ??_C@_08BPBNCDIB@MM?1dd?1yy@ 100599f4     libucrt:nlsdata.obj
 0003:00004a00       ??_C@_0BE@CKGJFCPC@dddd?0?5MMMM?5dd?0?5yyyy@ 10059a00     libucrt:nlsdata.obj
 0003:00004a14       ??_C@_08JCCMCCIL@HH?3mm?3ss@ 10059a14     libucrt:nlsdata.obj
 0003:00004a20       ??_C@_17MBGCMIPB@?$AAS?$AAu?$AAn@ 10059a20     libucrt:nlsdata.obj
 0003:00004a28       ??_C@_17KBOMKBF@?$AAM?$AAo?$AAn@ 10059a28     libucrt:nlsdata.obj
 0003:00004a30       ??_C@_17BMKGEGOJ@?$AAT?$AAu?$AAe@ 10059a30     libucrt:nlsdata.obj
 0003:00004a38       ??_C@_17CJEDCEPE@?$AAW?$AAe?$AAd@ 10059a38     libucrt:nlsdata.obj
 0003:00004a40       ??_C@_17PDPHAADD@?$AAT?$AAh?$AAu@ 10059a40     libucrt:nlsdata.obj
 0003:00004a48       ??_C@_17HFOLPPLP@?$AAF?$AAr?$AAi@ 10059a48     libucrt:nlsdata.obj
 0003:00004a50       ??_C@_17GGIBDPIH@?$AAS?$AAa?$AAt@ 10059a50     libucrt:nlsdata.obj
 0003:00004a58       ??_C@_1O@IHNHDHPB@?$AAS?$AAu?$AAn?$AAd?$AAa?$AAy@ 10059a58     libucrt:nlsdata.obj
 0003:00004a68       ??_C@_1O@MMNBFLIA@?$AAM?$AAo?$AAn?$AAd?$AAa?$AAy@ 10059a68     libucrt:nlsdata.obj
 0003:00004a78       ??_C@_1BA@ENFBFFEK@?$AAT?$AAu?$AAe?$AAs?$AAd?$AAa?$AAy@ 10059a78     libucrt:nlsdata.obj
 0003:00004a88       ??_C@_1BE@EBOGMDOH@?$AAW?$AAe?$AAd?$AAn?$AAe?$AAs?$AAd?$AAa?$AAy@ 10059a88     libucrt:nlsdata.obj
 0003:00004a9c       ??_C@_1BC@HHMNLIHE@?$AAT?$AAh?$AAu?$AAr?$AAs?$AAd?$AAa?$AAy@ 10059a9c     libucrt:nlsdata.obj
 0003:00004ab0       ??_C@_1O@PDICJHAG@?$AAF?$AAr?$AAi?$AAd?$AAa?$AAy@ 10059ab0     libucrt:nlsdata.obj
 0003:00004ac0       ??_C@_1BC@ENMNNPAJ@?$AAS?$AAa?$AAt?$AAu?$AAr?$AAd?$AAa?$AAy@ 10059ac0     libucrt:nlsdata.obj
 0003:00004ad4       ??_C@_17DKNBKCHM@?$AAJ?$AAa?$AAn@ 10059ad4     libucrt:nlsdata.obj
 0003:00004adc       ??_C@_17LMDJEKJN@?$AAF?$AAe?$AAb@ 10059adc     libucrt:nlsdata.obj
 0003:00004ae4       ??_C@_17CKNLEDEC@?$AAM?$AAa?$AAr@ 10059ae4     libucrt:nlsdata.obj
 0003:00004aec       ??_C@_17LFPOIHDD@?$AAA?$AAp?$AAr@ 10059aec     libucrt:nlsdata.obj
 0003:00004af4       ??_C@_17PNNKMEED@?$AAM?$AAa?$AAy@ 10059af4     libucrt:nlsdata.obj
 0003:00004afc       ??_C@_17KCJGOCPB@?$AAJ?$AAu?$AAn@ 10059afc     libucrt:nlsdata.obj
 0003:00004b04       ??_C@_17IJPCKHK@?$AAJ?$AAu?$AAl@ 10059b04     libucrt:nlsdata.obj
 0003:00004b0c       ??_C@_17ICPELBCN@?$AAA?$AAu?$AAg@ 10059b0c     libucrt:nlsdata.obj
 0003:00004b14       ??_C@_17HCHCOKMG@?$AAS?$AAe?$AAp@ 10059b14     libucrt:nlsdata.obj
 0003:00004b1c       ??_C@_17FNLKOI@?$AAO?$AAc?$AAt@ 10059b1c     libucrt:nlsdata.obj
 0003:00004b24       ??_C@_17BBDMLCIG@?$AAN?$AAo?$AAv@ 10059b24     libucrt:nlsdata.obj
 0003:00004b2c       ??_C@_17EGKACKIF@?$AAD?$AAe?$AAc@ 10059b2c     libucrt:nlsdata.obj
 0003:00004b34       ??_C@_1BA@EFMEIEBA@?$AAJ?$AAa?$AAn?$AAu?$AAa?$AAr?$AAy@ 10059b34     libucrt:nlsdata.obj
 0003:00004b44       ??_C@_1BC@JGDDFFAM@?$AAF?$AAe?$AAb?$AAr?$AAu?$AAa?$AAr?$AAy@ 10059b44     libucrt:nlsdata.obj
 0003:00004b58       ??_C@_1M@IKEENEDF@?$AAM?$AAa?$AAr?$AAc?$AAh@ 10059b58     libucrt:nlsdata.obj
 0003:00004b64       ??_C@_1M@GJNLMHFD@?$AAA?$AAp?$AAr?$AAi?$AAl@ 10059b64     libucrt:nlsdata.obj
 0003:00004b70       ??_C@_19EPFLPGAP@?$AAJ?$AAu?$AAn?$AAe@ 10059b70     libucrt:nlsdata.obj
 0003:00004b7c       ??_C@_19BIFMLPCD@?$AAJ?$AAu?$AAl?$AAy@ 10059b7c     libucrt:nlsdata.obj
 0003:00004b88       ??_C@_1O@PAHLKOAC@?$AAA?$AAu?$AAg?$AAu?$AAs?$AAt@ 10059b88     libucrt:nlsdata.obj
 0003:00004b98       ??_C@_1BE@DKAAMBJL@?$AAS?$AAe?$AAp?$AAt?$AAe?$AAm?$AAb?$AAe?$AAr@ 10059b98     libucrt:nlsdata.obj
 0003:00004bac       ??_C@_1BA@EPANDLNG@?$AAO?$AAc?$AAt?$AAo?$AAb?$AAe?$AAr@ 10059bac     libucrt:nlsdata.obj
 0003:00004bbc       ??_C@_1BC@BGLIFPF@?$AAN?$AAo?$AAv?$AAe?$AAm?$AAb?$AAe?$AAr@ 10059bbc     libucrt:nlsdata.obj
 0003:00004bd0       ??_C@_1BC@FEMKIFH@?$AAD?$AAe?$AAc?$AAe?$AAm?$AAb?$AAe?$AAr@ 10059bd0     libucrt:nlsdata.obj
 0003:00004be4       ??_C@_15ODEHAHHF@?$AAA?$AAM@ 10059be4     libucrt:nlsdata.obj
 0003:00004bec       ??_C@_15CLMNNGEL@?$AAP?$AAM@ 10059bec     libucrt:nlsdata.obj
 0003:00004bf4       ??_C@_1BC@IEBCMHCM@?$AAM?$AAM?$AA?1?$AAd?$AAd?$AA?1?$AAy?$AAy@ 10059bf4     libucrt:nlsdata.obj
 0003:00004c08       ??_C@_1CI@KNAKOEBC@?$AAd?$AAd?$AAd?$AAd?$AA?0?$AA?5?$AAM?$AAM?$AAM?$AAM?$AA?5?$AAd?$AAd?$AA?0?$AA?5@ 10059c08     libucrt:nlsdata.obj
 0003:00004c30       ??_C@_1BC@GDGBMEMK@?$AAH?$AAH?$AA?3?$AAm?$AAm?$AA?3?$AAs?$AAs@ 10059c30     libucrt:nlsdata.obj
 0003:00004c44       ??_C@_1M@BMHNFIME@?$AAe?$AAn?$AA?9?$AAU?$AAS@ 10059c44     libucrt:nlsdata.obj
 0003:00004c50       ___newctype                10059c50     libucrt:ctype.obj
 0003:00004f50       ___newclmap                10059f50     libucrt:ctype.obj
 0003:000050d0       ___newcumap                1005a0d0     libucrt:ctype.obj
 0003:00005250       __wctype                   1005a250     libucrt:ctype.obj
 0003:000054b8       ??_C@_1EA@JGEFHKEI@?$AAa?$AAp?$AAi?$AA?9?$AAm?$AAs?$AA?9?$AAw?$AAi?$AAn?$AA?9?$AAc?$AAo?$AAr?$AAe@ 1005a4b8     libucrt:winapi_thunks.obj
 0003:000054f8       ??_C@_1DM@LFJCLCKP@?$AAa?$AAp?$AAi?$AA?9?$AAm?$AAs?$AA?9?$AAw?$AAi?$AAn?$AA?9?$AAc?$AAo?$AAr?$AAe@ 1005a4f8     libucrt:winapi_thunks.obj
 0003:00005534       ??_C@_1DI@KMEPCBPN@?$AAa?$AAp?$AAi?$AA?9?$AAm?$AAs?$AA?9?$AAw?$AAi?$AAn?$AA?9?$AAc?$AAo?$AAr?$AAe@ 1005a534     libucrt:winapi_thunks.obj
 0003:0000556c       ??_C@_1DI@IJCEHOCB@?$AAa?$AAp?$AAi?$AA?9?$AAm?$AAs?$AA?9?$AAw?$AAi?$AAn?$AA?9?$AAc?$AAo?$AAr?$AAe@ 1005a56c     libucrt:winapi_thunks.obj
 0003:000055a4       ??_C@_1DI@FFFOPEOO@?$AAa?$AAp?$AAi?$AA?9?$AAm?$AAs?$AA?9?$AAw?$AAi?$AAn?$AA?9?$AAc?$AAo?$AAr?$AAe@ 1005a5a4     libucrt:winapi_thunks.obj
 0003:000055e0       ??_C@_1EI@MPIAOHOC@?$AAa?$AAp?$AAi?$AA?9?$AAm?$AAs?$AA?9?$AAw?$AAi?$AAn?$AA?9?$AAc?$AAo?$AAr?$AAe@ 1005a5e0     libucrt:winapi_thunks.obj
 0003:00005628       ??_C@_1FK@FPHCKFIE@?$AAa?$AAp?$AAi?$AA?9?$AAm?$AAs?$AA?9?$AAw?$AAi?$AAn?$AA?9?$AAc?$AAo?$AAr?$AAe@ 1005a628     libucrt:winapi_thunks.obj
 0003:00005688       ??_C@_1EM@DILCGIIO@?$AAa?$AAp?$AAi?$AA?9?$AAm?$AAs?$AA?9?$AAw?$AAi?$AAn?$AA?9?$AAc?$AAo?$AAr?$AAe@ 1005a688     libucrt:winapi_thunks.obj
 0003:000056d4       ??_C@_1DM@LNCGDDPN@?$AAa?$AAp?$AAi?$AA?9?$AAm?$AAs?$AA?9?$AAw?$AAi?$AAn?$AA?9?$AAc?$AAo?$AAr?$AAe@ 1005a6d4     libucrt:winapi_thunks.obj
 0003:00005710       ??_C@_1DO@FPAPJEMD@?$AAa?$AAp?$AAi?$AA?9?$AAm?$AAs?$AA?9?$AAw?$AAi?$AAn?$AA?9?$AAc?$AAo?$AAr?$AAe@ 1005a710     libucrt:winapi_thunks.obj
 0003:00005750       ??_C@_1DK@NDHNAHIO@?$AAa?$AAp?$AAi?$AA?9?$AAm?$AAs?$AA?9?$AAw?$AAi?$AAn?$AA?9?$AAc?$AAo?$AAr?$AAe@ 1005a750     libucrt:winapi_thunks.obj
 0003:0000578c       ??_C@_1DM@KGHDGBCM@?$AAa?$AAp?$AAi?$AA?9?$AAm?$AAs?$AA?9?$AAw?$AAi?$AAn?$AA?9?$AAc?$AAo?$AAr?$AAe@ 1005a78c     libucrt:winapi_thunks.obj
 0003:000057c8       ??_C@_1EO@IJIOEFOH@?$AAa?$AAp?$AAi?$AA?9?$AAm?$AAs?$AA?9?$AAw?$AAi?$AAn?$AA?9?$AAr?$AAt?$AAc?$AAo@ 1005a7c8     libucrt:winapi_thunks.obj
 0003:00005818       ??_C@_1FG@HHGEKANL@?$AAa?$AAp?$AAi?$AA?9?$AAm?$AAs?$AA?9?$AAw?$AAi?$AAn?$AA?9?$AAs?$AAe?$AAc?$AAu@ 1005a818     libucrt:winapi_thunks.obj
 0003:00005870       ??_C@_1EG@DBIOJECG@?$AAe?$AAx?$AAt?$AA?9?$AAm?$AAs?$AA?9?$AAw?$AAi?$AAn?$AA?9?$AAn?$AAt?$AAu?$AAs@ 1005a870     libucrt:winapi_thunks.obj
 0003:000058b8       ??_C@_1EO@FIHMJCLF@?$AAe?$AAx?$AAt?$AA?9?$AAm?$AAs?$AA?9?$AAw?$AAi?$AAn?$AA?9?$AAn?$AAt?$AAu?$AAs@ 1005a8b8     libucrt:winapi_thunks.obj
 0003:00005908       ??_C@_1BC@DNHGCMLG@?$AAa?$AAd?$AAv?$AAa?$AAp?$AAi?$AA3?$AA2@ 1005a908     libucrt:winapi_thunks.obj
 0003:0000591c       ??_C@_1BG@CJPGBMEF@?$AAk?$AAe?$AAr?$AAn?$AAe?$AAl?$AAb?$AAa?$AAs?$AAe@ 1005a91c     libucrt:winapi_thunks.obj
 0003:00005934       ??_C@_1M@OAIMIKLP@?$AAn?$AAt?$AAd?$AAl?$AAl@ 1005a934     libucrt:winapi_thunks.obj
 0003:00005940       ??_C@_1EG@DPGNFKGC@?$AAa?$AAp?$AAi?$AA?9?$AAm?$AAs?$AA?9?$AAw?$AAi?$AAn?$AA?9?$AAa?$AAp?$AAp?$AAm@ 1005a940     libucrt:winapi_thunks.obj
 0003:00005988       ??_C@_1O@BCCLBEOE@?$AAu?$AAs?$AAe?$AAr?$AA3?$AA2@ 1005a988     libucrt:winapi_thunks.obj
 0003:00005998       ??_C@_1BA@IAIFMGEF@?$AAe?$AAx?$AAt?$AA?9?$AAm?$AAs?$AA?9@ 1005a998     libucrt:winapi_thunks.obj
 0003:000059ac       ??_C@_0BA@FHFNEAED@AreFileApisANSI@ 1005a9ac     libucrt:winapi_thunks.obj
 0003:000059c4       ??_C@_0N@MFBBDCAC@FlsGetValue2@ 1005a9c4     libucrt:winapi_thunks.obj
 0003:000059dc       ??_C@_0O@KKBNKAPF@LCMapStringEx@ 1005a9dc     libucrt:winapi_thunks.obj
 0003:000059f4       ??_C@_0BB@HBDEELFH@LocaleNameToLCID@ 1005a9f4     libucrt:winapi_thunks.obj
 0003:00005a0c       ??_C@_0N@PPOMPGGK@RoInitialize@ 1005aa0c     libucrt:winapi_thunks.obj
 0003:00005a20       ??_C@_0P@LLFHBIJD@RoUninitialize@ 1005aa20     libucrt:winapi_thunks.obj
 0003:00005a34       ??_C@_0CF@OJOFEIGO@AppPolicyGetProcessTerminationM@ 1005aa34     libucrt:winapi_thunks.obj
 0003:00005a60       ??_C@_0CF@NNDFDCOC@AppPolicyGetThreadInitializatio@ 1005aa60     libucrt:winapi_thunks.obj
 0003:00005a98       ??_C@_1M@HPNHIDJI@?$AAj?$AAa?$AA?9?$AAJ?$AAP@ 1005aa98     libucrt:mbctype.obj
 0003:00005aa4       ??_C@_1M@BIBDDEMK@?$AAz?$AAh?$AA?9?$AAC?$AAN@ 1005aaa4     libucrt:mbctype.obj
 0003:00005ab0       ??_C@_1M@JLOOOEGK@?$AAk?$AAo?$AA?9?$AAK?$AAR@ 1005aab0     libucrt:mbctype.obj
 0003:00005abc       ??_C@_1M@CLNBBOPM@?$AAz?$AAh?$AA?9?$AAT?$AAW@ 1005aabc     libucrt:mbctype.obj
 0003:00005ac8       ?large_power_data@?1??multiply_by_power_of_ten@__crt_strtox@@YA_NAAUbig_integer@2@I@Z@4QBIB 1005aac8     libucrt:cfout.obj
 0003:000063d0       ?large_power_indices@?1??multiply_by_power_of_ten@__crt_strtox@@YA_NAAUbig_integer@2@I@Z@4QBUunpack_index@?1??12@YA_N0I@Z@B 1005b3d0     libucrt:cfout.obj
 0003:00006468       ?small_powers_of_ten@?1??multiply_by_power_of_ten@__crt_strtox@@YA_NAAUbig_integer@2@I@Z@4QBIB 1005b468     libucrt:cfout.obj
 0003:0000648c       ??_C@_01GBGANLPD@0@        1005b48c     libucrt:cfout.obj
 0003:00006490       ??_C@_05DNEBIAHO@1?$CDINF@ 1005b490     libucrt:cfout.obj
 0003:00006498       ??_C@_06IMKFLFPG@1?$CDQNAN@ 1005b498     libucrt:cfout.obj
 0003:000064a0       ??_C@_06PGGFOGJG@1?$CDSNAN@ 1005b4a0     libucrt:cfout.obj
 0003:000064a8       ??_C@_05PHHOCPM@1?$CDIND@  1005b4a8     libucrt:cfout.obj
 0003:000064b0       ??_C@_15PJPFLCCM@?$AAu?$AAk@ 1005b4b0     libucrt:get_qualified_locale.obj
 0003:00006bd8       ??_C@_15EMKDOKLE@?$AAa?$AAr@ 1005bbd8     libucrt:lcidtoname_downlevel.obj
 0003:00006be0       ??_C@_15KNPADPLH@?$AAb?$AAg@ 1005bbe0     libucrt:lcidtoname_downlevel.obj
 0003:00006be8       ??_C@_15EDMHLDMO@?$AAc?$AAa@ 1005bbe8     libucrt:lcidtoname_downlevel.obj
 0003:00006bf0       ??_C@_1O@BPEAJADD@?$AAz?$AAh?$AA?9?$AAC?$AAH?$AAS@ 1005bbf0     libucrt:lcidtoname_downlevel.obj
 0003:00006c00       ??_C@_15LJNHCMNK@?$AAc?$AAs@ 1005bc00     libucrt:lcidtoname_downlevel.obj
 0003:00006c08       ??_C@_15FOMCIDHG@?$AAd?$AAa@ 1005bc08     libucrt:lcidtoname_downlevel.obj
 0003:00006c10       ??_C@_15NBKABECB@?$AAd?$AAe@ 1005bc10     libucrt:lcidtoname_downlevel.obj
 0003:00006c18       ??_C@_15GHPEIIAO@?$AAe?$AAl@ 1005bc18     libucrt:lcidtoname_downlevel.obj
 0003:00006c20       ??_C@_15MNPNEAIF@?$AAe?$AAn@ 1005bc20     libucrt:lcidtoname_downlevel.obj
 0003:00006c28       ??_C@_15GPIOMPMH@?$AAe?$AAs@ 1005bc28     libucrt:lcidtoname_downlevel.obj
 0003:00006c30       ??_C@_15NGLOAKJC@?$AAf?$AAi@ 1005bc30     libucrt:lcidtoname_downlevel.obj
 0003:00006c38       ??_C@_15FBKGNKAM@?$AAf?$AAr@ 1005bc38     libucrt:lcidtoname_downlevel.obj
 0003:00006c40       ??_C@_15KGGCNEFK@?$AAh?$AAe@ 1005bc40     libucrt:lcidtoname_downlevel.obj
 0003:00006c48       ??_C@_15PGHLIDMF@?$AAh?$AAu@ 1005bc48     libucrt:lcidtoname_downlevel.obj
 0003:00006c50       ??_C@_15BIEMAPLM@?$AAi?$AAs@ 1005bc50     libucrt:lcidtoname_downlevel.obj
 0003:00006c58       ??_C@_15IFJLDHAF@?$AAi?$AAt@ 1005bc58     libucrt:lcidtoname_downlevel.obj
 0003:00006c60       ??_C@_15GEMIOCAG@?$AAj?$AAa@ 1005bc60     libucrt:lcidtoname_downlevel.obj
 0003:00006c68       ??_C@_15EPELEGJA@?$AAk?$AAo@ 1005bc68     libucrt:lcidtoname_downlevel.obj
 0003:00006c70       ??_C@_15NDDHIMN@?$AAn?$AAl@ 1005bc70     libucrt:lcidtoname_downlevel.obj
 0003:00006c78       ??_C@_15BPIGNHCD@?$AAn?$AAo@ 1005bc78     libucrt:lcidtoname_downlevel.obj
 0003:00006c80       ??_C@_15DEOPBLCG@?$AAp?$AAl@ 1005bc80     libucrt:lcidtoname_downlevel.obj
 0003:00006c88       ??_C@_15KBECGEFG@?$AAp?$AAt@ 1005bc88     libucrt:lcidtoname_downlevel.obj
 0003:00006c90       ??_C@_15GLJCBFMD@?$AAr?$AAo@ 1005bc90     libucrt:lcidtoname_downlevel.obj
 0003:00006c98       ??_C@_15FEDGKCDI@?$AAr?$AAu@ 1005bc98     libucrt:lcidtoname_downlevel.obj
 0003:00006ca0       ??_C@_15GLKMLLHM@?$AAh?$AAr@ 1005bca0     libucrt:lcidtoname_downlevel.obj
 0003:00006ca8       ??_C@_15CPKMFBDB@?$AAs?$AAk@ 1005bca8     libucrt:lcidtoname_downlevel.obj
 0003:00006cb0       ??_C@_15BAAIOGMK@?$AAs?$AAq@ 1005bcb0     libucrt:lcidtoname_downlevel.obj
 0003:00006cb8       ??_C@_15INNPNOHD@?$AAs?$AAv@ 1005bcb8     libucrt:lcidtoname_downlevel.obj
 0003:00006cc0       ??_C@_15CABMMOGH@?$AAt?$AAh@ 1005bcc0     libucrt:lcidtoname_downlevel.obj
 0003:00006cc8       ??_C@_15BPLIHJJM@?$AAt?$AAr@ 1005bcc8     libucrt:lcidtoname_downlevel.obj
 0003:00006cd0       ??_C@_15NEOEKKDJ@?$AAu?$AAr@ 1005bcd0     libucrt:lcidtoname_downlevel.obj
 0003:00006cd8       ??_C@_15NFICGAJK@?$AAi?$AAd@ 1005bcd8     libucrt:lcidtoname_downlevel.obj
 0003:00006ce0       ??_C@_15HPJPHDM@?$AAb?$AAe@ 1005bce0     libucrt:lcidtoname_downlevel.obj
 0003:00006ce8       ??_C@_15LCHLGJII@?$AAs?$AAl@ 1005bce8     libucrt:lcidtoname_downlevel.obj
 0003:00006cf0       ??_C@_15PCFJPHHO@?$AAe?$AAt@ 1005bcf0     libucrt:lcidtoname_downlevel.obj
 0003:00006cf8       ??_C@_15HPFPGODN@?$AAl?$AAv@ 1005bcf8     libucrt:lcidtoname_downlevel.obj
 0003:00006d00       ??_C@_15NFFGKGLG@?$AAl?$AAt@ 1005bd00     libucrt:lcidtoname_downlevel.obj
 0003:00006d08       ??_C@_15BDAKCCHN@?$AAf?$AAa@ 1005bd08     libucrt:lcidtoname_downlevel.obj
 0003:00006d10       ??_C@_15NFGIAIAJ@?$AAv?$AAi@ 1005bd10     libucrt:lcidtoname_downlevel.obj
 0003:00006d18       ??_C@_15LMKNDMHN@?$AAh?$AAy@ 1005bd18     libucrt:lcidtoname_downlevel.obj
 0003:00006d20       ??_C@_15IJBHMCFL@?$AAa?$AAz@ 1005bd20     libucrt:lcidtoname_downlevel.obj
 0003:00006d28       ??_C@_15EKOFJABL@?$AAe?$AAu@ 1005bd28     libucrt:lcidtoname_downlevel.obj
 0003:00006d30       ??_C@_15BGHADCNK@?$AAm?$AAk@ 1005bd30     libucrt:lcidtoname_downlevel.obj
 0003:00006d38       ??_C@_15JDNICKHM@?$AAa?$AAf@ 1005bd38     libucrt:lcidtoname_downlevel.obj
 0003:00006d40       ??_C@_15KPJEDBKD@?$AAk?$AAa@ 1005bd40     libucrt:lcidtoname_downlevel.obj
 0003:00006d48       ??_C@_15PDNFFFEO@?$AAf?$AAo@ 1005bd48     libucrt:lcidtoname_downlevel.obj
 0003:00006d50       ??_C@_15OMLEGLOC@?$AAh?$AAi@ 1005bd50     libucrt:lcidtoname_downlevel.obj
 0003:00006d58       ??_C@_15IDNNENKK@?$AAm?$AAs@ 1005bd58     libucrt:lcidtoname_downlevel.obj
 0003:00006d60       ??_C@_15MACJNBMH@?$AAk?$AAk@ 1005bd60     libucrt:lcidtoname_downlevel.obj
 0003:00006d68       ??_C@_15DKDJEOND@?$AAk?$AAy@ 1005bd68     libucrt:lcidtoname_downlevel.obj
 0003:00006d70       ??_C@_15DFGDLJBG@?$AAs?$AAw@ 1005bd70     libucrt:lcidtoname_downlevel.obj
 0003:00006d78       ??_C@_15BBFAICNG@?$AAu?$AAz@ 1005bd78     libucrt:lcidtoname_downlevel.obj
 0003:00006d80       ??_C@_15DKNDCGEA@?$AAt?$AAt@ 1005bd80     libucrt:lcidtoname_downlevel.obj
 0003:00006d88       ??_C@_15MGIFMDPL@?$AAp?$AAa@ 1005bd88     libucrt:lcidtoname_downlevel.obj
 0003:00006d90       ??_C@_15HCNDBBA@?$AAg?$AAu@ 1005bd90     libucrt:lcidtoname_downlevel.obj
 0003:00006d98       ??_C@_15FNBEIBON@?$AAt?$AAa@ 1005bd98     libucrt:lcidtoname_downlevel.obj
 0003:00006da0       ??_C@_15NCHGBGLK@?$AAt?$AAe@ 1005bda0     libucrt:lcidtoname_downlevel.obj
 0003:00006da8       ??_C@_15PHPHCBPF@?$AAk?$AAn@ 1005bda8     libucrt:lcidtoname_downlevel.obj
 0003:00006db0       ??_C@_15DLGBCKMP@?$AAm?$AAr@ 1005bdb0     libucrt:lcidtoname_downlevel.obj
 0003:00006db8       ??_C@_15EABBLBFF@?$AAs?$AAa@ 1005bdb8     libucrt:lcidtoname_downlevel.obj
 0003:00006dc0       ??_C@_15CBKOMCOI@?$AAm?$AAn@ 1005bdc0     libucrt:lcidtoname_downlevel.obj
 0003:00006dc8       ??_C@_15CKDMCJAF@?$AAg?$AAl@ 1005bdc8     libucrt:lcidtoname_downlevel.obj
 0003:00006dd0       ??_C@_17CNJFBPG@?$AAk?$AAo?$AAk@ 1005bdd0     libucrt:lcidtoname_downlevel.obj
 0003:00006dd8       ??_C@_17FFBJICPL@?$AAs?$AAy?$AAr@ 1005bdd8     libucrt:lcidtoname_downlevel.obj
 0003:00006de0       ??_C@_17KPNDCPAF@?$AAd?$AAi?$AAv@ 1005bde0     libucrt:lcidtoname_downlevel.obj
 0003:00006de8       ??_C@_1M@OKAHONE@?$AAa?$AAr?$AA?9?$AAS?$AAA@ 1005bde8     libucrt:lcidtoname_downlevel.obj
 0003:00006df4       ??_C@_1M@FFFIGIGK@?$AAb?$AAg?$AA?9?$AAB?$AAG@ 1005bdf4     libucrt:lcidtoname_downlevel.obj
 0003:00006e00       ??_C@_1M@BJNKEDC@?$AAc?$AAa?$AA?9?$AAE?$AAS@ 1005be00     libucrt:lcidtoname_downlevel.obj
 0003:00006e0c       ??_C@_1M@IJJHFJHA@?$AAc?$AAs?$AA?9?$AAC?$AAZ@ 1005be0c     libucrt:lcidtoname_downlevel.obj
 0003:00006e18       ??_C@_1M@CLPEOBGI@?$AAd?$AAa?$AA?9?$AAD?$AAK@ 1005be18     libucrt:lcidtoname_downlevel.obj
 0003:00006e24       ??_C@_1M@MCMADGCB@?$AAd?$AAe?$AA?9?$AAD?$AAE@ 1005be24     libucrt:lcidtoname_downlevel.obj
 0003:00006e30       ??_C@_1M@OOCKEMAM@?$AAe?$AAl?$AA?9?$AAG?$AAR@ 1005be30     libucrt:lcidtoname_downlevel.obj
 0003:00006e3c       ??_C@_1M@DDNJFGID@?$AAf?$AAi?$AA?9?$AAF?$AAI@ 1005be3c     libucrt:lcidtoname_downlevel.obj
 0003:00006e48       ??_C@_1M@GLIPPMAC@?$AAf?$AAr?$AA?9?$AAF?$AAR@ 1005be48     libucrt:lcidtoname_downlevel.obj
 0003:00006e54       ??_C@_1M@GFMCHPE@?$AAh?$AAe?$AA?9?$AAI?$AAL@ 1005be54     libucrt:lcidtoname_downlevel.obj
 0003:00006e60       ??_C@_1M@MHLPGNKM@?$AAh?$AAu?$AA?9?$AAH?$AAU@ 1005be60     libucrt:lcidtoname_downlevel.obj
 0003:00006e6c       ??_C@_1M@LPDDNNPN@?$AAi?$AAs?$AA?9?$AAI?$AAS@ 1005be6c     libucrt:lcidtoname_downlevel.obj
 0003:00006e78       ??_C@_1M@MADIPODN@?$AAi?$AAt?$AA?9?$AAI?$AAT@ 1005be78     libucrt:lcidtoname_downlevel.obj
 0003:00006e84       ??_C@_1M@IHBJJGG@?$AAn?$AAl?$AA?9?$AAN?$AAL@ 1005be84     libucrt:lcidtoname_downlevel.obj
 0003:00006e90       ??_C@_1M@EANAGDL@?$AAn?$AAb?$AA?9?$AAN?$AAO@ 1005be90     libucrt:lcidtoname_downlevel.obj
 0003:00006e9c       ??_C@_1M@NEIEMEGP@?$AAp?$AAl?$AA?9?$AAP?$AAL@ 1005be9c     libucrt:lcidtoname_downlevel.obj
 0003:00006ea8       ??_C@_1M@BOCFIGEP@?$AAp?$AAt?$AA?9?$AAB?$AAR@ 1005bea8     libucrt:lcidtoname_downlevel.obj
 0003:00006eb4       ??_C@_1M@IMPFOPBG@?$AAr?$AAo?$AA?9?$AAR?$AAO@ 1005beb4     libucrt:lcidtoname_downlevel.obj
 0003:00006ec0       ??_C@_1M@IDNNEJMM@?$AAr?$AAu?$AA?9?$AAR?$AAU@ 1005bec0     libucrt:lcidtoname_downlevel.obj
 0003:00006ecc       ??_C@_1M@LILEEOGM@?$AAh?$AAr?$AA?9?$AAH?$AAR@ 1005becc     libucrt:lcidtoname_downlevel.obj
 0003:00006ed8       ??_C@_1M@FKIFEHPB@?$AAs?$AAk?$AA?9?$AAS?$AAK@ 1005bed8     libucrt:lcidtoname_downlevel.obj
 0003:00006ee4       ??_C@_1M@LJMAMNPJ@?$AAs?$AAq?$AA?9?$AAA?$AAL@ 1005bee4     libucrt:lcidtoname_downlevel.obj
 0003:00006ef0       ??_C@_1M@GIAKDKJK@?$AAs?$AAv?$AA?9?$AAS?$AAE@ 1005bef0     libucrt:lcidtoname_downlevel.obj
 0003:00006efc       ??_C@_1M@MKJKIKCL@?$AAt?$AAh?$AA?9?$AAT?$AAH@ 1005befc     libucrt:lcidtoname_downlevel.obj
 0003:00006f08       ??_C@_1M@MFLCCMPB@?$AAt?$AAr?$AA?9?$AAT?$AAR@ 1005bf08     libucrt:lcidtoname_downlevel.obj
 0003:00006f14       ??_C@_1M@OIJHDKJN@?$AAu?$AAr?$AA?9?$AAP?$AAK@ 1005bf14     libucrt:lcidtoname_downlevel.obj
 0003:00006f20       ??_C@_1M@LHIPCIEK@?$AAi?$AAd?$AA?9?$AAI?$AAD@ 1005bf20     libucrt:lcidtoname_downlevel.obj
 0003:00006f2c       ??_C@_1M@MFMOBGI@?$AAu?$AAk?$AA?9?$AAU?$AAA@ 1005bf2c     libucrt:lcidtoname_downlevel.obj
 0003:00006f38       ??_C@_1M@OBGLJIPL@?$AAb?$AAe?$AA?9?$AAB?$AAY@ 1005bf38     libucrt:lcidtoname_downlevel.obj
 0003:00006f44       ??_C@_1M@BCFAJEAD@?$AAs?$AAl?$AA?9?$AAS?$AAI@ 1005bf44     libucrt:lcidtoname_downlevel.obj
 0003:00006f50       ??_C@_1M@FKFFEDDN@?$AAe?$AAt?$AA?9?$AAE?$AAE@ 1005bf50     libucrt:lcidtoname_downlevel.obj
 0003:00006f5c       ??_C@_1M@KGKKAACI@?$AAl?$AAv?$AA?9?$AAL?$AAV@ 1005bf5c     libucrt:lcidtoname_downlevel.obj
 0003:00006f68       ??_C@_1M@IFGBIJO@?$AAl?$AAt?$AA?9?$AAL?$AAT@ 1005bf68     libucrt:lcidtoname_downlevel.obj
 0003:00006f74       ??_C@_1M@FGEAHEDM@?$AAf?$AAa?$AA?9?$AAI?$AAR@ 1005bf74     libucrt:lcidtoname_downlevel.obj
 0003:00006f80       ??_C@_1M@KBMAIBFN@?$AAv?$AAi?$AA?9?$AAV?$AAN@ 1005bf80     libucrt:lcidtoname_downlevel.obj
 0003:00006f8c       ??_C@_1M@GPCBKDJK@?$AAh?$AAy?$AA?9?$AAA?$AAM@ 1005bf8c     libucrt:lcidtoname_downlevel.obj
 0003:00006f98       ??_C@_1BG@BECMDDJB@?$AAa?$AAz?$AA?9?$AAA?$AAZ?$AA?9?$AAL?$AAa?$AAt?$AAn@ 1005bf98     libucrt:lcidtoname_downlevel.obj
 0003:00006fb0       ??_C@_1M@MAOFCAEA@?$AAe?$AAu?$AA?9?$AAE?$AAS@ 1005bfb0     libucrt:lcidtoname_downlevel.obj
 0003:00006fbc       ??_C@_1M@IGHABKPI@?$AAm?$AAk?$AA?9?$AAM?$AAK@ 1005bfbc     libucrt:lcidtoname_downlevel.obj
 0003:00006fc8       ??_C@_1M@IAIGNEJG@?$AAt?$AAn?$AA?9?$AAZ?$AAA@ 1005bfc8     libucrt:lcidtoname_downlevel.obj
 0003:00006fd4       ??_C@_1M@IIJCOJFA@?$AAx?$AAh?$AA?9?$AAZ?$AAA@ 1005bfd4     libucrt:lcidtoname_downlevel.obj
 0003:00006fe0       ??_C@_1M@LGPJHNJH@?$AAz?$AAu?$AA?9?$AAZ?$AAA@ 1005bfe0     libucrt:lcidtoname_downlevel.obj
 0003:00006fec       ??_C@_1M@HOKAOIO@?$AAa?$AAf?$AA?9?$AAZ?$AAA@ 1005bfec     libucrt:lcidtoname_downlevel.obj
 0003:00006ff8       ??_C@_1M@DPCLHLIE@?$AAk?$AAa?$AA?9?$AAG?$AAE@ 1005bff8     libucrt:lcidtoname_downlevel.obj
 0003:00007004       ??_C@_1M@BLKMHJBI@?$AAf?$AAo?$AA?9?$AAF?$AAO@ 1005c004     libucrt:lcidtoname_downlevel.obj
 0003:00007010       ??_C@_1M@LGGJAPPB@?$AAh?$AAi?$AA?9?$AAI?$AAN@ 1005c010     libucrt:lcidtoname_downlevel.obj
 0003:0000701c       ??_C@_1M@FIKPIHFE@?$AAm?$AAt?$AA?9?$AAM?$AAT@ 1005c01c     libucrt:lcidtoname_downlevel.obj
 0003:00007028       ??_C@_1M@HEGGPBFA@?$AAs?$AAe?$AA?9?$AAN?$AAO@ 1005c028     libucrt:lcidtoname_downlevel.obj
 0003:00007034       ??_C@_1M@EIBJEEPA@?$AAm?$AAs?$AA?9?$AAM?$AAY@ 1005c034     libucrt:lcidtoname_downlevel.obj
 0003:00007040       ??_C@_1M@FHLBGMPP@?$AAk?$AAk?$AA?9?$AAK?$AAZ@ 1005c040     libucrt:lcidtoname_downlevel.obj
 0003:0000704c       ??_C@_1M@NGJJLCGI@?$AAk?$AAy?$AA?9?$AAK?$AAG@ 1005c04c     libucrt:lcidtoname_downlevel.obj
 0003:00007058       ??_C@_1M@GIENNBFC@?$AAs?$AAw?$AA?9?$AAK?$AAE@ 1005c058     libucrt:lcidtoname_downlevel.obj
 0003:00007064       ??_C@_1BG@NDGMJIMJ@?$AAu?$AAz?$AA?9?$AAU?$AAZ?$AA?9?$AAL?$AAa?$AAt?$AAn@ 1005c064     libucrt:lcidtoname_downlevel.obj
 0003:0000707c       ??_C@_1M@IDCCIHBC@?$AAt?$AAt?$AA?9?$AAR?$AAU@ 1005c07c     libucrt:lcidtoname_downlevel.obj
 0003:00007088       ??_C@_1M@LOICPMOJ@?$AAb?$AAn?$AA?9?$AAI?$AAN@ 1005c088     libucrt:lcidtoname_downlevel.obj
 0003:00007094       ??_C@_1M@KPKKNEAH@?$AAp?$AAa?$AA?9?$AAI?$AAN@ 1005c094     libucrt:lcidtoname_downlevel.obj
 0003:000070a0       ??_C@_1M@PJGPPBOG@?$AAg?$AAu?$AA?9?$AAI?$AAN@ 1005c0a0     libucrt:lcidtoname_downlevel.obj
 0003:000070ac       ??_C@_1M@KMKMOPHI@?$AAt?$AAa?$AA?9?$AAI?$AAN@ 1005c0ac     libucrt:lcidtoname_downlevel.obj
 0003:000070b8       ??_C@_1M@KFEHEPAC@?$AAt?$AAe?$AA?9?$AAI?$AAN@ 1005c0b8     libucrt:lcidtoname_downlevel.obj
 0003:000070c4       ??_C@_1M@CDCLMGHI@?$AAk?$AAn?$AA?9?$AAI?$AAN@ 1005c0c4     libucrt:lcidtoname_downlevel.obj
 0003:000070d0       ??_C@_1M@MIODLDKF@?$AAm?$AAl?$AA?9?$AAI?$AAN@ 1005c0d0     libucrt:lcidtoname_downlevel.obj
 0003:000070dc       ??_C@_1M@PBIEACPO@?$AAm?$AAr?$AA?9?$AAI?$AAN@ 1005c0dc     libucrt:lcidtoname_downlevel.obj
 0003:000070e8       ??_C@_1M@NIDEAGPH@?$AAs?$AAa?$AA?9?$AAI?$AAN@ 1005c0e8     libucrt:lcidtoname_downlevel.obj
 0003:000070f4       ??_C@_1M@FHIHCBIO@?$AAm?$AAn?$AA?9?$AAM?$AAN@ 1005c0f4     libucrt:lcidtoname_downlevel.obj
 0003:00007100       ??_C@_1M@JAIJPENP@?$AAc?$AAy?$AA?9?$AAG?$AAB@ 1005c100     libucrt:lcidtoname_downlevel.obj
 0003:0000710c       ??_C@_1M@PHGFBEPN@?$AAg?$AAl?$AA?9?$AAE?$AAS@ 1005c10c     libucrt:lcidtoname_downlevel.obj
 0003:00007118       ??_C@_1O@KPIPDNCP@?$AAk?$AAo?$AAk?$AA?9?$AAI?$AAN@ 1005c118     libucrt:lcidtoname_downlevel.obj
 0003:00007128       ??_C@_1O@KNHJLDJA@?$AAs?$AAy?$AAr?$AA?9?$AAS?$AAY@ 1005c128     libucrt:lcidtoname_downlevel.obj
 0003:00007138       ??_C@_1O@MKEKBLAH@?$AAd?$AAi?$AAv?$AA?9?$AAM?$AAV@ 1005c138     libucrt:lcidtoname_downlevel.obj
 0003:00007148       ??_C@_1O@OHDCKDDF@?$AAq?$AAu?$AAz?$AA?9?$AAB?$AAO@ 1005c148     libucrt:lcidtoname_downlevel.obj
 0003:00007158       ??_C@_1M@LEPJNLFD@?$AAn?$AAs?$AA?9?$AAZ?$AAA@ 1005c158     libucrt:lcidtoname_downlevel.obj
 0003:00007164       ??_C@_1M@OMLEIIJB@?$AAm?$AAi?$AA?9?$AAN?$AAZ@ 1005c164     libucrt:lcidtoname_downlevel.obj
 0003:00007170       ??_C@_1M@PMPEAILG@?$AAa?$AAr?$AA?9?$AAI?$AAQ@ 1005c170     libucrt:lcidtoname_downlevel.obj
 0003:0000717c       ??_C@_1M@CNKPNOEE@?$AAd?$AAe?$AA?9?$AAC?$AAH@ 1005c17c     libucrt:lcidtoname_downlevel.obj
 0003:00007188       ??_C@_1M@LKMGMLKO@?$AAe?$AAn?$AA?9?$AAG?$AAB@ 1005c188     libucrt:lcidtoname_downlevel.obj
 0003:00007194       ??_C@_1M@PGKJFFGL@?$AAe?$AAs?$AA?9?$AAM?$AAX@ 1005c194     libucrt:lcidtoname_downlevel.obj
 0003:000071a0       ??_C@_1M@DNNANBDC@?$AAf?$AAr?$AA?9?$AAB?$AAE@ 1005c1a0     libucrt:lcidtoname_downlevel.obj
 0003:000071ac       ??_C@_1M@HLGMDFHM@?$AAi?$AAt?$AA?9?$AAC?$AAH@ 1005c1ac     libucrt:lcidtoname_downlevel.obj
 0003:000071b8       ??_C@_1M@CLLBGJH@?$AAn?$AAl?$AA?9?$AAB?$AAE@ 1005c1b8     libucrt:lcidtoname_downlevel.obj
 0003:000071c4       ??_C@_1M@BODBOGLF@?$AAn?$AAn?$AA?9?$AAN?$AAO@ 1005c1c4     libucrt:lcidtoname_downlevel.obj
 0003:000071d0       ??_C@_1M@HFFAHKAD@?$AAp?$AAt?$AA?9?$AAP?$AAT@ 1005c1d0     libucrt:lcidtoname_downlevel.obj
 0003:000071dc       ??_C@_1BG@LNOAKHIE@?$AAs?$AAr?$AA?9?$AAS?$AAP?$AA?9?$AAL?$AAa?$AAt?$AAn@ 1005c1dc     libucrt:lcidtoname_downlevel.obj
 0003:000071f4       ??_C@_1M@HBMHBGAK@?$AAs?$AAv?$AA?9?$AAF?$AAI@ 1005c1f4     libucrt:lcidtoname_downlevel.obj
 0003:00007200       ??_C@_1BG@DGCJGJBE@?$AAa?$AAz?$AA?9?$AAA?$AAZ?$AA?9?$AAC?$AAy?$AAr?$AAl@ 1005c200     libucrt:lcidtoname_downlevel.obj
 0003:00007218       ??_C@_1M@KEJDAAHB@?$AAs?$AAe?$AA?9?$AAS?$AAE@ 1005c218     libucrt:lcidtoname_downlevel.obj
 0003:00007224       ??_C@_1M@HEIBJJAD@?$AAm?$AAs?$AA?9?$AAB?$AAN@ 1005c224     libucrt:lcidtoname_downlevel.obj
 0003:00007230       ??_C@_1BG@PBGJMCEM@?$AAu?$AAz?$AA?9?$AAU?$AAZ?$AA?9?$AAC?$AAy?$AAr?$AAl@ 1005c230     libucrt:lcidtoname_downlevel.obj
 0003:00007248       ??_C@_1O@LAOBCMDF@?$AAq?$AAu?$AAz?$AA?9?$AAE?$AAC@ 1005c248     libucrt:lcidtoname_downlevel.obj
 0003:00007258       ??_C@_1M@POEEMAIO@?$AAa?$AAr?$AA?9?$AAE?$AAG@ 1005c258     libucrt:lcidtoname_downlevel.obj
 0003:00007264       ??_C@_1M@EFAKDEDL@?$AAz?$AAh?$AA?9?$AAH?$AAK@ 1005c264     libucrt:lcidtoname_downlevel.obj
 0003:00007270       ??_C@_1M@HKKIJHGI@?$AAd?$AAe?$AA?9?$AAA?$AAT@ 1005c270     libucrt:lcidtoname_downlevel.obj
 0003:0000727c       ??_C@_1M@KBFBEHJF@?$AAe?$AAn?$AA?9?$AAA?$AAU@ 1005c27c     libucrt:lcidtoname_downlevel.obj
 0003:00007288       ??_C@_1M@MNPLFAAH@?$AAe?$AAs?$AA?9?$AAE?$AAS@ 1005c288     libucrt:lcidtoname_downlevel.obj
 0003:00007294       ??_C@_1M@HJOOJFMA@?$AAf?$AAr?$AA?9?$AAC?$AAA@ 1005c294     libucrt:lcidtoname_downlevel.obj
 0003:000072a0       ??_C@_1BG@JPOFPNAB@?$AAs?$AAr?$AA?9?$AAS?$AAP?$AA?9?$AAC?$AAy?$AAr?$AAl@ 1005c2a0     libucrt:lcidtoname_downlevel.obj
 0003:000072b8       ??_C@_1M@LNFOCMOB@?$AAs?$AAe?$AA?9?$AAF?$AAI@ 1005c2b8     libucrt:lcidtoname_downlevel.obj
 0003:000072c4       ??_C@_1O@MGJBOAMB@?$AAq?$AAu?$AAz?$AA?9?$AAP?$AAE@ 1005c2c4     libucrt:lcidtoname_downlevel.obj
 0003:000072d4       ??_C@_1M@GJINLBOK@?$AAa?$AAr?$AA?9?$AAL?$AAY@ 1005c2d4     libucrt:lcidtoname_downlevel.obj
 0003:000072e0       ??_C@_1M@GGMNHJNL@?$AAz?$AAh?$AA?9?$AAS?$AAG@ 1005c2e0     libucrt:lcidtoname_downlevel.obj
 0003:000072ec       ??_C@_1M@HOIKODND@?$AAd?$AAe?$AA?9?$AAL?$AAU@ 1005c2ec     libucrt:lcidtoname_downlevel.obj
 0003:000072f8       ??_C@_1M@DDOCCGFG@?$AAe?$AAn?$AA?9?$AAC?$AAA@ 1005c2f8     libucrt:lcidtoname_downlevel.obj
 0003:00007304       ??_C@_1M@BNOEMJLF@?$AAe?$AAs?$AA?9?$AAG?$AAT@ 1005c304     libucrt:lcidtoname_downlevel.obj
 0003:00007310       ??_C@_1M@EOGNKEK@?$AAf?$AAr?$AA?9?$AAC?$AAH@ 1005c310     libucrt:lcidtoname_downlevel.obj
 0003:0000731c       ??_C@_1M@FLIDJFHL@?$AAh?$AAr?$AA?9?$AAB?$AAA@ 1005c31c     libucrt:lcidtoname_downlevel.obj
 0003:00007328       ??_C@_1O@FMCELNAJ@?$AAs?$AAm?$AAj?$AA?9?$AAN?$AAO@ 1005c328     libucrt:lcidtoname_downlevel.obj
 0003:00007338       ??_C@_1M@JHGLJMGJ@?$AAa?$AAr?$AA?9?$AAD?$AAZ@ 1005c338     libucrt:lcidtoname_downlevel.obj
 0003:00007344       ??_C@_1M@JKKFDCNP@?$AAz?$AAh?$AA?9?$AAM?$AAO@ 1005c344     libucrt:lcidtoname_downlevel.obj
 0003:00007350       ??_C@_1M@GEEFALPE@?$AAd?$AAe?$AA?9?$AAL?$AAI@ 1005c350     libucrt:lcidtoname_downlevel.obj
 0003:0000735c       ??_C@_1M@IGEOFBG@?$AAe?$AAn?$AA?9?$AAN?$AAZ@ 1005c35c     libucrt:lcidtoname_downlevel.obj
 0003:00007368       ??_C@_1M@KDBONEHP@?$AAe?$AAs?$AA?9?$AAC?$AAR@ 1005c368     libucrt:lcidtoname_downlevel.obj
 0003:00007374       ??_C@_1M@FHMDOHNN@?$AAf?$AAr?$AA?9?$AAL?$AAU@ 1005c374     libucrt:lcidtoname_downlevel.obj
 0003:00007380       ??_C@_1BG@NFKKMAFG@?$AAb?$AAs?$AA?9?$AAB?$AAA?$AA?9?$AAL?$AAa?$AAt?$AAn@ 1005c380     libucrt:lcidtoname_downlevel.obj
 0003:00007398       ??_C@_1O@IMNBEMCI@?$AAs?$AAm?$AAj?$AA?9?$AAS?$AAE@ 1005c398     libucrt:lcidtoname_downlevel.obj
 0003:000073a8       ??_C@_1M@DHHMBNDP@?$AAa?$AAr?$AA?9?$AAM?$AAA@ 1005c3a8     libucrt:lcidtoname_downlevel.obj
 0003:000073b4       ??_C@_1M@BNBLJCGH@?$AAe?$AAn?$AA?9?$AAI?$AAE@ 1005c3b4     libucrt:lcidtoname_downlevel.obj
 0003:000073c0       ??_C@_1M@GEPAFMDL@?$AAe?$AAs?$AA?9?$AAP?$AAA@ 1005c3c0     libucrt:lcidtoname_downlevel.obj
 0003:000073cc       ??_C@_1M@OJONDMDL@?$AAf?$AAr?$AA?9?$AAM?$AAC@ 1005c3cc     libucrt:lcidtoname_downlevel.obj
 0003:000073d8       ??_C@_1BG@OBCNFJB@?$AAs?$AAr?$AA?9?$AAB?$AAA?$AA?9?$AAL?$AAa?$AAt?$AAn@ 1005c3d8     libucrt:lcidtoname_downlevel.obj
 0003:000073f0       ??_C@_1O@KEMEEGPO@?$AAs?$AAm?$AAa?$AA?9?$AAN?$AAO@ 1005c3f0     libucrt:lcidtoname_downlevel.obj
 0003:00007400       ??_C@_1M@ELMGFODK@?$AAa?$AAr?$AA?9?$AAT?$AAN@ 1005c400     libucrt:lcidtoname_downlevel.obj
 0003:0000740c       ??_C@_1M@BHDLHFAF@?$AAe?$AAn?$AA?9?$AAZ?$AAA@ 1005c40c     libucrt:lcidtoname_downlevel.obj
 0003:00007418       ??_C@_1M@BMGIGLIF@?$AAe?$AAs?$AA?9?$AAD?$AAO@ 1005c418     libucrt:lcidtoname_downlevel.obj
 0003:00007424       ??_C@_1BG@CMBHIPBE@?$AAs?$AAr?$AA?9?$AAB?$AAA?$AA?9?$AAC?$AAy?$AAr?$AAl@ 1005c424     libucrt:lcidtoname_downlevel.obj
 0003:0000743c       ??_C@_1O@HEDBLHNP@?$AAs?$AAm?$AAa?$AA?9?$AAS?$AAE@ 1005c43c     libucrt:lcidtoname_downlevel.obj
 0003:0000744c       ??_C@_1M@DAGCADIM@?$AAa?$AAr?$AA?9?$AAO?$AAM@ 1005c44c     libucrt:lcidtoname_downlevel.obj
 0003:00007458       ??_C@_1M@FODLMICG@?$AAe?$AAn?$AA?9?$AAJ?$AAM@ 1005c458     libucrt:lcidtoname_downlevel.obj
 0003:00007464       ??_C@_1M@DNMLCIHB@?$AAe?$AAs?$AA?9?$AAV?$AAE@ 1005c464     libucrt:lcidtoname_downlevel.obj
 0003:00007470       ??_C@_1O@EOKHMKJK@?$AAs?$AAm?$AAs?$AA?9?$AAF?$AAI@ 1005c470     libucrt:lcidtoname_downlevel.obj
 0003:00007480       ??_C@_1M@CAFJMKOF@?$AAa?$AAr?$AA?9?$AAY?$AAE@ 1005c480     libucrt:lcidtoname_downlevel.obj
 0003:0000748c       ??_C@_1M@CBFHIJLI@?$AAe?$AAn?$AA?9?$AAC?$AAB@ 1005c48c     libucrt:lcidtoname_downlevel.obj
 0003:00007498       ??_C@_1M@BGNFLDN@?$AAe?$AAs?$AA?9?$AAC?$AAO@ 1005c498     libucrt:lcidtoname_downlevel.obj
 0003:000074a4       ??_C@_1O@JMPHMAMC@?$AAs?$AAm?$AAn?$AA?9?$AAF?$AAI@ 1005c4a4     libucrt:lcidtoname_downlevel.obj
 0003:000074b4       ??_C@_1M@JLANABKE@?$AAa?$AAr?$AA?9?$AAS?$AAY@ 1005c4b4     libucrt:lcidtoname_downlevel.obj
 0003:000074c0       ??_C@_1M@HPKGCFGN@?$AAe?$AAn?$AA?9?$AAB?$AAZ@ 1005c4c0     libucrt:lcidtoname_downlevel.obj
 0003:000074cc       ??_C@_1M@OLJCMLGM@?$AAe?$AAs?$AA?9?$AAP?$AAE@ 1005c4cc     libucrt:lcidtoname_downlevel.obj
 0003:000074d8       ??_C@_1M@MKKGFKLE@?$AAa?$AAr?$AA?9?$AAJ?$AAO@ 1005c4d8     libucrt:lcidtoname_downlevel.obj
 0003:000074e4       ??_C@_1M@EKPGLDNI@?$AAe?$AAn?$AA?9?$AAT?$AAT@ 1005c4e4     libucrt:lcidtoname_downlevel.obj
 0003:000074f0       ??_C@_1M@OONGHFHE@?$AAe?$AAs?$AA?9?$AAA?$AAR@ 1005c4f0     libucrt:lcidtoname_downlevel.obj
 0003:000074fc       ??_C@_1M@OOJFGBHE@?$AAa?$AAr?$AA?9?$AAL?$AAB@ 1005c4fc     libucrt:lcidtoname_downlevel.obj
 0003:00007508       ??_C@_1M@GCEJHNEG@?$AAe?$AAn?$AA?9?$AAZ?$AAW@ 1005c508     libucrt:lcidtoname_downlevel.obj
 0003:00007514       ??_C@_1M@JNOCAHJI@?$AAe?$AAs?$AA?9?$AAE?$AAC@ 1005c514     libucrt:lcidtoname_downlevel.obj
 0003:00007520       ??_C@_1M@JEFHPGGB@?$AAa?$AAr?$AA?9?$AAK?$AAW@ 1005c520     libucrt:lcidtoname_downlevel.obj
 0003:0000752c       ??_C@_1M@MLKIBJOJ@?$AAe?$AAn?$AA?9?$AAP?$AAH@ 1005c52c     libucrt:lcidtoname_downlevel.obj
 0003:00007538       ??_C@_1M@BDNIPEND@?$AAe?$AAs?$AA?9?$AAC?$AAL@ 1005c538     libucrt:lcidtoname_downlevel.obj
 0003:00007544       ??_C@_1M@MPNMEKBD@?$AAa?$AAr?$AA?9?$AAA?$AAE@ 1005c544     libucrt:lcidtoname_downlevel.obj
 0003:00007550       ??_C@_1M@KBJALCPI@?$AAe?$AAs?$AA?9?$AAU?$AAY@ 1005c550     libucrt:lcidtoname_downlevel.obj
 0003:0000755c       ??_C@_1M@LLCCOAGA@?$AAa?$AAr?$AA?9?$AAB?$AAH@ 1005c55c     libucrt:lcidtoname_downlevel.obj
 0003:00007568       ??_C@_1M@PBFNCDEL@?$AAe?$AAs?$AA?9?$AAP?$AAY@ 1005c568     libucrt:lcidtoname_downlevel.obj
 0003:00007574       ??_C@_1M@EDGINPNP@?$AAa?$AAr?$AA?9?$AAQ?$AAA@ 1005c574     libucrt:lcidtoname_downlevel.obj
 0003:00007580       ??_C@_1M@MKDBIIJI@?$AAe?$AAs?$AA?9?$AAB?$AAO@ 1005c580     libucrt:lcidtoname_downlevel.obj
 0003:0000758c       ??_C@_1M@CPKKEBLD@?$AAe?$AAs?$AA?9?$AAS?$AAV@ 1005c58c     libucrt:lcidtoname_downlevel.obj
 0003:00007598       ??_C@_1M@NDBGMMJL@?$AAe?$AAs?$AA?9?$AAH?$AAN@ 1005c598     libucrt:lcidtoname_downlevel.obj
 0003:000075a4       ??_C@_1M@JIJIBHDP@?$AAe?$AAs?$AA?9?$AAN?$AAI@ 1005c5a4     libucrt:lcidtoname_downlevel.obj
 0003:000075b0       ??_C@_1M@CGFMKEEK@?$AAe?$AAs?$AA?9?$AAP?$AAR@ 1005c5b0     libucrt:lcidtoname_downlevel.obj
 0003:000075bc       ??_C@_1O@ICJHKIIK@?$AAz?$AAh?$AA?9?$AAC?$AAH?$AAT@ 1005c5bc     libucrt:lcidtoname_downlevel.obj
 0003:000075cc       ??_C@_15CLNEJCE@?$AAs?$AAr@ 1005c5cc     libucrt:lcidtoname_downlevel.obj
 0003:00007cf8       ??_C@_1M@KAHEKEIG@?$AAa?$AAf?$AA?9?$AAz?$AAa@ 1005ccf8     libucrt:lcidtoname_downlevel.obj
 0003:00007d04       ??_C@_1M@GIECOABL@?$AAa?$AAr?$AA?9?$AAa?$AAe@ 1005cd04     libucrt:lcidtoname_downlevel.obj
 0003:00007d10       ??_C@_1M@BMLMEKGI@?$AAa?$AAr?$AA?9?$AAb?$AAh@ 1005cd10     libucrt:lcidtoname_downlevel.obj
 0003:00007d1c       ??_C@_1M@DAPFDGGB@?$AAa?$AAr?$AA?9?$AAd?$AAz@ 1005cd1c     libucrt:lcidtoname_downlevel.obj
 0003:00007d28       ??_C@_1M@FJNKGKIG@?$AAa?$AAr?$AA?9?$AAe?$AAg@ 1005cd28     libucrt:lcidtoname_downlevel.obj
 0003:00007d34       ??_C@_1M@FLGKKCLO@?$AAa?$AAr?$AA?9?$AAi?$AAq@ 1005cd34     libucrt:lcidtoname_downlevel.obj
 0003:00007d40       ??_C@_1M@GNDIPALM@?$AAa?$AAr?$AA?9?$AAj?$AAo@ 1005cd40     libucrt:lcidtoname_downlevel.obj
 0003:00007d4c       ??_C@_1M@DDMJFMGJ@?$AAa?$AAr?$AA?9?$AAk?$AAw@ 1005cd4c     libucrt:lcidtoname_downlevel.obj
 0003:00007d58       ??_C@_1M@EJALMLHM@?$AAa?$AAr?$AA?9?$AAl?$AAb@ 1005cd58     libucrt:lcidtoname_downlevel.obj
 0003:00007d64       ??_C@_1M@MOBDBLOC@?$AAa?$AAr?$AA?9?$AAl?$AAy@ 1005cd64     libucrt:lcidtoname_downlevel.obj
 0003:00007d70       ??_C@_1M@JAOCLHDH@?$AAa?$AAr?$AA?9?$AAm?$AAa@ 1005cd70     libucrt:lcidtoname_downlevel.obj
 0003:00007d7c       ??_C@_1M@JHPMKJIE@?$AAa?$AAr?$AA?9?$AAo?$AAm@ 1005cd7c     libucrt:lcidtoname_downlevel.obj
 0003:00007d88       ??_C@_1M@OEPGHFNH@?$AAa?$AAr?$AA?9?$AAq?$AAa@ 1005cd88     libucrt:lcidtoname_downlevel.obj
 0003:00007d94       ??_C@_1M@KJDONENM@?$AAa?$AAr?$AA?9?$AAs?$AAa@ 1005cd94     libucrt:lcidtoname_downlevel.obj
 0003:00007da0       ??_C@_1M@DMJDKLKM@?$AAa?$AAr?$AA?9?$AAs?$AAy@ 1005cda0     libucrt:lcidtoname_downlevel.obj
 0003:00007dac       ??_C@_1M@OMFIPEDC@?$AAa?$AAr?$AA?9?$AAt?$AAn@ 1005cdac     libucrt:lcidtoname_downlevel.obj
 0003:00007db8       ??_C@_1M@IHMHGAON@?$AAa?$AAr?$AA?9?$AAy?$AAe@ 1005cdb8     libucrt:lcidtoname_downlevel.obj
 0003:00007dc4       ??_C@_1BG@KDCPGJGB@?$AAa?$AAz?$AA?9?$AAa?$AAz?$AA?9?$AAc?$AAy?$AAr?$AAl@ 1005cdc4     libucrt:lcidtoname_downlevel.obj
 0003:00007ddc       ??_C@_1BG@IBCKDDOE@?$AAa?$AAz?$AA?9?$AAa?$AAz?$AA?9?$AAl?$AAa?$AAt?$AAn@ 1005cddc     libucrt:lcidtoname_downlevel.obj
 0003:00007df4       ??_C@_1M@EGPFDCPD@?$AAb?$AAe?$AA?9?$AAb?$AAy@ 1005cdf4     libucrt:lcidtoname_downlevel.obj
 0003:00007e00       ??_C@_1M@PCMGMCGC@?$AAb?$AAg?$AA?9?$AAb?$AAg@ 1005ce00     libucrt:lcidtoname_downlevel.obj
 0003:00007e0c       ??_C@_1M@BJBMFGOB@?$AAb?$AAn?$AA?9?$AAi?$AAn@ 1005ce0c     libucrt:lcidtoname_downlevel.obj
 0003:00007e18       ??_C@_1BG@EAKMMACD@?$AAb?$AAs?$AA?9?$AAb?$AAa?$AA?9?$AAl?$AAa?$AAt?$AAn@ 1005ce18     libucrt:lcidtoname_downlevel.obj
 0003:00007e30       ??_C@_1M@KGADAODK@?$AAc?$AAa?$AA?9?$AAe?$AAs@ 1005ce30     libucrt:lcidtoname_downlevel.obj
 0003:00007e3c       ??_C@_1M@COAJPDHI@?$AAc?$AAs?$AA?9?$AAc?$AAz@ 1005ce3c     libucrt:lcidtoname_downlevel.obj
 0003:00007e48       ??_C@_1M@DHBHFONH@?$AAc?$AAy?$AA?9?$AAg?$AAb@ 1005ce48     libucrt:lcidtoname_downlevel.obj
 0003:00007e54       ??_C@_1M@IMGKELGA@?$AAd?$AAa?$AA?9?$AAd?$AAk@ 1005ce54     libucrt:lcidtoname_downlevel.obj
 0003:00007e60       ??_C@_1M@NNDGDNGA@?$AAd?$AAe?$AA?9?$AAa?$AAt@ 1005ce60     libucrt:lcidtoname_downlevel.obj
 0003:00007e6c       ??_C@_1M@IKDBHEEM@?$AAd?$AAe?$AA?9?$AAc?$AAh@ 1005ce6c     libucrt:lcidtoname_downlevel.obj
 0003:00007e78       ??_C@_1M@GFFOJMCJ@?$AAd?$AAe?$AA?9?$AAd?$AAe@ 1005ce78     libucrt:lcidtoname_downlevel.obj
 0003:00007e84       ??_C@_1M@MDNLKBPM@?$AAd?$AAe?$AA?9?$AAl?$AAi@ 1005ce84     libucrt:lcidtoname_downlevel.obj
 0003:00007e90       ??_C@_1M@NJBEEJNL@?$AAd?$AAe?$AA?9?$AAl?$AAu@ 1005ce90     libucrt:lcidtoname_downlevel.obj
 0003:00007e9c       ??_C@_1O@GNNELBAP@?$AAd?$AAi?$AAv?$AA?9?$AAm?$AAv@ 1005ce9c     libucrt:lcidtoname_downlevel.obj
 0003:00007eac       ??_C@_1M@EJLEOGAE@?$AAe?$AAl?$AA?9?$AAg?$AAr@ 1005ceac     libucrt:lcidtoname_downlevel.obj
 0003:00007eb8       ??_C@_1M@GMPONJN@?$AAe?$AAn?$AA?9?$AAa?$AAu@ 1005ceb8     libucrt:lcidtoname_downlevel.obj
 0003:00007ec4       ??_C@_1M@NIDIIPGF@?$AAe?$AAn?$AA?9?$AAb?$AAz@ 1005cec4     libucrt:lcidtoname_downlevel.obj
 0003:00007ed0       ??_C@_1M@JEHMIMFO@?$AAe?$AAn?$AA?9?$AAc?$AAa@ 1005ced0     libucrt:lcidtoname_downlevel.obj
 0003:00007edc       ??_C@_1M@IGMJCDLA@?$AAe?$AAn?$AA?9?$AAc?$AAb@ 1005cedc     libucrt:lcidtoname_downlevel.obj
 0003:00007ee8       ??_C@_1M@BNFIGBKG@?$AAe?$AAn?$AA?9?$AAg?$AAb@ 1005cee8     libucrt:lcidtoname_downlevel.obj
 0003:00007ef4       ??_C@_1M@LKIFDIGP@?$AAe?$AAn?$AA?9?$AAi?$AAe@ 1005cef4     libucrt:lcidtoname_downlevel.obj
 0003:00007f00       ??_C@_1M@PJKFGCCO@?$AAe?$AAn?$AA?9?$AAj?$AAm@ 1005cf00     libucrt:lcidtoname_downlevel.obj
 0003:00007f0c       ??_C@_1M@KPPKEPBO@?$AAe?$AAn?$AA?9?$AAn?$AAz@ 1005cf0c     libucrt:lcidtoname_downlevel.obj
 0003:00007f18       ??_C@_1M@GMDGLDOB@?$AAe?$AAn?$AA?9?$AAp?$AAh@ 1005cf18     libucrt:lcidtoname_downlevel.obj
 0003:00007f24       ??_C@_1M@ONGIBJNA@?$AAe?$AAn?$AA?9?$AAt?$AAt@ 1005cf24     libucrt:lcidtoname_downlevel.obj
 0003:00007f30       ??_C@_1M@LLODPCMM@?$AAe?$AAn?$AA?9?$AAu?$AAs@ 1005cf30     libucrt:lcidtoname_downlevel.obj
 0003:00007f3c       ??_C@_1M@LAKFNPAN@?$AAe?$AAn?$AA?9?$AAz?$AAa@ 1005cf3c     libucrt:lcidtoname_downlevel.obj
 0003:00007f48       ??_C@_1M@MFNHNHEO@?$AAe?$AAn?$AA?9?$AAz?$AAw@ 1005cf48     libucrt:lcidtoname_downlevel.obj
 0003:00007f54       ??_C@_1M@EJEINPHM@?$AAe?$AAs?$AA?9?$AAa?$AAr@ 1005cf54     libucrt:lcidtoname_downlevel.obj
 0003:00007f60       ??_C@_1M@GNKPCCJA@?$AAe?$AAs?$AA?9?$AAb?$AAo@ 1005cf60     libucrt:lcidtoname_downlevel.obj
 0003:00007f6c       ??_C@_1M@LEEGFONL@?$AAe?$AAs?$AA?9?$AAc?$AAl@ 1005cf6c     libucrt:lcidtoname_downlevel.obj
 0003:00007f78       ??_C@_1M@KGPDPBDF@?$AAe?$AAs?$AA?9?$AAc?$AAo@ 1005cf78     libucrt:lcidtoname_downlevel.obj
 0003:00007f84       ??_C@_1M@EIAHOHH@?$AAe?$AAs?$AA?9?$AAc?$AAr@ 1005cf84     libucrt:lcidtoname_downlevel.obj
 0003:00007f90       ??_C@_1M@LLPGMBIN@?$AAe?$AAs?$AA?9?$AAd?$AAo@ 1005cf90     libucrt:lcidtoname_downlevel.obj
 0003:00007f9c       ??_C@_1M@DKHMKNJA@?$AAe?$AAs?$AA?9?$AAe?$AAc@ 1005cf9c     libucrt:lcidtoname_downlevel.obj
 0003:00007fa8       ??_C@_1M@GKGFPKAP@?$AAe?$AAs?$AA?9?$AAe?$AAs@ 1005cfa8     libucrt:lcidtoname_downlevel.obj
 0003:00007fb4       ??_C@_1M@LKHKGDLN@?$AAe?$AAs?$AA?9?$AAg?$AAt@ 1005cfb4     libucrt:lcidtoname_downlevel.obj
 0003:00007fc0       ??_C@_1M@HEIIGGJD@?$AAe?$AAs?$AA?9?$AAh?$AAn@ 1005cfc0     libucrt:lcidtoname_downlevel.obj
 0003:00007fcc       ??_C@_1M@FBDHPPGD@?$AAe?$AAs?$AA?9?$AAm?$AAx@ 1005cfcc     libucrt:lcidtoname_downlevel.obj
 0003:00007fd8       ??_C@_1M@DPAGLNDH@?$AAe?$AAs?$AA?9?$AAn?$AAi@ 1005cfd8     libucrt:lcidtoname_downlevel.obj
 0003:00007fe4       ??_C@_1M@MDGOPGDD@?$AAe?$AAs?$AA?9?$AAp?$AAa@ 1005cfe4     libucrt:lcidtoname_downlevel.obj
 0003:00007ff0       ??_C@_1M@EMAMGBGE@?$AAe?$AAs?$AA?9?$AAp?$AAe@ 1005cff0     libucrt:lcidtoname_downlevel.obj
 0003:00007ffc       ??_C@_1M@IBMCAOEC@?$AAe?$AAs?$AA?9?$AAp?$AAr@ 1005cffc     libucrt:lcidtoname_downlevel.obj
 0003:00008008       ??_C@_1M@FGMDIJED@?$AAe?$AAs?$AA?9?$AAp?$AAy@ 1005d008     libucrt:lcidtoname_downlevel.obj
 0003:00008014       ??_C@_1M@IIDEOLLL@?$AAe?$AAs?$AA?9?$AAs?$AAv@ 1005d014     libucrt:lcidtoname_downlevel.obj
 0003:00008020       ??_C@_1M@GAOBIPA@?$AAe?$AAs?$AA?9?$AAu?$AAy@ 1005d020     libucrt:lcidtoname_downlevel.obj
 0003:0000802c       ??_C@_1M@JKFFICHJ@?$AAe?$AAs?$AA?9?$AAv?$AAe@ 1005d02c     libucrt:lcidtoname_downlevel.obj
 0003:00008038       ??_C@_1M@PNMLOJDF@?$AAe?$AAt?$AA?9?$AAe?$AAe@ 1005d038     libucrt:lcidtoname_downlevel.obj
 0003:00008044       ??_C@_1M@GHHLIKEI@?$AAe?$AAu?$AA?9?$AAe?$AAs@ 1005d044     libucrt:lcidtoname_downlevel.obj
 0003:00008050       ??_C@_1M@PBNONODE@?$AAf?$AAa?$AA?9?$AAi?$AAr@ 1005d050     libucrt:lcidtoname_downlevel.obj
 0003:0000805c       ??_C@_1M@JEEHPMIL@?$AAf?$AAi?$AA?9?$AAf?$AAi@ 1005d05c     libucrt:lcidtoname_downlevel.obj
 0003:00008068       ??_C@_1M@LMDCNDBA@?$AAf?$AAo?$AA?9?$AAf?$AAo@ 1005d068     libucrt:lcidtoname_downlevel.obj
 0003:00008074       ??_C@_1M@JKEOHLDK@?$AAf?$AAr?$AA?9?$AAb?$AAe@ 1005d074     libucrt:lcidtoname_downlevel.obj
 0003:00008080       ??_C@_1M@NOHADPMI@?$AAf?$AAr?$AA?9?$AAc?$AAa@ 1005d080     libucrt:lcidtoname_downlevel.obj
 0003:0000808c       ??_C@_1M@KDHIHAEC@?$AAf?$AAr?$AA?9?$AAc?$AAh@ 1005d08c     libucrt:lcidtoname_downlevel.obj
 0003:00008098       ??_C@_1M@MMBBFGAK@?$AAf?$AAr?$AA?9?$AAf?$AAr@ 1005d098     libucrt:lcidtoname_downlevel.obj
 0003:000080a4       ??_C@_1M@PAFNENNF@?$AAf?$AAr?$AA?9?$AAl?$AAu@ 1005d0a4     libucrt:lcidtoname_downlevel.obj
 0003:000080b0       ??_C@_1M@EOHDJGDD@?$AAf?$AAr?$AA?9?$AAm?$AAc@ 1005d0b0     libucrt:lcidtoname_downlevel.obj
 0003:000080bc       ??_C@_1M@FAPLLOPF@?$AAg?$AAl?$AA?9?$AAe?$AAs@ 1005d0bc     libucrt:lcidtoname_downlevel.obj
 0003:000080c8       ??_C@_1M@FOPBFLOO@?$AAg?$AAu?$AA?9?$AAi?$AAn@ 1005d0c8     libucrt:lcidtoname_downlevel.obj
 0003:000080d4       ??_C@_1M@KBMCINPM@?$AAh?$AAe?$AA?9?$AAi?$AAl@ 1005d0d4     libucrt:lcidtoname_downlevel.obj
 0003:000080e0       ??_C@_1M@BBPHKFPJ@?$AAh?$AAi?$AA?9?$AAi?$AAn@ 1005d0e0     libucrt:lcidtoname_downlevel.obj
 0003:000080ec       ??_C@_1M@PMBNDPHD@?$AAh?$AAr?$AA?9?$AAb?$AAa@ 1005d0ec     libucrt:lcidtoname_downlevel.obj
 0003:000080f8       ??_C@_1M@BPCKOEGE@?$AAh?$AAr?$AA?9?$AAh?$AAr@ 1005d0f8     libucrt:lcidtoname_downlevel.obj
 0003:00008104       ??_C@_1M@GACBMHKE@?$AAh?$AAu?$AA?9?$AAh?$AAu@ 1005d104     libucrt:lcidtoname_downlevel.obj
 0003:00008110       ??_C@_1M@MILPAJJC@?$AAh?$AAy?$AA?9?$AAa?$AAm@ 1005d110     libucrt:lcidtoname_downlevel.obj
 0003:0000811c       ??_C@_1M@BABBICEC@?$AAi?$AAd?$AA?9?$AAi?$AAd@ 1005d11c     libucrt:lcidtoname_downlevel.obj
 0003:00008128       ??_C@_1M@BIKNHHPF@?$AAi?$AAs?$AA?9?$AAi?$AAs@ 1005d128     libucrt:lcidtoname_downlevel.obj
 0003:00008134       ??_C@_1M@NMPCJPHE@?$AAi?$AAt?$AA?9?$AAc?$AAh@ 1005d134     libucrt:lcidtoname_downlevel.obj
 0003:00008140       ??_C@_1M@GHKGFEDF@?$AAi?$AAt?$AA?9?$AAi?$AAt@ 1005d140     libucrt:lcidtoname_downlevel.obj
 0003:0000814c       ??_C@_1M@NIEJCJJA@?$AAj?$AAa?$AA?9?$AAj?$AAp@ 1005d14c     libucrt:lcidtoname_downlevel.obj
 0003:00008158       ??_C@_1M@JILFNBIM@?$AAk?$AAa?$AA?9?$AAg?$AAe@ 1005d158     libucrt:lcidtoname_downlevel.obj
 0003:00008164       ??_C@_1M@PACPMGPH@?$AAk?$AAk?$AA?9?$AAk?$AAz@ 1005d164     libucrt:lcidtoname_downlevel.obj
 0003:00008170       ??_C@_1M@IELFGMHA@?$AAk?$AAn?$AA?9?$AAi?$AAn@ 1005d170     libucrt:lcidtoname_downlevel.obj
 0003:0000817c       ??_C@_1O@IBBJHCH@?$AAk?$AAo?$AAk?$AA?9?$AAi?$AAn@ 1005d17c     libucrt:lcidtoname_downlevel.obj
 0003:0000818c       ??_C@_1M@DMHAEOGC@?$AAk?$AAo?$AA?9?$AAk?$AAr@ 1005d18c     libucrt:lcidtoname_downlevel.obj
 0003:00008198       ??_C@_1M@HBAHBIGA@?$AAk?$AAy?$AA?9?$AAk?$AAg@ 1005d198     libucrt:lcidtoname_downlevel.obj
 0003:000081a4       ??_C@_1M@KPMILCJG@?$AAl?$AAt?$AA?9?$AAl?$AAt@ 1005d1a4     libucrt:lcidtoname_downlevel.obj
 0003:000081b0       ??_C@_1M@BDEKKCA@?$AAl?$AAv?$AA?9?$AAl?$AAv@ 1005d1b0     libucrt:lcidtoname_downlevel.obj
 0003:000081bc       ??_C@_1M@ELCKCCJJ@?$AAm?$AAi?$AA?9?$AAn?$AAz@ 1005d1bc     libucrt:lcidtoname_downlevel.obj
 0003:000081c8       ??_C@_1M@CBOOLAPA@?$AAm?$AAk?$AA?9?$AAm?$AAk@ 1005d1c8     libucrt:lcidtoname_downlevel.obj
 0003:000081d4       ??_C@_1M@GPHNBJKN@?$AAm?$AAl?$AA?9?$AAi?$AAn@ 1005d1d4     libucrt:lcidtoname_downlevel.obj
 0003:000081e0       ??_C@_1M@PABJILIG@?$AAm?$AAn?$AA?9?$AAm?$AAn@ 1005d1e0     libucrt:lcidtoname_downlevel.obj
 0003:000081ec       ??_C@_1M@FGBKKIPG@?$AAm?$AAr?$AA?9?$AAi?$AAn@ 1005d1ec     libucrt:lcidtoname_downlevel.obj
 0003:000081f8       ??_C@_1M@NDBPDDAL@?$AAm?$AAs?$AA?9?$AAb?$AAn@ 1005d1f8     libucrt:lcidtoname_downlevel.obj
 0003:00008204       ??_C@_1M@OPIHOOPI@?$AAm?$AAs?$AA?9?$AAm?$AAy@ 1005d204     libucrt:lcidtoname_downlevel.obj
 0003:00008210       ??_C@_1M@PPDBCNFM@?$AAm?$AAt?$AA?9?$AAm?$AAt@ 1005d210     libucrt:lcidtoname_downlevel.obj
 0003:0000821c       ??_C@_1M@KDJDKMDD@?$AAn?$AAb?$AA?9?$AAn?$AAo@ 1005d21c     libucrt:lcidtoname_downlevel.obj
 0003:00008228       ??_C@_1M@KFCFLMJP@?$AAn?$AAl?$AA?9?$AAb?$AAe@ 1005d228     libucrt:lcidtoname_downlevel.obj
 0003:00008234       ??_C@_1M@KPOPDDGO@?$AAn?$AAl?$AA?9?$AAn?$AAl@ 1005d234     libucrt:lcidtoname_downlevel.obj
 0003:00008240       ??_C@_1M@LJKPEMLN@?$AAn?$AAn?$AA?9?$AAn?$AAo@ 1005d240     libucrt:lcidtoname_downlevel.obj
 0003:0000824c       ??_C@_1M@BDGHHBFL@?$AAn?$AAs?$AA?9?$AAz?$AAa@ 1005d24c     libucrt:lcidtoname_downlevel.obj
 0003:00008258       ??_C@_1M@IDEHOAP@?$AAp?$AAa?$AA?9?$AAi?$AAn@ 1005d258     libucrt:lcidtoname_downlevel.obj
 0003:00008264       ??_C@_1M@HDBKGOGH@?$AAp?$AAl?$AA?9?$AAp?$AAl@ 1005d264     libucrt:lcidtoname_downlevel.obj
 0003:00008270       ??_C@_1M@LJLLCMEH@?$AAp?$AAt?$AA?9?$AAb?$AAr@ 1005d270     libucrt:lcidtoname_downlevel.obj
 0003:0000827c       ??_C@_1M@NCMONAAL@?$AAp?$AAt?$AA?9?$AAp?$AAt@ 1005d27c     libucrt:lcidtoname_downlevel.obj
 0003:00008288       ??_C@_1O@EAKMAJDN@?$AAq?$AAu?$AAz?$AA?9?$AAb?$AAo@ 1005d288     libucrt:lcidtoname_downlevel.obj
 0003:00008298       ??_C@_1O@BHHPIGDN@?$AAq?$AAu?$AAz?$AA?9?$AAe?$AAc@ 1005d298     libucrt:lcidtoname_downlevel.obj
 0003:000082a8       ??_C@_1O@GBAPEKMJ@?$AAq?$AAu?$AAz?$AA?9?$AAp?$AAe@ 1005d2a8     libucrt:lcidtoname_downlevel.obj
 0003:000082b8       ??_C@_1M@CLGLEFBO@?$AAr?$AAo?$AA?9?$AAr?$AAo@ 1005d2b8     libucrt:lcidtoname_downlevel.obj
 0003:000082c4       ??_C@_1M@CEEDODME@?$AAr?$AAu?$AA?9?$AAr?$AAu@ 1005d2c4     libucrt:lcidtoname_downlevel.obj
 0003:000082d0       ??_C@_1M@HPKKKMPP@?$AAs?$AAa?$AA?9?$AAi?$AAn@ 1005d2d0     libucrt:lcidtoname_downlevel.obj
 0003:000082dc       ??_C@_1M@BKMAIGOJ@?$AAs?$AAe?$AA?9?$AAf?$AAi@ 1005d2dc     libucrt:lcidtoname_downlevel.obj
 0003:000082e8       ??_C@_1M@NDPIFLFI@?$AAs?$AAe?$AA?9?$AAn?$AAo@ 1005d2e8     libucrt:lcidtoname_downlevel.obj
 0003:000082f4       ??_C@_1M@DANKKHJ@?$AAs?$AAe?$AA?9?$AAs?$AAe@ 1005d2f4     libucrt:lcidtoname_downlevel.obj
 0003:00008300       ??_C@_1M@PNBLONPJ@?$AAs?$AAk?$AA?9?$AAs?$AAk@ 1005d300     libucrt:lcidtoname_downlevel.obj
 0003:0000830c       ??_C@_1M@LFMODOAL@?$AAs?$AAl?$AA?9?$AAs?$AAi@ 1005d30c     libucrt:lcidtoname_downlevel.obj
 0003:00008318       ??_C@_1O@DFKOMPG@?$AAs?$AAm?$AAa?$AA?9?$AAn?$AAo@ 1005d318     libucrt:lcidtoname_downlevel.obj
 0003:00008328       ??_C@_1O@NDKPBNNH@?$AAs?$AAm?$AAa?$AA?9?$AAs?$AAe@ 1005d328     libucrt:lcidtoname_downlevel.obj
 0003:00008338       ??_C@_1O@PLLKBHAB@?$AAs?$AAm?$AAj?$AA?9?$AAn?$AAo@ 1005d338     libucrt:lcidtoname_downlevel.obj
 0003:00008348       ??_C@_1O@CLEPOGCA@?$AAs?$AAm?$AAj?$AA?9?$AAs?$AAe@ 1005d348     libucrt:lcidtoname_downlevel.obj
 0003:00008358       ??_C@_1O@DLGJGKMK@?$AAs?$AAm?$AAn?$AA?9?$AAf?$AAi@ 1005d358     libucrt:lcidtoname_downlevel.obj
 0003:00008368       ??_C@_1O@OJDJGAJC@?$AAs?$AAm?$AAs?$AA?9?$AAf?$AAi@ 1005d368     libucrt:lcidtoname_downlevel.obj
 0003:00008378       ??_C@_1M@BOFOGHPB@?$AAs?$AAq?$AA?9?$AAa?$AAl@ 1005d378     libucrt:lcidtoname_downlevel.obj
 0003:00008384       ??_C@_1BG@LJBBIPGB@?$AAs?$AAr?$AA?9?$AAb?$AAa?$AA?9?$AAc?$AAy?$AAr?$AAl@ 1005d384     libucrt:lcidtoname_downlevel.obj
 0003:0000839c       ??_C@_1BG@JLBENFOE@?$AAs?$AAr?$AA?9?$AAb?$AAa?$AA?9?$AAl?$AAa?$AAt?$AAn@ 1005d39c     libucrt:lcidtoname_downlevel.obj
 0003:000083b4       ??_C@_1BG@KODPNHE@?$AAs?$AAr?$AA?9?$AAs?$AAp?$AA?9?$AAc?$AAy?$AAr?$AAl@ 1005d3b4     libucrt:lcidtoname_downlevel.obj
 0003:000083cc       ??_C@_1BG@CIOGKHPB@?$AAs?$AAr?$AA?9?$AAs?$AAp?$AA?9?$AAl?$AAa?$AAt?$AAn@ 1005d3cc     libucrt:lcidtoname_downlevel.obj
 0003:000083e4       ??_C@_1M@NGFJLMAC@?$AAs?$AAv?$AA?9?$AAf?$AAi@ 1005d3e4     libucrt:lcidtoname_downlevel.obj
 0003:000083f0       ??_C@_1M@MPJEJAJC@?$AAs?$AAv?$AA?9?$AAs?$AAe@ 1005d3f0     libucrt:lcidtoname_downlevel.obj
 0003:000083fc       ??_C@_1M@MPNDHLFK@?$AAs?$AAw?$AA?9?$AAk?$AAe@ 1005d3fc     libucrt:lcidtoname_downlevel.obj
 0003:00008408       ??_C@_1O@KOHBJJI@?$AAs?$AAy?$AAr?$AA?9?$AAs?$AAy@ 1005d408     libucrt:lcidtoname_downlevel.obj
 0003:00008418       ??_C@_1M@LDCEFHA@?$AAt?$AAa?$AA?9?$AAi?$AAn@ 1005d418     libucrt:lcidtoname_downlevel.obj
 0003:00008424       ??_C@_1M@CNJOFAK@?$AAt?$AAe?$AA?9?$AAi?$AAn@ 1005d424     libucrt:lcidtoname_downlevel.obj
 0003:00008430       ??_C@_1M@GNAECACD@?$AAt?$AAh?$AA?9?$AAt?$AAh@ 1005d430     libucrt:lcidtoname_downlevel.obj
 0003:0000843c       ??_C@_1M@CHBIHOJO@?$AAt?$AAn?$AA?9?$AAz?$AAa@ 1005d43c     libucrt:lcidtoname_downlevel.obj
 0003:00008448       ??_C@_1M@GCCMIGPJ@?$AAt?$AAr?$AA?9?$AAt?$AAr@ 1005d448     libucrt:lcidtoname_downlevel.obj
 0003:00008454       ??_C@_1M@CELMCNBK@?$AAt?$AAt?$AA?9?$AAr?$AAu@ 1005d454     libucrt:lcidtoname_downlevel.obj
 0003:00008460       ??_C@_1M@KLMCELGA@?$AAu?$AAk?$AA?9?$AAu?$AAa@ 1005d460     libucrt:lcidtoname_downlevel.obj
 0003:0000846c       ??_C@_1M@EPAJJAJF@?$AAu?$AAr?$AA?9?$AAp?$AAk@ 1005d46c     libucrt:lcidtoname_downlevel.obj
 0003:00008478       ??_C@_1BG@GEGPMCDJ@?$AAu?$AAz?$AA?9?$AAu?$AAz?$AA?9?$AAc?$AAy?$AAr?$AAl@ 1005d478     libucrt:lcidtoname_downlevel.obj
 0003:00008490       ??_C@_1BG@EGGKJILM@?$AAu?$AAz?$AA?9?$AAu?$AAz?$AA?9?$AAl?$AAa?$AAt?$AAn@ 1005d490     libucrt:lcidtoname_downlevel.obj
 0003:000084a8       ??_C@_1M@GFOCLFF@?$AAv?$AAi?$AA?9?$AAv?$AAn@ 1005d4a8     libucrt:lcidtoname_downlevel.obj
 0003:000084b4       ??_C@_1M@CPAMEDFI@?$AAx?$AAh?$AA?9?$AAz?$AAa@ 1005d4b4     libucrt:lcidtoname_downlevel.obj
 0003:000084c0       ??_C@_1O@EBKIFIGN@?$AAz?$AAh?$AA?9?$AAc?$AAh?$AAs@ 1005d4c0     libucrt:lcidtoname_downlevel.obj
 0003:000084d0       ??_C@_1O@NMHPGANE@?$AAz?$AAh?$AA?9?$AAc?$AAh?$AAt@ 1005d4d0     libucrt:lcidtoname_downlevel.obj
 0003:000084e0       ??_C@_1M@LPINJOMC@?$AAz?$AAh?$AA?9?$AAc?$AAn@ 1005d4e0     libucrt:lcidtoname_downlevel.obj
 0003:000084ec       ??_C@_1M@OCJEJODD@?$AAz?$AAh?$AA?9?$AAh?$AAk@ 1005d4ec     libucrt:lcidtoname_downlevel.obj
 0003:000084f8       ??_C@_1M@DNDLJINH@?$AAz?$AAh?$AA?9?$AAm?$AAo@ 1005d4f8     libucrt:lcidtoname_downlevel.obj
 0003:00008504       ??_C@_1M@MBFDNDND@?$AAz?$AAh?$AA?9?$AAs?$AAg@ 1005d504     libucrt:lcidtoname_downlevel.obj
 0003:00008510       ??_C@_1M@IMEPLEPE@?$AAz?$AAh?$AA?9?$AAt?$AAw@ 1005d510     libucrt:lcidtoname_downlevel.obj
 0003:0000851c       ??_C@_1M@BBGHNHJP@?$AAz?$AAu?$AA?9?$AAz?$AAa@ 1005d51c     libucrt:lcidtoname_downlevel.obj
 0003:00008678       ??_C@_03MGHMBJCF@log@      1005d678     libucrt:libm_error.obj
 0003:0000867c       ??_C@_05HGHHAHAP@log10@    1005d67c     libucrt:libm_error.obj
 0003:00008684       ??_C@_03KHJOGHMM@exp@      1005d684     libucrt:libm_error.obj
 0003:00008688       ??_C@_03JGHBODFD@pow@      1005d688     libucrt:libm_error.obj
 0003:0000868c       ??_C@_04FIHNOPOL@asin@     1005d68c     libucrt:libm_error.obj
 0003:00008694       ??_C@_04PDIFKINK@acos@     1005d694     libucrt:libm_error.obj
 0003:0000869c       ??_C@_04EIAKFFMI@sqrt@     1005d69c     libucrt:libm_error.obj
 0003:000086a8       __real@3ff0000000000000    1005d6a8     libucrt:libm_error.obj
 0003:000086c0       ___acrt_log10_table_t      1005d6c0     libucrt:log10_tables.obj
 0003:00008ad0       ___acrt_log10_table_cb     1005dad0     libucrt:log10_tables.obj
 0003:00008ee0       ??_C@_1BA@BALFACEM@?$AAC?$AAO?$AAN?$AAO?$AAU?$AAT?$AA$@ 1005dee0     libucrt:initcon.obj
 0003:00009010       __infinity                 1005e010     libucrt:87tran.obj
 0003:0000901a       __minfinity                1005e01a     libucrt:87tran.obj
 0003:00009024       __logemax                  1005e024     libucrt:87tran.obj
 0003:0000904a       __OP_EXPjmptab             1005e04a     libucrt:87tran.obj
 0003:00009070       __indefinite               1005e070     libucrt:87disp.obj
 0003:0000907a       __piby2                    1005e07a     libucrt:87disp.obj
 0003:00009084       __piby4                    1005e084     libucrt:87disp.obj
 0003:000090b8       __DEFAULT_CW_in_mem        1005e0b8     libucrt:common.obj
 0003:000090ba       __pi_by_2_to_61            1005e0ba     libucrt:common.obj
 0003:000091e0       ??_C@_04COOMCNPB@sinh@     1005e1e0     libucrt:fpexcept.obj
 0003:000091e8       ??_C@_04HPJJNFIM@cosh@     1005e1e8     libucrt:fpexcept.obj
 0003:000091f0       ??_C@_04FJHINJAO@tanh@     1005e1f0     libucrt:fpexcept.obj
 0003:000091f8       ??_C@_04MLLJIGOK@atan@     1005e1f8     libucrt:fpexcept.obj
 0003:00009200       ??_C@_05KNGEOGJB@atan2@    1005e200     libucrt:fpexcept.obj
 0003:00009208       ??_C@_03BLEJJJBH@sin@      1005e208     libucrt:fpexcept.obj
 0003:0000920c       ??_C@_03LALBNOCG@cos@      1005e20c     libucrt:fpexcept.obj
 0003:00009210       ??_C@_03IIINPABG@tan@      1005e210     libucrt:fpexcept.obj
 0003:00009214       ??_C@_04GFPJNGEK@ceil@     1005e214     libucrt:fpexcept.obj
 0003:0000921c       ??_C@_05PBJFFIGL@floor@    1005e21c     libucrt:fpexcept.obj
 0003:00009224       ??_C@_04EHEDPDJG@modf@     1005e224     libucrt:fpexcept.obj
 0003:0000922c       ??_C@_05CEJMAHNP@ldexp@    1005e22c     libucrt:fpexcept.obj
 0003:00009234       ??_C@_05KBKMEMPO@_cabs@    1005e234     libucrt:fpexcept.obj
 0003:0000923c       ??_C@_06MEIMCGCF@_hypot@   1005e23c     libucrt:fpexcept.obj
 0003:00009244       ??_C@_04KEPJIHGP@fmod@     1005e244     libucrt:fpexcept.obj
 0003:0000924c       ??_C@_05GKKHEGJL@frexp@    1005e24c     libucrt:fpexcept.obj
 0003:00009254       ??_C@_03MJLDFKDL@_y0@      1005e254     libucrt:fpexcept.obj
 0003:00009258       ??_C@_03NAKIGLHK@_y1@      1005e258     libucrt:fpexcept.obj
 0003:0000925c       ??_C@_03ONILCKOB@_yn@      1005e25c     libucrt:fpexcept.obj
 0003:00009260       ??_C@_05JGDBENOH@_logb@    1005e260     libucrt:fpexcept.obj
 0003:00009268       ??_C@_0L@KDOEJCKC@_nextafter@ 1005e268     libucrt:fpexcept.obj
 0003:00009278       __real@0000000000000000    1005e278     libucrt:fpexcept.obj
 0003:00009280       __xmm@80000000000000008000000000000000 1005e280     libucrt:fpexcept.obj
 0003:00009290       __d_inf                    1005e290     libucrt:frexp.obj
 0003:00009298       __d_max                    1005e298     libucrt:frexp.obj
 0003:000092a0       __d_mzero                  1005e2a0     libucrt:frexp.obj
 0003:000092a8       __real@3fe0000000000000    1005e2a8     libucrt:powhlp.obj
 0003:000092b0       __xmm@7fffffffffffffff7fffffffffffffff 1005e2b0     libucrt:powhlp.obj
 0003:000092c0       __Asan_string_should_annotate 1005e2c0     libcpmt:asan_noop.obj
 0003:000092c0       __Asan_string_should_annotate_default 1005e2c0     libcpmt:asan_noop.obj
 0003:000092c1       __Asan_vector_should_annotate_default 1005e2c1     libcpmt:asan_noop.obj
 0003:000092c8       ??_C@_0FK@PDIBAOGF@c?3?2Users?2kai99?2Desktop?2New?5fold@ 1005e2c8     portable_settings.obj
 0003:00009324       ??_C@_0BC@IJHGPFDC@invalid?5hex?5digit@ 1005e324     portable_settings.obj
 0003:00009338       ??_C@_02DEBJNODD@?$PP?$PO@ 1005e338     portable_settings.obj
 0003:0000933c       ??_C@_15JNBOKNOG@?$AA?$AN?$AA?6@ 1005e33c     portable_settings.obj
 0003:00009344       ??_C@_0L@BNKBKFNE@odd?5length@ 1005e344     portable_settings.obj
 0003:00009350       ??_C@_0BA@FOIKENOD@vector?5too?5long@ 1005e350     portable_settings.obj
 0003:00009364       ??_7?$EnumIteratorRegistryBase@H@@6B@ 1005e364     portable_settings.obj
 0003:00009374       ??_7?$EnumIteratorRegistryBase@V?$basic_string@_WU?$char_traits@_W@std@@V?$allocator@_W@2@@std@@@@6B@ 1005e374     portable_settings.obj
 0003:00009384       ??_7?$EnumIteratorIniFileBase@H@@6B@ 1005e384     portable_settings.obj
 0003:00009394       ??_7?$EnumIteratorImpl@H@@6B@ 1005e394     portable_settings.obj
 0003:000093a4       ??_7?$EnumIteratorIniFileBase@V?$basic_string@_WU?$char_traits@_W@std@@V?$allocator@_W@2@@std@@@@6B@ 1005e3a4     portable_settings.obj
 0003:000093b4       ??_7?$EnumIteratorImpl@V?$basic_string@_WU?$char_traits@_W@std@@V?$allocator@_W@2@@std@@@@6B@ 1005e3b4     portable_settings.obj
 0003:000093c0       ??_C@_0BI@CFPLBAOH@invalid?5string?5position@ 1005e3c0     portable_settings.obj
 0003:00009400       ??_7IniFileSettings@@6B@   1005e400     portable_settings.obj
 0003:0000942c       ??_7EnumIteratorIniFileString@@6B@ 1005e42c     portable_settings.obj
 0003:0000943c       ??_7EnumIteratorIniFileInt@@6B@ 1005e43c     portable_settings.obj
 0003:00009448       ??_C@_00CNPNBAHC@@         1005e448     portable_settings.obj
 0003:0000944c       ??_C@_09FBNMMHMJ@Exception@ 1005e44c     portable_settings.obj
 0003:00009458       ??_C@_08PHCNGLJD@ReturnNt@ 1005e458     portable_settings.obj
 0003:00009464       ??_C@_08KFPKLAKH@ReturnHr@ 1005e464     portable_settings.obj
 0003:00009470       ??_C@_05LKGDKHFF@LogNt@    1005e470     portable_settings.obj
 0003:00009478       ??_C@_05OILEHMGB@LogHr@    1005e478     portable_settings.obj
 0003:00009480       ??_C@_08IAOKKAJK@FailFast@ 1005e480     portable_settings.obj
 0003:0000948c       ??_C@_1CC@NCIPMFAO@?$AA?$CF?$AAh?$AAs?$AA?$CI?$AA?$CF?$AAu?$AA?$CJ?$AA?2?$AA?$CF?$AAh?$AAs?$AA?$CB?$AA?$CF?$AAp?$AA?3@ 1005e48c     portable_settings.obj
 0003:000094b0       ??_C@_1BC@HOGHCIFF@?$AA?$CF?$AAh?$AAs?$AA?$CB?$AA?$CF?$AAp?$AA?3?$AA?5@ 1005e4b0     portable_settings.obj
 0003:000094c4       ??_C@_1BM@EAHLIJPA@?$AA?$CI?$AAc?$AAa?$AAl?$AAl?$AAe?$AAr?$AA?3?$AA?5?$AA?$CF?$AAp?$AA?$CJ?$AA?5@ 1005e4c4     portable_settings.obj
 0003:000094e0       ??_C@_1DC@MFHOKFOG@?$AA?$CF?$AAh?$AAs?$AA?$CI?$AA?$CF?$AAd?$AA?$CJ?$AA?5?$AAt?$AAi?$AAd?$AA?$CI?$AA?$CF?$AAx?$AA?$CJ@ 1005e4e0     portable_settings.obj
 0003:00009514       ??_C@_19NMAFMAH@?$AA?5?$AA?5?$AA?5?$AA?5@ 1005e514     portable_settings.obj
 0003:00009520       ??_C@_1BG@MCLOHHAM@?$AAM?$AAs?$AAg?$AA?3?$AA?$FL?$AA?$CF?$AAw?$AAs?$AA?$FN?$AA?5@ 1005e520     portable_settings.obj
 0003:00009538       ??_C@_1CG@CGJKEFKG@?$AAC?$AAa?$AAl?$AAl?$AAC?$AAo?$AAn?$AAt?$AAe?$AAx?$AAt?$AA?3?$AA?$FL?$AA?$CF?$AAh@ 1005e538     portable_settings.obj
 0003:00009560       ??_C@_1BI@PKOCHLJN@?$AA?$FL?$AA?$CF?$AAh?$AAs?$AA?$CI?$AA?$CF?$AAh?$AAs?$AA?$CJ?$AA?$FN?$AA?6@ 1005e560     portable_settings.obj
 0003:00009578       ??_C@_1O@PJKHPDBK@?$AA?$FL?$AA?$CF?$AAh?$AAs?$AA?$FN?$AA?6@ 1005e578     portable_settings.obj
 0003:00009588       ??_C@_13LBAGMAIH@?$AA?6@   1005e588     portable_settings.obj
 0003:00009590       ??_7RegistrySettings@@6B@  1005e590     portable_settings.obj
 0003:000095bc       ??_7EnumIteratorRegistryString@@6B@ 1005e5bc     portable_settings.obj
 0003:000095cc       ??_7EnumIteratorRegistryInt@@6B@ 1005e5cc     portable_settings.obj
 0003:000095d8       ??_C@_0BG@HBEOPAA@invalid?5stol?5argument@ 1005e5d8     portable_settings.obj
 0003:000095f0       ??_C@_0BL@CNHODNBK@stol?5argument?5out?5of?5range@ 1005e5f0     portable_settings.obj
 0003:0000960c       ??_C@_0BA@JFNIOLAK@string?5too?5long@ 1005e60c     portable_settings.obj
 0003:0000961c       ??_C@_0BF@KINCDENJ@bad?5array?5new?5length@ 1005e61c     portable_settings.obj
 0003:00009634       ??_C@_0BC@EOODALEL@Unknown?5exception@ 1005e634     portable_settings.obj
 0003:00009648       ??_C@_1DA@PKAMFNDG@?$AAw?$AAi?$AAn?$AAd?$AAh?$AAa?$AAw?$AAk?$AA?9?$AAx?$AA6?$AA4?$AA?9?$AAh?$AAe@ 1005e648     all_processes_injector.obj
 0003:00009678       ??_C@_0BL@FIMAAOCE@all_processes_injector?4cpp@ 1005e678     all_processes_injector.obj
 0003:00009694       ??_C@_0BD@LHJBPAIN@NtGetContextThread@ 1005e694     all_processes_injector.obj
 0003:000096a8       ??_C@_1DI@PIELCBOE@?$AA?2?$AAP?$AAr?$AAo?$AAc?$AAe?$AAs?$AAs?$AAI?$AAn?$AAi?$AAt?$AAA?$AAP?$AAC@ 1005e6a8     all_processes_injector.obj
 0003:000096e0       ??_C@_0BB@OFFAJPHF@NtGetNextProcess@ 1005e6e0     all_processes_injector.obj
 0003:000096f4       ??_C@_0BA@KFLOHNAA@NtGetNextThread@ 1005e6f4     all_processes_injector.obj
 0003:00009704       ??_C@_0BD@BHKNPFBB@RtlUserThreadStart@ 1005e704     all_processes_injector.obj
 0003:00009718       ??_C@_1BC@PFDDLKEP@?$AAS?$AAe?$AAt?$AAt?$AAi?$AAn?$AAg?$AAs@ 1005e718     all_processes_injector.obj
 0003:0000972c       ??_C@_1BA@EIDNBJKI@?$AAI?$AAn?$AAc?$AAl?$AAu?$AAd?$AAe@ 1005e72c     all_processes_injector.obj
 0003:0000973c       ??_C@_1BA@HBGPLNLK@?$AAE?$AAx?$AAc?$AAl?$AAu?$AAd?$AAe@ 1005e73c     all_processes_injector.obj
 0003:0000974c       ??_C@_1CG@KNFPBPCF@?$AAT?$AAh?$AAr?$AAe?$AAa?$AAd?$AAA?$AAt?$AAt?$AAa?$AAc?$AAh?$AAE?$AAx?$AAe@ 1005e74c     all_processes_injector.obj
 0003:00009774       ??_C@_1DI@BNBDNAFM@?$AAI?$AAn?$AAj?$AAe?$AAc?$AAt?$AAI?$AAn?$AAt?$AAo?$AAC?$AAr?$AAi?$AAt?$AAi@ 1005e774     all_processes_injector.obj
 0003:000097ac       ??_C@_1DO@EKDDOBHN@?$AAI?$AAn?$AAj?$AAe?$AAc?$AAt?$AAI?$AAn?$AAt?$AAo?$AAI?$AAn?$AAc?$AAo?$AAm@ 1005e7ac     all_processes_injector.obj
 0003:000097ec       ??_C@_1CA@NPFNGIIF@?$AAI?$AAn?$AAj?$AAe?$AAc?$AAt?$AAI?$AAn?$AAt?$AAo?$AAG?$AAa?$AAm?$AAe?$AAs@ 1005e7ec     all_processes_injector.obj
 0003:0000980c       ??_C@_0CN@CMCFFGPH@AllProcessesInjector?3?3InjectInt@ 1005e80c     all_processes_injector.obj
 0003:00009840       ??_C@_1FC@GMKFLEM@?$AA?$FL?$AAW?$AAH?$AA?$FN?$AA?5?$AA?$FL?$AA?$CF?$AAS?$AA?$FN?$AA?3?$AA?5?$AAN?$AAt?$AAG?$AAe@ 1005e840     all_processes_injector.obj
 0003:00009898       ??_C@_1EG@ICOJNHPN@?$AA?$FL?$AAW?$AAH?$AA?$FN?$AA?5?$AA?$FL?$AA?$CF?$AAS?$AA?$FN?$AA?3?$AA?5?$AAG?$AAe?$AAt?$AAP@ 1005e898     all_processes_injector.obj
 0003:000098e0       ??_C@_1HI@MHHPJJPA@?$AA?$FL?$AAW?$AAH?$AA?$FN?$AA?5?$AA?$FL?$AA?$CF?$AAS?$AA?$FN?$AA?3?$AA?5?$AAP?$AAr?$AAo?$AAc@ 1005e8e0     all_processes_injector.obj
 0003:00009958       ??_C@_1FK@JJGDLCHL@?$AA?$FL?$AAW?$AAH?$AA?$FN?$AA?5?$AA?$FL?$AA?$CF?$AAS?$AA?$FN?$AA?3?$AA?5?$AAP?$AAr?$AAo?$AAc@ 1005e958     all_processes_injector.obj
 0003:000099b8       ??_C@_1IC@OFEMLBLH@?$AA?$FL?$AAW?$AAH?$AA?$FN?$AA?5?$AA?$FL?$AA?$CF?$AAS?$AA?$FN?$AA?3?$AA?5?$AAQ?$AAu?$AAe?$AAr@ 1005e9b8     all_processes_injector.obj
 0003:00009a40       ??_C@_1FC@GPDBFCGC@?$AA?$FL?$AAW?$AAH?$AA?$FN?$AA?5?$AA?$FL?$AA?$CF?$AAS?$AA?$FN?$AA?3?$AA?5?$AAS?$AAk?$AAi?$AAp@ 1005ea40     all_processes_injector.obj
 0003:00009a98       ??_C@_1FO@HLFIJCBB@?$AA?$FL?$AAW?$AAH?$AA?$FN?$AA?5?$AA?$FL?$AA?$CF?$AAS?$AA?$FN?$AA?3?$AA?5?$AAD?$AAe?$AAf?$AAe@ 1005ea98     all_processes_injector.obj
 0003:00009af8       ??_C@_1FE@CIFMJHCE@?$AA?$FL?$AAW?$AAH?$AA?$FN?$AA?5?$AA?$FL?$AA?$CF?$AAS?$AA?$FN?$AA?3?$AA?5?$AAP?$AAr?$AAo?$AAc@ 1005eaf8     all_processes_injector.obj
 0003:00009b50       ??_C@_1FK@FBLCKBA@?$AA?$FL?$AAW?$AAH?$AA?$FN?$AA?5?$AA?$FL?$AA?$CF?$AAS?$AA?$FN?$AA?3?$AA?5?$AAA?$AAc?$AAc?$AAe@ 1005eb50     all_processes_injector.obj
 0003:00009bb0       ??_C@_1GA@CAAKCPBJ@?$AA?$FL?$AAW?$AAH?$AA?$FN?$AA?5?$AA?$FL?$AA?$CF?$AAS?$AA?$FN?$AA?3?$AA?5?$AAE?$AAr?$AAr?$AAo@ 1005ebb0     all_processes_injector.obj
 0003:00009c10       ??_C@_0BJ@BDFJEDIN@Unsupported?5architecture@ 1005ec10     all_processes_injector.obj
 0003:00009c2c       ??_C@_0CL@EMCMFHPP@AllProcessesInjector?3?3InjectInt@ 1005ec2c     all_processes_injector.obj
 0003:00009c58       ??_C@_1HG@JHEPKFGP@?$AA?$FL?$AAW?$AAH?$AA?$FN?$AA?5?$AA?$FL?$AA?$CF?$AAS?$AA?$FN?$AA?3?$AA?5?$AAD?$AAl?$AAl?$AAI@ 1005ec58     all_processes_injector.obj
 0003:00009cd0       ??_C@_1IO@OEPPKNGA@?$AA?$FL?$AAW?$AAH?$AA?$FN?$AA?5?$AA?$FL?$AA?$CF?$AAS?$AA?$FN?$AA?3?$AA?5?$AAD?$AAl?$AAl?$AAI@ 1005ecd0     all_processes_injector.obj
 0003:00009d64       ??_7?$__func@V<lambda_1>@?1???$K32GetModuleFileNameExW@V?$basic_string@_WU?$char_traits@_W@std@@V?$allocator@_W@2@@std@@$0IA@@wil@@YAJPAXPAUHINSTANCE__@@AAV?$basic_string@_WU?$char_traits@_W@std@@V?$allocator@_W@2@@std@@@Z@$$A6AJPA_WIPAI@Z@__function@wistd@@6B@ 1005ed64     all_processes_injector.obj
 0003:00009d7c       ??_7?$__func@V<lambda_1>@?1???$QueryFullProcessImageNameW@V?$basic_string@_WU?$char_traits@_W@std@@V?$allocator@_W@2@@std@@$0BAA@@wil@@YAJPAXKAAV?$basic_string@_WU?$char_traits@_W@std@@V?$allocator@_W@2@@std@@@Z@$$A6AJPA_WIPAI@Z@__function@wistd@@6B@ 1005ed7c     all_processes_injector.obj
 0003:00009d94       ??_7?$__base@$$A6AJPA_WIPAI@Z@__function@wistd@@6B@ 1005ed94     all_processes_injector.obj
 0003:00009da8       ??_C@_0GC@FDGIFPPC@c?3?2Users?2kai99?2Desktop?2New?5fold@ 1005eda8     all_processes_injector.obj
 0003:00009e0c       ??_C@_11LOCGONAA@@         1005ee0c     all_processes_injector.obj
 0003:00009e10       ??_C@_0FN@BNJIPNBM@c?3?2Users?2kai99?2Desktop?2New?5fold@ 1005ee10     all_processes_injector.obj
 0003:00009e70       ??_C@_0BH@GKPJJDBO@LdrGetProcedureAddress@ 1005ee70     all_processes_injector.obj
 0003:00009e88       ??_C@_0BA@LLBDFIDC@Wow64Transition@ 1005ee88     all_processes_injector.obj
 0003:00009e98       ??_C@_0L@OJKFFAOM@xtajit?4dll@ 1005ee98     all_processes_injector.obj
 0003:00009ea4       ??_C@_0BF@CBGAAONM@Wow64SystemServiceEx@ 1005eea4     all_processes_injector.obj
 0003:00009ebc       ??_C@_09DLMHONJJ@wow64?4dll@ 1005eebc     all_processes_injector.obj
 0003:00009ec8       ??_C@_0DE@HLBNEIN@call_function?$CIldr_procedure_add@ 1005eec8     all_processes_injector.obj
 0003:00009efc       ??_C@_09FLKFJBLM@ntdll?4dll@ 1005eefc     all_processes_injector.obj
 0003:00009f08       ?function_name@?1??get_cached_nt_wow64_query_information_process_64@detail@wow64pp@@YAP6GJPAXI0IPAI@ZAAVerror_code@std@@@Z@4QBDB 1005ef08     all_processes_injector.obj
 0003:00009f2c       ??_C@_0CK@DFEILCOL@NtWow64QueryInformationProcess6@ 1005ef2c     all_processes_injector.obj
 0003:00009f58       ??_C@_1BE@GJOFHIHD@?$AAn?$AAt?$AAd?$AAl?$AAl?$AA?4?$AAd?$AAl?$AAl@ 1005ef58     all_processes_injector.obj
 0003:00009f6c       ?function_name@?1??get_cached_nt_wow64_read_virtual_memory_64@detail@wow64pp@@YAP6GJPAX_K01PA_K@ZAAVerror_code@std@@@Z@4QBDB 1005ef6c     all_processes_injector.obj
 0003:00009f88       ??_C@_0CL@FMLMCGNL@failed?5to?5duplicate?5current?5pro@ 1005ef88     all_processes_injector.obj
 0003:00009fb4       ??_C@_0CE@INKHABN@NtWow64ReadVirtualMemory64?$CI?$CJ?5fa@ 1005efb4     all_processes_injector.obj
 0003:00009fd8       ??_C@_02LMMGGCAJ@?3?5@     1005efd8     all_processes_injector.obj
 0003:00009fdc       ??_C@_0CA@FECMPNEA@Could?5not?5get?5x64?5module?5handle@ 1005efdc     all_processes_injector.obj
 0003:00009ffc       ??_C@_06FHFOAHML@system@   1005effc     all_processes_injector.obj
 0003:0000a004       ?_Unknown_error@?6??message@_System_error_category@std@@UBE?AV?$basic_string@DU?$char_traits@D@std@@V?$allocator@D@2@@3@H@Z@4QBDB 1005f004     all_processes_injector.obj
 0003:0000a014       ??_C@_07DCLBNMLN@generic@  1005f014     all_processes_injector.obj
 0003:0000a020       ??_7_System_error_category@std@@6B@ 1005f020     all_processes_injector.obj
 0003:0000a038       ??_C@_0BA@JBBGLKFP@IsWow64Process2@ 1005f038     all_processes_injector.obj
 0003:0000a048       ??_C@_1BK@MGMFAEKH@?$AAk?$AAe?$AAr?$AAn?$AAe?$AAl?$AA3?$AA2?$AA?4?$AAd?$AAl?$AAl@ 1005f048     all_processes_injector.obj
 0003:0000a068       ?kGames@ProcessLists@@3QB_WB 1005f068     all_processes_injector.obj
 0003:0000afa8       ?kIncompatiblePrograms@ProcessLists@@3QB_WB 1005ffa8     all_processes_injector.obj
 0003:0000b040       ?kDeferredProcesses@ProcessLists@@3QB_WB 10060040     all_processes_injector.obj
 0003:0000b178       ?kHighPriorityProcesses@ProcessLists@@3QB_WB 10060178     all_processes_injector.obj
 0003:0000b1b0       ?kCriticalProcessesForMods@ProcessLists@@3QB_WB 100601b0     all_processes_injector.obj
 0003:0000b310       ?kCriticalProcesses@ProcessLists@@3QB_WB 10060310     all_processes_injector.obj
 0003:0000bc50       ??_C@_0BB@NNNBNIDF@NtQueueApcThread@ 10060c50     dll_inject.obj
 0003:0000bc64       ??_C@_0P@CPFAJMFO@dll_inject?4cpp@ 10060c64     dll_inject.obj
 0003:0000bc74       ??_C@_0BB@KGGDNLNO@NtCreateThreadEx@ 10060c74     dll_inject.obj
 0003:0000bc88       ??_C@_0BL@NGJPPJDB@NtQueueApcThread?5not?5found@ 10060c88     dll_inject.obj
 0003:0000bca4       ??_C@_0BG@IFILFNJG@GetProcessInformation@ 10060ca4     dll_inject.obj
 0003:0000bcbc       ??_C@_1CI@POBIGHKE@?$AAU?$AAs?$AAe?$AAP?$AAh?$AAa?$AAn?$AAt?$AAo?$AAm?$AAI?$AAn?$AAj?$AAe?$AAc@ 10060cbc     dll_inject.obj
 0003:0000bce4       ??_C@_0BL@CPBNLHLM@Invalid?5architecture?5value@ 10060ce4     dll_inject.obj
 0003:0000bd00       ??_C@_1BK@LAAHIMOG@?$AAw?$AAi?$AAn?$AAd?$AAh?$AAa?$AAw?$AAk?$AA?4?$AAd?$AAl?$AAl@ 10060d00     dll_inject.obj
 0003:0000bd1c       ??_C@_1CI@EPIKOING@?$AAU?$AAs?$AAe?$AAI?$AAn?$AAd?$AAi?$AAr?$AAe?$AAc?$AAt?$AAS?$AAy?$AAs?$AAc@ 10060d1c     dll_inject.obj
 0003:0000bd44       ??_C@_1CE@DGDDLKJN@?$AAU?$AAs?$AAe?$AAM?$AAo?$AAd?$AAu?$AAl?$AAe?$AAS?$AAt?$AAo?$AAm?$AAp?$AAi@ 10060d44     dll_inject.obj
 0003:0000bd68       ??_C@_1BK@BNOFJAFM@?$AAx?$AAp?$AAs?$AAp?$AAr?$AAi?$AAn?$AAt?$AA?4?$AAd?$AAl?$AAl@ 10060d68     dll_inject.obj
 0003:0000bd84       ??_C@_0BF@MKCNNBBA@DllInject?3?3DllInject@ 10060d84     dll_inject.obj
 0003:0000bda0       ??_C@_1IE@FPKGECOI@?$AA?$FL?$AAW?$AAH?$AA?$FN?$AA?5?$AA?$FL?$AA?$CF?$AAS?$AA?$FN?$AA?3?$AA?5?$AAM?$AAo?$AAd?$AAu@ 10060da0     dll_inject.obj
 0003:0000be24       ??_C@_1DE@JCGJLFMN@?$AAW?$AAi?$AAn?$AAd?$AAh?$AAa?$AAw?$AAk?$AAI?$AAn?$AAj?$AAe?$AAc?$AAt?$AAe@ 10060e24     dll_inject.obj
 0003:0000be58       ??_C@_1CC@CFCNHABB@?$AAW?$AAi?$AAn?$AAd?$AAh?$AAa?$AAw?$AAk?$AAI?$AAn?$AAj?$AAe?$AAc?$AAt?$AAe@ 10060e58     dll_inject.obj
 0003:0000e2c8       _OPERAND_DEFINITIONS       100632c8     Zydis.obj
 0003:00027838       _FILTERS_EVEX_B            1007c838     Zydis.obj
 0003:000292d8       _encoder_instructions      1007e2d8     Zydis.obj
 0003:0003c9dc       _FILTERS_MODE_WBNOINVD     100919dc     Zydis.obj
 0003:0003c9ec       _FILTERS_PREFIX_GROUP1     100919ec     Zydis.obj
 0003:0003ca28       _FILTERS_MODRM_REG         10091a28     Zydis.obj
 0003:0003d590       _FILTERS_MODE_COMPACT      10092590     Zydis.obj
 0003:0003de04       _FILTERS_MODE              10092e04     Zydis.obj
 0003:0003de44       _FILTERS_MODE_MPX          10092e44     Zydis.obj
 0003:0003df28       _ISTR_DEFINITIONS_EVEX     10092f28     Zydis.obj
 0003:0004e220       _FILTERS_ADDRESS_SIZE      100a3220     Zydis.obj
 0003:0004e450       _FILTERS_VECTOR_LENGTH     100a3450     Zydis.obj
 0003:00051cc8       _ISTR_DEFINITIONS_VEX      100a6cc8     Zydis.obj
 0003:000586b0       _FILTERS_XOP               100ad6b0     Zydis.obj
 0003:00058750       _FILTERS_MODE_AMD          100ad750     Zydis.obj
 0003:000587bc       _FILTERS_MODE_IPREFETCH    100ad7bc     Zydis.obj
 0003:00058848       _FILTERS_MODRM_MOD_COMPACT 100ad848     Zydis.obj
 0003:0005b4d0       _FILTERS_REX_W             100b04d0     Zydis.obj
 0003:0005df18       _FILTERS_MANDATORY_PREFIX  100b2f18     Zydis.obj
 0003:0005fa78       _FILTERS_VEX               100b4a78     Zydis.obj
 0003:0005fae0       _FILTERS_EMVEX             100b4ae0     Zydis.obj
 0003:00062b3c       _FILTERS_MODE_LZCNT        100b7b3c     Zydis.obj
 0003:00062b78       _FILTERS_MODE_UD0_COMPAT   100b7b78     Zydis.obj
 0003:00063788       _ISTR_DEFINITIONS_3DNOW    100b8788     Zydis.obj
 0003:00063ae0       _zydis_decoder_tree_root   100b8ae0     Zydis.obj
 0003:00063cd0       _ISTR_DEFINITIONS_XOP      100b8cd0     Zydis.obj
 0003:00064728       _FILTERS_MODE_CLDEMOTE     100b9728     Zydis.obj
 0003:000647ec       _FILTERS_MODE_KNC          100b97ec     Zydis.obj
 0003:00064a3c       _FILTERS_REX_B             100b9a3c     Zydis.obj
 0003:00064af0       _FILTERS_MVEX_E            100b9af0     Zydis.obj
 0003:00064f58       _FILTERS_MODRM_RM          100b9f58     Zydis.obj
 0003:00065678       _FILTERS_OPCODE            100ba678     Zydis.obj
 0003:0006e11c       _FILTERS_MODRM_MOD         100c311c     Zydis.obj
 0003:0006e1b4       _FILTERS_MODE_TZCNT        100c31b4     Zydis.obj
 0003:0006e1c8       _ISTR_DEFINITIONS_MVEX     100c31c8     Zydis.obj
 0003:0006fcd0       _ISTR_DEFINITIONS_LEGACY   100c4cd0     Zydis.obj
 0003:00076f80       _FILTERS_OPERAND_SIZE      100cbf80     Zydis.obj
 0003:00077124       _FILTERS_MODE_CET          100cc124     Zydis.obj
 0003:00077208       ??_C@_0O@MJPOMPOC@EtwEventWrite@ 100cc208     etw_stealth.obj
 0003:00077218       ??_C@_0BP@GINMGICN@EtwStealth?3?3PatchEtwEventWrite@ 100cc218     etw_stealth.obj
 0003:00077238       ??_C@_1II@DGGHEFIH@?$AA?$FL?$AAW?$AAH?$AA?$FN?$AA?5?$AA?$FL?$AA?$CF?$AAS?$AA?$FN?$AA?3?$AA?5?$AAE?$AAt?$AAw?$AAE@ 100cc238     etw_stealth.obj
 0003:000772c0       ??_C@_1GI@FHIJNNGI@?$AA?$FL?$AAW?$AAH?$AA?$FN?$AA?5?$AA?$FL?$AA?$CF?$AAS?$AA?$FN?$AA?3?$AA?5?$AAF?$AAa?$AAi?$AAl@ 100cc2c0     etw_stealth.obj
 0003:00077328       ??_C@_1GI@PCDAMHNG@?$AA?$FL?$AAW?$AAH?$AA?$FN?$AA?5?$AA?$FL?$AA?$CF?$AAS?$AA?$FN?$AA?3?$AA?5?$AAF?$AAa?$AAi?$AAl@ 100cc328     etw_stealth.obj
 0003:00077390       ??_C@_15EAECJAPL@?$AA?$CK?$AA?$DP@ 100cc390     functions.obj
 0003:00077398       ??_C@_1BO@HNKIOGCF@?$AA?$CF?$AAP?$AAr?$AAo?$AAg?$AAr?$AAa?$AAm?$AAW?$AA6?$AA4?$AA3?$AA2?$AA?$CF@ 100cc398     functions.obj
 0003:000773b8       ??_C@_1BO@DFHEBLHG@?$AA?$CF?$AAP?$AAr?$AAo?$AAg?$AAr?$AAa?$AAm?$AAF?$AAi?$AAl?$AAe?$AAs?$AA?$CF@ 100cc3b8     functions.obj
 0003:000773d8       ??_C@_1JK@LKBPHDHG@?$AAD?$AA?3?$AAP?$AA?$CI?$AAA?$AA?$DL?$AA?$DL?$AAG?$AAA?$AA?$DL?$AA?$DL?$AA?$DL?$AAW?$AAD?$AA?$CJ@ 100cc3d8     functions.obj
 0003:00077474       ??_C@_0CA@ODLDBBMI@Functions?3?3MyCreateRemoteThread@ 100cc474     functions.obj
 0003:00077498       ??_C@_1GI@JMENFCGJ@?$AA?$FL?$AAW?$AAH?$AA?$FN?$AA?5?$AA?$FL?$AA?$CF?$AAS?$AA?$FN?$AA?3?$AA?5?$AAS?$AAt?$AAa?$AAc@ 100cc498     functions.obj
 0003:00077500       ??_C@_0BH@OLGOMKMH@RtlGetNtVersionNumbers@ 100cc500     functions.obj
 0003:00077518       ??_C@_1BI@JADLCDAP@?$AAv?$AAe?$AAr?$AAs?$AAi?$AAo?$AAn?$AA?4?$AAd?$AAl?$AAl@ 100cc518     functions.obj
 0003:00077530       ??_C@_0P@BMNOKKJF@VerQueryValueW@ 100cc530     functions.obj
 0003:00077540       ??_C@_13FPGAJAPJ@?$AA?2@   100cc540     functions.obj
 0003:00077544       ??_C@_0BF@HANKKIJA@SetThreadDescription@ 100cc544     functions.obj
 0003:00077560       ??_C@_0FN@KLGDOHOJ@c?3?2Users?2kai99?2Desktop?2New?5fold@ 100cc560     functions.obj
 0003:000775c4       ??_7?$__func@V<lambda_1>@?1???$ExpandEnvironmentStringsW@V?$basic_string@_WU?$char_traits@_W@std@@V?$allocator@_W@2@@std@@$0BAA@@wil@@YAJPB_WAAV?$basic_string@_WU?$char_traits@_W@std@@V?$allocator@_W@2@@std@@@Z@$$A6AJPA_WIPAI@Z@__function@wistd@@6B@ 100cc5c4     functions.obj
 0003:000775d8       ??_C@_0BN@OFDOGPDL@invalid?5string_view?5position@ 100cc5d8     functions.obj
 0003:000775f8       ??_C@_0BC@CDONGAKG@HwbpHook?3?3SetHook@ 100cc5f8     hwbp_hook.obj
 0003:00077610       ??_C@_1JE@BIIEOMHK@?$AA?$FL?$AAW?$AAH?$AA?$FN?$AA?5?$AA?$FL?$AA?$CF?$AAS?$AA?$FN?$AA?3?$AA?5?$AAH?$AAW?$AAB?$AAP@ 100cc610     hwbp_hook.obj
 0003:000776a8       ??_C@_1HE@OHJAOLFN@?$AA?$FL?$AAW?$AAH?$AA?$FN?$AA?5?$AA?$FL?$AA?$CF?$AAS?$AA?$FN?$AA?3?$AA?5?$AAH?$AAW?$AAB?$AAP@ 100cc6a8     hwbp_hook.obj
 0003:00077720       ??_C@_1GO@CFMNBIJM@?$AA?$FL?$AAW?$AAH?$AA?$FN?$AA?5?$AA?$FL?$AA?$CF?$AAS?$AA?$FN?$AA?3?$AA?5?$AAH?$AAW?$AAB?$AAP@ 100cc720     hwbp_hook.obj
 0003:00077790       ??_C@_1BA@LEPJIIOK@?$AAU?$AAn?$AAk?$AAn?$AAo?$AAw?$AAn@ 100cc790     injection_monitor.obj
 0003:000777a0       ??_C@_19EOHDNDII@?$AAR?$AAe?$AAa?$AAd@ 100cc7a0     injection_monitor.obj
 0003:000777ac       ??_C@_1M@GNJKCMMA@?$AAW?$AAr?$AAi?$AAt?$AAe@ 100cc7ac     injection_monitor.obj
 0003:000777b8       ??_C@_1BA@GMIPEBEM@?$AAE?$AAx?$AAe?$AAc?$AAu?$AAt?$AAe@ 100cc7b8     injection_monitor.obj
 0003:000777c8       ??_C@_0BN@KADMGPJM@InjectionMonitor?3?3VehHandler@ 100cc7c8     injection_monitor.obj
 0003:000777e8       ??_C@_1NC@DEMJNABA@?$AA?$FL?$AAW?$AAH?$AA?$FN?$AA?5?$AA?$FL?$AA?$CF?$AAS?$AA?$FN?$AA?3?$AA?5?$AA?$FL?$AAH?$AAo?$AAo@ 100cc7e8     injection_monitor.obj
 0003:000778bc       ??_C@_0BN@HHCFNBIN@InjectionMonitor?3?3Initialize@ 100cc8bc     injection_monitor.obj
 0003:000778e0       ??_C@_1FI@LFANCLJA@?$AA?$FL?$AAW?$AAH?$AA?$FN?$AA?5?$AA?$FL?$AA?$CF?$AAS?$AA?$FN?$AA?3?$AA?5?$AAI?$AAn?$AAj?$AAe@ 100cc8e0     injection_monitor.obj
 0003:00077938       ??_C@_1GI@CCGJEDEF@?$AA?$FL?$AAW?$AAH?$AA?$FN?$AA?5?$AA?$FL?$AA?$CF?$AAS?$AA?$FN?$AA?3?$AA?5?$AAF?$AAa?$AAi?$AAl@ 100cc938     injection_monitor.obj
 0003:000779a0       ??_C@_0CF@FIJELLOA@InjectionMonitor?3?3RegisterHookR@ 100cc9a0     injection_monitor.obj
 0003:000779c8       ??_C@_1GO@BDODFKBH@?$AA?$FL?$AAW?$AAH?$AA?$FN?$AA?5?$AA?$FL?$AA?$CF?$AAS?$AA?$FN?$AA?3?$AA?5?$AAF?$AAa?$AAi?$AAl@ 100cc9c8     injection_monitor.obj
 0003:00077a38       ??_C@_1IA@LHCECGLG@?$AA?$FL?$AAW?$AAH?$AA?$FN?$AA?5?$AA?$FL?$AA?$CF?$AAS?$AA?$FN?$AA?3?$AA?5?$AAR?$AAe?$AAg?$AAi@ 100cca38     injection_monitor.obj
 0003:00077ab8       ??_C@_0BL@GOIGLPKN@unordered_map?1set?5too?5long@ 100ccab8     injection_monitor.obj
 0003:00077ad4       ??_C@_0BK@OGNNAFAB@invalid?5hash?5bucket?5count@ 100ccad4     injection_monitor.obj
 0003:00077af0       ??_C@_1CC@EPFAMDMB@?$AAL?$AAo?$AAg?$AAg?$AAi?$AAn?$AAg?$AAV?$AAe?$AAr?$AAb?$AAo?$AAs?$AAi?$AAt@ 100ccaf0     logger.obj
 0003:00077b14       ??_C@_0P@NHEEEMO@FlsAlloc?5error@ 100ccb14     logger.obj
 0003:00077b28       ??_7?$_Func_impl_no_alloc@U?$default_delete@V?$optional@W4Verbosity@LoggerBase@@@std@@@std@@XPAV?$optional@W4Verbosity@LoggerBase@@@2@@std@@6B@ 100ccb28     logger.obj
 0003:00077b44       ??_7?$_Func_impl_no_alloc@V<lambda_5_>@?0???0?$ThreadLocal@V?$optional@W4Verbosity@LoggerBase@@@std@@@@QAE@XZ@PAV?$optional@W4Verbosity@LoggerBase@@@std@@$$V@std@@6B@ 100ccb44     logger.obj
 0003:00077b60       ??_C@_0EC@FPACEJAO@?$GAanonymous?9namespace?8?3?3ModDebug@ 100ccb60     mod.obj
 0003:00077ba4       ??_C@_1DI@FDIPNKDM@?$AA?$FL?$AAW?$AAH?$AA?$FN?$AA?5?$AA?$FL?$AA?$CF?$AAS?$AA?$FN?$AA?3?$AA?5?$AA?$DO?$AA?$DO?$AA?$DO?$AA?5@ 100ccba4     mod.obj
 0003:00077be0       ??_C@_0ED@IFAJIPBG@?$GAanonymous?9namespace?8?3?3ModDebug@ 100ccbe0     mod.obj
 0003:00077c24       ??_C@_1DG@KEGIJEBK@?$AA?$FL?$AAW?$AAH?$AA?$FN?$AA?5?$AA?$FL?$AA?$CF?$AAS?$AA?$FN?$AA?3?$AA?5?$AA?$DM?$AA?$DM?$AA?$DM?$AA?5@ 100ccc24     mod.obj
 0003:00077c5c       ??_C@_0DE@JHEIDOCF@?$GAanonymous?9namespace?8?3?3CrossMod@ 100ccc5c     mod.obj
 0003:00077c90       ??_C@_1BO@CJDPGKLP@?$AA?$FL?$AAW?$AAH?$AA?$FN?$AA?5?$AA?$FL?$AA?$CF?$AAS?$AA?$FN?$AA?3?$AA?5?$AA?$CF?$AAS?$AA?6@ 100ccc90     mod.obj
 0003:00077cb0       ??_C@_07BDAEDMJC@mod?4cpp@ 100cccb0     mod.obj
 0003:00077cb8       ??_C@_13ENNFDPBH@?$AA_@    100cccb8     mod.obj
 0003:00077cbc       ??_C@_17NIABIIAO@?$AAx?$AA8?$AA6@ 100cccbc     mod.obj
 0003:00077cc4       ??_C@_1BA@LIACFDLB@?$AAV?$AAe?$AAr?$AAs?$AAi?$AAo?$AAn@ 100cccc4     mod.obj
 0003:00077cd4       ??_C@_13IMODFHAA@?$AA?9@   100cccd4     mod.obj
 0003:00077cd8       ??_C@_1CI@HEMOPGAP@?$AAs?$AAt?$AAa?$AAr?$AAt?$AA?9?$AAm?$AAe?$AAn?$AAu?$AA?9?$AAa?$AAl?$AAl?$AA?9@ 100cccd8     mod.obj
 0003:00077d00       ??_C@_17BODHOPJC@?$AA1?$AA?4?$AA0@ 100ccd00     mod.obj
 0003:00077d08       ??_C@_1M@KKMONIGH@?$AA1?$AA?4?$AA0?$AA?4?$AA1@ 100ccd08     mod.obj
 0003:00077d14       ??_C@_1CK@DFOIIMGI@?$AAt?$AAa?$AAs?$AAk?$AAb?$AAa?$AAr?$AA?9?$AAb?$AAu?$AAt?$AAt?$AAo?$AAn?$AA?9@ 100ccd14     mod.obj
 0003:00077d40       ??_C@_1DI@CHBMBGCK@?$AAt?$AAa?$AAs?$AAk?$AAb?$AAa?$AAr?$AA?9?$AAc?$AAl?$AAo?$AAc?$AAk?$AA?9?$AAc@ 100ccd40     mod.obj
 0003:00077d78       ??_C@_1M@LIHLHHIJ@?$AA1?$AA?4?$AA0?$AA?4?$AA2@ 100ccd78     mod.obj
 0003:00077d84       ??_C@_1M@MHBAOM@?$AA1?$AA?4?$AA0?$AA?4?$AA3@ 100ccd84     mod.obj
 0003:00077d90       ??_C@_1M@JNBACIFF@?$AA1?$AA?4?$AA0?$AA?4?$AA4@ 100ccd90     mod.obj
 0003:00077d9c       ??_C@_1M@CFKMEPDA@?$AA1?$AA?4?$AA0?$AA?4?$AA5@ 100ccd9c     mod.obj
 0003:00077da8       ??_C@_1CC@ILNPLFL@?$AAt?$AAa?$AAs?$AAk?$AAb?$AAa?$AAr?$AA?9?$AAg?$AAr?$AAo?$AAu?$AAp?$AAi?$AAn@ 100ccda8     mod.obj
 0003:00077dcc       ??_C@_1CE@KJIOFEAH@?$AAt?$AAa?$AAs?$AAk?$AAb?$AAa?$AAr?$AA?9?$AAi?$AAc?$AAo?$AAn?$AA?9?$AAs?$AAi@ 100ccdcc     mod.obj
 0003:00077df0       ??_C@_1BO@DGLKOHAB@?$AAt?$AAa?$AAs?$AAk?$AAb?$AAa?$AAr?$AA?9?$AAl?$AAa?$AAb?$AAe?$AAl?$AAs@ 100ccdf0     mod.obj
 0003:00077e10       ??_C@_1DE@HOOMCEJM@?$AAt?$AAa?$AAs?$AAk?$AAb?$AAa?$AAr?$AA?9?$AAt?$AAh?$AAu?$AAm?$AAb?$AAn?$AAa@ 100cce10     mod.obj
 0003:00077e44       ??_C@_1O@BABJODAP@?$AAl?$AAo?$AAc?$AAa?$AAl?$AA?$EA@ 100cce44     mod.obj
 0003:00077e58       ??_C@_1LI@JDHMEBBD@?$AAN?$AAo?$AAt?$AA?5?$AAl?$AAo?$AAa?$AAd?$AAi?$AAn?$AAg?$AA?5?$AAa?$AAn?$AA?5@ 100cce58     mod.obj
 0003:00077f10       ??_C@_1CC@HNIIHEC@?$AAn?$AAo?$AA?9?$AAh?$AAi?$AAd?$AAd?$AAe?$AAn?$AA?9?$AAc?$AAu?$AAr?$AAs?$AAo@ 100ccf10     mod.obj
 0003:00077f34       ??_C@_1M@BCHCLPAC@?$AA1?$AA?4?$AA0?$AA?4?$AA0@ 100ccf34     mod.obj
 0003:00077f40       ??_C@_1CG@PGAALHFD@?$AAn?$AAo?$AA?9?$AAf?$AAo?$AAc?$AAu?$AAs?$AA?9?$AAr?$AAe?$AAc?$AAt?$AAa?$AAn@ 100ccf40     mod.obj
 0003:00077f68       ??_C@_1CO@BDNIBHBE@?$AAd?$AAi?$AAs?$AAa?$AAb?$AAl?$AAe?$AA?9?$AAo?$AAf?$AAf?$AAi?$AAc?$AAe?$AA?9@ 100ccf68     mod.obj
 0003:00077f98       ??_C@_1DI@LPHEGJEM@?$AAd?$AAi?$AAs?$AAa?$AAb?$AAl?$AAe?$AA?9?$AAf?$AAe?$AAe?$AAd?$AAb?$AAa?$AAc@ 100ccf98     mod.obj
 0003:00077fd0       ??_C@_0CD@KJMIAHKI@?$GAanonymous?9namespace?8?3?3IsModBan@ 100ccfd0     mod.obj
 0003:00077ff4       ??_C@_1CC@CPHFBBP@?$AA?$FL?$AAW?$AAH?$AA?$FN?$AA?5?$AA?$FL?$AA?$CF?$AAS?$AA?$FN?$AA?3?$AA?5?$AA?$CF?$AA?4?$AA?$CK?$AAs@ 100ccff4     mod.obj
 0003:00078018       ??_C@_0ED@LGGCMEN@_ZN13WindhawkUtils11HookSymbols@ 100cd018     mod.obj
 0003:00078060       ??_C@_0GA@PAFDPEMN@_ZN13WindhawkUtils11HookSymbols@ 100cd060     mod.obj
 0003:000780c0       ??_C@_0CO@HCCBECN@_Z11HookSymbolsP11HINSTANCE__PK@ 100cd0c0     mod.obj
 0003:000780f0       ??_C@_0DH@ONMANADG@_Z15CmwfHookSymbolsP11HINSTANCE@ 100cd0f0     mod.obj
 0003:00078128       ??_C@_0EJ@NHFPGBDN@_ZN13WindhawkUtils11HookSymbols@ 100cd128     mod.obj
 0003:00078178       ??_C@_0GO@ODGOAMHI@_ZN13WindhawkUtils11HookSymbols@ 100cd178     mod.obj
 0003:000781e8       ??_C@_1O@MMEACLKK@?$AAe?$AAr?$AAr?$AAo?$AAr?$AA?3@ 100cd1e8     mod.obj
 0003:000781f8       ??_C@_0DM@KGAJFPID@?$GAanonymous?9namespace?8?3?3HookSymb@ 100cd1f8     mod.obj
 0003:00078238       ??_C@_1EE@CDDPBOPM@?$AA?$FL?$AAW?$AAH?$AA?$FN?$AA?5?$AA?$FL?$AA?$CF?$AAS?$AA?$FN?$AA?3?$AA?5?$AAT?$AAo?$AA?5?$AAb@ 100cd238     mod.obj
 0003:0007827c       ??_C@_1DG@PBDCMBIN@?$AA?$FL?$AAW?$AAH?$AA?$FN?$AA?5?$AA?$FL?$AA?$CF?$AAS?$AA?$FN?$AA?3?$AA?5?$AAF?$AAo?$AAu?$AAn@ 100cd27c     mod.obj
 0003:000782b4       ??_C@_1BI@LNPACGDA@?$AAS?$AAy?$AAm?$AAb?$AAo?$AAl?$AAC?$AAa?$AAc?$AAh?$AAe@ 100cd2b4     mod.obj
 0003:000782d0       ??_C@_0ED@JPAPPDDC@?$GAanonymous?9namespace?8?3?3HookSymb@ 100cd2d0     mod.obj
 0003:00078318       ??_C@_1FE@OIFFLCLG@?$AA?$FL?$AAW?$AAH?$AA?$FN?$AA?5?$AA?$FL?$AA?$CF?$AAS?$AA?$FN?$AA?3?$AA?5?$AAU?$AAs?$AAi?$AAn@ 100cd318     mod.obj
 0003:0007836c       ??_C@_0DO@OFPCGNB@?$GAanonymous?9namespace?8?3?3HookSymb@ 100cd36c     mod.obj
 0003:000783b0       ??_C@_0FC@INJFNLAD@?$GAanonymous?9namespace?8?3?3HookSymb@ 100cd3b0     mod.obj
 0003:00078404       ??_C@_0DN@BOILKIBG@?$GAanonymous?9namespace?8?3?3HookSymb@ 100cd404     mod.obj
 0003:00078444       ??_C@_1DG@GBDPDCMC@?$AA?$FL?$AAW?$AAH?$AA?$FN?$AA?5?$AA?$FL?$AA?$CF?$AAS?$AA?$FN?$AA?3?$AA?5?$AAA?$AAp?$AAp?$AAl@ 100cd444     mod.obj
 0003:00078480       ??_C@_0EN@OHEGFJDB@?$GAanonymous?9namespace?8?3?3HookSymb@ 100cd480     mod.obj
 0003:000784d0       ??_C@_1CO@OICDLOII@?$AA?$FL?$AAW?$AAH?$AA?$FN?$AA?5?$AA?$FL?$AA?$CF?$AAS?$AA?$FN?$AA?3?$AA?5?$AAM?$AAo?$AAd?$AAu@ 100cd4d0     mod.obj
 0003:00078500       ??_C@_1CK@DDGMBLMJ@?$AA?$FL?$AAW?$AAH?$AA?$FN?$AA?5?$AA?$FL?$AA?$CF?$AAS?$AA?$FN?$AA?3?$AA?5?$AAP?$AAa?$AAt?$AAh@ 100cd500     mod.obj
 0003:0007852c       ??_C@_1DA@PBKOJHBP@?$AA?$FL?$AAW?$AAH?$AA?$FN?$AA?5?$AA?$FL?$AA?$CF?$AAS?$AA?$FN?$AA?3?$AA?5?$AAV?$AAe?$AAr?$AAs@ 100cd52c     mod.obj
 0003:00078560       ??_C@_1FO@HKOEALMA@?$AA?$CF?$AA0?$AA8?$AAX?$AA?$CF?$AA0?$AA4?$AAX?$AA?$CF?$AA0?$AA4?$AAX?$AA?$CF?$AA0?$AA2@ 100cd560     mod.obj
 0003:000785c0       ??_C@_19GIMPANPF@?$AAp?$AAd?$AAb?$AA_@ 100cd5c0     mod.obj
 0003:000785cc       ??_C@_1BC@MMJCMAGC@?$AA_?$AAh?$AAy?$AAb?$AAr?$AAi?$AAd?$AA?9@ 100cd5cc     mod.obj
 0003:000785e0       ??_C@_17PNNKDABL@?$AAp?$AAe?$AA_@ 100cd5e0     mod.obj
 0003:000785e8       ??_C@_1BA@PDEIENOI@?$AA_?$AAh?$AAy?$AAb?$AAr?$AAi?$AAd@ 100cd5e8     mod.obj
 0003:000785f8       ??_C@_1M@BNADFHPB@?$AA?$CF?$AAs?$AAe?$AAp?$AA?$CF@ 100cd5f8     mod.obj
 0003:00078604       ??_C@_1BK@MIHJMJHO@?$AAC?$AAu?$AAr?$AAr?$AAe?$AAn?$AAt?$AAB?$AAu?$AAi?$AAl?$AAd@ 100cd604     mod.obj
 0003:00078620       ??_C@_1FK@EDIIEKBJ@?$AAS?$AAO?$AAF?$AAT?$AAW?$AAA?$AAR?$AAE?$AA?2?$AAM?$AAi?$AAc?$AAr?$AAo?$AAs@ 100cd620     mod.obj
 0003:0007867c       ??_C@_17KEIPLBHK@?$AAU?$AAB?$AAR@ 100cd67c     mod.obj
 0003:00078684       ??_C@_15CMBHNMLL@?$AA?5?$AA?$CI@ 100cd684     mod.obj
 0003:0007868c       ??_C@_0BF@HJJKEGON@LoadedMod?3?3LoadedMod@ 100cd68c     mod.obj
 0003:000786a4       ??_C@_1CO@PNCBJCLP@?$AA?$FL?$AAW?$AAH?$AA?$FN?$AA?5?$AA?$FL?$AA?$CF?$AAS?$AA?$FN?$AA?3?$AA?5?$AAW?$AAi?$AAn?$AAd@ 100cd6a4     mod.obj
 0003:000786d8       ??_C@_1EA@IEKDOPHN@?$AA?$FL?$AAW?$AAH?$AA?$FN?$AA?5?$AA?$FL?$AA?$CF?$AAS?$AA?$FN?$AA?3?$AA?5?$AAW?$AAi?$AAn?$AAd@ 100cd6d8     mod.obj
 0003:00078718       ??_C@_1CO@PJDFLNNJ@?$AA?$FL?$AAW?$AAH?$AA?$FN?$AA?5?$AA?$FL?$AA?$CF?$AAS?$AA?$FN?$AA?3?$AA?5?$AAM?$AAo?$AAd?$AA?5@ 100cd718     mod.obj
 0003:00078748       ??_C@_1DI@BJDNEACD@?$AA?$FL?$AAW?$AAH?$AA?$FN?$AA?5?$AA?$FL?$AA?$CF?$AAS?$AA?$FN?$AA?3?$AA?5?$AAM?$AAo?$AAd?$AA?5@ 100cd748     mod.obj
 0003:00078780       ??_C@_1EC@PILLHDBJ@?$AA?$FL?$AAW?$AAH?$AA?$FN?$AA?5?$AA?$FL?$AA?$CF?$AAS?$AA?$FN?$AA?3?$AA?5?$AAM?$AAo?$AAd?$AA?5@ 100cd780     mod.obj
 0003:000787c4       ??_C@_0BB@PGDKCKED@InternalWhModPtr@ 100cd7c4     mod.obj
 0003:000787d8       ??_C@_1FO@DEEKIPCP@?$AA?$FL?$AAW?$AAH?$AA?$FN?$AA?5?$AA?$FL?$AA?$CF?$AAS?$AA?$FN?$AA?3?$AA?5?$AAM?$AAo?$AAd?$AA?5@ 100cd7d8     mod.obj
 0003:00078838       ??_C@_1CO@HELKALHB@?$AA?$FL?$AAW?$AAH?$AA?$FN?$AA?5?$AA?$FL?$AA?$CF?$AAS?$AA?$FN?$AA?3?$AA?5?$AAM?$AAo?$AAd?$AA?5@ 100cd838     mod.obj
 0003:00078868       ??_C@_0BG@CMIJCIOI@LoadedMod?3?3?$HOLoadedMod@ 100cd868     mod.obj
 0003:00078880       ??_C@_1GM@HPLKCHML@?$AA?$FL?$AAW?$AAH?$AA?$FN?$AA?5?$AA?$FL?$AA?$CF?$AAS?$AA?$FN?$AA?3?$AA?5?$AAM?$AAo?$AAd?$AA?5@ 100cd880     mod.obj
 0003:000788ec       ??_C@_0BG@MHKBODPL@LoadedMod?3?3Initialize@ 100cd8ec     mod.obj
 0003:00078904       ??_C@_0BE@LNLBJNNO@Already?5initialized@ 100cd904     mod.obj
 0003:00078918       ??_C@_1CA@CPAJBOA@?$AAI?$AAn?$AAi?$AAt?$AAi?$AAa?$AAl?$AAi?$AAz?$AAi?$AAn?$AAg?$AA?4?$AA?4?$AA?4@ 100cd918     mod.obj
 0003:00078938       ??_C@_1BO@JEAOPBAI@?$AAS?$AAa?$AAn?$AAd?$AAb?$AAo?$AAx?$AAC?$AAp?$AAu?$AAR?$AAa?$AAt?$AAe@ 100cd938     mod.obj
 0003:00078958       ??_C@_1CA@NFCDAAOK@?$AAS?$AAa?$AAn?$AAd?$AAb?$AAo?$AAx?$AAM?$AAe?$AAm?$AAo?$AAr?$AAy?$AAM?$AAB@ 100cd958     mod.obj
 0003:00078978       ??_C@_1CE@IDPEHBOJ@?$AAS?$AAa?$AAn?$AAd?$AAb?$AAo?$AAx?$AAM?$AAa?$AAx?$AAH?$AAa?$AAn?$AAd?$AAl@ 100cd978     mod.obj
 0003:000789a0       ??_C@_1GC@HJHDKLAI@?$AA?$FL?$AAW?$AAH?$AA?$FN?$AA?5?$AA?$FL?$AA?$CF?$AAS?$AA?$FN?$AA?3?$AA?5?$AAA?$AAp?$AAp?$AAl@ 100cd9a0     mod.obj
 0003:00078a04       ??_C@_1BO@GHDAOEKG@?$AAU?$AAs?$AAe?$AAH?$AAw?$AAb?$AAp?$AAH?$AAo?$AAo?$AAk?$AAi?$AAn?$AAg@ 100cda04     mod.obj
 0003:00078a28       ??_C@_1HO@CEIAHDEC@?$AA?$FL?$AAW?$AAH?$AA?$FN?$AA?5?$AA?$FL?$AA?$CF?$AAS?$AA?$FN?$AA?3?$AA?5?$AAS?$AAt?$AAe?$AAa@ 100cda28     mod.obj
 0003:00078aa8       ??_C@_0BA@FMCDNJEK@_Z10Wh_ModInitv@ 100cdaa8     mod.obj
 0003:00078ab8       ??_C@_0BF@GJKBPIFI@LoadedMod?3?3AfterInit@ 100cdab8     mod.obj
 0003:00078ad0       ??_C@_0BF@FDMDBIDB@_Z15Wh_ModAfterInitv@ 100cdad0     mod.obj
 0003:00078ae8       ??_C@_0BI@GCJDPNAA@LoadedMod?3?3BeforeUninit@ 100cdae8     mod.obj
 0003:00078b00       ??_C@_1CE@MNKCPMGJ@?$AAU?$AAn?$AAi?$AAn?$AAi?$AAt?$AAi?$AAa?$AAl?$AAi?$AAz?$AAi?$AAn?$AAg?$AA?4@ 100cdb00     mod.obj
 0003:00078b24       ??_C@_0BI@DEIHADGH@_Z18Wh_ModBeforeUninitv@ 100cdb24     mod.obj
 0003:00078b40       ??_C@_1HI@OFLKGCLH@?$AA?$FL?$AAW?$AAH?$AA?$FN?$AA?5?$AA?$FL?$AA?$CF?$AAS?$AA?$FN?$AA?3?$AA?5?$AAM?$AAo?$AAd?$AA?5@ 100cdb40     mod.obj
 0003:00078bb8       ??_C@_0BI@LONAHPGO@LoadedMod?3?3Uninitialize@ 100cdbb8     mod.obj
 0003:00078bd0       ??_C@_0BC@HOLMNCDP@_Z12Wh_ModUninitv@ 100cdbd0     mod.obj
 0003:00078be4       ??_C@_0BL@BPHCAEHG@LoadedMod?3?3SettingsChanged@ 100cdbe4     mod.obj
 0003:00078c00       ??_C@_0BM@CNHELBPE@_Z21Wh_ModSettingsChangedPi@ 100cdc00     mod.obj
 0003:00078c1c       ??_C@_0BL@IBOOCDCH@_Z21Wh_ModSettingsChangedv@ 100cdc1c     mod.obj
 0003:00078c38       ??_C@_1BM@ODEOFMJK@?$AA?$FL?$AAW?$AAH?$AA?$FN?$AA?5?$AA?$FL?$AA?$CF?$AAs?$AA?$FN?$AA?5?$AA?$CF?$AAs?$AA?6@ 100cdc38     mod.obj
 0003:00078c54       ??_C@_0BH@DGPKBCFL@LoadedMod?3?3GetIntValue@ 100cdc54     mod.obj
 0003:00078c6c       ??_C@_1DE@KAJMLPEL@?$AA?$FL?$AAW?$AAH?$AA?$FN?$AA?5?$AA?$FL?$AA?$CF?$AAS?$AA?$FN?$AA?3?$AA?5?$AAv?$AAa?$AAl?$AAu@ 100cdc6c     mod.obj
 0003:00078ca0       ??_C@_1BK@KFPDIKCN@?$AAL?$AAo?$AAc?$AAa?$AAl?$AAS?$AAt?$AAo?$AAr?$AAa?$AAg?$AAe@ 100cdca0     mod.obj
 0003:00078cbc       ??_C@_1CM@DDPBFKK@?$AA?$FL?$AAW?$AAH?$AA?$FN?$AA?5?$AA?$FL?$AA?$CF?$AAS?$AA?$FN?$AA?3?$AA?5?$AAv?$AAa?$AAl?$AAu@ 100cdcbc     mod.obj
 0003:00078ce8       ??_C@_0BH@DJOEMENI@LoadedMod?3?3SetIntValue@ 100cdce8     mod.obj
 0003:00078d00       ??_C@_0BK@IHEKKGMM@LoadedMod?3?3GetStringValue@ 100cdd00     mod.obj
 0003:00078d1c       ??_C@_1CM@BNOMCHIJ@?$AA?$FL?$AAW?$AAH?$AA?$FN?$AA?5?$AA?$FL?$AA?$CF?$AAS?$AA?$FN?$AA?3?$AA?5?$AAv?$AAa?$AAl?$AAu@ 100cdd1c     mod.obj
 0003:00078d48       ??_C@_1FK@BFCHAKEN@?$AA?$FL?$AAW?$AAH?$AA?$FN?$AA?5?$AA?$FL?$AA?$CF?$AAS?$AA?$FN?$AA?3?$AA?5?$AAB?$AAu?$AAf?$AAf@ 100cdd48     mod.obj
 0003:00078da4       ??_C@_0BK@EJFEFMOA@LoadedMod?3?3SetStringValue@ 100cdda4     mod.obj
 0003:00078dc0       ??_C@_0BK@OPCKIOBK@LoadedMod?3?3GetBinaryValue@ 100cddc0     mod.obj
 0003:00078ddc       ??_C@_0BK@CBDEHEDG@LoadedMod?3?3SetBinaryValue@ 100cdddc     mod.obj
 0003:00078df8       ??_C@_0BH@DNAKMKJJ@LoadedMod?3?3DeleteValue@ 100cddf8     mod.obj
 0003:00078e10       ??_C@_0BN@JEDCEFN@LoadedMod?3?3GetModStoragePath@ 100cde10     mod.obj
 0003:00078e30       ??_C@_0BJ@OGJPOEOO@LoadedMod?3?3GetIntSetting@ 100cde30     mod.obj
 0003:00078e50       ??_C@_1EG@ODGHADEM@?$AA?$FL?$AAW?$AAH?$AA?$FN?$AA?5?$AA?$FL?$AA?$CF?$AAS?$AA?$FN?$AA?3?$AA?5?$AAv?$AAa?$AAl?$AAu@ 100cde50     mod.obj
 0003:00078e98       ??_C@_0BM@BEJDDOBG@LoadedMod?3?3GetStringSetting@ 100cde98     mod.obj
 0003:00078eb4       ??_C@_0BN@PLLHCENB@LoadedMod?3?3FreeStringSetting@ 100cdeb4     mod.obj
 0003:00078ed4       ??_C@_0BL@EBLCKIEL@LoadedMod?3?3SetFunctionHook@ 100cded4     mod.obj
 0003:00078ef0       ??_C@_1CO@GGIGDGAD@?$AA?$FL?$AAW?$AAH?$AA?$FN?$AA?5?$AA?$FL?$AA?$CF?$AAS?$AA?$FN?$AA?3?$AA?5?$AAT?$AAa?$AAr?$AAg@ 100cdef0     mod.obj
 0003:00078f20       ??_C@_1CK@BBFFDGIB@?$AA?$FL?$AAW?$AAH?$AA?$FN?$AA?5?$AA?$FL?$AA?$CF?$AAS?$AA?$FN?$AA?3?$AA?5?$AAH?$AAo?$AAo?$AAk@ 100cdf20     mod.obj
 0003:00078f50       ??_C@_1GK@EPJNNMD@?$AA?$FL?$AAW?$AAH?$AA?$FN?$AA?5?$AA?$FL?$AA?$CF?$AAS?$AA?$FN?$AA?3?$AA?5?$AAU?$AAn?$AAi?$AAn@ 100cdf50     mod.obj
 0003:00078fc0       ??_C@_1GM@MJJBGIAP@?$AA?$FL?$AAW?$AAH?$AA?$FN?$AA?5?$AA?$FL?$AA?$CF?$AAS?$AA?$FN?$AA?3?$AA?5?$AAM?$AAo?$AAd?$AA?5@ 100cdfc0     mod.obj
 0003:00079030       ??_C@_1HG@ELEENOBK@?$AA?$FL?$AAW?$AAH?$AA?$FN?$AA?5?$AA?$FL?$AA?$CF?$AAS?$AA?$FN?$AA?3?$AA?5?$AAM?$AAo?$AAd?$AA?5@ 100ce030     mod.obj
 0003:000790a8       ??_C@_0BO@OLEBILBI@LoadedMod?3?3RemoveFunctionHook@ 100ce0a8     mod.obj
 0003:000790c8       ??_C@_1HC@GOILHHHO@?$AA?$FL?$AAW?$AAH?$AA?$FN?$AA?5?$AA?$FL?$AA?$CF?$AAS?$AA?$FN?$AA?3?$AA?5?$AAN?$AAo?$AAt?$AA?5@ 100ce0c8     mod.obj
 0003:00079140       ??_C@_1HA@EHEEBLEE@?$AA?$FL?$AAW?$AAH?$AA?$FN?$AA?5?$AA?$FL?$AA?$CF?$AAS?$AA?$FN?$AA?3?$AA?5?$AAU?$AAn?$AAi?$AAn@ 100ce140     mod.obj
 0003:000791b0       ??_C@_0BP@PMNEJKOM@LoadedMod?3?3ApplyHookOperations@ 100ce1b0     mod.obj
 0003:000791d0       ??_C@_1HA@LMJOGLNI@?$AA?$FL?$AAW?$AAH?$AA?$FN?$AA?5?$AA?$FL?$AA?$CF?$AAS?$AA?$FN?$AA?3?$AA?5?$AAN?$AAo?$AAt?$AA?5@ 100ce1d0     mod.obj
 0003:00079240       ??_C@_1GO@HFPDFHAH@?$AA?$FL?$AAW?$AAH?$AA?$FN?$AA?5?$AA?$FL?$AA?$CF?$AAS?$AA?$FN?$AA?3?$AA?5?$AAU?$AAn?$AAi?$AAn@ 100ce240     mod.obj
 0003:000792b0       ??_C@_1GO@BDLAGCMH@?$AA?$FL?$AAW?$AAH?$AA?$FN?$AA?5?$AA?$FL?$AA?$CF?$AAS?$AA?$FN?$AA?3?$AA?5?$AAM?$AAo?$AAd?$AA?5@ 100ce2b0     mod.obj
 0003:00079320       ??_C@_1HO@BAPLEFJC@?$AA?$FL?$AAW?$AAH?$AA?$FN?$AA?5?$AA?$FL?$AA?$CF?$AAS?$AA?$FN?$AA?3?$AA?5?$AAM?$AAo?$AAd?$AA?5@ 100ce320     mod.obj
 0003:000793a0       ??_C@_0DF@EPGGDAMI@LoadedMod?3?3FindFirstSymbol4?3?3?$DMl@ 100ce3a0     mod.obj
 0003:000793d8       ??_C@_13DIBMAFH@?$AA?$CJ@  100ce3d8     mod.obj
 0003:000793dc       ??_C@_17EJGBMOED@?$AA?$CF?$AA?5?$AA?$CI@ 100ce3dc     mod.obj
 0003:000793e4       ??_C@_1CI@OFMIJKMG@?$AAL?$AAo?$AAa?$AAd?$AAi?$AAn?$AAg?$AA?5?$AAs?$AAy?$AAm?$AAb?$AAo?$AAl?$AAs@ 100ce3e4     mod.obj
 0003:0007940c       ??_C@_0DF@OBAOKBFJ@LoadedMod?3?3FindFirstSymbol4?3?3?$DMl@ 100ce40c     mod.obj
 0003:00079444       ??_C@_0BM@NFHKEOKL@LoadedMod?3?3FindFirstSymbol4@ 100ce444     mod.obj
 0003:00079460       ??_C@_1HA@EGPBMHME@?$AA?$FL?$AAW?$AAH?$AA?$FN?$AA?5?$AA?$FL?$AA?$CF?$AAS?$AA?$FN?$AA?3?$AA?5?$AAU?$AAn?$AAs?$AAu@ 100ce460     mod.obj
 0003:000794d0       ??_C@_1BA@FCPOJOJP@?$AA?5?$AA?$CI?$AAm?$AAa?$AAi?$AAn?$AA?$CJ@ 100ce4d0     mod.obj
 0003:000794e0       ??_C@_1DC@DFAILPBE@?$AA?$FL?$AAW?$AAH?$AA?$FN?$AA?5?$AA?$FL?$AA?$CF?$AAS?$AA?$FN?$AA?3?$AA?5?$AAM?$AAo?$AAd?$AAu@ 100ce4e0     mod.obj
 0003:00079514       ??_C@_1CK@OIPMGIIL@?$AAL?$AAo?$AAa?$AAd?$AAi?$AAn?$AAg?$AA?5?$AAs?$AAy?$AAm?$AAb?$AAo?$AAl?$AAs@ 100ce514     mod.obj
 0003:00079540       ??_C@_1IG@DFFPGOCH@?$AAS?$AAy?$AAm?$AAb?$AAo?$AAl?$AAL?$AAo?$AAa?$AAd?$AAL?$AAo?$AAc?$AAk?$AAM@ 100ce540     mod.obj
 0003:000795c8       ??_C@_1GC@MNBNLAFF@?$AA?$FL?$AAW?$AAH?$AA?$FN?$AA?5?$AA?$FL?$AA?$CF?$AAS?$AA?$FN?$AA?3?$AA?5?$AAF?$AAa?$AAi?$AAl@ 100ce5c8     mod.obj
 0003:0007962c       ??_C@_1DC@HGAHMPAE@?$AAW?$AAa?$AAi?$AAt?$AAi?$AAn?$AAg?$AA?5?$AAf?$AAo?$AAr?$AA?5?$AAs?$AAy?$AAm@ 100ce62c     mod.obj
 0003:00079660       ??_C@_1EI@JOHCLEEI@?$AA?$FL?$AAW?$AAH?$AA?$FN?$AA?5?$AA?$FL?$AA?$CF?$AAS?$AA?$FN?$AA?3?$AA?5?$AAA?$AAb?$AAo?$AAr@ 100ce660     mod.obj
 0003:000796a8       ??_C@_1DK@LAMLAHAF@?$AA?$FL?$AAW?$AAH?$AA?$FN?$AA?5?$AA?$FL?$AA?$CF?$AAS?$AA?$FN?$AA?3?$AA?5?$AAN?$AAo?$AA?5?$AAs@ 100ce6a8     mod.obj
 0003:000796e4       ??_C@_0BL@LAAOFLCI@LoadedMod?3?3FindCloseSymbol@ 100ce6e4     mod.obj
 0003:00079700       ??_C@_0BH@JOFACNIA@LoadedMod?3?3HookSymbols@ 100ce700     mod.obj
 0003:00079718       ??_C@_1EE@EKKKCGJK@?$AA?$FL?$AAW?$AAH?$AA?$FN?$AA?5?$AA?$FL?$AA?$CF?$AAS?$AA?$FN?$AA?3?$AA?5?$AAM?$AAo?$AAd?$AAu@ 100ce718     mod.obj
 0003:00079760       ??_C@_1EA@EKIMPHEI@?$AA?$FL?$AAW?$AAH?$AA?$FN?$AA?5?$AA?$FL?$AA?$CF?$AAS?$AA?$FN?$AA?3?$AA?5?$AAs?$AAy?$AAm?$AAb@ 100ce760     mod.obj
 0003:000797a0       ??_C@_1FG@NJHFBGNJ@?$AAh?$AAo?$AAo?$AAk?$AA_?$AAs?$AAy?$AAm?$AAb?$AAo?$AAl?$AAs?$AA_?$AAn?$AAo@ 100ce7a0     mod.obj
 0003:000797f8       ??_C@_1IC@DPBJHHHN@?$AA?$FL?$AAW?$AAH?$AA?$FN?$AA?5?$AA?$FL?$AA?$CF?$AAS?$AA?$FN?$AA?3?$AA?5?$AAH?$AAy?$AAb?$AAr@ 100ce7f8     mod.obj
 0003:00079880       ??_C@_1GM@PDIPDHFL@?$AA?$FL?$AAW?$AAH?$AA?$FN?$AA?5?$AA?$FL?$AA?$CF?$AAS?$AA?$FN?$AA?3?$AA?5?$AAR?$AAe?$AAt?$AAu@ 100ce880     mod.obj
 0003:000798f0       ??_C@_1HE@PGLPPEGF@?$AA?$FL?$AAW?$AAH?$AA?$FN?$AA?5?$AA?$FL?$AA?$CF?$AAS?$AA?$FN?$AA?3?$AA?5?$AAC?$AAo?$AAu?$AAl@ 100ce8f0     mod.obj
 0003:00079964       ??_C@_1DG@EJDEIBJ@?$AAS?$AAy?$AAm?$AAb?$AAo?$AAl?$AAG?$AAe?$AAt?$AAO?$AAn?$AAl?$AAi?$AAn?$AAe@ 100ce964     mod.obj
 0003:000799a0       ??_C@_1GE@JDIKCGBP@?$AA?$FL?$AAW?$AAH?$AA?$FN?$AA?5?$AA?$FL?$AA?$CF?$AAS?$AA?$FN?$AA?3?$AA?5?$AAC?$AAo?$AAu?$AAl@ 100ce9a0     mod.obj
 0003:00079a08       ??_C@_1GC@NKBAKPHB@?$AA?$FL?$AAW?$AAH?$AA?$FN?$AA?5?$AA?$FL?$AA?$CF?$AAS?$AA?$FN?$AA?3?$AA?5?$AAU?$AAs?$AAi?$AAn@ 100cea08     mod.obj
 0003:00079a70       ??_C@_1HG@HGGPBPNN@?$AA?$FL?$AAW?$AAH?$AA?$FN?$AA?5?$AA?$FL?$AA?$CF?$AAS?$AA?$FN?$AA?3?$AA?5?$AAC?$AAo?$AAu?$AAl@ 100cea70     mod.obj
 0003:00079ae8       ??_C@_0BC@CMOFIDGI@LoadedMod?3?3Disasm@ 100ceae8     mod.obj
 0003:00079b00       ??_C@_1HI@HOONAALF@?$AA?$FL?$AAW?$AAH?$AA?$FN?$AA?5?$AA?$FL?$AA?$CF?$AAS?$AA?$FN?$AA?3?$AA?5?$AAM?$AAo?$AAd?$AA?5@ 100ceb00     mod.obj
 0003:00079b78       ??_C@_1BI@DHLGAPDE@?$AAw?$AAi?$AAn?$AAh?$AAt?$AAt?$AAp?$AA?4?$AAd?$AAl?$AAl@ 100ceb78     mod.obj
 0003:00079b90       ??_C@_0DN@IFBDILGM@LoadedMod?3?3GetUrlContent?3?3WinHt@ 100ceb90     mod.obj
 0003:00079bd0       ??_C@_1EO@HLFHNNLN@?$AA?$FL?$AAW?$AAH?$AA?$FN?$AA?5?$AA?$FL?$AA?$CF?$AAS?$AA?$FN?$AA?3?$AA?5?$AAF?$AAa?$AAi?$AAl@ 100cebd0     mod.obj
 0003:00079c20       ??_C@_0BD@JHEHAPIO@WinHttpCloseHandle@ 100cec20     mod.obj
 0003:00079c34       ??_C@_0M@HCNFPBAH@WinHttpOpen@ 100cec34     mod.obj
 0003:00079c40       ??_C@_0P@FPJFCHEB@WinHttpConnect@ 100cec40     mod.obj
 0003:00079c50       ??_C@_0BE@GNIOOJIH@WinHttpQueryHeaders@ 100cec50     mod.obj
 0003:00079c64       ??_C@_0BH@OJNKOBKL@WinHttpReceiveResponse@ 100cec64     mod.obj
 0003:00079c7c       ??_C@_0BD@OOKJOHJ@WinHttpSendRequest@ 100cec7c     mod.obj
 0003:00079c90       ??_C@_0BD@LFJHCHOE@WinHttpOpenRequest@ 100cec90     mod.obj
 0003:00079ca4       ??_C@_0BK@EMLOBLJE@WinHttpQueryDataAvailable@ 100ceca4     mod.obj
 0003:00079cc0       ??_C@_0BA@FGGCGJIN@WinHttpReadData@ 100cecc0     mod.obj
 0003:00079cd0       ??_C@_0BA@LFJOCOJ@WinHttpCrackUrl@ 100cecd0     mod.obj
 0003:00079ce0       ??_C@_1GI@MKELPLEJ@?$AA?$FL?$AAW?$AAH?$AA?$FN?$AA?5?$AA?$FL?$AA?$CF?$AAS?$AA?$FN?$AA?3?$AA?5?$AAF?$AAa?$AAi?$AAl@ 100cece0     mod.obj
 0003:00079d48       ??_C@_0BJ@DJEGICFP@LoadedMod?3?3GetUrlContent@ 100ced48     mod.obj
 0003:00079d64       ??_C@_1CI@IMNNHBAC@?$AA?$FL?$AAW?$AAH?$AA?$FN?$AA?5?$AA?$FL?$AA?$CF?$AAS?$AA?$FN?$AA?3?$AA?5?$AAU?$AAR?$AAL?$AA?3@ 100ced64     mod.obj
 0003:00079d8c       ??_C@_1O@HBJEMMOJ@?$AA?$CI?$AAn?$AAo?$AAn?$AAe?$AA?$CJ@ 100ced8c     mod.obj
 0003:00079da0       ??_C@_1EC@LFEABJJD@?$AA?$FL?$AAW?$AAH?$AA?$FN?$AA?5?$AA?$FL?$AA?$CF?$AAS?$AA?$FN?$AA?3?$AA?5?$AAT?$AAa?$AAr?$AAg@ 100ceda0     mod.obj
 0003:00079de8       ??_C@_1GA@HBFCEDMK@?$AA?$FL?$AAW?$AAH?$AA?$FN?$AA?5?$AA?$FL?$AA?$CF?$AAS?$AA?$FN?$AA?3?$AA?5?$AAW?$AAi?$AAn?$AAH@ 100cede8     mod.obj
 0003:00079e48       ??_C@_1BO@KCPGGCB@?$AAW?$AAi?$AAn?$AAd?$AAh?$AAa?$AAw?$AAk?$AA?1?$AA1?$AA?4?$AA7?$AA?4?$AA3@ 100cee48     mod.obj
 0003:00079e68       ??_C@_17KCHPOIEI@?$AAG?$AAE?$AAT@ 100cee68     mod.obj
 0003:00079e70       ??_C@_0BK@INNJJGLC@LoadedMod?3?3FreeUrlContent@ 100cee70     mod.obj
 0003:00079e90       ??_C@_1HG@FIBCCOAO@?$AAh?$AAt?$AAt?$AAp?$AAs?$AA?3?$AA?1?$AA?1?$AAr?$AAa?$AAm?$AAe?$AAn?$AAs?$AAo@ 100cee90     mod.obj
 0003:00079f08       ??_C@_0CF@NOBACLNL@LoadedMod?3?3HookSymbolsGetOnline@ 100cef08     mod.obj
 0003:00079f30       ??_C@_1FC@ONGLHBL@?$AA?$FL?$AAW?$AAH?$AA?$FN?$AA?5?$AA?$FL?$AA?$CF?$AAS?$AA?$FN?$AA?3?$AA?5?$AAS?$AAk?$AAi?$AAp@ 100cef30     mod.obj
 0003:00079f84       ??_C@_19GGNHIDOH@?$AA?4?$AAt?$AAx?$AAt@ 100cef84     mod.obj
 0003:00079f90       ??_C@_1GC@IHGDPGB@?$AA?$FL?$AAW?$AAH?$AA?$FN?$AA?5?$AA?$FL?$AA?$CF?$AAS?$AA?$FN?$AA?3?$AA?5?$AAA?$AAb?$AAo?$AAr@ 100cef90     mod.obj
 0003:00079ff8       ??_C@_1GK@KAHDOL@?$AA?$FL?$AAW?$AAH?$AA?$FN?$AA?5?$AA?$FL?$AA?$CF?$AAS?$AA?$FN?$AA?3?$AA?5?$AAG?$AAe?$AAt?$AAt@ 100ceff8     mod.obj
 0003:0007a068       ??_C@_1FA@EDBGIPAE@?$AA?$FL?$AAW?$AAH?$AA?$FN?$AA?5?$AA?$FL?$AA?$CF?$AAS?$AA?$FN?$AA?3?$AA?5?$AAG?$AAe?$AAt?$AAt@ 100cf068     mod.obj
 0003:0007a0b8       ??_C@_1GK@CKIGCCOE@?$AA?$FL?$AAW?$AAH?$AA?$FN?$AA?5?$AA?$FL?$AA?$CF?$AAS?$AA?$FN?$AA?3?$AA?5?$AAC?$AAo?$AAu?$AAl@ 100cf0b8     mod.obj
 0003:0007a128       ??_C@_1EG@MEIACHGE@?$AA?$FL?$AAW?$AAH?$AA?$FN?$AA?5?$AA?$FL?$AA?$CF?$AAS?$AA?$FN?$AA?3?$AA?5?$AAO?$AAn?$AAl?$AAi@ 100cf128     mod.obj
 0003:0007a170       ??_C@_1GG@MENDMHGN@?$AA?$FL?$AAW?$AAH?$AA?$FN?$AA?5?$AA?$FL?$AA?$CF?$AAS?$AA?$FN?$AA?3?$AA?5?$AAO?$AAn?$AAl?$AAi@ 100cf170     mod.obj
 0003:0007a1d8       ??_C@_1BAA@MGMAIJDG@?$AA?$FL?$AAW?$AAH?$AA?$FN?$AA?5?$AA?$FL?$AA?$CF?$AAS?$AA?$FN?$AA?3?$AA?5?$AAI?$AAn?$AA?5?$AAc@ 100cf1d8     mod.obj
 0003:0007a2d8       ??_C@_1BDC@JIFPHACN@?$AA?$FL?$AAW?$AAH?$AA?$FN?$AA?5?$AA?$FL?$AA?$CF?$AAS?$AA?$FN?$AA?3?$AA?5?$AAf?$AAo?$AAr?$AA?5@ 100cf2d8     mod.obj
 0003:0007a40c       ??_C@_1BC@KKLCINDK@?$AAm?$AAo?$AAd?$AA?9?$AAt?$AAa?$AAs?$AAk@ 100cf40c     mod.obj
 0003:0007a420       ??_C@_0BD@OMPOPKOD@LoadedMod?3?3SetTask@ 100cf420     mod.obj
 0003:0007a434       ??_C@_0BM@NKNLDAF@LoadedMod?3?3LogFunctionError@ 100cf434     mod.obj
 0003:0007a450       ??_C@_1DK@HGMKDHMP@?$AA?$FL?$AAW?$AAH?$AA?$FN?$AA?5?$AA?$FL?$AA?$CF?$AAS?$AA?$FN?$AA?3?$AA?5?$AAM?$AAo?$AAd?$AA?5@ 100cf450     mod.obj
 0003:0007a48c       ??_C@_1BG@GCBDAABL@?$AAP?$AAe?$AAn?$AAd?$AAi?$AAn?$AAg?$AA?4?$AA?4?$AA?4@ 100cf48c     mod.obj
 0003:0007a4a4       ??_C@_1O@JJDHCMCP@?$AAL?$AAo?$AAa?$AAd?$AAe?$AAd@ 100cf4a4     mod.obj
 0003:0007a4b4       ??_C@_1BC@ILOENEMO@?$AAU?$AAn?$AAl?$AAo?$AAa?$AAd?$AAe?$AAd@ 100cf4b4     mod.obj
 0003:0007a4c8       ??_C@_0P@JBFCGIKL@Already?5loaded@ 100cf4c8     mod.obj
 0003:0007a4d8       ??_C@_1CA@JJCILGFB@?$AAL?$AAi?$AAb?$AAr?$AAa?$AAr?$AAy?$AAF?$AAi?$AAl?$AAe?$AAN?$AAa?$AAm?$AAe@ 100cf4d8     mod.obj
 0003:0007a4f8       ??_C@_0BO@NJBKHGLO@Missing?5LibraryFileName?5value@ 100cf4f8     mod.obj
 0003:0007a518       ??_C@_1CG@OGMLJLAD@?$AAS?$AAe?$AAt?$AAt?$AAi?$AAn?$AAg?$AAs?$AAC?$AAh?$AAa?$AAn?$AAg?$AAe?$AAT@ 100cf518     mod.obj
 0003:0007a540       ??_C@_1BO@MEGJABNJ@?$AAL?$AAo?$AAg?$AAg?$AAi?$AAn?$AAg?$AAE?$AAn?$AAa?$AAb?$AAl?$AAe?$AAd@ 100cf540     mod.obj
 0003:0007a560       ??_C@_1CI@CHEFKADJ@?$AAD?$AAe?$AAb?$AAu?$AAg?$AAL?$AAo?$AAg?$AAg?$AAi?$AAn?$AAg?$AAE?$AAn?$AAa@ 100cf560     mod.obj
 0003:0007a588       ??_C@_1BG@IPGMPLAM@?$AAL?$AAo?$AAa?$AAd?$AAi?$AAn?$AAg?$AA?4?$AA?4?$AA?4@ 100cf588     mod.obj
 0003:0007a5a0       ??_C@_1BC@FGCJDNHA@?$AAD?$AAi?$AAs?$AAa?$AAb?$AAl?$AAe?$AAd@ 100cf5a0     mod.obj
 0003:0007a5b4       ??_C@_1BK@NGNFGMBN@?$AAA?$AAr?$AAc?$AAh?$AAi?$AAt?$AAe?$AAc?$AAt?$AAu?$AAr?$AAe@ 100cf5b4     mod.obj
 0003:0007a5d0       ??_C@_1EK@BJBDAMDJ@?$AAP?$AAa?$AAt?$AAt?$AAe?$AAr?$AAn?$AAs?$AAM?$AAa?$AAt?$AAc?$AAh?$AAC?$AAr@ 100cf5d0     mod.obj
 0003:0007a61c       ??_C@_1DC@FEPFJCAC@?$AAI?$AAn?$AAc?$AAl?$AAu?$AAd?$AAe?$AAE?$AAx?$AAc?$AAl?$AAu?$AAd?$AAe?$AAC@ 100cf61c     mod.obj
 0003:0007a650       ??_C@_1BM@NHLNIHFB@?$AAI?$AAn?$AAc?$AAl?$AAu?$AAd?$AAe?$AAC?$AAu?$AAs?$AAt?$AAo?$AAm@ 100cf650     mod.obj
 0003:0007a66c       ??_C@_1BM@EJEJBNAE@?$AAE?$AAx?$AAc?$AAl?$AAu?$AAd?$AAe?$AAC?$AAu?$AAs?$AAt?$AAo?$AAm@ 100cf66c     mod.obj
 0003:0007a688       ??_C@_1BG@MDFIMHKE@?$AAm?$AAo?$AAd?$AA?9?$AAs?$AAt?$AAa?$AAt?$AAu?$AAs@ 100cf688     mod.obj
 0003:0007a6a0       ??_C@_0P@MGGFIAAM@Mod?3?3SetStatus@ 100cf6a0     mod.obj
 0003:0007a6b0       ??_C@_0GH@EIEHOGDA@?$GAanonymous?9namespace?8?3?3HookSymb@ 100cf6b0     mod.obj
 0003:0007a718       ??_C@_1GO@FCGHEMKK@?$AA?$FL?$AAW?$AAH?$AA?$FN?$AA?5?$AA?$FL?$AA?$CF?$AAS?$AA?$FN?$AA?3?$AA?5?$AAO?$AAp?$AAt?$AAi@ 100cf718     mod.obj
 0003:0007a788       ??_C@_1CK@HOJMLLMG@?$AA?$FL?$AAW?$AAH?$AA?$FN?$AA?5?$AA?$FL?$AA?$CF?$AAS?$AA?$FN?$AA?3?$AA?5?$AA?5?$AA?5?$AA?5?$AA?5@ 100cf788     mod.obj
 0003:0007a7b4       ??_C@_1BI@LLOKMOP@?$AA?5?$AA?$CI?$AAo?$AAp?$AAt?$AAi?$AAo?$AAn?$AAa?$AAl?$AA?$CJ@ 100cf7b4     mod.obj
 0003:0007a7d0       ??_C@_0GD@JELNLJFL@?$GAanonymous?9namespace?8?3?3HookSymb@ 100cf7d0     mod.obj
 0003:0007a838       ??_C@_1EA@JDBGDJMA@?$AA?$FL?$AAW?$AAH?$AA?$FN?$AA?5?$AA?$FL?$AA?$CF?$AAS?$AA?$FN?$AA?3?$AA?5?$AAU?$AAn?$AAr?$AAe@ 100cf838     mod.obj
 0003:0007a8c0       ??_C@_0BF@NGCCGCKP@SetThreadInformation@ 100cf8c0     mod_sandbox.obj
 0003:0007a8d8       ??_C@_1BE@BIOKAAFN@?$AAA?$AAn?$AAo?$AAn?$AAy?$AAm?$AAo?$AAu?$AAs@ 100cf8d8     mod_sandbox.obj
 0003:0007a8ec       ??_C@_0CJ@HCNMNOEI@ModSandbox?3?3SandboxObject?3?3Sand@ 100cf8ec     mod_sandbox.obj
 0003:0007a918       ??_C@_1FC@PPLCDPIG@?$AA?$FL?$AAW?$AAH?$AA?$FN?$AA?5?$AA?$FL?$AA?$CF?$AAS?$AA?$FN?$AA?3?$AA?5?$AAS?$AAa?$AAn?$AAd@ 100cf918     mod_sandbox.obj
 0003:0007a96c       ??_C@_0CN@IELJBBNA@ModSandbox?3?3SandboxObject?3?3Appl@ 100cf96c     mod_sandbox.obj
 0003:0007a9a0       ??_C@_1HE@MBFDAAFB@?$AA?$FL?$AAW?$AAH?$AA?$FN?$AA?5?$AA?$FL?$AA?$CF?$AAS?$AA?$FN?$AA?3?$AA?5?$AAF?$AAa?$AAi?$AAl@ 100cf9a0     mod_sandbox.obj
 0003:0007aa18       ??_C@_1GK@GLEDKGOK@?$AA?$FL?$AAW?$AAH?$AA?$FN?$AA?5?$AA?$FL?$AA?$CF?$AAS?$AA?$FN?$AA?3?$AA?5?$AAF?$AAa?$AAi?$AAl@ 100cfa18     mod_sandbox.obj
 0003:0007aa84       ??_C@_0CH@BLCNHMHD@A?5mod?5with?5that?5name?5is?5already@ 100cfa84     mods_manager.obj
 0003:0007aaac       ??_C@_0CN@LDELCPOF@ModsManager?3?3?$HLctor?$HN?3?3?$DMlambda_1?$DO@ 100cfaac     mods_manager.obj
 0003:0007aae0       ??_C@_1FK@GPENLBEN@?$AA?$FL?$AAW?$AAH?$AA?$FN?$AA?5?$AA?$FL?$AA?$CF?$AAS?$AA?$FN?$AA?3?$AA?5?$AAM?$AAo?$AAd?$AA?5@ 100cfae0     mods_manager.obj
 0003:0007ab3c       ??_C@_0BJ@KKIIMDJL@ModsManager?3?3ModsManager@ 100cfb3c     mods_manager.obj
 0003:0007ab58       ??_C@_1FA@NEPONGHE@?$AA?$FL?$AAW?$AAH?$AA?$FN?$AA?5?$AA?$FL?$AA?$CF?$AAS?$AA?$FN?$AA?3?$AA?5?$AAM?$AAo?$AAd?$AA?5@ 100cfb58     mods_manager.obj
 0003:0007aba8       ??_C@_0BK@KBIACGJD@ModsManager?3?3?$HOModsManager@ 100cfba8     mods_manager.obj
 0003:0007abc8       ??_C@_1FK@NKLEDPDL@?$AA?$FL?$AAW?$AAH?$AA?$FN?$AA?5?$AA?$FL?$AA?$CF?$AAS?$AA?$FN?$AA?3?$AA?5?$AAM?$AAo?$AAd?$AA?5@ 100cfbc8     mods_manager.obj
 0003:0007ac24       ??_C@_0BH@BPKDDFGO@ModsManager?3?3AfterInit@ 100cfc24     mods_manager.obj
 0003:0007ac40       ??_C@_1FE@JMCNPMHF@?$AA?$FL?$AAW?$AAH?$AA?$FN?$AA?5?$AA?$FL?$AA?$CF?$AAS?$AA?$FN?$AA?3?$AA?5?$AAM?$AAo?$AAd?$AA?5@ 100cfc40     mods_manager.obj
 0003:0007ac94       ??_C@_0BK@NCCPKMHL@ModsManager?3?3BeforeUninit@ 100cfc94     mods_manager.obj
 0003:0007acb0       ??_C@_1FK@PEKBEGOF@?$AA?$FL?$AAW?$AAH?$AA?$FN?$AA?5?$AA?$FL?$AA?$CF?$AAS?$AA?$FN?$AA?3?$AA?5?$AAM?$AAo?$AAd?$AA?5@ 100cfcb0     mods_manager.obj
 0003:0007ad0c       ??_C@_0DM@MJNEBKK@ModsManager?3?3ReloadModsAndSetti@ 100cfd0c     mods_manager.obj
 0003:0007ad48       ??_C@_1FE@DKKIPEHH@?$AA?$FL?$AAW?$AAH?$AA?$FN?$AA?5?$AA?$FL?$AA?$CF?$AAS?$AA?$FN?$AA?3?$AA?5?$AAM?$AAo?$AAd?$AA?5@ 100cfd48     mods_manager.obj
 0003:0007ad9c       ??_C@_0CD@OLBBKIEG@ModsManager?3?3ReloadModsAndSetti@ 100cfd9c     mods_manager.obj
 0003:0007adc0       ??_C@_1FI@DOMAIEPP@?$AA?$FL?$AAW?$AAH?$AA?$FN?$AA?5?$AA?$FL?$AA?$CF?$AAS?$AA?$FN?$AA?3?$AA?5?$AAM?$AAH?$AA_?$AAA@ 100cfdc0     mods_manager.obj
 0003:0007ae18       ??_C@_1DA@LCPJOBBB@?$AAH?$AAo?$AAo?$AAk?$AAI?$AAn?$AAt?$AAe?$AAg?$AAr?$AAi?$AAt?$AAy?$AAM?$AAo@ 100cfe18     mods_manager.obj
 0003:0007ae80       ??_C@_0N@KCFDJLIF@LoadLibraryW@ 100cfe80     module_stomp.obj
 0003:0007ae90       ??_C@_0BN@MECLNDMG@ModuleStomp?3?3LoadStompTarget@ 100cfe90     module_stomp.obj
 0003:0007aeb0       ??_C@_1HK@NLKKCEKC@?$AA?$FL?$AAW?$AAH?$AA?$FN?$AA?5?$AA?$FL?$AA?$CF?$AAS?$AA?$FN?$AA?3?$AA?5?$AAM?$AAo?$AAd?$AAu@ 100cfeb0     module_stomp.obj
 0003:0007af30       ??_C@_1FC@CJIICPEG@?$AA?$FL?$AAW?$AAH?$AA?$FN?$AA?5?$AA?$FL?$AA?$CF?$AAS?$AA?$FN?$AA?3?$AA?5?$AAM?$AAo?$AAd?$AAu@ 100cff30     module_stomp.obj
 0003:0007af84       ??_C@_0BJ@CNDFGHNC@new_process_injector?4cpp@ 100cff84     new_process_injector.obj
 0003:0007afa0       ??_C@_0DB@DHDNIPMI@Only?5one?5instance?5is?5supported?5@ 100cffa0     new_process_injector.obj
 0003:0007afd4       ??_C@_0BH@IODECGKA@CreateProcessInternalW@ 100cffd4     new_process_injector.obj
 0003:0007afec       ??_C@_0CH@MGPFIJKK@NewProcessInjector?3?3NewProcessI@ 100cffec     new_process_injector.obj
 0003:0007b018       ??_C@_1GE@PKEPCMFJ@?$AA?$FL?$AAW?$AAH?$AA?$FN?$AA?5?$AA?$FL?$AA?$CF?$AAS?$AA?$FN?$AA?3?$AA?5?$AAF?$AAa?$AAi?$AAl@ 100d0018     new_process_injector.obj
 0003:0007b07c       ??_C@_0CI@EFDJLFDM@NewProcessInjector?3?3?$HONewProcess@ 100d007c     new_process_injector.obj
 0003:0007b0a8       ??_C@_1IM@DPCLEKMN@?$AA?$FL?$AAW?$AAH?$AA?$FN?$AA?5?$AA?$FL?$AA?$CF?$AAS?$AA?$FN?$AA?3?$AA?5?$AAc?$AAo?$AAm?$AAp@ 100d00a8     new_process_injector.obj
 0003:0007b134       ??_C@_1O@INIEDEDF@?$AA?$CI?$AAN?$AAU?$AAL?$AAL?$AA?$CJ@ 100d0134     new_process_injector.obj
 0003:0007b144       ??_C@_0DA@MGBBGCLC@NewProcessInjector?3?3CreateProce@ 100d0144     new_process_injector.obj
 0003:0007b178       ??_C@_1IG@JDEPAMMN@?$AA?$FL?$AAW?$AAH?$AA?$FN?$AA?5?$AA?$FL?$AA?$CF?$AAS?$AA?$FN?$AA?3?$AA?5?$AAN?$AAe?$AAw?$AA?5@ 100d0178     new_process_injector.obj
 0003:0007b200       ??_C@_0EC@CGPIDGAC@NewProcessInjector?3?3HandleCreat@ 100d0200     new_process_injector.obj
 0003:0007b248       ??_C@_1HA@IKIEKKLI@?$AA?$FL?$AAW?$AAH?$AA?$FN?$AA?5?$AA?$FL?$AA?$CF?$AAS?$AA?$FN?$AA?3?$AA?5?$AAD?$AAl?$AAl?$AAI@ 100d0248     new_process_injector.obj
 0003:0007b2b8       ??_C@_1FM@FPJOJIG@?$AA?$FL?$AAW?$AAH?$AA?$FN?$AA?5?$AA?$FL?$AA?$CF?$AAS?$AA?$FN?$AA?3?$AA?5?$AAE?$AAr?$AAr?$AAo@ 100d02b8     new_process_injector.obj
 0003:0007b314       ??_C@_0CJ@PMHPMLLL@NewProcessInjector?3?3HandleCreat@ 100d0314     new_process_injector.obj
 0003:0007b340       ??_C@_1GG@LCHFKICL@?$AA?$FL?$AAW?$AAH?$AA?$FN?$AA?5?$AA?$FL?$AA?$CF?$AAS?$AA?$FN?$AA?3?$AA?5?$AAD?$AAe?$AAf?$AAe@ 100d0340     new_process_injector.obj
 0003:0007b3a8       ??_C@_1GG@PNLLHMKA@?$AA?$FL?$AAW?$AAH?$AA?$FN?$AA?5?$AA?$FL?$AA?$CF?$AAS?$AA?$FN?$AA?3?$AA?5?$AAD?$AAl?$AAl?$AAI@ 100d03a8     new_process_injector.obj
 0003:0007b410       ??_C@_1FC@BHKILBAF@?$AA?$FL?$AAW?$AAH?$AA?$FN?$AA?5?$AA?$FL?$AA?$CF?$AAS?$AA?$FN?$AA?3?$AA?5?$AAE?$AAr?$AAr?$AAo@ 100d0410     new_process_injector.obj
 0003:0007b464       ??_C@_1BO@MFOKJHPK@?$AAk?$AAe?$AAr?$AAn?$AAe?$AAl?$AAb?$AAa?$AAs?$AAe?$AA?4?$AAd?$AAl?$AAl@ 100d0464     new_process_injector.obj
 0003:0007b484       ??_C@_0P@LDMPNPEN@LazyInitialize@ 100d0484     main.obj
 0003:0007b498       ??_C@_1EM@BANCDMDL@?$AA?$FL?$AAW?$AAH?$AA?$FN?$AA?5?$AA?$FL?$AA?$CF?$AAS?$AA?$FN?$AA?3?$AA?5?$AAI?$AAn?$AAi?$AAt@ 100d0498     main.obj
 0003:0007b4e4       ??_C@_0L@PLHBHKF@InjectInit@ 100d04e4     main.obj
 0003:0007b4f0       ??_C@_1DO@JJEEIGIB@?$AA?$FL?$AAW?$AAH?$AA?$FN?$AA?5?$AA?$FL?$AA?$CF?$AAS?$AA?$FN?$AA?3?$AA?5?$AAR?$AAu?$AAn?$AAn@ 100d04f0     main.obj
 0003:0007b530       ??_C@_1HC@KCIELEPH@?$AA?$FL?$AAW?$AAH?$AA?$FN?$AA?5?$AA?$FL?$AA?$CF?$AAS?$AA?$FN?$AA?3?$AA?5?$AAS?$AAe?$AAs?$AAs@ 100d0530     main.obj
 0003:0007b5a4       ??_C@_0BH@EIGCDCIG@GlobalHookSessionStart@ 100d05a4     main.obj
 0003:0007b5c0       ??_C@_1FG@LHFJMJEI@?$AA?$FL?$AAW?$AAH?$AA?$FN?$AA?5?$AA?$FL?$AA?$CF?$AAS?$AA?$FN?$AA?3?$AA?5?$AAR?$AAu?$AAn?$AAn@ 100d05c0     main.obj
 0003:0007b618       ??_C@_0BF@MDGEJKCB@GlobalHookSessionEnd@ 100d0618     main.obj
 0003:0007b630       ??_C@_1FC@MIMJGDNM@?$AA?$FL?$AAW?$AAH?$AA?$FN?$AA?5?$AA?$FL?$AA?$CF?$AAS?$AA?$FN?$AA?3?$AA?5?$AAR?$AAu?$AAn?$AAn@ 100d0630     main.obj
 0003:0007b684       ??_C@_0DG@CPPLMOPJ@?$GAanonymous?9namespace?8?3?3GetFirst@ 100d0684     customization_session.obj
 0003:0007b6c0       ??_C@_1GE@FKPJPKAG@?$AA?$FL?$AAW?$AAH?$AA?$FN?$AA?5?$AA?$FL?$AA?$CF?$AAS?$AA?$FN?$AA?3?$AA?5?$AAF?$AAa?$AAi?$AAl@ 100d06c0     customization_session.obj
 0003:0007b728       ??_C@_1IG@GLBNDFMG@?$AA?$FL?$AAW?$AAH?$AA?$FN?$AA?5?$AA?$FL?$AA?$CF?$AAS?$AA?$FN?$AA?3?$AA?5?$AAF?$AAa?$AAi?$AAl@ 100d0728     customization_session.obj
 0003:0007b7b0       ??_C@_1GM@GHLHHCCC@?$AA?$FL?$AAW?$AAH?$AA?$FN?$AA?5?$AA?$FL?$AA?$CF?$AAS?$AA?$FN?$AA?3?$AA?5?$AAC?$AAu?$AAr?$AAr@ 100d07b0     customization_session.obj
 0003:0007b820       ??_C@_1FG@FMMILFIP@?$AA?$FL?$AAW?$AAH?$AA?$FN?$AA?5?$AA?$FL?$AA?$CF?$AAS?$AA?$FN?$AA?3?$AA?5?$AAN?$AAt?$AAG?$AAe@ 100d0820     customization_session.obj
 0003:0007b878       ??_C@_1HA@FNLPAPCB@?$AA?$FL?$AAW?$AAH?$AA?$FN?$AA?5?$AA?$FL?$AA?$CF?$AAS?$AA?$FN?$AA?3?$AA?5?$AAW?$AAa?$AAi?$AAt@ 100d0878     customization_session.obj
 0003:0007b8e8       ??_C@_0BL@OHHPJCHM@GetProcessMitigationPolicy@ 100d08e8     customization_session.obj
 0003:0007b904       ??_C@_0DJ@BDGPCIOL@?$GAanonymous?9namespace?8?3?3CurrentP@ 100d0904     customization_session.obj
 0003:0007b940       ??_C@_1HK@PFKJPKNC@?$AA?$FL?$AAW?$AAH?$AA?$FN?$AA?5?$AA?$FL?$AA?$CF?$AAS?$AA?$FN?$AA?3?$AA?5?$AAF?$AAa?$AAi?$AAl@ 100d0940     customization_session.obj
 0003:0007b9c0       ??_C@_1FG@KEBELNLO@?$AAW?$AAi?$AAn?$AAd?$AAh?$AAa?$AAw?$AAk?$AAC?$AAu?$AAs?$AAt?$AAo?$AAm?$AAi@ 100d09c0     customization_session.obj
 0003:0007ba18       ??_C@_0DC@PDKGDLCJ@Failed?5to?5acquire?5customization@ 100d0a18     customization_session.obj
 0003:0007ba4c       ??_C@_0DA@DEHLLPBB@Only?5one?5session?5is?5supported?5a@ 100d0a4c     customization_session.obj
 0003:0007ba7c       ??_C@_0BK@BENNGIIL@customization_session?4cpp@ 100d0a7c     customization_session.obj
 0003:0007ba98       ??_C@_0CL@EILCJNLJ@CustomizationSession?3?3Customiza@ 100d0a98     customization_session.obj
 0003:0007bac8       ??_C@_1EC@NFGMCMCP@?$AA?$FL?$AAW?$AAH?$AA?$FN?$AA?5?$AA?$FL?$AA?$CF?$AAS?$AA?$FN?$AA?3?$AA?5?$AAA?$AAf?$AAt?$AAe@ 100d0ac8     customization_session.obj
 0003:0007bb0c       ??_C@_0CM@HLAKOFNG@CustomizationSession?3?3?$HOCustomiz@ 100d0b0c     customization_session.obj
 0003:0007bb38       ??_C@_1EI@IMKCJLDK@?$AA?$FL?$AAW?$AAH?$AA?$FN?$AA?5?$AA?$FL?$AA?$CF?$AAS?$AA?$FN?$AA?3?$AA?5?$AAB?$AAe?$AAf?$AAo@ 100d0b38     customization_session.obj
 0003:0007bb80       ??_C@_0EI@JCMPCIAN@CustomizationSession?3?3MinHookSc@ 100d0b80     customization_session.obj
 0003:0007bbc8       ??_C@_1HO@LHNOFDHK@?$AA?$FL?$AAW?$AAH?$AA?$FN?$AA?5?$AA?$FL?$AA?$CF?$AAS?$AA?$FN?$AA?3?$AA?5?$AAH?$AAo?$AAo?$AAk@ 100d0bc8     customization_session.obj
 0003:0007bc48       ??_C@_0DJ@ECAOMJFE@CustomizationSession?3?3MinHookSc@ 100d0c48     customization_session.obj
 0003:0007bc88       ??_C@_1FC@MCDFOEFC@?$AA?$FL?$AAW?$AAH?$AA?$FN?$AA?5?$AA?$FL?$AA?$CF?$AAS?$AA?$FN?$AA?3?$AA?5?$AAM?$AAH?$AA_?$AAI@ 100d0c88     customization_session.obj
 0003:0007bcdc       ??_C@_0BN@ENMBCIJ@Failed?5to?5initialize?5MinHook@ 100d0cdc     customization_session.obj
 0003:0007bcfc       ??_C@_0DK@BJADIFIP@CustomizationSession?3?3MinHookSc@ 100d0cfc     customization_session.obj
 0003:0007bd38       ??_C@_1GE@LHODKLON@?$AA?$FL?$AAW?$AAH?$AA?$FN?$AA?5?$AA?$FL?$AA?$CF?$AAS?$AA?$FN?$AA?3?$AA?5?$AAM?$AAH?$AA_?$AAU@ 100d0d38     customization_session.obj
 0003:0007bd9c       ??_C@_0DL@BPIHPBJL@CustomizationSession?3?3MinHookSc@ 100d0d9c     customization_session.obj
 0003:0007bdd8       ??_C@_0DM@HNKHIHHP@CustomizationSession?3?3MinHookSc@ 100d0dd8     customization_session.obj
 0003:0007be18       ??_C@_1GG@ICAMIFAP@?$AA?$FL?$AAW?$AAH?$AA?$FN?$AA?5?$AA?$FL?$AA?$CF?$AAS?$AA?$FN?$AA?3?$AA?5?$AAM?$AAH?$AA_?$AAD@ 100d0e18     customization_session.obj
 0003:0007be80       ??_C@_0DF@NCOKHKGM@CustomizationSession?3?3MainLoopR@ 100d0e80     customization_session.obj
 0003:0007beb8       ??_C@_1HO@ILHAAKMJ@?$AA?$FL?$AAW?$AAH?$AA?$FN?$AA?5?$AA?$FL?$AA?$CF?$AAS?$AA?$FN?$AA?3?$AA?5?$AAM?$AAo?$AAd?$AAC@ 100d0eb8     customization_session.obj
 0003:0007bf38       ??_C@_0CK@NLGIHGCO@CustomizationSession?3?3MainLoopR@ 100d0f38     customization_session.obj
 0003:0007bf68       ??_C@_1HM@OGHDLPBH@?$AA?$FL?$AAW?$AAH?$AA?$FN?$AA?5?$AA?$FL?$AA?$CF?$AAS?$AA?$FN?$AA?3?$AA?5?$AAW?$AAa?$AAi?$AAt@ 100d0f68     customization_session.obj
 0003:0007bfe4       ??_C@_0DJ@LDENHEFA@CustomizationSession?3?3MainLoopR@ 100d0fe4     customization_session.obj
 0003:0007c020       ??_C@_1FE@JIHCCDAG@?$AA?$FL?$AAW?$AAH?$AA?$FN?$AA?5?$AA?$FL?$AA?$CF?$AAS?$AA?$FN?$AA?3?$AA?5?$AAC?$AAo?$AAn?$AAt@ 100d1020     customization_session.obj
 0003:0007c074       ??_C@_0CH@FEBDMDDF@CustomizationSession?3?3StartInit@ 100d1074     customization_session.obj
 0003:0007c0a0       ??_C@_1EO@IFGIBHP@?$AA?$FL?$AAW?$AAH?$AA?$FN?$AA?5?$AA?$FL?$AA?$CF?$AAS?$AA?$FN?$AA?3?$AA?5?$AAT?$AAh?$AAr?$AAe@ 100d10a0     customization_session.obj
 0003:0007c0f0       ??_C@_1EG@IIGBIEAA@?$AAW?$AAi?$AAn?$AAd?$AAh?$AAa?$AAw?$AAk?$AAM?$AAa?$AAi?$AAn?$AAL?$AAo?$AAo@ 100d10f0     customization_session.obj
 0003:0007c138       ??_C@_0FK@MDHANPJI@CustomizationSession?3?3RunMainLo@ 100d1138     customization_session.obj
 0003:0007c198       ??_C@_1IM@MOPBDCC@?$AA?$FL?$AAW?$AAH?$AA?$FN?$AA?5?$AA?$FL?$AA?$CF?$AAS?$AA?$FN?$AA?3?$AA?5?$AAP?$AAr?$AAo?$AAc@ 100d1198     customization_session.obj
 0003:0007c224       ??_C@_1CE@PGMIGCFK@?$AAE?$AAt?$AAw?$AAS?$AAt?$AAe?$AAa?$AAl?$AAt?$AAh?$AAE?$AAn?$AAa?$AAb?$AAl@ 100d1224     customization_session.obj
 0003:0007c248       ??_C@_1FK@OBJHDDJL@?$AA?$FL?$AAW?$AAH?$AA?$FN?$AA?5?$AA?$FL?$AA?$CF?$AAS?$AA?$FN?$AA?3?$AA?5?$AAR?$AAe?$AAl?$AAo@ 100d1248     customization_session.obj
 0003:0007c2a8       ??_C@_0EB@LMHEBHMK@CustomizationSession?3?3RunMainLo@ 100d12a8     customization_session.obj
 0003:0007c2ec       ??_C@_1CC@EMPLNHHG@?$AAW?$AAi?$AAn?$AAd?$AAh?$AAa?$AAw?$AAk?$AAM?$AAa?$AAi?$AAn?$AAL?$AAo?$AAo@ 100d12ec     customization_session.obj
 0003:0007c310       ??_C@_0CC@NENIACNA@CustomizationSession?3?3RunMainLo@ 100d1310     customization_session.obj
 0003:0007c338       ??_C@_1FI@LDJBDPFN@?$AA?$FL?$AAW?$AAH?$AA?$FN?$AA?5?$AA?$FL?$AA?$CF?$AAS?$AA?$FN?$AA?3?$AA?5?$AAE?$AAx?$AAi?$AAt@ 100d1338     customization_session.obj
 0003:0007c390       ??_C@_0CB@DCKAFHOJ@CustomizationSession?3?3DeleteThi@ 100d1390     customization_session.obj
 0003:0007c3b8       ??_C@_1IC@BLOMNFNP@?$AA?$FL?$AAW?$AAH?$AA?$FN?$AA?5?$AA?$FL?$AA?$CF?$AAS?$AA?$FN?$AA?3?$AA?5?$AAP?$AAr?$AAo?$AAc@ 100d13b8     customization_session.obj
 0003:0007c440       ??_C@_0GC@KKHEGBAL@c?3?2Users?2kai99?2Desktop?2New?5fold@ 100d1440     customization_session.obj
 0003:0007c4a4       ??_C@_0BE@LMOOKEAD@Bad?5optional?5access@ 100d14a4     customization_session.obj
 0003:0007c4bc       ??_7bad_optional_access@std@@6B@ 100d14bc     customization_session.obj
 0003:0007c4c4       ??_C@_0BO@GADOFKCE@session_private_namespace?4cpp@ 100d14c4     session_private_namespace.obj
 0003:0007c4e4       ??_C@_1CE@BMACEPKB@?$AAW?$AAi?$AAn?$AAd?$AAh?$AAa?$AAw?$AAk?$AAS?$AAe?$AAs?$AAs?$AAi?$AAo?$AAn@ 100d14e4     session_private_namespace.obj
 0003:0007c508       ??_C@_0BH@MFPBLOMC@StackSpoof?3?3Initialize@ 100d1508     stack_spoof.obj
 0003:0007c520       ??_C@_1JG@NLNDBJFK@?$AA?$FL?$AAW?$AAH?$AA?$FN?$AA?5?$AA?$FL?$AA?$CF?$AAS?$AA?$FN?$AA?3?$AA?5?$AAS?$AAt?$AAa?$AAc@ 100d1520     stack_spoof.obj
 0003:0007c5b8       ??_C@_1BI@BNFKGMFK@?$AAs?$AAh?$AAe?$AAl?$AAl?$AA3?$AA2?$AA?4?$AAd?$AAl?$AAl@ 100d15b8     storage_manager.obj
 0003:0007c5d0       ??_C@_0BF@OMOLCJCE@SHGetKnownFolderPath@ 100d15d0     storage_manager.obj
 0003:0007c5e8       ??_C@_1BE@DPMNNGMJ@?$AAo?$AAl?$AAe?$AA3?$AA2?$AA?4?$AAd?$AAl?$AAl@ 100d15e8     storage_manager.obj
 0003:0007c5fc       ??_C@_0O@MIBPKJDN@CoTaskMemFree@ 100d15fc     storage_manager.obj
 0003:0007c60c       ??_C@_0BD@HKLFGHMI@Missing?5path?5value@ 100d160c     storage_manager.obj
 0003:0007c620       ??_C@_1BI@PCFBINBH@?$AAP?$AAr?$AAo?$AAg?$AAr?$AAa?$AAm?$AAD?$AAa?$AAt?$AAa@ 100d1620     storage_manager.obj
 0003:0007c638       ??_C@_1BM@BPCHLFEE@?$AA?$CF?$AAP?$AAr?$AAo?$AAg?$AAr?$AAa?$AAm?$AAD?$AAa?$AAt?$AAa?$AA?$CF@ 100d1638     storage_manager.obj
 0003:0007c654       ??_C@_1BI@BNLANBPC@?$AAS?$AAy?$AAs?$AAt?$AAe?$AAm?$AAD?$AAr?$AAi?$AAv?$AAe@ 100d1654     storage_manager.obj
 0003:0007c66c       ??_C@_1BK@OPEJHODM@?$AA?2?$AAP?$AAr?$AAo?$AAg?$AAr?$AAa?$AAm?$AAD?$AAa?$AAt?$AAa@ 100d166c     storage_manager.obj
 0003:0007c688       ??_C@_1BO@DPOFENEI@?$AAC?$AA?3?$AA?2?$AAP?$AAr?$AAo?$AAg?$AAr?$AAa?$AAm?$AAD?$AAa?$AAt?$AAa@ 100d1688     storage_manager.obj
 0003:0007c6a8       ??_C@_19PGJFMJNJ@?$AA?4?$AAi?$AAn?$AAi@ 100d16a8     storage_manager.obj
 0003:0007c6b4       ??_C@_19JEBFOLLA@?$AAM?$AAo?$AAd?$AAs@ 100d16b4     storage_manager.obj
 0003:0007c6c0       ??_C@_17GFKDCKHB@?$AAM?$AAo?$AAd@ 100d16c0     storage_manager.obj
 0003:0007c6c8       ??_C@_1O@PFFGFEFP@?$AA?2?$AAM?$AAo?$AAd?$AAs?$AA?2@ 100d16c8     storage_manager.obj
 0003:0007c6d8       ??_C@_1BK@LOEJHKPH@?$AAM?$AAo?$AAd?$AAs?$AAW?$AAr?$AAi?$AAt?$AAa?$AAb?$AAl?$AAe@ 100d16d8     storage_manager.obj
 0003:0007c6f4       ??_C@_1BO@ELFKPADN@?$AA?2?$AAM?$AAo?$AAd?$AAs?$AAW?$AAr?$AAi?$AAt?$AAa?$AAb?$AAl?$AAe?$AA?2@ 100d16f4     storage_manager.obj
 0003:0007c714       ??_C@_1BI@EHAKDGJC@?$AAm?$AAo?$AAd?$AA?9?$AAs?$AAt?$AAo?$AAr?$AAa?$AAg?$AAe@ 100d1714     storage_manager.obj
 0003:0007c72c       ??_C@_0BE@CDOICAJ@storage_manager?4cpp@ 100d172c     storage_manager.obj
 0003:0007c740       ??_C@_15JGPBBLHF@?$AA3?$AA2@ 100d1740     storage_manager.obj
 0003:0007c748       ??_C@_15ODFHNFBK@?$AA6?$AA4@ 100d1748     storage_manager.obj
 0003:0007c750       ??_C@_1M@CDOFHCHO@?$AAa?$AAr?$AAm?$AA6?$AA4@ 100d1750     storage_manager.obj
 0003:0007c75c       ??_C@_0BF@PAAHKDFF@Unknown?5architecture@ 100d175c     storage_manager.obj
 0003:0007c774       ??_C@_1BA@NKHEEPNG@?$AAS?$AAy?$AAm?$AAb?$AAo?$AAl?$AAs@ 100d1774     storage_manager.obj
 0003:0007c784       ??_C@_1BG@JHPKGNCN@?$AAe?$AAn?$AAg?$AAi?$AAn?$AAe?$AA?4?$AAi?$AAn?$AAi@ 100d1784     storage_manager.obj
 0003:0007c79c       ??_C@_0BF@NIEEMBFP@engine?4ini?5not?5found@ 100d179c     storage_manager.obj
 0003:0007c7b4       ??_C@_1BA@KMCEMKEI@?$AAS?$AAt?$AAo?$AAr?$AAa?$AAg?$AAe@ 100d17b4     storage_manager.obj
 0003:0007c7c4       ??_C@_1BI@HCGPBLCP@?$AAA?$AAp?$AAp?$AAD?$AAa?$AAt?$AAa?$AAP?$AAa?$AAt?$AAh@ 100d17c4     storage_manager.obj
 0003:0007c7dc       ??_C@_1BC@EIAJDLIM@?$AAP?$AAo?$AAr?$AAt?$AAa?$AAb?$AAl?$AAe@ 100d17dc     storage_manager.obj
 0003:0007c7f0       ??_C@_1BK@BDLHIEGA@?$AAs?$AAe?$AAt?$AAt?$AAi?$AAn?$AAg?$AAs?$AA?4?$AAi?$AAn?$AAi@ 100d17f0     storage_manager.obj
 0003:0007c80c       ??_C@_1BI@PJNLJJGH@?$AAR?$AAe?$AAg?$AAi?$AAs?$AAt?$AAr?$AAy?$AAK?$AAe?$AAy@ 100d180c     storage_manager.obj
 0003:0007c824       ??_C@_0BK@LMMIEMIN@Missing?5RegistryKey?5value@ 100d1824     storage_manager.obj
 0003:0007c840       ??_C@_0BK@NBAMLEHE@Invalid?5RegistryKey?5value@ 100d1840     storage_manager.obj
 0003:0007c85c       ??_C@_1CE@HLHNCBPM@?$AAH?$AAK?$AAE?$AAY?$AA_?$AAC?$AAU?$AAR?$AAR?$AAE?$AAN?$AAT?$AA_?$AAU?$AAS@ 100d185c     storage_manager.obj
 0003:0007c880       ??_C@_19JAPAIJDE@?$AAH?$AAK?$AAC?$AAU@ 100d1880     storage_manager.obj
 0003:0007c88c       ??_C@_1BG@BGODANIO@?$AAH?$AAK?$AAE?$AAY?$AA_?$AAU?$AAS?$AAE?$AAR?$AAS@ 100d188c     storage_manager.obj
 0003:0007c8a4       ??_C@_17PJOJPMPB@?$AAH?$AAK?$AAU@ 100d18a4     storage_manager.obj
 0003:0007c8ac       ??_C@_1CG@GFBEANJL@?$AAH?$AAK?$AAE?$AAY?$AA_?$AAL?$AAO?$AAC?$AAA?$AAL?$AA_?$AAM?$AAA?$AAC?$AAH@ 100d18ac     storage_manager.obj
 0003:0007c8d4       ??_C@_19PEALEEJB@?$AAH?$AAK?$AAL?$AAM@ 100d18d4     storage_manager.obj
 0003:0007c8e0       ??_C@_0BO@LNGLPCAK@Unsupported?5RegistryKey?5value@ 100d18e0     storage_manager.obj
 0003:0007c900       ??_C@_1M@DFDLFCCE@?$AA?2?$AAM?$AAo?$AAd?$AAs@ 100d1900     storage_manager.obj
 0003:0007c910       ??_7?$__func@V<lambda_1>@?1???$GetEnvironmentVariableW@V?$basic_string@_WU?$char_traits@_W@std@@V?$allocator@_W@2@@std@@$0IA@@wil@@YAJPB_WAAV?$basic_string@_WU?$char_traits@_W@std@@V?$allocator@_W@2@@std@@@Z@$$A6AJPA_WIPAI@Z@__function@wistd@@6B@ 100d1910     storage_manager.obj
 0003:0007c924       ??_C@_0BI@LBKDNGFK@directory_entry?3?3status@ 100d1924     storage_manager.obj
 0003:0007c93c       ??_C@_0BP@DPMCMHCK@directory_iterator?3?3operator?$CL?$CL@ 100d193c     storage_manager.obj
 0003:0007c95c       ??_C@_13BBDEGPLJ@?$AA?$CK@ 100d195c     storage_manager.obj
 0003:0007c964       ??_7?$_Ref_count_obj2@U_Dir_enum_impl@filesystem@std@@@std@@6B@ 100d1964     storage_manager.obj
 0003:0007c974       ??_C@_0CH@GANCNKKD@directory_iterator?3?3directory_i@ 100d1974     storage_manager.obj
 0003:0007c99c       ??_C@_06OGCODMJI@exists@   100d199c     storage_manager.obj
 0003:0007c9a4       ??_C@_03NONCDIOG@?3?5?$CC@ 100d19a4     storage_manager.obj
 0003:0007c9a8       ??_C@_04PHMHGEMA@?$CC?0?5?$CC@ 100d19a8     storage_manager.obj
 0003:0007c9b4       ??_7filesystem_error@filesystem@std@@6B@ 100d19b4     storage_manager.obj
 0003:0007c9bc       ??_C@_06DJIHEMFI@status@   100d19bc     storage_manager.obj
 0003:0007c9c4       ??_C@_0BD@FGIAGBIG@bad?5variant?5access@ 100d19c4     storage_manager.obj
 0003:0007c9dc       ??_7bad_variant_access@std@@6B@ 100d19dc     storage_manager.obj
 0003:0007c9e4       ??_C@_13JOFGPIOO@?$AA?4@   100d19e4     storage_manager.obj
 0003:0007c9e8       ??_C@_15DDHGOCBH@?$AA?4?$AA?4@ 100d19e8     storage_manager.obj
 0003:0007c9f0       ??_C@_0BO@ELAFCPOP@RtlDisownModuleHeapAllocation@ 100d19f0     stdafx.obj
 0003:0007ca10       ??_C@_0BH@EEDPADAA@RaiseFailFastException@ 100d1a10     stdafx.obj
 0003:0007ca28       ??_C@_0O@KIMGFJMA@WIL?5Exception@ 100d1a28     stdafx.obj
 0003:0007ca38       ??_C@_03KGBNGMMC@wil@      100d1a38     stdafx.obj
 0003:0007ca3c       ??_C@_17ONNCDEJM@?$AA_?$AAp?$AA0@ 100d1a3c     stdafx.obj
 0003:0007ca44       ??_C@_0M@BENCEGID@WilError_03@ 100d1a44     stdafx.obj
 0003:0007ca50       ??_C@_1CM@DFICJNGJ@?$AAL?$AAo?$AAc?$AAa?$AAl?$AA?2?$AAS?$AAM?$AA0?$AA?3?$AA?$CF?$AAl?$AAu?$AA?3?$AA?$CF@ 100d1a50     stdafx.obj
 0003:0007ca80       ??_7ResultException@wil@@6B@ 100d1a80     stdafx.obj
 0003:0007ca88       ??_C@_1BK@LEFPDCAJ@?$AAo?$AAl?$AAe?$AAa?$AAu?$AAt?$AA3?$AA2?$AA?4?$AAd?$AAl?$AAl@ 100d1a88     symbol_enum.obj
 0003:0007caa4       ??_C@_0O@HGGCANLK@SysFreeString@ 100d1aa4     symbol_enum.obj
 0003:0007cab4       ??_C@_0BA@BMHIEGEI@MySysFreeString@ 100d1ab4     symbol_enum.obj
 0003:0007cac8       ??_C@_1GE@LFJMGENG@?$AA?$FL?$AAW?$AAH?$AA?$FN?$AA?5?$AA?$FL?$AA?$CF?$AAS?$AA?$FN?$AA?3?$AA?5?$AAF?$AAa?$AAi?$AAl@ 100d1ac8     symbol_enum.obj
 0003:0007cb30       ??_C@_1FI@FKNELKHO@?$AAh?$AAt?$AAt?$AAp?$AAs?$AA?3?$AA?1?$AA?1?$AAm?$AAs?$AAd?$AAl?$AA?4?$AAm?$AAi@ 100d1b30     symbol_enum.obj
 0003:0007cb88       ??_C@_19PNIKJOHJ@?$AAs?$AAr?$AAv?$AA?$CK@ 100d1b88     symbol_enum.obj
 0003:0007cb94       ??_C@_0CM@OKJEFOLI@?$GAanonymous?9namespace?8?3?3LogSymbo@ 100d1b94     symbol_enum.obj
 0003:0007cbc0       ??_C@_1CC@FFLFECJ@?$AA?$FL?$AAW?$AAH?$AA?$FN?$AA?5?$AA?$FL?$AA?$CF?$AAS?$AA?$FN?$AA?3?$AA?5?$AA?$CF?$AA?4?$AA?$CK?$AAS@ 100d1bc0     symbol_enum.obj
 0003:0007cbe4       ??_C@_1BA@ICANLBCA@?$AAs?$AAu?$AAc?$AAc?$AAe?$AAs?$AAs@ 100d1be4     symbol_enum.obj
 0003:0007cbf4       ??_C@_1M@BAIGDEFI@?$AAe?$AAr?$AAr?$AAo?$AAr@ 100d1bf4     symbol_enum.obj
 0003:0007cc00       ??_C@_0DG@GICDKMFB@?$GAanonymous?9namespace?8?3?3DiaLoadC@ 100d1c00     symbol_enum.obj
 0003:0007cc38       ??_C@_1FE@CBJGICIH@?$AA?$FL?$AAW?$AAH?$AA?$FN?$AA?5?$AA?$FL?$AA?$CF?$AAS?$AA?$FN?$AA?3?$AA?5?$AAO?$AAp?$AAe?$AAn@ 100d1c38     symbol_enum.obj
 0003:0007cc8c       ??_C@_0DG@MOKCOEGO@?$GAanonymous?9namespace?8?3?3DiaLoadC@ 100d1c8c     symbol_enum.obj
 0003:0007ccc8       ??_C@_1FE@ODOBHGHE@?$AA?$FL?$AAW?$AAH?$AA?$FN?$AA?5?$AA?$FL?$AA?$CF?$AAS?$AA?$FN?$AA?3?$AA?5?$AAO?$AAp?$AAe?$AAn@ 100d1cc8     symbol_enum.obj
 0003:0007cd1c       ??_C@_1BG@MIBKINDJ@?$AAS?$AAY?$AAM?$AAS?$AAR?$AAV?$AA?4?$AAD?$AAL?$AAL@ 100d1d1c     symbol_enum.obj
 0003:0007cd34       ??_C@_1CI@IMOANIOL@?$AAs?$AAy?$AAm?$AAs?$AAr?$AAv?$AA_?$AAw?$AAi?$AAn?$AAd?$AAh?$AAa?$AAw?$AAk@ 100d1d34     symbol_enum.obj
 0003:0007cd5c       ??_C@_0CP@OIMKFLMF@?$GAanonymous?9namespace?8?3?3MsdiaLoa@ 100d1d5c     symbol_enum.obj
 0003:0007cd90       ??_C@_1EK@NPJGDDOB@?$AA?$FL?$AAW?$AAH?$AA?$FN?$AA?5?$AA?$FL?$AA?$CF?$AAS?$AA?$FN?$AA?3?$AA?5?$AAC?$AAo?$AAu?$AAl@ 100d1d90     symbol_enum.obj
 0003:0007cddc       ??_C@_0BH@DMJEJMEL@SymbolServerSetOptions@ 100d1ddc     symbol_enum.obj
 0003:0007cdf8       ??_C@_1GC@CKMMNEL@?$AA?$FL?$AAW?$AAH?$AA?$FN?$AA?5?$AA?$FL?$AA?$CF?$AAS?$AA?$FN?$AA?3?$AA?5?$AAC?$AAo?$AAu?$AAl@ 100d1df8     symbol_enum.obj
 0003:0007ce60       ??_C@_1EK@OGDNFMK@?$AA?$FL?$AAW?$AAH?$AA?$FN?$AA?5?$AA?$FL?$AA?$CF?$AAS?$AA?$FN?$AA?3?$AA?5?$AAC?$AAo?$AAu?$AAl@ 100d1e60     symbol_enum.obj
 0003:0007ceac       ??_C@_0BA@HNFIIJOC@symbol_enum?4cpp@ 100d1eac     symbol_enum.obj
 0003:0007cebc       ??_C@_1BI@HCCCELJM@?$AAa?$AAr?$AAc?$AAh?$AA?$DN?$AAA?$AAR?$AAM?$AA6?$AA4?$AA?2@ 100d1ebc     symbol_enum.obj
 0003:0007ced4       ??_C@_1BM@PJADIINF@?$AAa?$AAr?$AAc?$AAh?$AA?$DN?$AAA?$AAR?$AAM?$AA6?$AA4?$AAE?$AAC?$AA?2@ 100d1ed4     symbol_enum.obj
 0003:0007cef0       ??_C@_1BE@OLHCKFFF@?$AAa?$AAr?$AAc?$AAh?$AA?$DN?$AAx?$AA6?$AA4?$AA?2@ 100d1ef0     symbol_enum.obj
 0003:0007cf04       ??_C@_1BA@PGNKGJN@?$AAa?$AAr?$AAc?$AAh?$AA?$DN?$AA3?$AA?2@ 100d1f04     symbol_enum.obj
 0003:0007cf14       ??_C@_17IFEONEPG@?$AA$?$AA$?$AAh@ 100d1f14     symbol_enum.obj
 0003:0007cf1c       ??_C@_1BK@LGJFFBAN@?$AAt?$AAa?$AAg?$AA?$DN?$AAA?$AAR?$AAM?$AA6?$AA4?$AAE?$AAC?$AA?2@ 100d1f1c     symbol_enum.obj
 0003:0007cf38       ??_C@_1CM@OBDFBEHC@?$AAm?$AAs?$AAd?$AAi?$AAa?$AA1?$AA4?$AA0?$AA_?$AAw?$AAi?$AAn?$AAd?$AAh?$AAa@ 100d1f38     symbol_enum.obj
 0003:0007cf64       ??_C@_0P@HECBOJPO@LoadLibraryExW@ 100d1f64     symbol_enum.obj
 0003:0007cf74       ??_C@_0N@MDJJJHMB@kernel32?4dll@ 100d1f74     symbol_enum.obj
 0003:0007cf88       ??_7?$_Func_impl_no_alloc@U?$default_delete@PAUCallbacks@SymbolEnum@@@std@@XPAPAUCallbacks@SymbolEnum@@@std@@6B@ 100d1f88     symbol_enum.obj
 0003:0007cfa4       ??_7?$_Func_impl_no_alloc@V<lambda_5_>@?0???0?$ThreadLocal@PAUCallbacks@SymbolEnum@@@@QAE@XZ@PAPAUCallbacks@SymbolEnum@@$$V@std@@6B@ 100d1fa4     symbol_enum.obj
 0003:0007cfbc       __GUID_79f1bb5f_b66e_48e5_b6a9_1545c323ca3d 100d1fbc     symbol_enum.obj
 0003:0007cfcc       __GUID_4688a074_5a4d_4486_aea8_7b90711d9f7c 100d1fcc     symbol_enum.obj
 0003:0007cfdc       __GUID_c32adb82_73f4_421b_95d5_a4706edf5dbe 100d1fdc     symbol_enum.obj
 0003:0007cfec       __GUID_00000000_0000_0000_c000_000000000046 100d1fec     symbol_enum.obj
 0003:0007d030       ?kSymTags@SymbolEnum@@0QBW4SymTagEnum@@B 100d2030     symbol_enum.obj
 0003:0007d03c       ??_C@_0CG@JODCHHNK@ThreadPoolInject?3?3FindAlertable@ 100d203c     thread_pool_inject.obj
 0003:0007d068       ??_C@_1II@ODDMCDNN@?$AA?$FL?$AAW?$AAH?$AA?$FN?$AA?5?$AA?$FL?$AA?$CF?$AAS?$AA?$FN?$AA?3?$AA?5?$AAP?$AAh?$AAa?$AAn@ 100d2068     thread_pool_inject.obj
 0003:0007d0f0       ??_C@_1JI@KMICFAKG@?$AA?$FL?$AAW?$AAH?$AA?$FN?$AA?5?$AA?$FL?$AA?$CF?$AAS?$AA?$FN?$AA?3?$AA?5?$AAP?$AAh?$AAa?$AAn@ 100d20f0     thread_pool_inject.obj
 0003:0007d188       ??_C@_1BG@CEGPHGFI@?$AAM?$AAo?$AAv?$AAe?$AAI?$AAm?$AAa?$AAg?$AAe?$AAs@ 100d2188     Memory.obj
 0003:0007d1a0       ??_C@_1KK@PJBACOMO@?$AA?2?$AAR?$AAe?$AAg?$AAi?$AAs?$AAt?$AAr?$AAy?$AA?2?$AAM?$AAa?$AAc?$AAh?$AAi@ 100d21a0     Memory.obj
 0003:0007d24c       ??_C@_01MIFGBAGJ@?$CL@     100d224c     Zydis.obj
 0003:0007d250       ??_C@_01JOAMLHOP@?9@       100d2250     Zydis.obj
 0003:0007d254       ??_C@_02MDDDDAID@0x@       100d2254     Zydis.obj
 0003:0007d258       ??_C@_01BDACAMKP@h@        100d2258     Zydis.obj
 0003:0007d25c       ??_C@_01EPMOAMKG@$@        100d225c     Zydis.obj
 0003:0007d260       ??_C@_07JAILIFAG@?5?$HL1to2?$HN@ 100d2260     Zydis.obj
 0003:0007d268       ??_C@_07JEAGPJLE@?5?$HL1to4?$HN@ 100d2268     Zydis.obj
 0003:0007d270       ??_C@_07JNBMAANA@?5?$HL1to8?$HN@ 100d2270     Zydis.obj
 0003:0007d278       ??_C@_08BNBIOEME@?5?$HL1to16?$HN@ 100d2278     Zydis.obj
 0003:0007d284       ??_C@_08LABIIEJD@?5?$HL1to32?$HN@ 100d2284     Zydis.obj
 0003:0007d290       ??_C@_08IDELAIBD@?5?$HL1to64?$HN@ 100d2290     Zydis.obj
 0003:0007d29c       ??_C@_07MNNBJBGD@?5?$HL4to8?$HN@ 100d229c     Zydis.obj
 0003:0007d2a4       ??_C@_08EPCAMLGD@?5?$HL4to16?$HN@ 100d22a4     Zydis.obj
 0003:0007d2b0       ??_C@_08IIIAKBBH@?5?$HL8to16?$HN@ 100d22b0     Zydis.obj
 0003:0007d2bc       ??_C@_07LKCAHCNJ@?5?$HLaaaa?$HN@ 100d22bc     Zydis.obj
 0003:0007d2c4       ??_C@_07IOOCECL@?5?$HLbadc?$HN@ 100d22c4     Zydis.obj
 0003:0007d2cc       ??_C@_07GLOHGLBA@?5?$HLbbbb?$HN@ 100d22cc     Zydis.obj
 0003:0007d2d4       ??_C@_02PEDIMADA@?5?$HL@   100d22d4     Zydis.obj
 0003:0007d2d8       ??_C@_07CEKFJMFH@?5?$HLcccc?$HN@ 100d22d8     Zydis.obj
 0003:0007d2e0       ??_C@_07DNEOOCPL@?5?$HLcdab?$HN@ 100d22e0     Zydis.obj
 0003:0007d2e8       ??_C@_07ECKCJFLI@?5?$HLdacb?$HN@ 100d22e8     Zydis.obj
 0003:0007d2f0       ??_C@_07BDBIFOMD@?5?$HLdddd?$HN@ 100d22f0     Zydis.obj
 0003:0007d2f8       ??_C@_05BHDOBAKG@?5?$HLeh?$HN@ 100d22f8     Zydis.obj
 0003:0007d300       ??_C@_01CELHOKLL@?$HN@     100d2300     Zydis.obj
 0003:0007d304       ??_C@_0L@PEJEFFNA@?5?$HLfloat16?$HN@ 100d2304     Zydis.obj
 0003:0007d310       ??_C@_05NDOKIGOE@?5?$HLrd?$HN@ 100d2310     Zydis.obj
 0003:0007d318       ??_C@_09OCAFCFKL@?5?$HLrd?9sae?$HN@ 100d2318     Zydis.obj
 0003:0007d324       ??_C@_05NOHNADDC@?5?$HLrn?$HN@ 100d2324     Zydis.obj
 0003:0007d32c       ??_C@_09EGHFHKOF@?5?$HLrn?9sae?$HN@ 100d232c     Zydis.obj
 0003:0007d338       ??_C@_05MOAOEPKD@?5?$HLru?$HN@ 100d2338     Zydis.obj
 0003:0007d340       ??_C@_09CDKMLCNB@?5?$HLru?9sae?$HN@ 100d2340     Zydis.obj
 0003:0007d34c       ??_C@_05MFFCAIJO@?5?$HLrz?$HN@ 100d234c     Zydis.obj
 0003:0007d354       ??_C@_09NFOEMCDI@?5?$HLrz?9sae?$HN@ 100d2354     Zydis.obj
 0003:0007d360       ??_C@_06CFKOOABG@?5?$HLsae?$HN@ 100d2360     Zydis.obj
 0003:0007d368       ??_C@_08OKPADNGE@?5?$HLsint8?$HN@ 100d2368     Zydis.obj
 0003:0007d374       ??_C@_09NBGDHPGM@?5?$HLsint16?$HN@ 100d2374     Zydis.obj
 0003:0007d380       ??_C@_08IJCAAIFO@?5?$HLuint8?$HN@ 100d2380     Zydis.obj
 0003:0007d38c       ??_C@_09BHAMHGOL@?5?$HLuint16?$HN@ 100d238c     Zydis.obj
 0003:0007d398       ??_C@_04IHNFOKEG@?5?$HLz?$HN@ 100d2398     Zydis.obj
 0003:0007d3a0       ??_C@_01IHBHIGKO@?0@       100d23a0     Zydis.obj
 0003:0007d3a4       ??_C@_01CLKCMJKC@?5@       100d23a4     Zydis.obj
 0003:0007d3a8       ??_C@_02KEGNLNML@?0?5@     100d23a8     Zydis.obj
 0003:0007d3ac       ??_C@_01JLIPDDHJ@?3@       100d23ac     Zydis.obj
 0003:0007d3b0       ??_C@_04LCENDFFK@?5far@    100d23b0     Zydis.obj
 0003:0007d3b8       ??_C@_01HHGOMJKL@l@        100d23b8     Zydis.obj
 0003:0007d3bc       ??_C@_07MALOAKCI@invalid@  100d23bc     Zydis.obj
 0003:0007d3c4       ??_C@_01ODHLEDKK@?$CI@     100d23c4     Zydis.obj
 0003:0007d3c8       ??_C@_01OHGJGJJP@?$FL@     100d23c8     Zydis.obj
 0003:0007d3cc       ??_C@_01PKGAHCOL@?$CJ@     100d23cc     Zydis.obj
 0003:0007d3d0       ??_C@_01LBDDMOBJ@?$FN@     100d23d0     Zydis.obj
 0003:0007d3d4       ??_C@_01NBENCBCI@?$CK@     100d23d4     Zydis.obj
 0003:0007d3d8       ??_C@_05DHHHCPBE@?5near@   100d23d8     Zydis.obj
 0003:0007d3e0       ??_C@_04NLIMOLKB@bnd?5@    100d23e0     Zydis.obj
 0003:0007d3e8       ??_C@_05NCPMCJGP@lock?5@   100d23e8     Zydis.obj
 0003:0007d3f0       ??_C@_04HHECPAIO@rep?5@    100d23f0     Zydis.obj
 0003:0007d3f8       ??_C@_05OJKCIHFO@repe?5@   100d23f8     Zydis.obj
 0003:0007d400       ??_C@_06LIOODCPM@repne?5@  100d2400     Zydis.obj
 0003:0007d408       ??_C@_07NCIEOJP@rex?4wx?5@ 100d2408     Zydis.obj
 0003:0007d410       ??_C@_08IGCHNLJH@rex?4wxb?5@ 100d2410     Zydis.obj
 0003:0007d41c       ??_C@_07LPMLEJ@rex?4wr?5@  100d241c     Zydis.obj
 0003:0007d424       ??_C@_08OJJKDLPD@rex?4wrb?5@ 100d2424     Zydis.obj
 0003:0007d430       ??_C@_08PICLBNFF@rex?4wrx?5@ 100d2430     Zydis.obj
 0003:0007d43c       ??_C@_09PNGDPDGK@rex?4wrxb?5@ 100d243c     Zydis.obj
 0003:0007d448       ??_C@_04HJFBKBDG@rex?5@    100d2448     Zydis.obj
 0003:0007d450       ??_C@_06BGMFDHIF@rex?4b?5@ 100d2450     Zydis.obj
 0003:0007d458       ??_C@_06HHEBBCD@rex?4x?5@  100d2458     Zydis.obj
 0003:0007d460       ??_C@_07EEPKHIGP@rex?4xb?5@ 100d2460     Zydis.obj
 0003:0007d468       ??_C@_06KODJEPF@rex?4r?5@  100d2468     Zydis.obj
 0003:0007d470       ??_C@_07CLEHJIAL@rex?4rb?5@ 100d2470     Zydis.obj
 0003:0007d478       ??_C@_07DKPGLOKN@rex?4rx?5@ 100d2478     Zydis.obj
 0003:0007d480       ??_C@_08EOMHFEOH@rex?4rxb?5@ 100d2480     Zydis.obj
 0003:0007d48c       ??_C@_06MCIFGBO@rex?4w?5@  100d248c     Zydis.obj
 0003:0007d494       ??_C@_07BMJJGIDJ@rex?4wb?5@ 100d2494     Zydis.obj
 0003:0007d49c       ??_C@_03DEBLIKKF@cs?5@     100d249c     Zydis.obj
 0003:0007d4a0       ??_C@_03KJMMLCBM@ds?5@     100d24a0     Zydis.obj
 0003:0007d4a4       ??_C@_03BBHANFHJ@es?5@     100d24a4     Zydis.obj
 0003:0007d4a8       ??_C@_03DMFHKJH@fs?5@      100d24a8     Zydis.obj
 0003:0007d4ac       ??_C@_03LLHJBNPC@gs?5@     100d24ac     Zydis.obj
 0003:0007d4b0       ??_C@_03GEACNNDK@ss?5@     100d24b0     Zydis.obj
 0003:0007d4b4       ??_C@_09HDOLHHPF@xacquire?5@ 100d24b4     Zydis.obj
 0003:0007d4c0       ??_C@_09KNNKNDPH@xrelease?5@ 100d24c0     Zydis.obj
 0003:0007d4cc       ??_C@_08IGJGFNPB@notrack?5@ 100d24cc     Zydis.obj
 0003:0007d4d8       ??_C@_01FGNFDNOH@?$CF@     100d24d8     Zydis.obj
 0003:0007d4dc       ??_C@_06PGLJLNGH@?5short@  100d24dc     Zydis.obj
 0003:0007d4e4       ??_C@_01OJONOECF@b@        100d24e4     Zydis.obj
 0003:0007d4e8       ??_C@_09LMCBIAMM@byte?5ptr?5@ 100d24e8     Zydis.obj
 0003:0007d4f4       ??_C@_01NOFIACDB@w@        100d24f4     Zydis.obj
 0003:0007d4f8       ??_C@_09MCGEPDKI@word?5ptr?5@ 100d24f8     Zydis.obj
 0003:0007d504       ??_C@_0L@KKGEMPII@dword?5ptr?5@ 100d2504     Zydis.obj
 0003:0007d510       ??_C@_0L@PCAIHGEJ@fword?5ptr?5@ 100d2510     Zydis.obj
 0003:0007d51c       ??_C@_01IIACKFLH@q@        100d251c     Zydis.obj
 0003:0007d520       ??_C@_0L@HFMFKHAB@qword?5ptr?5@ 100d2520     Zydis.obj
 0003:0007d52c       ??_C@_0L@HKNHHICH@tbyte?5ptr?5@ 100d252c     Zydis.obj
 0003:0007d538       ??_C@_01FJMABOPO@x@        100d2538     Zydis.obj
 0003:0007d53c       ??_C@_0N@ODNAMEGM@xmmword?5ptr?5@ 100d253c     Zydis.obj
 0003:0007d54c       ??_C@_01EANLCPLP@y@        100d254c     Zydis.obj
 0003:0007d550       ??_C@_0N@DOEGBNOJ@ymmword?5ptr?5@ 100d2550     Zydis.obj
 0003:0007d560       ??_C@_01GLPGHMHM@z@        100d2560     Zydis.obj
 0003:0007d564       ??_C@_0N@IDIMHBCH@zmmword?5ptr?5@ 100d2564     Zydis.obj
 0003:0007d574       ??_C@_03GINCELHE@aaa@      100d2574     Zydis.obj
 0003:0007d578       ??_C@_03BFKFLPDB@aad@      100d2578     Zydis.obj
 0003:0007d57c       ??_C@_04FAFKALCG@aadd@     100d257c     Zydis.obj
 0003:0007d584       ??_C@_03MEGHAEHI@aam@      100d2584     Zydis.obj
 0003:0007d588       ??_C@_04FNMNIOPA@aand@     100d2588     Zydis.obj
 0003:0007d590       ??_C@_03BACGDLKH@aas@      100d2590     Zydis.obj
 0003:0007d594       ??_C@_03FMCPOLBN@adc@      100d2594     Zydis.obj
 0003:0007d598       ??_C@_04IELMLAMM@adcx@     100d2598     Zydis.obj
 0003:0007d5a0       ??_C@_03BDGOHNNK@add@      100d25a0     Zydis.obj
 0003:0007d5a4       ??_C@_05DPFIJ@addpd@       100d25a4     Zydis.obj
 0003:0007d5ac       ??_C@_05FIAHBBP@addps@     100d25ac     Zydis.obj
 0003:0007d5b4       ??_C@_05CEFELNA@addsd@     100d25b4     Zydis.obj
 0003:0007d5bc       ??_C@_05HMGMPEG@addss@     100d25bc     Zydis.obj
 0003:0007d5c4       ??_C@_08BHNFBKK@addsubpd@  100d25c4     Zydis.obj
 0003:0007d5d0       ??_C@_08EPONFDM@addsubps@  100d25d0     Zydis.obj
 0003:0007d5dc       ??_C@_04INKGEJKI@adox@     100d25dc     Zydis.obj
 0003:0007d5e4       ??_C@_06BNJBDCNN@aesdec@   100d25e4     Zydis.obj
 0003:0007d5ec       ??_C@_0M@IEGINKND@aesdec128kl@ 100d25ec     Zydis.obj
 0003:0007d5f8       ??_C@_0M@FAADADFO@aesdec256kl@ 100d25f8     Zydis.obj
 0003:0007d604       ??_C@_0L@DKDBOHOJ@aesdeclast@ 100d2604     Zydis.obj
 0003:0007d610       ??_C@_0BA@BBLPBFHE@aesdecwide128kl@ 100d2610     Zydis.obj
 0003:0007d620       ??_C@_0BA@MFNEMMPJ@aesdecwide256kl@ 100d2620     Zydis.obj
 0003:0007d630       ??_C@_06KJHILKFJ@aesenc@   100d2630     Zydis.obj
 0003:0007d638       ??_C@_0M@MOHJNCMG@aesenc128kl@ 100d2638     Zydis.obj
 0003:0007d644       ??_C@_0M@BKBCALEL@aesenc256kl@ 100d2644     Zydis.obj
 0003:0007d650       ??_C@_0L@PEJMLDIN@aesenclast@ 100d2650     Zydis.obj
 0003:0007d65c       ??_C@_0BA@LNLLGIPP@aesencwide128kl@ 100d265c     Zydis.obj
 0003:0007d66c       ??_C@_0BA@GJNALBHC@aesencwide256kl@ 100d266c     Zydis.obj
 0003:0007d67c       ??_C@_06OBOILLLI@aesimc@   100d267c     Zydis.obj
 0003:0007d684       ??_C@_0BA@BKBPMOOB@aeskeygenassist@ 100d2684     Zydis.obj
 0003:0007d694       ??_C@_03BOPJPIAM@and@      100d2694     Zydis.obj
 0003:0007d698       ??_C@_04PCNGPDPK@andn@     100d2698     Zydis.obj
 0003:0007d6a0       ??_C@_06JPIHJOLE@andnpd@   100d26a0     Zydis.obj
 0003:0007d6a8       ??_C@_06JKAEBKCC@andnps@   100d26a8     Zydis.obj
 0003:0007d6b0       ??_C@_05EKLDONCI@andpd@    100d26b0     Zydis.obj
 0003:0007d6b8       ??_C@_05EPDAGJLO@andps@    100d26b8     Zydis.obj
 0003:0007d6c0       ??_C@_03DKDCHOM@aor@       100d26c0     Zydis.obj
 0003:0007d6c4       ??_C@_04MBAAHCPD@arpl@     100d26c4     Zydis.obj
 0003:0007d6cc       ??_C@_04GNIGEJAF@axor@     100d26cc     Zydis.obj
 0003:0007d6d4       ??_C@_05LKKJFLLL@bextr@    100d26d4     Zydis.obj
 0003:0007d6dc       ??_C@_07BCLMPALO@blcfill@  100d26dc     Zydis.obj
 0003:0007d6e4       ??_C@_04FFHBMBOD@blci@     100d26e4     Zydis.obj
 0003:0007d6ec       ??_C@_05HHIGPKGH@blcic@    100d26ec     Zydis.obj
 0003:0007d6f4       ??_C@_06MGOMPEEK@blcmsk@   100d26f4     Zydis.obj
 0003:0007d6fc       ??_C@_04OFFMDLDI@blcs@     100d26fc     Zydis.obj
 0003:0007d704       ??_C@_07NLBKFAKD@blendpd@  100d2704     Zydis.obj
 0003:0007d70c       ??_C@_07NOJJNEDF@blendps@  100d270c     Zydis.obj
 0003:0007d714       ??_C@_08HANBBCNB@blendvpd@ 100d2714     Zydis.obj
 0003:0007d720       ??_C@_08HFFCJGEH@blendvps@ 100d2720     Zydis.obj
 0003:0007d72c       ??_C@_07BBGKPCCF@blsfill@  100d272c     Zydis.obj
 0003:0007d734       ??_C@_04EJFHGCJD@blsi@     100d2734     Zydis.obj
 0003:0007d73c       ??_C@_05CHJPKNPI@blsic@    100d273c     Zydis.obj
 0003:0007d744       ??_C@_06KGAMGDMI@blsmsk@   100d2744     Zydis.obj
 0003:0007d74c       ??_C@_04OAGBKJAJ@blsr@     100d274c     Zydis.obj
 0003:0007d754       ??_C@_05BKJOAIKH@bndcl@    100d2754     Zydis.obj
 0003:0007d75c       ??_C@_05CIKIGKCF@bndcn@    100d275c     Zydis.obj
 0003:0007d764       ??_C@_05IBJOKBLP@bndcu@    100d2764     Zydis.obj
 0003:0007d76c       ??_C@_06PJDOBKFD@bndldx@   100d276c     Zydis.obj
 0003:0007d774       ??_C@_05FPEBLDGK@bndmk@    100d2774     Zydis.obj
 0003:0007d77c       ??_C@_06NDFELPFJ@bndmov@   100d277c     Zydis.obj
 0003:0007d784       ??_C@_06ONGCPOOK@bndstx@   100d2784     Zydis.obj
 0003:0007d78c       ??_C@_05PFKAILG@bound@     100d278c     Zydis.obj
 0003:0007d794       ??_C@_03CKIEAFED@bsf@      100d2794     Zydis.obj
 0003:0007d798       ??_C@_03ECKNCBG@bsr@       100d2798     Zydis.obj
 0003:0007d79c       ??_C@_05CFLBCKNG@bswap@    100d279c     Zydis.obj
 0003:0007d7a4       ??_C@_02LOIFFB@bt@         100d27a4     Zydis.obj
 0003:0007d7a8       ??_C@_03FCLMOHID@btc@      100d27a8     Zydis.obj
 0003:0007d7ac       ??_C@_03BGFMEJD@btr@       100d27ac     Zydis.obj
 0003:0007d7b0       ??_C@_03BIHOPFNC@bts@      100d27b0     Zydis.obj
 0003:0007d7b4       ??_C@_04CMFGCGEB@bzhi@     100d27b4     Zydis.obj
 0003:0007d7bc       ??_C@_04OMFAIDPG@call@     100d27bc     Zydis.obj
 0003:0007d7c4       ??_C@_03NMAFIIHB@cbw@      100d27c4     Zydis.obj
 0003:0007d7c8       ??_C@_03IONCFDEF@cdq@      100d27c8     Zydis.obj
 0003:0007d7cc       ??_C@_04BOLCPIKO@cdqe@     100d27cc     Zydis.obj
 0003:0007d7d4       ??_C@_04JBHKNELH@clac@     100d27d4     Zydis.obj
 0003:0007d7dc       ??_C@_03PIDFHCCO@clc@      100d27dc     Zydis.obj
 0003:0007d7e0       ??_C@_03LHHEOEOJ@cld@      100d27e0     Zydis.obj
 0003:0007d7e4       ??_C@_08JFAJBOBM@cldemote@ 100d27e4     Zydis.obj
 0003:0007d7f0       ??_C@_08MOKGNFPE@clevict0@ 100d27f0     Zydis.obj
 0003:0007d7fc       ??_C@_08NHLNOELF@clevict1@ 100d27fc     Zydis.obj
 0003:0007d808       ??_C@_07KNLCLAFM@clflush@  100d2808     Zydis.obj
 0003:0007d810       ??_C@_0L@NIOLJIJG@clflushopt@ 100d2810     Zydis.obj
 0003:0007d81c       ??_C@_04GPBIEAIP@clgi@     100d281c     Zydis.obj
 0003:0007d824       ??_C@_03CNKJKKE@cli@       100d2824     Zydis.obj
 0003:0007d828       ??_C@_08IKAKOMII@clrssbsy@ 100d2828     Zydis.obj
 0003:0007d834       ??_C@_04MBFFKHHN@clts@     100d2834     Zydis.obj
 0003:0007d83c       ??_C@_04HALKDHJB@clui@     100d283c     Zydis.obj
 0003:0007d844       ??_C@_04JAMKDKDE@clwb@     100d2844     Zydis.obj
 0003:0007d84c       ??_C@_06KNHBINNB@clzero@   100d284c     Zydis.obj
 0003:0007d854       ??_C@_03PJPHBIBJ@cmc@      100d2854     Zydis.obj
 0003:0007d858       ??_C@_05MFANGKMG@cmovb@    100d2858     Zydis.obj
 0003:0007d860       ??_C@_06GKEIPFAN@cmovbe@   100d2860     Zydis.obj
 0003:0007d868       ??_C@_05FLIOEHEI@cmovl@    100d2868     Zydis.obj
 0003:0007d870       ??_C@_06GANGNIAH@cmovle@   100d2870     Zydis.obj
 0003:0007d878       ??_C@_06CMBDJKKO@cmovnb@   100d2878     Zydis.obj
 0003:0007d880       ??_C@_07CJMIACJH@cmovnbe@  100d2880     Zydis.obj
 0003:0007d888       ??_C@_06LCJALHCA@cmovnl@   100d2888     Zydis.obj
 0003:0007d890       ??_C@_07CDFGCPJN@cmovnle@  100d2890     Zydis.obj
 0003:0007d898       ??_C@_06JJLNOEOD@cmovno@   100d2898     Zydis.obj
 0003:0007d8a0       ??_C@_06FEOHOKHN@cmovnp@   100d28a0     Zydis.obj
 0003:0007d8a8       ??_C@_06HPMKLJLO@cmovns@   100d28a8     Zydis.obj
 0003:0007d8b0       ??_C@_06KOAIACPH@cmovnz@   100d28b0     Zydis.obj
 0003:0007d8b8       ??_C@_05HAKDBEIL@cmovo@    100d28b8     Zydis.obj
 0003:0007d8c0       ??_C@_05LNPJBKBF@cmovp@    100d28c0     Zydis.obj
 0003:0007d8c8       ??_C@_05JGNEEJNG@cmovs@    100d28c8     Zydis.obj
 0003:0007d8d0       ??_C@_05EHBGPCJP@cmovz@    100d28d0     Zydis.obj
 0003:0007d8d8       ??_C@_03JIBIFJIL@cmp@      100d28d8     Zydis.obj
 0003:0007d8dc       ??_C@_05JPKAPGDL@cmppd@    100d28dc     Zydis.obj
 0003:0007d8e4       ??_C@_05JKCDHCKN@cmpps@    100d28e4     Zydis.obj
 0003:0007d8ec       ??_C@_05MLLMOPOE@cmpsb@    100d28ec     Zydis.obj
 0003:0007d8f4       ??_C@_05JNOGEIGC@cmpsd@    100d28f4     Zydis.obj
 0003:0007d8fc       ??_C@_05KKFDKOHG@cmpsq@    100d28fc     Zydis.obj
 0003:0007d904       ??_C@_05JIGFMMPE@cmpss@    100d2904     Zydis.obj
 0003:0007d90c       ??_C@_05PMAJAJPA@cmpsw@    100d290c     Zydis.obj
 0003:0007d914       ??_C@_07KJLDDDDB@cmpxchg@  100d2914     Zydis.obj
 0003:0007d91c       ??_C@_0L@LMBAAHML@cmpxchg16b@ 100d291c     Zydis.obj
 0003:0007d928       ??_C@_09EDOHCBK@cmpxchg8b@ 100d2928     Zydis.obj
 0003:0007d934       ??_C@_06FBMFLIKJ@comisd@   100d2934     Zydis.obj
 0003:0007d93c       ??_C@_06FEEGDMDP@comiss@   100d293c     Zydis.obj
 0003:0007d944       ??_C@_05CDPJMNMF@cpuid@    100d2944     Zydis.obj
 0003:0007d94c       ??_C@_03EAHOANAB@cqo@      100d294c     Zydis.obj
 0003:0007d950       ??_C@_05KBIBMHFC@crc32@    100d2950     Zydis.obj
 0003:0007d958       ??_C@_08FGJFEIPF@cvtdq2pd@ 100d2958     Zydis.obj
 0003:0007d964       ??_C@_08FDBGMMGD@cvtdq2ps@ 100d2964     Zydis.obj
 0003:0007d970       ??_C@_08EKEIPNDC@cvtpd2dq@ 100d2970     Zydis.obj
 0003:0007d97c       ??_C@_08NDHMGOMH@cvtpd2pi@ 100d297c     Zydis.obj
 0003:0007d988       ??_C@_08GDFBJEBM@cvtpd2ps@ 100d2988     Zydis.obj
 0003:0007d994       ??_C@_08JOECNEDL@cvtpi2pd@ 100d2994     Zydis.obj
 0003:0007d9a0       ??_C@_08JLMBFAKN@cvtpi2ps@ 100d29a0     Zydis.obj
 0003:0007d9ac       ??_C@_08JIIILGKA@cvtps2dq@ 100d29ac     Zydis.obj
 0003:0007d9b8       ??_C@_08LEBCFLBI@cvtps2pd@ 100d29b8     Zydis.obj
 0003:0007d9c4       ??_C@_08BLMCFFF@cvtps2pi@  100d29c4     Zydis.obj
 0003:0007d9d0       ??_C@_08FHKOKCDA@cvtsd2si@ 100d29d0     Zydis.obj
 0003:0007d9dc       ??_C@_08OHIDFIOL@cvtsd2ss@ 100d29dc     Zydis.obj
 0003:0007d9e8       ??_C@_08BKJABIMM@cvtsi2sd@ 100d29e8     Zydis.obj
 0003:0007d9f4       ??_C@_08BPBDJMFK@cvtsi2ss@ 100d29f4     Zydis.obj
 0003:0007da00       ??_C@_08DAMAJHOP@cvtss2sd@ 100d2a00     Zydis.obj
 0003:0007da0c       ??_C@_08IFGOOJKC@cvtss2si@ 100d2a0c     Zydis.obj
 0003:0007da18       ??_C@_09NBGJDONK@cvttpd2dq@ 100d2a18     Zydis.obj
 0003:0007da24       ??_C@_09EIFNKNCP@cvttpd2pi@ 100d2a24     Zydis.obj
 0003:0007da30       ??_C@_09DKJHFEI@cvttps2dq@ 100d2a30     Zydis.obj
 0003:0007da3c       ??_C@_09JKJNOGLN@cvttps2pi@ 100d2a3c     Zydis.obj
 0003:0007da48       ??_C@_09MMIPGBNI@cvttsd2si@ 100d2a48     Zydis.obj
 0003:0007da54       ??_C@_09BOEPCKEK@cvttss2si@ 100d2a54     Zydis.obj
 0003:0007da60       ??_C@_03KHAHKIHI@cwd@      100d2a60     Zydis.obj
 0003:0007da64       ??_C@_04EGPDGBEE@cwde@     100d2a64     Zydis.obj
 0003:0007da6c       ??_C@_03FPAMLLEG@daa@      100d2a6c     Zydis.obj
 0003:0007da70       ??_C@_03CHPIMLJF@das@      100d2a70     Zydis.obj
 0003:0007da74       ??_C@_03GKDDHBBI@dec@      100d2a74     Zydis.obj
 0003:0007da78       ??_C@_05EKJCMADO@delay@    100d2a78     Zydis.obj
 0003:0007da80       ??_C@_03FEJMGOGI@div@      100d2a80     Zydis.obj
 0003:0007da84       ??_C@_05FCEODPJP@divpd@    100d2a84     Zydis.obj
 0003:0007da8c       ??_C@_05FHMNLLAJ@divps@    100d2a8c     Zydis.obj
 0003:0007da94       ??_C@_05FAAIIBMG@divsd@    100d2a94     Zydis.obj
 0003:0007da9c       ??_C@_05FFILAFFA@divss@    100d2a9c     Zydis.obj
 0003:0007daa4       ??_C@_04GLDALPAA@dppd@     100d2aa4     Zydis.obj
 0003:0007daac       ??_C@_04GOLDDLJG@dpps@     100d2aac     Zydis.obj
 0003:0007dab4       ??_C@_04OFFOKNEH@emms@     100d2ab4     Zydis.obj
 0003:0007dabc       ??_C@_05FMEKEJAF@encls@    100d2abc     Zydis.obj
 0003:0007dac4       ??_C@_05KBAOOID@enclu@     100d2ac4     Zydis.obj
 0003:0007dacc       ??_C@_05CBDNLNEA@enclv@    100d2acc     Zydis.obj
 0003:0007dad4       ??_C@_0N@PMHKIBM@encodekey128@ 100d2ad4     Zydis.obj
 0003:0007dae4       ??_C@_0N@IGLODMPJ@encodekey256@ 100d2ae4     Zydis.obj
 0003:0007daf4       ??_C@_07KDKDLHDP@endbr32@  100d2af4     Zydis.obj
 0003:0007dafc       ??_C@_07PDDCNCFC@endbr64@  100d2afc     Zydis.obj
 0003:0007db04       ??_C@_06CFFMEKKL@enqcmd@   100d2b04     Zydis.obj
 0003:0007db0c       ??_C@_07EFDDAMBP@enqcmds@  100d2b0c     Zydis.obj
 0003:0007db14       ??_C@_05IHEOCMON@enter@    100d2b14     Zydis.obj
 0003:0007db1c       ??_C@_09JKKJMDNE@extractps@ 100d2b1c     Zydis.obj
 0003:0007db28       ??_C@_05FKKKKIPJ@extrq@    100d2b28     Zydis.obj
 0003:0007db30       ??_C@_05GDKIIOEP@f2xm1@    100d2b30     Zydis.obj
 0003:0007db38       ??_C@_04ODHECPBC@fabs@     100d2b38     Zydis.obj
 0003:0007db40       ??_C@_04OCHKNHDG@fadd@     100d2b40     Zydis.obj
 0003:0007db48       ??_C@_05OAGHJGLI@faddp@    100d2b48     Zydis.obj
 0003:0007db50       ??_C@_04PONMCJGA@fbld@     100d2b50     Zydis.obj
 0003:0007db58       ??_C@_05HGCPCADO@fbstp@    100d2b58     Zydis.obj
 0003:0007db60       ??_C@_04EEOKGCEP@fchs@     100d2b60     Zydis.obj
 0003:0007db68       ??_C@_06BMFGNME@fcmovb@    100d2b68     Zydis.obj
 0003:0007db70       ??_C@_07IEICFMCG@fcmovbe@  100d2b70     Zydis.obj
 0003:0007db78       ??_C@_06EOIEPLAD@fcmove@   100d2b78     Zydis.obj
 0003:0007db80       ??_C@_07MCNJDDIF@fcmovnb@  100d2b80     Zydis.obj
 0003:0007db88       ??_C@_08IFJKDBHO@fcmovnbe@ 100d2b88     Zydis.obj
 0003:0007db94       ??_C@_07INJIKFEC@fcmovne@  100d2b94     Zydis.obj
 0003:0007db9c       ??_C@_07MHFKLHBD@fcmovnu@  100d2b9c     Zydis.obj
 0003:0007dba4       ??_C@_06EEGOJFC@fcmovu@    100d2ba4     Zydis.obj
 0003:0007dbac       ??_C@_04JFOEELBF@fcom@     100d2bac     Zydis.obj
 0003:0007dbb4       ??_C@_05NJHHNAEO@fcomi@    100d2bb4     Zydis.obj
 0003:0007dbbc       ??_C@_06LOICGCLB@fcomip@   100d2bbc     Zydis.obj
 0003:0007dbc4       ??_C@_05ECHHHJFG@fcomp@    100d2bc4     Zydis.obj
 0003:0007dbcc       ??_C@_06KNHFPKEO@fcompp@   100d2bcc     Zydis.obj
 0003:0007dbd4       ??_C@_04EBKFHEMK@fcos@     100d2bd4     Zydis.obj
 0003:0007dbdc       ??_C@_07HAEGMECA@fdecstp@  100d2bdc     Zydis.obj
 0003:0007dbe4       ??_C@_0O@PEABHPOI@fdisi8087_nop@ 100d2be4     Zydis.obj
 0003:0007dbf4       ??_C@_04KFIIMEIE@fdiv@     100d2bf4     Zydis.obj
 0003:0007dbfc       ??_C@_05MFEPLGAL@fdivp@    100d2bfc     Zydis.obj
 0003:0007dc04       ??_C@_05PHHJNEIJ@fdivr@    100d2c04     Zydis.obj
 0003:0007dc0c       ??_C@_06LLKMDLKG@fdivrp@   100d2c0c     Zydis.obj
 0003:0007dc14       ??_C@_05EMBDBHLO@femms@    100d2c14     Zydis.obj
 0003:0007dc1c       ??_C@_0N@FOOFPFDE@feni8087_nop@ 100d2c1c     Zydis.obj
 0003:0007dc2c       ??_C@_05BBECMOMI@ffree@    100d2c2c     Zydis.obj
 0003:0007dc34       ??_C@_06LKJBHBLK@ffreep@   100d2c34     Zydis.obj
 0003:0007dc3c       ??_C@_05MJGHPKBO@fiadd@    100d2c3c     Zydis.obj
 0003:0007dc44       ??_C@_05LOPJGGDN@ficom@    100d2c44     Zydis.obj
 0003:0007dc4c       ??_C@_06HHOJMMIB@ficomp@   100d2c4c     Zydis.obj
 0003:0007dc54       ??_C@_05IOJFOJKM@fidiv@    100d2c54     Zydis.obj
 0003:0007dc5c       ??_C@_06MCOHGBFO@fidivr@   100d2c5c     Zydis.obj
 0003:0007dc64       ??_C@_04CJNNKOGB@fild@     100d2c64     Zydis.obj
 0003:0007dc6c       ??_C@_05FGIMAGOJ@fimul@    100d2c6c     Zydis.obj
 0003:0007dc74       ??_C@_07HLFGFFCD@fincstp@  100d2c74     Zydis.obj
 0003:0007dc7c       ??_C@_04HEGFFIHN@fist@     100d2c7c     Zydis.obj
 0003:0007dc84       ??_C@_05BPPBBCP@fistp@     100d2c84     Zydis.obj
 0003:0007dc8c       ??_C@_06IDOGBDGC@fisttp@   100d2c8c     Zydis.obj
 0003:0007dc94       ??_C@_05HIMJALML@fisub@    100d2c94     Zydis.obj
 0003:0007dc9c       ??_C@_06BBMHMJEH@fisubr@   100d2c9c     Zydis.obj
 0003:0007dca4       ??_C@_03IAKKBENL@fld@      100d2ca4     Zydis.obj
 0003:0007dca8       ??_C@_04NHNMKGPK@fld1@     100d2ca8     Zydis.obj
 0003:0007dcb0       ??_C@_05FCPJNCEL@fldcw@    100d2cb0     Zydis.obj
 0003:0007dcb8       ??_C@_06KOKFHIJJ@fldenv@   100d2cb8     Zydis.obj
 0003:0007dcc0       ??_C@_06NHOEKBFF@fldl2e@   100d2cc0     Zydis.obj
 0003:0007dcc8       ??_C@_06IEDNICEF@fldl2t@   100d2cc8     Zydis.obj
 0003:0007dcd0       ??_C@_06EIGJIGJN@fldlg2@   100d2cd0     Zydis.obj
 0003:0007dcd8       ??_C@_06EHLILNBC@fldln2@   100d2cd8     Zydis.obj
 0003:0007dce0       ??_C@_05JINIPALN@fldpi@    100d2ce0     Zydis.obj
 0003:0007dce8       ??_C@_04MEFBDADE@fldz@     100d2ce8     Zydis.obj
 0003:0007dcf0       ??_C@_04HNJBCLMB@fmul@     100d2cf0     Zydis.obj
 0003:0007dcf8       ??_C@_05MDCBBKPL@fmulp@    100d2cf8     Zydis.obj
 0003:0007dd00       ??_C@_06LOJDIIGH@fnclex@   100d2d00     Zydis.obj
 0003:0007dd08       ??_C@_06PLIFOOCF@fninit@   100d2d08     Zydis.obj
 0003:0007dd10       ??_C@_04JIOCPPNE@fnop@     100d2d10     Zydis.obj
 0003:0007dd18       ??_C@_06MNBFLGAN@fnsave@   100d2d18     Zydis.obj
 0003:0007dd20       ??_C@_06MIMLAAOI@fnstcw@   100d2d20     Zydis.obj
 0003:0007dd28       ??_C@_07OBOALIBJ@fnstenv@  100d2d28     Zydis.obj
 0003:0007dd30       ??_C@_06NEONKDJI@fnstsw@   100d2d30     Zydis.obj
 0003:0007dd38       ??_C@_06HDLDNKJH@fpatan@   100d2d38     Zydis.obj
 0003:0007dd40       ??_C@_05DGDLCGOC@fprem@    100d2d40     Zydis.obj
 0003:0007dd48       ??_C@_06IIGPLPMA@fprem1@   100d2d48     Zydis.obj
 0003:0007dd50       ??_C@_05DPHEICCB@fptan@    100d2d50     Zydis.obj
 0003:0007dd58       ??_C@_07OGNGBFFO@frndint@  100d2d58     Zydis.obj
 0003:0007dd60       ??_C@_06MILCMPCJ@frstor@   100d2d60     Zydis.obj
 0003:0007dd68       ??_C@_06DAMBGGM@fscale@    100d2d68     Zydis.obj
 0003:0007dd70       ??_C@_0O@LABPCOAO@fsetpm287_nop@ 100d2d70     Zydis.obj
 0003:0007dd80       ??_C@_04OKFNDDPL@fsin@     100d2d80     Zydis.obj
 0003:0007dd88       ??_C@_07DGCKCKGH@fsincos@  100d2d88     Zydis.obj
 0003:0007dd90       ??_C@_05OBEHOPDB@fsqrt@    100d2d90     Zydis.obj
 0003:0007dd98       ??_C@_03NNBCOCMH@fst@      100d2d98     Zydis.obj
 0003:0007dd9c       ??_C@_04CKOCDMAH@fstp@     100d2d9c     Zydis.obj
 0003:0007dda4       ??_C@_07LBFKIGKP@fstpnce@  100d2da4     Zydis.obj
 0003:0007ddac       ??_C@_04FDNECGOD@fsub@     100d2dac     Zydis.obj
 0003:0007ddb4       ??_C@_05BGGPBOBC@fsubp@    100d2db4     Zydis.obj
 0003:0007ddbc       ??_C@_05CEFJHMJA@fsubr@    100d2dbc     Zydis.obj
 0003:0007ddc4       ??_C@_06NPBELDMO@fsubrp@   100d2dc4     Zydis.obj
 0003:0007ddcc       ??_C@_04NGBGNHDP@ftst@     100d2dcc     Zydis.obj
 0003:0007ddd4       ??_C@_05BLOJBMLO@fucom@    100d2dd4     Zydis.obj
 0003:0007dddc       ??_C@_06JIPNKHHJ@fucomi@   100d2ddc     Zydis.obj
 0003:0007dde4       ??_C@_07GHOENMJ@fucomip@   100d2de4     Zydis.obj
 0003:0007ddec       ??_C@_06DPNAOGB@fucomp@    100d2dec     Zydis.obj
 0003:0007ddf4       ??_C@_07BFIJNFDG@fucompp@  100d2df4     Zydis.obj
 0003:0007ddfc       ??_C@_05FEKNFCPP@fwait@    100d2dfc     Zydis.obj
 0003:0007de04       ??_C@_04BIGCLGIB@fxam@     100d2e04     Zydis.obj
 0003:0007de0c       ??_C@_04GGJBJGKK@fxch@     100d2e0c     Zydis.obj
 0003:0007de14       ??_C@_07BBJJIBJB@fxrstor@  100d2e14     Zydis.obj
 0003:0007de1c       ??_C@_09GJCJHDKB@fxrstor64@ 100d2e1c     Zydis.obj
 0003:0007de28       ??_C@_06BIJKFHIL@fxsave@   100d2e28     Zydis.obj
 0003:0007de30       ??_C@_08LGLEPHJI@fxsave64@ 100d2e30     Zydis.obj
 0003:0007de3c       ??_C@_07MCCHLCHD@fxtract@  100d2e3c     Zydis.obj
 0003:0007de44       ??_C@_05NFKLLKBO@fyl2x@    100d2e44     Zydis.obj
 0003:0007de4c       ??_C@_07GNFJNPAE@fyl2xp1@  100d2e4c     Zydis.obj
 0003:0007de54       ??_C@_06BKPLENB@getsec@    100d2e54     Zydis.obj
 0003:0007de5c       ??_C@_0BB@KCJGNBIA@gf2p8affineinvqb@ 100d2e5c     Zydis.obj
 0003:0007de70       ??_C@_0O@KGFFEADP@gf2p8affineqb@ 100d2e70     Zydis.obj
 0003:0007de80       ??_C@_09OINLKJHG@gf2p8mulb@ 100d2e80     Zydis.obj
 0003:0007de8c       ??_C@_06JEPEIJNG@haddpd@   100d2e8c     Zydis.obj
 0003:0007de94       ??_C@_06JBHHANEA@haddps@   100d2e94     Zydis.obj
 0003:0007de9c       ??_C@_03CKLHHBLJ@hlt@      100d2e9c     Zydis.obj
 0003:0007dea0       ??_C@_06LBDHMMLP@hreset@   100d2ea0     Zydis.obj
 0003:0007dea8       ??_C@_06KCABMLKI@hsubpd@   100d2ea8     Zydis.obj
 0003:0007deb0       ??_C@_06KHICEPDO@hsubps@   100d2eb0     Zydis.obj
 0003:0007deb8       ??_C@_04CHNIFDFF@idiv@     100d2eb8     Zydis.obj
 0003:0007dec0       ??_C@_04PPMBLMBA@imul@     100d2ec0     Zydis.obj
 0003:0007dec8       ??_C@_02LMMGJAGL@in@       100d2ec8     Zydis.obj
 0003:0007decc       ??_C@_03JEAMEGCE@inc@      100d2ecc     Zydis.obj
 0003:0007ded0       ??_C@_07JCAIICNE@incsspd@  100d2ed0     Zydis.obj
 0003:0007ded8       ??_C@_07KFLNGEMA@incsspq@  100d2ed8     Zydis.obj
 0003:0007dee0       ??_C@_04HHHKECMC@insb@     100d2ee0     Zydis.obj
 0003:0007dee8       ??_C@_04CBCAOFEE@insd@     100d2ee8     Zydis.obj
 0003:0007def0       ??_C@_08JOECPMHJ@insertps@ 100d2ef0     Zydis.obj
 0003:0007defc       ??_C@_07PGHOMLMA@insertq@  100d2efc     Zydis.obj
 0003:0007df04       ??_C@_04EAMPKENG@insw@     100d2f04     Zydis.obj
 0003:0007df0c       ??_C@_03JBIPMCLC@int@      100d2f0c     Zydis.obj
 0003:0007df10       ??_C@_04ODKDFKNA@int1@     100d2f10     Zydis.obj
 0003:0007df18       ??_C@_04NBJFDIFC@int3@     100d2f18     Zydis.obj
 0003:0007df20       ??_C@_04MHJLCKAK@into@     100d2f20     Zydis.obj
 0003:0007df28       ??_C@_04CHOLCHKP@invd@     100d2f28     Zydis.obj
 0003:0007df30       ??_C@_06CLILIBGB@invept@   100d2f30     Zydis.obj
 0003:0007df38       ??_C@_06DHGMIPHJ@invlpg@   100d2f38     Zydis.obj
 0003:0007df40       ??_C@_07FFAIPPPB@invlpga@  100d2f40     Zydis.obj
 0003:0007df48       ??_C@_07HOCFKMDC@invlpgb@  100d2f48     Zydis.obj
 0003:0007df50       ??_C@_07MFFNKEEM@invpcid@  100d2f50     Zydis.obj
 0003:0007df58       ??_C@_07ILBKJJN@invvpid@   100d2f58     Zydis.obj
 0003:0007df60       ??_C@_04GJIGMAPA@iret@     100d2f60     Zydis.obj
 0003:0007df68       ??_C@_05LMEFNKHP@iretd@    100d2f68     Zydis.obj
 0003:0007df70       ??_C@_05ILPADMGL@iretq@    100d2f70     Zydis.obj
 0003:0007df78       ??_C@_02BCDFGBDO@jb@       100d2f78     Zydis.obj
 0003:0007df7c       ??_C@_03NJPJLHCI@jbe@      100d2f7c     Zydis.obj
 0003:0007df80       ??_C@_04EMPOJHHH@jcxz@     100d2f80     Zydis.obj
 0003:0007df88       ??_C@_05BACBHKCE@jecxz@    100d2f88     Zydis.obj
 0003:0007df90       ??_C@_05IKLOPHCJ@jknzd@    100d2f90     Zydis.obj
 0003:0007df98       ??_C@_04FOIPFECJ@jkzd@     100d2f98     Zydis.obj
 0003:0007dfa0       ??_C@_02IMLGEMLA@jl@       100d2fa0     Zydis.obj
 0003:0007dfa4       ??_C@_03NDGHJKCC@jle@      100d2fa4     Zydis.obj
 0003:0007dfa8       ??_C@_03OFBABGAB@jmp@      100d2fa8     Zydis.obj
 0003:0007dfac       ??_C@_03JPKCNIIL@jnb@      100d2fac     Zydis.obj
 0003:0007dfb0       ??_C@_04GCHPGHJC@jnbe@     100d2fb0     Zydis.obj
 0003:0007dfb8       ??_C@_03BCBPFAF@jnl@       100d2fb8     Zydis.obj
 0003:0007dfbc       ??_C@_04GIOBEKJI@jnle@     100d2fbc     Zydis.obj
 0003:0007dfc4       ??_C@_03CKAMKGMG@jno@      100d2fc4     Zydis.obj
 0003:0007dfc8       ??_C@_03OHFGKIFI@jnp@      100d2fc8     Zydis.obj
 0003:0007dfcc       ??_C@_03MMHLPLJL@jns@      100d2fcc     Zydis.obj
 0003:0007dfd0       ??_C@_03BNLJEANC@jnz@      100d2fd0     Zydis.obj
 0003:0007dfd4       ??_C@_02KHJLBPHD@jo@       100d2fd4     Zydis.obj
 0003:0007dfd8       ??_C@_02GKMBBBON@jp@       100d2fd8     Zydis.obj
 0003:0007dfdc       ??_C@_05MCOBDBLG@jrcxz@    100d2fdc     Zydis.obj
 0003:0007dfe4       ??_C@_02EBOMECCO@js@       100d2fe4     Zydis.obj
 0003:0007dfe8       ??_C@_02JACOPJGH@jz@       100d2fe8     Zydis.obj
 0003:0007dfec       ??_C@_05CEANPFLF@kaddb@    100d2fec     Zydis.obj
 0003:0007dff4       ??_C@_05HCFHFCDD@kaddd@    100d2ff4     Zydis.obj
 0003:0007dffc       ??_C@_05EFOCLECH@kaddq@    100d2ffc     Zydis.obj
 0003:0007e004       ??_C@_05BDLIBDKB@kaddw@    100d3004     Zydis.obj
 0003:0007e00c       ??_C@_04BHHNJGFB@kand@     100d300c     Zydis.obj
 0003:0007e014       ??_C@_05ELLABFNB@kandb@    100d3014     Zydis.obj
 0003:0007e01c       ??_C@_05BNOKLCFH@kandd@    100d301c     Zydis.obj
 0003:0007e024       ??_C@_05OHAFFKNN@kandn@    100d3024     Zydis.obj
 0003:0007e02c       ??_C@_06KPEOKCBG@kandnb@   100d302c     Zydis.obj
 0003:0007e034       ??_C@_06PJBEAFJA@kandnd@   100d3034     Zydis.obj
 0003:0007e03c       ??_C@_06MOKBODIE@kandnq@   100d303c     Zydis.obj
 0003:0007e044       ??_C@_06OFIMLAEH@kandnr@   100d3044     Zydis.obj
 0003:0007e04c       ??_C@_06JIPLEEAC@kandnw@   100d304c     Zydis.obj
 0003:0007e054       ??_C@_05CKFPFEED@kandq@    100d3054     Zydis.obj
 0003:0007e05c       ??_C@_05HMAFPDMF@kandw@    100d305c     Zydis.obj
 0003:0007e064       ??_C@_08HFHALNIO@kconcath@ 100d3064     Zydis.obj
 0003:0007e070       ??_C@_08BBBMHIIK@kconcatl@ 100d3070     Zydis.obj
 0003:0007e07c       ??_C@_08BBLFGBCO@kextract@ 100d307c     Zydis.obj
 0003:0007e088       ??_C@_0L@PKBKDHO@kmerge2l1h@ 100d3088     Zydis.obj
 0003:0007e094       ??_C@_0L@GLMNGGHK@kmerge2l1l@ 100d3094     Zydis.obj
 0003:0007e0a0       ??_C@_04CEJNDDAN@kmov@     100d30a0     Zydis.obj
 0003:0007e0a8       ??_C@_05CJFOOIKL@kmovb@    100d30a8     Zydis.obj
 0003:0007e0b0       ??_C@_05HPAEEPCN@kmovd@    100d30b0     Zydis.obj
 0003:0007e0b8       ??_C@_05EILBKJDJ@kmovq@    100d30b8     Zydis.obj
 0003:0007e0c0       ??_C@_05BOOLAOLP@kmovw@    100d30c0     Zydis.obj
 0003:0007e0c8       ??_C@_04EBOPOGB@knot@      100d30c8     Zydis.obj
 0003:0007e0d0       ??_C@_05GNHKEGBF@knotb@    100d30d0     Zydis.obj
 0003:0007e0d8       ??_C@_05DLCAOBJD@knotd@    100d30d8     Zydis.obj
 0003:0007e0e0       ??_C@_05MJFAHIH@knotq@     100d30e0     Zydis.obj
 0003:0007e0e8       ??_C@_05FKMPKAAB@knotw@    100d30e8     Zydis.obj
 0003:0007e0f0       ??_C@_03GMBOMHII@kor@      100d30f0     Zydis.obj
 0003:0007e0f4       ??_C@_04LEMEBMPA@korb@     100d30f4     Zydis.obj
 0003:0007e0fc       ??_C@_04OCJOLLHG@kord@     100d30fc     Zydis.obj
 0003:0007e104       ??_C@_04NFCLFNGC@korq@     100d3104     Zydis.obj
 0003:0007e10c       ??_C@_07DBAGCHHI@kortest@  100d310c     Zydis.obj
 0003:0007e114       ??_C@_08JCEPGAM@kortestb@  100d3114     Zydis.obj
 0003:0007e120       ??_C@_08FPHOFBIK@kortestd@ 100d3120     Zydis.obj
 0003:0007e12c       ??_C@_08GIMLLHJO@kortestq@ 100d312c     Zydis.obj
 0003:0007e138       ??_C@_08DOJBBABI@kortestw@ 100d3138     Zydis.obj
 0003:0007e144       ??_C@_04IDHBPKOE@korw@     100d3144     Zydis.obj
 0003:0007e14c       ??_C@_08JGJELAAM@kshiftlb@ 100d314c     Zydis.obj
 0003:0007e158       ??_C@_08MAMOBHIK@kshiftld@ 100d3158     Zydis.obj
 0003:0007e164       ??_C@_08PHHLPBJO@kshiftlq@ 100d3164     Zydis.obj
 0003:0007e170       ??_C@_08KBCBFGBI@kshiftlw@ 100d3170     Zydis.obj
 0003:0007e17c       ??_C@_08IACMDOHG@kshiftrb@ 100d317c     Zydis.obj
 0003:0007e188       ??_C@_08NGHGJJPA@kshiftrd@ 100d3188     Zydis.obj
 0003:0007e194       ??_C@_08OBMDHPOE@kshiftrq@ 100d3194     Zydis.obj
 0003:0007e1a0       ??_C@_08LHJJNIGC@kshiftrw@ 100d31a0     Zydis.obj
 0003:0007e1ac       ??_C@_06FHPKEJKP@ktestb@   100d31ac     Zydis.obj
 0003:0007e1b4       ??_C@_06BKAOOCJ@ktestd@    100d31b4     Zydis.obj
 0003:0007e1bc       ??_C@_06DGBFAIDN@ktestq@   100d31bc     Zydis.obj
 0003:0007e1c4       ??_C@_06GAEPKPLL@ktestw@   100d31c4     Zydis.obj
 0003:0007e1cc       ??_C@_08OKEDNMEF@kunpckbw@ 100d31cc     Zydis.obj
 0003:0007e1d8       ??_C@_08LIJEAHHB@kunpckdq@ 100d31d8     Zydis.obj
 0003:0007e1e4       ??_C@_08JBEBPMEM@kunpckwd@ 100d31e4     Zydis.obj
 0003:0007e1f0       ??_C@_05GANHBNJC@kxnor@    100d31f0     Zydis.obj
 0003:0007e1f8       ??_C@_06EJKKCMFA@kxnorb@   100d31f8     Zydis.obj
 0003:0007e200       ??_C@_06BPPAILNG@kxnord@   100d3200     Zydis.obj
 0003:0007e208       ??_C@_06CIEFGNMC@kxnorq@   100d3208     Zydis.obj
 0003:0007e210       ??_C@_06HOBPMKEE@kxnorw@   100d3210     Zydis.obj
 0003:0007e218       ??_C@_04CHDGFBKE@kxor@     100d3218     Zydis.obj
 0003:0007e220       ??_C@_05IGFHFIIF@kxorb@    100d3220     Zydis.obj
 0003:0007e228       ??_C@_05NAANPPAD@kxord@    100d3228     Zydis.obj
 0003:0007e230       ??_C@_05OHLIBJBH@kxorq@    100d3230     Zydis.obj
 0003:0007e238       ??_C@_05LBOCLOJB@kxorw@    100d3238     Zydis.obj
 0003:0007e240       ??_C@_04JDOGFEHB@lahf@     100d3240     Zydis.obj
 0003:0007e248       ??_C@_03PLFHNCDL@lar@      100d3248     Zydis.obj
 0003:0007e24c       ??_C@_05OOIGKPHA@lddqu@    100d324c     Zydis.obj
 0003:0007e254       ??_C@_07HNIFNPIO@ldmxcsr@  100d3254     Zydis.obj
 0003:0007e25c       ??_C@_03OEIHCBJB@lds@      100d325c     Zydis.obj
 0003:0007e260       ??_C@_09IBIEBAIA@ldtilecfg@ 100d3260     Zydis.obj
 0003:0007e26c       ??_C@_03JNLBDLHF@lea@      100d326c     Zydis.obj
 0003:0007e270       ??_C@_05KLLFHCCG@leave@    100d3270     Zydis.obj
 0003:0007e278       ??_C@_03OFEFELKG@les@      100d3278     Zydis.obj
 0003:0007e27c       ??_C@_06CIBIHIMB@lfence@   100d327c     Zydis.obj
 0003:0007e284       ??_C@_03OHADPFPP@lfs@      100d3284     Zydis.obj
 0003:0007e288       ??_C@_04MHGDICBK@lgdt@     100d3288     Zydis.obj
 0003:0007e290       ??_C@_03OGMBJPMI@lgs@      100d3290     Zydis.obj
 0003:0007e294       ??_C@_04CHLMPFCJ@lidt@     100d3294     Zydis.obj
 0003:0007e29c       ??_C@_04BAGCAFBL@lldt@     100d329c     Zydis.obj
 0003:0007e2a4       ??_C@_06GMCECJCO@llwpcb@   100d32a4     Zydis.obj
 0003:0007e2ac       ??_C@_04JKJKIEEI@lmsw@     100d32ac     Zydis.obj
 0003:0007e2b4       ??_C@_09PADCMOK@loadiwkey@ 100d32b4     Zydis.obj
 0003:0007e2c0       ??_C@_05JPFBMOJJ@lodsb@    100d32c0     Zydis.obj
 0003:0007e2c8       ??_C@_05MJALGJBP@lodsd@    100d32c8     Zydis.obj
 0003:0007e2d0       ??_C@_05POLOIPAL@lodsq@    100d32d0     Zydis.obj
 0003:0007e2d8       ??_C@_05KIOECIIN@lodsw@    100d32d8     Zydis.obj
 0003:0007e2e0       ??_C@_04GKOOIABA@loop@     100d32e0     Zydis.obj
 0003:0007e2e8       ??_C@_05FFHGBAG@loope@     100d32e8     Zydis.obj
 0003:0007e2f0       ??_C@_06PNLJICFH@loopne@   100d32f0     Zydis.obj
 0003:0007e2f8       ??_C@_03DALEJKPK@lsl@      100d32f8     Zydis.obj
 0003:0007e2fc       ??_C@_03PNOOJEGE@lss@      100d32fc     Zydis.obj
 0003:0007e300       ??_C@_03OBLKLDKA@ltr@      100d3300     Zydis.obj
 0003:0007e304       ??_C@_06MBAFKPDA@lwpins@   100d3304     Zydis.obj
 0003:0007e30c       ??_C@_06PHJKBFK@lwpval@    100d330c     Zydis.obj
 0003:0007e314       ??_C@_05KCOAGLCG@lzcnt@    100d3314     Zydis.obj
 0003:0007e31c       ??_C@_0L@KDNMNDNK@maskmovdqu@ 100d331c     Zydis.obj
 0003:0007e328       ??_C@_08HDJHBAFE@maskmovq@ 100d3328     Zydis.obj
 0003:0007e334       ??_C@_05KFOOFCKF@maxpd@    100d3334     Zydis.obj
 0003:0007e33c       ??_C@_05KAGNNGDD@maxps@    100d333c     Zydis.obj
 0003:0007e344       ??_C@_05KHKIOMPM@maxsd@    100d3344     Zydis.obj
 0003:0007e34c       ??_C@_05KCCLGIGK@maxss@    100d334c     Zydis.obj
 0003:0007e354       ??_C@_07DGHEKOHE@mcommit@  100d3354     Zydis.obj
 0003:0007e35c       ??_C@_06IOGPHDHF@mfence@   100d335c     Zydis.obj
 0003:0007e364       ??_C@_05OAOMBBCH@minpd@    100d3364     Zydis.obj
 0003:0007e36c       ??_C@_05OFGPJFLB@minps@    100d336c     Zydis.obj
 0003:0007e374       ??_C@_05OCKKKPHO@minsd@    100d3374     Zydis.obj
 0003:0007e37c       ??_C@_05OHCJCLOI@minss@    100d337c     Zydis.obj
 0003:0007e384       ??_C@_07LAMOHCEE@monitor@  100d3384     Zydis.obj
 0003:0007e38c       ??_C@_08JGOHLIAF@monitorx@ 100d338c     Zydis.obj
 0003:0007e398       ??_C@_07MAFPCABL@montmul@  100d3398     Zydis.obj
 0003:0007e3a0       ??_C@_03CNBJFNFA@mov@      100d33a0     Zydis.obj
 0003:0007e3a4       ??_C@_06NBDIPDNB@movapd@   100d33a4     Zydis.obj
 0003:0007e3ac       ??_C@_06NELLHHEH@movaps@   100d33ac     Zydis.obj
 0003:0007e3b4       ??_C@_05PMLINNKI@movbe@    100d33b4     Zydis.obj
 0003:0007e3bc       ??_C@_04GKNHOGAK@movd@     100d33bc     Zydis.obj
 0003:0007e3c4       ??_C@_07NEEFCFLI@movddup@  100d33c4     Zydis.obj
 0003:0007e3cc       ??_C@_09KDHAKIPE@movdir64b@ 100d33cc     Zydis.obj
 0003:0007e3d8       ??_C@_07LIGAECPI@movdiri@  100d33d8     Zydis.obj
 0003:0007e3e0       ??_C@_07NPEMCIBB@movdq2q@  100d33e0     Zydis.obj
 0003:0007e3e8       ??_C@_06JKFDJNJB@movdqa@   100d33e8     Zydis.obj
 0003:0007e3f0       ??_C@_06LEPNEKME@movdqu@   100d33f0     Zydis.obj
 0003:0007e3f8       ??_C@_07PJOHHBHO@movhlps@  100d33f8     Zydis.obj
 0003:0007e400       ??_C@_06KMDALMFL@movhpd@   100d3400     Zydis.obj
 0003:0007e408       ??_C@_06KJLDDIMN@movhps@   100d3408     Zydis.obj
 0003:0007e410       ??_C@_07IDAFEAOJ@movlhps@  100d3410     Zydis.obj
 0003:0007e418       ??_C@_06CDFCCLAM@movlpd@   100d3418     Zydis.obj
 0003:0007e420       ??_C@_06CGNBKPJK@movlps@   100d3420     Zydis.obj
 0003:0007e428       ??_C@_08IBPGOKMO@movmskpd@ 100d3428     Zydis.obj
 0003:0007e434       ??_C@_08IEHFGOFI@movmskps@ 100d3434     Zydis.obj
 0003:0007e440       ??_C@_07MKBDJCIA@movntdq@  100d3440     Zydis.obj
 0003:0007e448       ??_C@_08JBJEMKFE@movntdqa@ 100d3448     Zydis.obj
 0003:0007e454       ??_C@_06DLPMDFBG@movnti@   100d3454     Zydis.obj
 0003:0007e45c       ??_C@_07OGIJHPDI@movntpd@  100d345c     Zydis.obj
 0003:0007e464       ??_C@_07ODAKPLKO@movntps@  100d3464     Zydis.obj
 0003:0007e46c       ??_C@_06LJOHKNEP@movntq@   100d346c     Zydis.obj
 0003:0007e474       ??_C@_07OEMPMBGB@movntsd@  100d3474     Zydis.obj
 0003:0007e47c       ??_C@_07OBEMEFPH@movntss@  100d347c     Zydis.obj
 0003:0007e484       ??_C@_04FNGCAABO@movq@     100d3484     Zydis.obj
 0003:0007e48c       ??_C@_07JGNMJFDC@movq2dq@  100d348c     Zydis.obj
 0003:0007e494       ??_C@_05KOBNICCI@movsb@    100d3494     Zydis.obj
 0003:0007e49c       ??_C@_05PIEHCFKO@movsd@    100d349c     Zydis.obj
 0003:0007e4a4       ??_C@_08NPBMCKFO@movshdup@ 100d34a4     Zydis.obj
 0003:0007e4b0       ??_C@_08CKJMIMJO@movsldup@ 100d34b0     Zydis.obj
 0003:0007e4bc       ??_C@_05MPPCMDLK@movsq@    100d34bc     Zydis.obj
 0003:0007e4c4       ??_C@_05PNMEKBDI@movss@    100d34c4     Zydis.obj
 0003:0007e4cc       ??_C@_05JJKIGEDM@movsw@    100d34cc     Zydis.obj
 0003:0007e4d4       ??_C@_05BODAHIPD@movsx@    100d34d4     Zydis.obj
 0003:0007e4dc       ??_C@_06CFDLDNHN@movsxd@   100d34dc     Zydis.obj
 0003:0007e4e4       ??_C@_06OEDDDBJ@movupd@    100d34e4     Zydis.obj
 0003:0007e4ec       ??_C@_06LMALHIP@movups@    100d34ec     Zydis.obj
 0003:0007e4f4       ??_C@_05BBOBEDHM@movzx@    100d34f4     Zydis.obj
 0003:0007e4fc       ??_C@_07ILNGPEGO@mpsadbw@  100d34fc     Zydis.obj
 0003:0007e504       ??_C@_03IMIFIBCN@mul@      100d3504     Zydis.obj
 0003:0007e508       ??_C@_05OPPFKDCP@mulpd@    100d3508     Zydis.obj
 0003:0007e510       ??_C@_05OKHGCHLJ@mulps@    100d3510     Zydis.obj
 0003:0007e518       ??_C@_05ONLDBNHG@mulsd@    100d3518     Zydis.obj
 0003:0007e520       ??_C@_05OIDAJJOA@mulss@    100d3520     Zydis.obj
 0003:0007e528       ??_C@_04KCLFCKAK@mulx@     100d3528     Zydis.obj
 0003:0007e530       ??_C@_05DOGKKCDM@mwait@    100d3530     Zydis.obj
 0003:0007e538       ??_C@_06MILHOFNL@mwaitx@   100d3538     Zydis.obj
 0003:0007e540       ??_C@_03GBOCFEHI@neg@      100d3540     Zydis.obj
 0003:0007e544       ??_C@_03GJPGFFDI@nop@      100d3544     Zydis.obj
 0003:0007e548       ??_C@_03NJKJADM@not@       100d3548     Zydis.obj
 0003:0007e54c       ??_C@_02FODMLBIE@or@       100d354c     Zydis.obj
 0003:0007e550       ??_C@_04LGOJEGJK@orpd@     100d3550     Zydis.obj
 0003:0007e558       ??_C@_04LDGKMCAM@orps@     100d3558     Zydis.obj
 0003:0007e560       ??_C@_03KEJHNBPP@out@      100d3560     Zydis.obj
 0003:0007e564       ??_C@_05GDIMGEIL@outsb@    100d3564     Zydis.obj
 0003:0007e56c       ??_C@_05DFNGMDAN@outsd@    100d356c     Zydis.obj
 0003:0007e574       ??_C@_05FEDJICJP@outsw@    100d3574     Zydis.obj
 0003:0007e57c       ??_C@_05HBBOONME@pabsb@    100d357c     Zydis.obj
 0003:0007e584       ??_C@_05CHEEEKEC@pabsd@    100d3584     Zydis.obj
 0003:0007e58c       ??_C@_05EGKLALNA@pabsw@    100d358c     Zydis.obj
 0003:0007e594       ??_C@_08MFCBDIOA@packssdw@ 100d3594     Zydis.obj
 0003:0007e5a0       ??_C@_08OMPEMDNN@packsswb@ 100d35a0     Zydis.obj
 0003:0007e5ac       ??_C@_08EKGBMNEA@packusdw@ 100d35ac     Zydis.obj
 0003:0007e5b8       ??_C@_08GDLEDGHN@packuswb@ 100d35b8     Zydis.obj
 0003:0007e5c4       ??_C@_05ENBMAHON@paddb@    100d35c4     Zydis.obj
 0003:0007e5cc       ??_C@_05BLEGKAGL@paddd@    100d35cc     Zydis.obj
 0003:0007e5d4       ??_C@_05CMPDEGHP@paddq@    100d35d4     Zydis.obj
 0003:0007e5dc       ??_C@_06JENJECKA@paddsb@   100d35dc     Zydis.obj
 0003:0007e5e4       ??_C@_06KDGMKELE@paddsw@   100d35e4     Zydis.obj
 0003:0007e5ec       ??_C@_07LJAGOFBE@paddusb@  100d35ec     Zydis.obj
 0003:0007e5f4       ??_C@_07IOLDADAA@paddusw@  100d35f4     Zydis.obj
 0003:0007e5fc       ??_C@_05HKKJOBPJ@paddw@    100d35fc     Zydis.obj
 0003:0007e604       ??_C@_07JOJBOKO@palignr@   100d3604     Zydis.obj
 0003:0007e60c       ??_C@_04ENDAMC@pand@       100d360c     Zydis.obj
 0003:0007e614       ??_C@_05IOBEKIIF@pandn@    100d3614     Zydis.obj
 0003:0007e61c       ??_C@_05PDJBBECF@pause@    100d361c     Zydis.obj
 0003:0007e624       ??_C@_05LFEKCGKA@pavgb@    100d3624     Zydis.obj
 0003:0007e62c       ??_C@_07LALIDMFE@pavgusb@  100d362c     Zydis.obj
 0003:0007e634       ??_C@_05ICPPMALE@pavgw@    100d3634     Zydis.obj
 0003:0007e63c       ??_C@_08PKEFIDIF@pblendvb@ 100d363c     Zydis.obj
 0003:0007e648       ??_C@_07PABJNHCL@pblendw@  100d3648     Zydis.obj
 0003:0007e650       ??_C@_06EKMINKGH@pbndkb@   100d3650     Zydis.obj
 0003:0007e658       ??_C@_09EPKDNNCN@pclmulqdq@ 100d3658     Zydis.obj
 0003:0007e664       ??_C@_07MPGLBHEG@pcmpeqb@  100d3664     Zydis.obj
 0003:0007e66c       ??_C@_07JJDBLAMA@pcmpeqd@  100d366c     Zydis.obj
 0003:0007e674       ??_C@_07KOIEFGNE@pcmpeqq@  100d3674     Zydis.obj
 0003:0007e67c       ??_C@_07PINOPBFC@pcmpeqw@  100d367c     Zydis.obj
 0003:0007e684       ??_C@_09MJAIJFNM@pcmpestri@ 100d3684     Zydis.obj
 0003:0007e690       ??_C@_09KNGEFANI@pcmpestrm@ 100d3690     Zydis.obj
 0003:0007e69c       ??_C@_07GDKJBNCG@pcmpgtb@  100d369c     Zydis.obj
 0003:0007e6a4       ??_C@_07DFPDLKKA@pcmpgtd@  100d36a4     Zydis.obj
 0003:0007e6ac       ??_C@_07CEGFMLE@pcmpgtq@   100d36ac     Zydis.obj
 0003:0007e6b4       ??_C@_07FEBMPLDC@pcmpgtw@  100d36b4     Zydis.obj
 0003:0007e6bc       ??_C@_09LOMKFFKH@pcmpistri@ 100d36bc     Zydis.obj
 0003:0007e6c8       ??_C@_09NKKGJAKD@pcmpistrm@ 100d36c8     Zydis.obj
 0003:0007e6d4       ??_C@_07NBMKIKIO@pcommit@  100d36d4     Zydis.obj
 0003:0007e6dc       ??_C@_07CAIEDGMN@pconfig@  100d36dc     Zydis.obj
 0003:0007e6e4       ??_C@_04BFGIPIEE@pdep@     100d36e4     Zydis.obj
 0003:0007e6ec       ??_C@_04NNEGGKAG@pext@     100d36ec     Zydis.obj
 0003:0007e6f4       ??_C@_06PLIDEHJN@pextrb@   100d36f4     Zydis.obj
 0003:0007e6fc       ??_C@_06KNNJOABL@pextrd@   100d36fc     Zydis.obj
 0003:0007e704       ??_C@_06JKGMAGAP@pextrq@   100d3704     Zydis.obj
 0003:0007e70c       ??_C@_06MMDGKBIJ@pextrw@   100d370c     Zydis.obj
 0003:0007e714       ??_C@_05EPNILPFG@pf2id@    100d3714     Zydis.obj
 0003:0007e71c       ??_C@_05CODHPOME@pf2iw@    100d371c     Zydis.obj
 0003:0007e724       ??_C@_05NELGAMAL@pfacc@    100d3724     Zydis.obj
 0003:0007e72c       ??_C@_05JOLIIMEJ@pfadd@    100d372c     Zydis.obj
 0003:0007e734       ??_C@_07CCCOOHDB@pfcmpeq@  100d3734     Zydis.obj
 0003:0007e73c       ??_C@_07PAEOEAK@pfcmpge@   100d373c     Zydis.obj
 0003:0007e744       ??_C@_07FMNNMHBK@pfcmpgt@  100d3744     Zydis.obj
 0003:0007e74c       ??_C@_07HKNCCKFF@pfcpit1@  100d374c     Zydis.obj
 0003:0007e754       ??_C@_05DENCKMEH@pfmax@    100d3754     Zydis.obj
 0003:0007e75c       ??_C@_05CGFJEICI@pfmin@    100d375c     Zydis.obj
 0003:0007e764       ??_C@_05BFDHALO@pfmul@     100d3764     Zydis.obj
 0003:0007e76c       ??_C@_06PBIPAILK@pfnacc@   100d376c     Zydis.obj
 0003:0007e774       ??_C@_07HEBANBEP@pfpnacc@  100d3774     Zydis.obj
 0003:0007e77c       ??_C@_05PHPFLFOI@pfrcp@    100d377c     Zydis.obj
 0003:0007e784       ??_C@_08LDCPBPF@pfrcpit2@  100d3784     Zydis.obj
 0003:0007e790       ??_C@_08BOKJIJBN@pfrsqit1@ 100d3790     Zydis.obj
 0003:0007e79c       ??_C@_06CBIBEBMH@pfsqrt@   100d379c     Zydis.obj
 0003:0007e7a4       ??_C@_05CPBGHNJM@pfsub@    100d37a4     Zydis.obj
 0003:0007e7ac       ??_C@_06OEJPNCGG@pfsubr@   100d37ac     Zydis.obj
 0003:0007e7b4       ??_C@_06DEAFIOGL@phaddd@   100d37b4     Zydis.obj
 0003:0007e7bc       ??_C@_07KDEDOHJK@phaddsw@  100d37bc     Zydis.obj
 0003:0007e7c4       ??_C@_06FFOKMPPJ@phaddw@   100d37c4     Zydis.obj
 0003:0007e7cc       ??_C@_0L@EKOFBFBK@phminposuw@ 100d37cc     Zydis.obj
 0003:0007e7d8       ??_C@_06MCANAGMB@phsubd@   100d37d8     Zydis.obj
 0003:0007e7e0       ??_C@_07JFLGKFOE@phsubsw@  100d37e0     Zydis.obj
 0003:0007e7e8       ??_C@_06KDOCEHFD@phsubw@   100d37e8     Zydis.obj
 0003:0007e7f0       ??_C@_05MGNEGPLK@pi2fd@    100d37f0     Zydis.obj
 0003:0007e7f8       ??_C@_05KHDLCOCI@pi2fw@    100d37f8     Zydis.obj
 0003:0007e800       ??_C@_06PODGNNHN@pinsrb@   100d3800     Zydis.obj
 0003:0007e808       ??_C@_06KIGMHKPL@pinsrd@   100d3808     Zydis.obj
 0003:0007e810       ??_C@_06JPNJJMOP@pinsrq@   100d3810     Zydis.obj
 0003:0007e818       ??_C@_06MJIDDLGJ@pinsrw@   100d3818     Zydis.obj
 0003:0007e820       ??_C@_09CBBJJIHC@pmaddubsw@ 100d3820     Zydis.obj
 0003:0007e82c       ??_C@_07JHJNCBHD@pmaddwd@  100d382c     Zydis.obj
 0003:0007e834       ??_C@_06DBDEOFIM@pmaxsb@   100d3834     Zydis.obj
 0003:0007e83c       ??_C@_06GHGOECAK@pmaxsd@   100d383c     Zydis.obj
 0003:0007e844       ??_C@_06GIBADJI@pmaxsw@    100d3844     Zydis.obj
 0003:0007e84c       ??_C@_06DFLJJJDO@pmaxub@   100d384c     Zydis.obj
 0003:0007e854       ??_C@_06GDODDOLI@pmaxud@   100d3854     Zydis.obj
 0003:0007e85c       ??_C@_06CAMHPCK@pmaxuw@    100d385c     Zydis.obj
 0003:0007e864       ??_C@_06HEDGKGAO@pminsb@   100d3864     Zydis.obj
 0003:0007e86c       ??_C@_06CCGMABII@pminsd@   100d386c     Zydis.obj
 0003:0007e874       ??_C@_06EDIDEABK@pminsw@   100d3874     Zydis.obj
 0003:0007e87c       ??_C@_06HALLNKLM@pminub@   100d387c     Zydis.obj
 0003:0007e884       ??_C@_06CGOBHNDK@pminud@   100d3884     Zydis.obj
 0003:0007e88c       ??_C@_06EHAODMKI@pminuw@   100d388c     Zydis.obj
 0003:0007e894       ??_C@_08JFPNOFE@pmovmskb@  100d3894     Zydis.obj
 0003:0007e8a0       ??_C@_08FIAFOMLP@pmovsxbd@ 100d38a0     Zydis.obj
 0003:0007e8ac       ??_C@_08GPLAAKKL@pmovsxbq@ 100d38ac     Zydis.obj
 0003:0007e8b8       ??_C@_08DJOKKNCN@pmovsxbw@ 100d38b8     Zydis.obj
 0003:0007e8c4       ??_C@_08GLDNHGBJ@pmovsxdq@ 100d38c4     Zydis.obj
 0003:0007e8d0       ??_C@_08ECOIINCE@pmovsxwd@ 100d38d0     Zydis.obj
 0003:0007e8dc       ??_C@_08HFFNGLDA@pmovsxwq@ 100d38dc     Zydis.obj
 0003:0007e8e8       ??_C@_08FFBFIOMO@pmovzxbd@ 100d38e8     Zydis.obj
 0003:0007e8f4       ??_C@_08GCKAGINK@pmovzxbq@ 100d38f4     Zydis.obj
 0003:0007e900       ??_C@_08DEPKMPFM@pmovzxbw@ 100d3900     Zydis.obj
 0003:0007e90c       ??_C@_08GGCNBEGI@pmovzxdq@ 100d390c     Zydis.obj
 0003:0007e918       ??_C@_08EPPIOPFF@pmovzxwd@ 100d3918     Zydis.obj
 0003:0007e924       ??_C@_08HIENAJEB@pmovzxwq@ 100d3924     Zydis.obj
 0003:0007e930       ??_C@_06DKJOAGB@pmuldq@    100d3930     Zydis.obj
 0003:0007e938       ??_C@_08DNGAMAOA@pmulhrsw@ 100d3938     Zydis.obj
 0003:0007e944       ??_C@_07BCFIBGPO@pmulhrw@  100d3944     Zydis.obj
 0003:0007e94c       ??_C@_07BHBHAAHL@pmulhuw@  100d394c     Zydis.obj
 0003:0007e954       ??_C@_06FMOJLOID@pmulhw@   100d3954     Zydis.obj
 0003:0007e95c       ??_C@_06DKAPFHMN@pmulld@   100d395c     Zydis.obj
 0003:0007e964       ??_C@_06FLOABGFP@pmullw@   100d3964     Zydis.obj
 0003:0007e96c       ??_C@_07PONKOBPI@pmuludq@  100d396c     Zydis.obj
 0003:0007e974       ??_C@_03NJDAHFJE@pop@      100d3974     Zydis.obj
 0003:0007e978       ??_C@_04ILFNDNMO@popa@     100d3978     Zydis.obj
 0003:0007e980       ??_C@_05HNMGBMCJ@popad@    100d3980     Zydis.obj
 0003:0007e988       ??_C@_06KOACKPNP@popcnt@   100d3988     Zydis.obj
 0003:0007e990       ??_C@_04MEBMKLAJ@popf@     100d3990     Zydis.obj
 0003:0007e998       ??_C@_05HIIJAKKM@popfd@    100d3998     Zydis.obj
 0003:0007e9a0       ??_C@_05EPDMOMLI@popfq@    100d39a0     Zydis.obj
 0003:0007e9a8       ??_C@_03OLAGBHBG@por@      100d39a8     Zydis.obj
 0003:0007e9ac       ??_C@_08FCDJGKEM@prefetch@ 100d39ac     Zydis.obj
 0003:0007e9b8       ??_C@_0M@HDAHDBCF@prefetchit0@ 100d39b8     Zydis.obj
 0003:0007e9c4       ??_C@_0M@GKBMAAGE@prefetchit1@ 100d39c4     Zydis.obj
 0003:0007e9d0       ??_C@_0M@ENHAGFIJ@prefetchnta@ 100d39d0     Zydis.obj
 0003:0007e9dc       ??_C@_0L@HNBFCMAJ@prefetcht0@ 100d39dc     Zydis.obj
 0003:0007e9e8       ??_C@_0L@GEAOBNEI@prefetcht1@ 100d39e8     Zydis.obj
 0003:0007e9f4       ??_C@_0L@EPCDEOIL@prefetcht2@ 100d39f4     Zydis.obj
 0003:0007ea00       ??_C@_09BPEGNLOA@prefetchw@ 100d3a00     Zydis.obj
 0003:0007ea0c       ??_C@_0M@NKNKCAMI@prefetchwt1@ 100d3a0c     Zydis.obj
 0003:0007ea18       ??_C@_06DIHGEBBD@psadbw@   100d3a18     Zydis.obj
 0003:0007ea20       ??_C@_06ONHPFNFA@pshufb@   100d3a20     Zydis.obj
 0003:0007ea28       ??_C@_06LLCFPKNG@pshufd@   100d3a28     Zydis.obj
 0003:0007ea30       ??_C@_07GGPEEEO@pshufhw@   100d3a30     Zydis.obj
 0003:0007ea38       ??_C@_07BGGOMJC@pshuflw@   100d3a38     Zydis.obj
 0003:0007ea40       ??_C@_06NKMKLLEE@pshufw@   100d3a40     Zydis.obj
 0003:0007ea48       ??_C@_06CEBMLKEM@psignb@   100d3a48     Zydis.obj
 0003:0007ea50       ??_C@_06HCEGBNMK@psignd@   100d3a50     Zydis.obj
 0003:0007ea58       ??_C@_06BDKJFMFI@psignw@   100d3a58     Zydis.obj
 0003:0007ea60       ??_C@_05MKMBBNNO@pslld@    100d3a60     Zydis.obj
 0003:0007ea68       ??_C@_06FHIFHGHJ@pslldq@   100d3a68     Zydis.obj
 0003:0007ea70       ??_C@_05PNHEPLMK@psllq@    100d3a70     Zydis.obj
 0003:0007ea78       ??_C@_05KLCOFMEM@psllw@    100d3a78     Zydis.obj
 0003:0007ea80       ??_C@_06BKOGJLPJ@psmash@   100d3a80     Zydis.obj
 0003:0007ea88       ??_C@_05HCNPKOCB@psrad@    100d3a88     Zydis.obj
 0003:0007ea90       ??_C@_05BDDAOPLD@psraw@    100d3a90     Zydis.obj
 0003:0007ea98       ??_C@_05HKAHDNHC@psrld@    100d3a98     Zydis.obj
 0003:0007eaa0       ??_C@_06IIFFFPJK@psrldq@   100d3aa0     Zydis.obj
 0003:0007eaa8       ??_C@_05ENLCNLGG@psrlq@    100d3aa8     Zydis.obj
 0003:0007eab0       ??_C@_05BLOIHMOA@psrlw@    100d3ab0     Zydis.obj
 0003:0007eab8       ??_C@_05LLBEIPEH@psubb@    100d3ab8     Zydis.obj
 0003:0007eac0       ??_C@_05ONEOCIMB@psubd@    100d3ac0     Zydis.obj
 0003:0007eac8       ??_C@_05NKPLMONF@psubq@    100d3ac8     Zydis.obj
 0003:0007ead0       ??_C@_06KCCMAANO@psubsb@   100d3ad0     Zydis.obj
 0003:0007ead8       ??_C@_06JFJJOGMK@psubsw@   100d3ad8     Zydis.obj
 0003:0007eae0       ??_C@_07OINEMGN@psubusb@   100d3ae0     Zydis.obj
 0003:0007eae8       ??_C@_07DJDIKKHJ@psubusw@  100d3ae8     Zydis.obj
 0003:0007eaf0       ??_C@_05IMKBGJFD@psubw@    100d3af0     Zydis.obj
 0003:0007eaf8       ??_C@_06JOEFOFIP@pswapd@   100d3af8     Zydis.obj
 0003:0007eb00       ??_C@_05FIFBHIFI@ptest@    100d3b00     Zydis.obj
 0003:0007eb08       ??_C@_07LGMDCMAP@ptwrite@  100d3b08     Zydis.obj
 0003:0007eb10       ??_C@_09MMDMOCBC@punpckhbw@ 100d3b10     Zydis.obj
 0003:0007eb1c       ??_C@_09JOOLDJCG@punpckhdq@ 100d3b1c     Zydis.obj
 0003:0007eb28       ??_C@_0L@JJJNOAEF@punpckhqdq@ 100d3b28     Zydis.obj
 0003:0007eb34       ??_C@_09LHDOMCBL@punpckhwd@ 100d3b34     Zydis.obj
 0003:0007eb40       ??_C@_09EDFOHFEF@punpcklbw@ 100d3b40     Zydis.obj
 0003:0007eb4c       ??_C@_09BBIJKOHB@punpckldq@ 100d3b4c     Zydis.obj
 0003:0007eb58       ??_C@_0L@GMBNEGIF@punpcklqdq@ 100d3b58     Zydis.obj
 0003:0007eb64       ??_C@_09DIFMFFEM@punpcklwd@ 100d3b64     Zydis.obj
 0003:0007eb70       ??_C@_04GHHNIPCF@push@     100d3b70     Zydis.obj
 0003:0007eb78       ??_C@_05DHIFPDCO@pusha@    100d3b78     Zydis.obj
 0003:0007eb80       ??_C@_06NNHACGJP@pushad@   100d3b80     Zydis.obj
 0003:0007eb88       ??_C@_05HIMEGFOJ@pushf@    100d3b88     Zydis.obj
 0003:0007eb90       ??_C@_06NIDPDABK@pushfd@   100d3b90     Zydis.obj
 0003:0007eb98       ??_C@_06OPIKNGAO@pushfq@   100d3b98     Zydis.obj
 0003:0007eba0       ??_C@_09LCHDGOON@pvalidate@ 100d3ba0     Zydis.obj
 0003:0007ebac       ??_C@_04DAAGPHDH@pxor@     100d3bac     Zydis.obj
 0003:0007ebb4       ??_C@_03JMFEBJCG@rcl@      100d3bb4     Zydis.obj
 0003:0007ebb8       ??_C@_05ONJJBNPC@rcpps@    100d3bb8     Zydis.obj
 0003:0007ebc0       ??_C@_05OPNPKDKL@rcpss@    100d3bc0     Zydis.obj
 0003:0007ebc8       ??_C@_03EIBFCGPJ@rcr@      100d3bc8     Zydis.obj
 0003:0007ebcc       ??_C@_08NIIHFFFD@rdfsbase@ 100d3bcc     Zydis.obj
 0003:0007ebd8       ??_C@_08HOPAFOOH@rdgsbase@ 100d3bd8     Zydis.obj
 0003:0007ebe4       ??_C@_05OGJHMBLI@rdmsr@    100d3be4     Zydis.obj
 0003:0007ebec       ??_C@_09DIMKIJKM@rdmsrlist@ 100d3bec     Zydis.obj
 0003:0007ebf8       ??_C@_05EJMNNNIL@rdpid@    100d3bf8     Zydis.obj
 0003:0007ec00       ??_C@_06JKMJANIP@rdpkru@   100d3c00     Zydis.obj
 0003:0007ec08       ??_C@_05BIFODJA@rdpmc@     100d3c08     Zydis.obj
 0003:0007ec10       ??_C@_05KGHLCAK@rdpru@     100d3c10     Zydis.obj
 0003:0007ec18       ??_C@_06MJFBMHIP@rdrand@   100d3c18     Zydis.obj
 0003:0007ec20       ??_C@_06HHAGJGIJ@rdseed@   100d3c20     Zydis.obj
 0003:0007ec28       ??_C@_06BIJJPPFB@rdsspd@   100d3c28     Zydis.obj
 0003:0007ec30       ??_C@_06CPCMBJEF@rdsspq@   100d3c30     Zydis.obj
 0003:0007ec38       ??_C@_05JIFPPKLN@rdtsc@    100d3c38     Zydis.obj
 0003:0007ec40       ??_C@_06JKHHOJDN@rdtscp@   100d3c40     Zydis.obj
 0003:0007ec48       ??_C@_03BKMCPNMN@ret@      100d3c48     Zydis.obj
 0003:0007ec4c       ??_C@_09MDJGGKOL@rmpadjust@ 100d3c4c     Zydis.obj
 0003:0007ec58       ??_C@_09POJNNJIH@rmpupdate@ 100d3c58     Zydis.obj
 0003:0007ec64       ??_C@_03JFEOOAEC@rol@      100d3c64     Zydis.obj
 0003:0007ec68       ??_C@_03EBAPNPJN@ror@      100d3c68     Zydis.obj
 0003:0007ec6c       ??_C@_04GJBJBDNI@rorx@     100d3c6c     Zydis.obj
 0003:0007ec74       ??_C@_07JFJPHJIO@roundpd@  100d3c74     Zydis.obj
 0003:0007ec7c       ??_C@_07JABMPNBI@roundps@  100d3c7c     Zydis.obj
 0003:0007ec84       ??_C@_07JHNJMHNH@roundsd@  100d3c84     Zydis.obj
 0003:0007ec8c       ??_C@_07JCFKEDEB@roundss@  100d3c8c     Zydis.obj
 0003:0007ec94       ??_C@_03JJGJILBH@rsm@      100d3c94     Zydis.obj
 0003:0007ec98       ??_C@_07FOPKGEKI@rsqrtps@  100d3c98     Zydis.obj
 0003:0007eca0       ??_C@_07FMLMNKPB@rsqrtss@  100d3ca0     Zydis.obj
 0003:0007eca8       ??_C@_08IHOJMMOE@rstorssp@ 100d3ca8     Zydis.obj
 0003:0007ecb4       ??_C@_04HBFGFECC@sahf@     100d3cb4     Zydis.obj
 0003:0007ecbc       ??_C@_04LCIAILL@salc@      100d3cbc     Zydis.obj
 0003:0007ecc4       ??_C@_03PDCNJFPC@sar@      100d3cc4     Zydis.obj
 0003:0007ecc8       ??_C@_04LEKGENFL@sarx@     100d3cc8     Zydis.obj
 0003:0007ecd0       ??_C@_0M@FCAJGJMB@saveprevssp@ 100d3cd0     Zydis.obj
 0003:0007ecdc       ??_C@_03LLKJDJPK@sbb@      100d3cdc     Zydis.obj
 0003:0007ece0       ??_C@_05JPPPGDOE@scasb@    100d3ce0     Zydis.obj
 0003:0007ece8       ??_C@_05MJKFMEGC@scasd@    100d3ce8     Zydis.obj
 0003:0007ecf0       ??_C@_05POBACCHG@scasq@    100d3cf0     Zydis.obj
 0003:0007ecf8       ??_C@_05KIEKIFPA@scasw@    100d3cf8     Zydis.obj
 0003:0007ed00       ??_C@_08EPFGKFP@seamcall@  100d3d00     Zydis.obj
 0003:0007ed0c       ??_C@_07PACABPJE@seamops@  100d3d0c     Zydis.obj
 0003:0007ed14       ??_C@_07HPPGHIK@seamret@   100d3d14     Zydis.obj
 0003:0007ed1c       ??_C@_08JHONKPOC@senduipi@ 100d3d1c     Zydis.obj
 0003:0007ed28       ??_C@_09HPAMHOHM@serialize@ 100d3d28     Zydis.obj
 0003:0007ed34       ??_C@_04IPGEFMGF@setb@     100d3d34     Zydis.obj
 0003:0007ed3c       ??_C@_05CFNNGOGJ@setbe@    100d3d3c     Zydis.obj
 0003:0007ed44       ??_C@_04BBOHHBOL@setl@     100d3d44     Zydis.obj
 0003:0007ed4c       ??_C@_05CPEDEDGD@setle@    100d3d4c     Zydis.obj
 0003:0007ed54       ??_C@_05GDIGABMK@setnb@    100d3d54     Zydis.obj
 0003:0007ed5c       ??_C@_06GDFIDCEN@setnbe@   100d3d5c     Zydis.obj
 0003:0007ed64       ??_C@_05PNAFCMEE@setnl@    100d3d64     Zydis.obj
 0003:0007ed6c       ??_C@_06GJMGBPEH@setnle@   100d3d6c     Zydis.obj
 0003:0007ed74       ??_C@_05NGCIHPIH@setno@    100d3d74     Zydis.obj
 0003:0007ed7c       ??_C@_05BLHCHBBJ@setnp@    100d3d7c     Zydis.obj
 0003:0007ed84       ??_C@_05DAFPCCNK@setns@    100d3d84     Zydis.obj
 0003:0007ed8c       ??_C@_05OBJNJJJD@setnz@    100d3d8c     Zydis.obj
 0003:0007ed94       ??_C@_04DKMKCCCI@seto@     100d3d94     Zydis.obj
 0003:0007ed9c       ??_C@_04PHJACMLG@setp@     100d3d9c     Zydis.obj
 0003:0007eda4       ??_C@_04NMLNHPHF@sets@     100d3da4     Zydis.obj
 0003:0007edac       ??_C@_08FKFFIAOI@setssbsy@ 100d3dac     Zydis.obj
 0003:0007edb8       ??_C@_04NHPMEDM@setz@      100d3db8     Zydis.obj
 0003:0007edc0       ??_C@_06LJIOJEOG@sfence@   100d3dc0     Zydis.obj
 0003:0007edc8       ??_C@_04CFNDICEJ@sgdt@     100d3dc8     Zydis.obj
 0003:0007edd0       ??_C@_08KCNMFKIP@sha1msg1@ 100d3dd0     Zydis.obj
 0003:0007eddc       ??_C@_08IJPBAJEM@sha1msg2@ 100d3ddc     Zydis.obj
 0003:0007ede8       ??_C@_09HCDAMFGH@sha1nexte@ 100d3de8     Zydis.obj
 0003:0007edf4       ??_C@_09MNNEKECB@sha1rnds4@ 100d3df4     Zydis.obj
 0003:0007ee00       ??_C@_0L@GONPHFO@sha256msg1@ 100d3e00     Zydis.obj
 0003:0007ee0c       ??_C@_0L@CNMAKEJN@sha256msg2@ 100d3e0c     Zydis.obj
 0003:0007ee18       ??_C@_0M@GKPONAEI@sha256rnds2@ 100d3e18     Zydis.obj
 0003:0007ee24       ??_C@_03CILNJBKC@shl@      100d3e24     Zydis.obj
 0003:0007ee28       ??_C@_04DJGBNBPG@shld@     100d3e28     Zydis.obj
 0003:0007ee30       ??_C@_04NPBGIMKL@shlx@     100d3e30     Zydis.obj
 0003:0007ee38       ??_C@_03PMPMKOHN@shr@      100d3e38     Zydis.obj
 0003:0007ee3c       ??_C@_04CPNJFPIM@shrd@     100d3e3c     Zydis.obj
 0003:0007ee44       ??_C@_04MJKOACNB@shrx@     100d3e44     Zydis.obj
 0003:0007ee4c       ??_C@_06CBKLGGJD@shufpd@   100d3e4c     Zydis.obj
 0003:0007ee54       ??_C@_06CECIOCAF@shufps@   100d3e54     Zydis.obj
 0003:0007ee5c       ??_C@_04MFAMPFHK@sidt@     100d3e5c     Zydis.obj
 0003:0007ee64       ??_C@_06JOKOMMPP@skinit@   100d3e64     Zydis.obj
 0003:0007ee6c       ??_C@_04PCNCAFEI@sldt@     100d3e6c     Zydis.obj
 0003:0007ee74       ??_C@_06PNLCMFAJ@slwpcb@   100d3e74     Zydis.obj
 0003:0007ee7c       ??_C@_04HICKIEBL@smsw@     100d3e7c     Zydis.obj
 0003:0007ee84       ??_C@_05COIKOHJF@spflt@    100d3e84     Zydis.obj
 0003:0007ee8c       ??_C@_06ENECHGME@sqrtpd@   100d3e8c     Zydis.obj
 0003:0007ee94       ??_C@_06EIMBPCFC@sqrtps@   100d3e94     Zydis.obj
 0003:0007ee9c       ??_C@_06EPAEMIJN@sqrtsd@   100d3e9c     Zydis.obj
 0003:0007eea4       ??_C@_06EKIHEMAL@sqrtss@   100d3ea4     Zydis.obj
 0003:0007eeac       ??_C@_04GEDHDMEF@stac@     100d3eac     Zydis.obj
 0003:0007eeb4       ??_C@_03LKBJNHHJ@stc@      100d3eb4     Zydis.obj
 0003:0007eeb8       ??_C@_03PFFIEBLO@std@      100d3eb8     Zydis.obj
 0003:0007eebc       ??_C@_04JKFFKIHN@stgi@     100d3ebc     Zydis.obj
 0003:0007eec4       ??_C@_03EAPGDPPD@sti@      100d3ec4     Zydis.obj
 0003:0007eec8       ??_C@_07LPMAGAMH@stmxcsr@  100d3ec8     Zydis.obj
 0003:0007eed0       ??_C@_05KNOAFPEF@stosb@    100d3ed0     Zydis.obj
 0003:0007eed8       ??_C@_05PLLKPIMD@stosd@    100d3ed8     Zydis.obj
 0003:0007eee0       ??_C@_05MMAPBONH@stosq@    100d3ee0     Zydis.obj
 0003:0007eee8       ??_C@_05JKFFLJFB@stosw@    100d3ee8     Zydis.obj
 0003:0007eef0       ??_C@_03OJMAPEGJ@str@      100d3ef0     Zydis.obj
 0003:0007eef4       ??_C@_09PLOBIIJE@sttilecfg@ 100d3ef4     Zydis.obj
 0003:0007ef00       ??_C@_04IFPHNPGD@stui@     100d3f00     Zydis.obj
 0003:0007ef08       ??_C@_03KCMAIMAP@sub@      100d3f08     Zydis.obj
 0003:0007ef0c       ??_C@_05DGPGLHPH@subpd@    100d3f0c     Zydis.obj
 0003:0007ef14       ??_C@_05DDHFDDGB@subps@    100d3f14     Zydis.obj
 0003:0007ef1c       ??_C@_05DELAAJKO@subsd@    100d3f1c     Zydis.obj
 0003:0007ef24       ??_C@_05DBDDINDI@subss@    100d3f24     Zydis.obj
 0003:0007ef2c       ??_C@_06CPNDNOLP@swapgs@   100d3f2c     Zydis.obj
 0003:0007ef34       ??_C@_07JJMJNHGG@syscall@  100d3f34     Zydis.obj
 0003:0007ef3c       ??_C@_08HHDECGPN@sysenter@ 100d3f3c     Zydis.obj
 0003:0007ef48       ??_C@_07LPEIGAGB@sysexit@  100d3f48     Zydis.obj
 0003:0007ef50       ??_C@_06OJDFPBAP@sysret@   100d3f50     Zydis.obj
 0003:0007ef58       ??_C@_06KHOIKAJK@t1mskc@   100d3f58     Zydis.obj
 0003:0007ef60       ??_C@_06DMFMBCOB@tdcall@   100d3f60     Zydis.obj
 0003:0007ef68       ??_C@_09JFGODGPG@tdpbf16ps@ 100d3f68     Zydis.obj
 0003:0007ef74       ??_C@_07LECIJDO@tdpbssd@   100d3f74     Zydis.obj
 0003:0007ef7c       ??_C@_07PMPPFIM@tdpbsud@   100d3f7c     Zydis.obj
 0003:0007ef84       ??_C@_07COCJNGOC@tdpbusd@  100d3f84     Zydis.obj
 0003:0007ef8c       ??_C@_07CKKEKKFA@tdpbuud@  100d3f8c     Zydis.obj
 0003:0007ef94       ??_C@_09LEKOPDGD@tdpfp16ps@ 100d3f94     Zydis.obj
 0003:0007efa0       ??_C@_04CEJDCDCH@test@     100d3fa0     Zydis.obj
 0003:0007efa8       ??_C@_06JOKHJNNB@testui@   100d3fa8     Zydis.obj
 0003:0007efb0       ??_C@_09OEFMCBKG@tileloadd@ 100d3fb0     Zydis.obj
 0003:0007efbc       ??_C@_0M@CBJBCIFD@tileloaddt1@ 100d3fbc     Zydis.obj
 0003:0007efc8       ??_C@_0M@IBGIBAIN@tilerelease@ 100d3fc8     Zydis.obj
 0003:0007efd4       ??_C@_0L@NMHDGDF@tilestored@ 100d3fd4     Zydis.obj
 0003:0007efe0       ??_C@_08GFLIEOGJ@tilezero@ 100d3fe0     Zydis.obj
 0003:0007efec       ??_C@_07BPDBJMHL@tlbsync@  100d3fec     Zydis.obj
 0003:0007eff4       ??_C@_06MHBIJOMA@tpause@   100d3ff4     Zydis.obj
 0003:0007effc       ??_C@_05ENGFOLNA@tzcnt@    100d3ffc     Zydis.obj
 0003:0007f004       ??_C@_06DCKBGHNB@tzcnti@   100d4004     Zydis.obj
 0003:0007f00c       ??_C@_05HEBOKCFO@tzmsk@    100d400c     Zydis.obj
 0003:0007f014       ??_C@_07ENDLCHEK@ucomisd@  100d4014     Zydis.obj
 0003:0007f01c       ??_C@_07EILIKDNM@ucomiss@  100d401c     Zydis.obj
 0003:0007f024       ??_C@_03BCMCCFEC@ud0@      100d4024     Zydis.obj
 0003:0007f028       ??_C@_03LNJBEAD@ud1@       100d4028     Zydis.obj
 0003:0007f02c       ??_C@_03CAPEEHMA@ud2@      100d402c     Zydis.obj
 0003:0007f030       ??_C@_05EFIJAKDM@uiret@    100d4030     Zydis.obj
 0003:0007f038       ??_C@_08IJNBDPBJ@umonitor@ 100d4038     Zydis.obj
 0003:0007f044       ??_C@_06KMJECDGN@umwait@   100d4044     Zydis.obj
 0003:0007f04c       ??_C@_08EBLLCNNO@unpckhpd@ 100d404c     Zydis.obj
 0003:0007f058       ??_C@_08EEDIKJEI@unpckhps@ 100d4058     Zydis.obj
 0003:0007f064       ??_C@_08MONJLKIJ@unpcklpd@ 100d4064     Zydis.obj
 0003:0007f070       ??_C@_08MLFKDOBP@unpcklps@ 100d4070     Zydis.obj
 0003:0007f07c       ??_C@_09CDKHFINC@v4fmaddps@ 100d407c     Zydis.obj
 0003:0007f088       ??_C@_09CBOBOGIL@v4fmaddss@ 100d4088     Zydis.obj
 0003:0007f094       ??_C@_0L@KIDDLMCA@v4fnmaddps@ 100d4094     Zydis.obj
 0003:0007f0a0       ??_C@_0L@KKHFACHJ@v4fnmaddss@ 100d40a0     Zydis.obj
 0003:0007f0ac       ??_C@_07KMGNCFNC@vaddnpd@  100d40ac     Zydis.obj
 0003:0007f0b4       ??_C@_07KJOOKBEE@vaddnps@  100d40b4     Zydis.obj
 0003:0007f0bc       ??_C@_06KDBFGOEF@vaddpd@   100d40bc     Zydis.obj
 0003:0007f0c4       ??_C@_06PKACBEJ@vaddph@    100d40c4     Zydis.obj
 0003:0007f0cc       ??_C@_06KGJGOKND@vaddps@   100d40cc     Zydis.obj
 0003:0007f0d4       ??_C@_06KBFDNABM@vaddsd@   100d40d4     Zydis.obj
 0003:0007f0dc       ??_C@_0L@EJGGJIED@vaddsetsps@ 100d40dc     Zydis.obj
 0003:0007f0e8       ??_C@_06NOGJPBA@vaddsh@    100d40e8     Zydis.obj
 0003:0007f0f0       ??_C@_06KENAFEIK@vaddss@   100d40f0     Zydis.obj
 0003:0007f0f8       ??_C@_09PPKJNIKN@vaddsubpd@ 100d40f8     Zydis.obj
 0003:0007f104       ??_C@_09PKCKFMDL@vaddsubps@ 100d4104     Zydis.obj
 0003:0007f110       ??_C@_07IPOAKKNN@vaesdec@  100d4110     Zydis.obj
 0003:0007f118       ??_C@_0M@OBBELEHO@vaesdeclast@ 100d4118     Zydis.obj
 0003:0007f124       ??_C@_07DLAJCCFJ@vaesenc@  100d4124     Zydis.obj
 0003:0007f12c       ??_C@_0M@CPLJOABK@vaesenclast@ 100d412c     Zydis.obj
 0003:0007f138       ??_C@_07HDJJCDLI@vaesimc@  100d4138     Zydis.obj
 0003:0007f140       ??_C@_0BB@PMMLANHC@vaeskeygenassist@ 100d4140     Zydis.obj
 0003:0007f154       ??_C@_07NDBOKCPO@valignd@  100d4154     Zydis.obj
 0003:0007f15c       ??_C@_07OEKLEEOK@valignq@  100d415c     Zydis.obj
 0003:0007f164       ??_C@_07NPGAGLE@vandnpd@   100d4164     Zydis.obj
 0003:0007f16c       ??_C@_07IHFICCC@vandnps@   100d416c     Zydis.obj
 0003:0007f174       ??_C@_06OJKFHGOE@vandpd@   100d4174     Zydis.obj
 0003:0007f17c       ??_C@_06OMCGPCHC@vandps@   100d417c     Zydis.obj
 0003:0007f184       ??_C@_0P@IHNLLIHH@vbcstnebf162ps@ 100d4184     Zydis.obj
 0003:0007f194       ??_C@_0N@GFCOFEKP@vbcstnesh2ps@ 100d4194     Zydis.obj
 0003:0007f1a4       ??_C@_09JBNELEI@vblendmpd@ 100d41a4     Zydis.obj
 0003:0007f1b0       ??_C@_09MJOMPNO@vblendmps@ 100d41b0     Zydis.obj
 0003:0007f1bc       ??_C@_08NLIICBDL@vblendpd@ 100d41bc     Zydis.obj
 0003:0007f1c8       ??_C@_08NOALKFKN@vblendps@ 100d41c8     Zydis.obj
 0003:0007f1d4       ??_C@_09IOAFJLNG@vblendvpd@ 100d41d4     Zydis.obj
 0003:0007f1e0       ??_C@_09ILIGBPEA@vblendvps@ 100d41e0     Zydis.obj
 0003:0007f1ec       ??_C@_0P@PCAIGGIP@vbroadcastf128@ 100d41ec     Zydis.obj
 0003:0007f1fc       ??_C@_0BA@JKNPBMAG@vbroadcastf32x2@ 100d41fc     Zydis.obj
 0003:0007f20c       ??_C@_0BA@MMIFLLIA@vbroadcastf32x4@ 100d420c     Zydis.obj
 0003:0007f21c       ??_C@_0BA@GADAPEIM@vbroadcastf32x8@ 100d421c     Zydis.obj
 0003:0007f22c       ??_C@_0BA@HHFEMMKK@vbroadcastf64x2@ 100d422c     Zydis.obj
 0003:0007f23c       ??_C@_0BA@CBAOGLCM@vbroadcastf64x4@ 100d423c     Zydis.obj
 0003:0007f24c       ??_C@_0P@HAFIPBFO@vbroadcasti128@ 100d424c     Zydis.obj
 0003:0007f25c       ??_C@_0BA@GLIJKOND@vbroadcasti32x2@ 100d425c     Zydis.obj
 0003:0007f26c       ??_C@_0BA@DNNDAJFF@vbroadcasti32x4@ 100d426c     Zydis.obj
 0003:0007f27c       ??_C@_0BA@JBGGEGFJ@vbroadcasti32x8@ 100d427c     Zydis.obj
 0003:0007f28c       ??_C@_0BA@IGACHOHP@vbroadcasti64x2@ 100d428c     Zydis.obj
 0003:0007f29c       ??_C@_0BA@NAFINJPJ@vbroadcasti64x4@ 100d429c     Zydis.obj
 0003:0007f2ac       ??_C@_0N@MDBHDICD@vbroadcastsd@ 100d42ac     Zydis.obj
 0003:0007f2bc       ??_C@_0N@MGJELMLF@vbroadcastss@ 100d42bc     Zydis.obj
 0003:0007f2cc       ??_C@_06DMLGGNPH@vcmppd@   100d42cc     Zydis.obj
 0003:0007f2d4       ??_C@_06JAADCCPL@vcmpph@   100d42d4     Zydis.obj
 0003:0007f2dc       ??_C@_06DJDFOJGB@vcmpps@   100d42dc     Zydis.obj
 0003:0007f2e4       ??_C@_06DOPANDKO@vcmpsd@   100d42e4     Zydis.obj
 0003:0007f2ec       ??_C@_06JCEFJMKC@vcmpsh@   100d42ec     Zydis.obj
 0003:0007f2f4       ??_C@_06DLHDFHDI@vcmpss@   100d42f4     Zydis.obj
 0003:0007f2fc       ??_C@_07MDLECAKJ@vcomisd@  100d42fc     Zydis.obj
 0003:0007f304       ??_C@_07GPABGPKF@vcomish@  100d4304     Zydis.obj
 0003:0007f30c       ??_C@_07MGDHKEDP@vcomiss@  100d430c     Zydis.obj
 0003:0007f314       ??_C@_0M@BGKNEJFG@vcompresspd@ 100d4314     Zydis.obj
 0003:0007f320       ??_C@_0M@BDCOMNMA@vcompressps@ 100d4320     Zydis.obj
 0003:0007f32c       ??_C@_09KIEBMBPC@vcvtdq2pd@ 100d432c     Zydis.obj
 0003:0007f338       ??_C@_09EPEIOPO@vcvtdq2ph@ 100d4338     Zydis.obj
 0003:0007f344       ??_C@_09KNMCEFGE@vcvtdq2ps@ 100d4344     Zydis.obj
 0003:0007f350       ??_C@_0P@OMGHKLGJ@vcvtfxpntdq2ps@ 100d4350     Zydis.obj
 0003:0007f360       ??_C@_0P@PFDJJKDI@vcvtfxpntpd2dq@ 100d4360     Zydis.obj
 0003:0007f370       ??_C@_0BA@OMJLJINC@vcvtfxpntpd2udq@ 100d4370     Zydis.obj
 0003:0007f380       ??_C@_0P@CHPJNBKK@vcvtfxpntps2dq@ 100d4380     Zydis.obj
 0003:0007f390       ??_C@_0BA@PCEIKKPB@vcvtfxpntps2udq@ 100d4390     Zydis.obj
 0003:0007f3a0       ??_C@_0BA@IOCKJMEG@vcvtfxpntudq2ps@ 100d43a0     Zydis.obj
 0003:0007f3b0       ??_C@_0P@JNKILEJI@vcvtne2ps2bf16@ 100d43b0     Zydis.obj
 0003:0007f3c0       ??_C@_0P@HDNNMCPP@vcvtneebf162ps@ 100d43c0     Zydis.obj
 0003:0007f3d0       ??_C@_0N@CBOGMNCH@vcvtneeph2ps@ 100d43d0     Zydis.obj
 0003:0007f3e0       ??_C@_0P@OGPDEIGB@vcvtneobf162ps@ 100d43e0     Zydis.obj
 0003:0007f3f0       ??_C@_0N@IFJGJCGJ@vcvtneoph2ps@ 100d43f0     Zydis.obj
 0003:0007f400       ??_C@_0O@LKOOFCLG@vcvtneps2bf16@ 100d4400     Zydis.obj
 0003:0007f410       ??_C@_09LEJMHEDF@vcvtpd2dq@ 100d4410     Zydis.obj
 0003:0007f41c       ??_C@_09DELDNGIB@vcvtpd2ph@ 100d441c     Zydis.obj
 0003:0007f428       ??_C@_09JNIFBNBL@vcvtpd2ps@ 100d4428     Zydis.obj
 0003:0007f434       ??_C@_09KOHBBFKO@vcvtpd2qq@ 100d4434     Zydis.obj
 0003:0007f440       ??_C@_0L@JCGLEBIB@vcvtpd2udq@ 100d4440     Zydis.obj
 0003:0007f44c       ??_C@_0L@IIIGCABK@vcvtpd2uqq@ 100d444c     Zydis.obj
 0003:0007f458       ??_C@_09HBGMJJDE@vcvtph2dq@ 100d4458     Zydis.obj
 0003:0007f464       ??_C@_09FNPGHEIM@vcvtph2pd@ 100d4464     Zydis.obj
 0003:0007f470       ??_C@_09FIHFPABK@vcvtph2ps@ 100d4470     Zydis.obj
 0003:0007f47c       ??_C@_0L@BKNMHPHE@vcvtph2psx@ 100d447c     Zydis.obj
 0003:0007f488       ??_C@_09GLIBPIKP@vcvtph2qq@ 100d4488     Zydis.obj
 0003:0007f494       ??_C@_0L@OFKJIBPK@vcvtph2udq@ 100d4494     Zydis.obj
 0003:0007f4a0       ??_C@_0L@PPEEOAGB@vcvtph2uqq@ 100d44a0     Zydis.obj
 0003:0007f4ac       ??_C@_09DKNCPHPF@vcvtph2uw@ 100d44ac     Zydis.obj
 0003:0007f4b8       ??_C@_08JLPBLNHM@vcvtph2w@ 100d44b8     Zydis.obj
 0003:0007f4c4       ??_C@_09GGFMDPKH@vcvtps2dq@ 100d44c4     Zydis.obj
 0003:0007f4d0       ??_C@_09EKMGNCBP@vcvtps2pd@ 100d44d0     Zydis.obj
 0003:0007f4dc       ??_C@_09OGHDJNBD@vcvtps2ph@ 100d44dc     Zydis.obj
 0003:0007f4e8       ??_C@_0L@GDLOMBLN@vcvtps2phx@ 100d44e8     Zydis.obj
 0003:0007f4f4       ??_C@_09HMLBFODM@vcvtps2qq@ 100d44f4     Zydis.obj
 0003:0007f500       ??_C@_0L@IMLIHDKC@vcvtps2udq@ 100d4500     Zydis.obj
 0003:0007f50c       ??_C@_0L@JGFFBCDJ@vcvtps2uqq@ 100d450c     Zydis.obj
 0003:0007f518       ??_C@_09PLFKFCNK@vcvtqq2pd@ 100d4518     Zydis.obj
 0003:0007f524       ??_C@_09FHOPBNNG@vcvtqq2ph@ 100d4524     Zydis.obj
 0003:0007f530       ??_C@_09PONJNGEM@vcvtqq2ps@ 100d4530     Zydis.obj
 0003:0007f53c       ??_C@_09LAGBBKHG@vcvtsd2sh@ 100d453c     Zydis.obj
 0003:0007f548       ??_C@_09KJHKCLDH@vcvtsd2si@ 100d4548     Zydis.obj
 0003:0007f554       ??_C@_09BJFHNBOM@vcvtsd2ss@ 100d4554     Zydis.obj
 0003:0007f560       ??_C@_0L@DIPBHGLA@vcvtsd2usi@ 100d4560     Zydis.obj
 0003:0007f56c       ??_C@_09NJCELIHL@vcvtsh2sd@ 100d456c     Zydis.obj
 0003:0007f578       ??_C@_09GMIKMGDG@vcvtsh2si@ 100d4578     Zydis.obj
 0003:0007f584       ??_C@_09NMKHDMON@vcvtsh2ss@ 100d4584     Zydis.obj
 0003:0007f590       ??_C@_0L@EPDDLGML@vcvtsh2usi@ 100d4590     Zydis.obj
 0003:0007f59c       ??_C@_09OEEEJBML@vcvtsi2sd@ 100d459c     Zydis.obj
 0003:0007f5a8       ??_C@_09EIPBNOMH@vcvtsi2sh@ 100d45a8     Zydis.obj
 0003:0007f5b4       ??_C@_09OBMHBFFN@vcvtsi2ss@ 100d45b4     Zydis.obj
 0003:0007f5c0       ??_C@_09MOBEBOOI@vcvtss2sd@ 100d45c0     Zydis.obj
 0003:0007f5cc       ??_C@_09GCKBFBOE@vcvtss2sh@ 100d45cc     Zydis.obj
 0003:0007f5d8       ??_C@_09HLLKGAKF@vcvtss2si@ 100d45d8     Zydis.obj
 0003:0007f5e4       ??_C@_0L@CGCCEEJD@vcvtss2usi@ 100d45e4     Zydis.obj
 0003:0007f5f0       ??_C@_0L@EPPDHPPA@vcvttpd2dq@ 100d45f0     Zydis.obj
 0003:0007f5fc       ??_C@_0L@FFBOBOGL@vcvttpd2qq@ 100d45fc     Zydis.obj
 0003:0007f608       ??_C@_0M@HJJOBILF@vcvttpd2udq@ 100d4608     Zydis.obj
 0003:0007f614       ??_C@_0M@GDHDHJCO@vcvttpd2uqq@ 100d4614     Zydis.obj
 0003:0007f620       ??_C@_0L@IKADJCPB@vcvttph2dq@ 100d4620     Zydis.obj
 0003:0007f62c       ??_C@_0L@JAOOPDGK@vcvttph2qq@ 100d462c     Zydis.obj
 0003:0007f638       ??_C@_0M@OFMNIMO@vcvttph2udq@ 100d4638     Zydis.obj
 0003:0007f644       ??_C@_0M@BELBLJFF@vcvttph2uqq@ 100d4644     Zydis.obj
 0003:0007f650       ??_C@_0L@MBLNPMDA@vcvttph2uw@ 100d4650     Zydis.obj
 0003:0007f65c       ??_C@_09CALGBNCD@vcvttph2w@ 100d465c     Zydis.obj
 0003:0007f668       ??_C@_0L@JNDDDEGC@vcvttps2dq@ 100d4668     Zydis.obj
 0003:0007f674       ??_C@_0L@IHNOFFPJ@vcvttps2qq@ 100d4674     Zydis.obj
 0003:0007f680       ??_C@_0M@GHENCKJG@vcvttps2udq@ 100d4680     Zydis.obj
 0003:0007f68c       ??_C@_0M@HNKAELAN@vcvttps2uqq@ 100d468c     Zydis.obj
 0003:0007f698       ??_C@_0L@FCBFCAPC@vcvttsd2si@ 100d4698     Zydis.obj
 0003:0007f6a4       ??_C@_0M@NDAECPIE@vcvttsd2usi@ 100d46a4     Zydis.obj
 0003:0007f6b0       ??_C@_0L@JHOFMNPD@vcvttsh2si@ 100d46b0     Zydis.obj
 0003:0007f6bc       ??_C@_0M@KEMGOPPP@vcvttsh2usi@ 100d46bc     Zydis.obj
 0003:0007f6c8       ??_C@_0L@IANFGLGA@vcvttss2si@ 100d46c8     Zydis.obj
 0003:0007f6d4       ??_C@_0M@MNNHBNKH@vcvttss2usi@ 100d46d4     Zydis.obj
 0003:0007f6e0       ??_C@_0L@PFFJMBID@vcvtudq2pd@ 100d46e0     Zydis.obj
 0003:0007f6ec       ??_C@_0L@FJOMIOIP@vcvtudq2ph@ 100d46ec     Zydis.obj
 0003:0007f6f8       ??_C@_0L@PANKEFBF@vcvtudq2ps@ 100d46f8     Zydis.obj
 0003:0007f704       ??_C@_0L@KGECFCKL@vcvtuqq2pd@ 100d4704     Zydis.obj
 0003:0007f710       ??_C@_0L@KPHBNKH@vcvtuqq2ph@ 100d4710     Zydis.obj
 0003:0007f71c       ??_C@_0L@KDMBNGDN@vcvtuqq2ps@ 100d471c     Zydis.obj
 0003:0007f728       ??_C@_0L@LJFMJBLK@vcvtusi2sd@ 100d4728     Zydis.obj
 0003:0007f734       ??_C@_0L@BFOJNOLG@vcvtusi2sh@ 100d4734     Zydis.obj
 0003:0007f740       ??_C@_0L@LMNPBFCM@vcvtusi2ss@ 100d4740     Zydis.obj
 0003:0007f74c       ??_C@_09EDDOKKGA@vcvtuw2ph@ 100d474c     Zydis.obj
 0003:0007f758       ??_C@_08DDCFNJJK@vcvtw2ph@ 100d4758     Zydis.obj
 0003:0007f764       ??_C@_09COIGHEKK@vdbpsadbw@ 100d4764     Zydis.obj
 0003:0007f770       ??_C@_06PBFIKEFD@vdivpd@   100d4770     Zydis.obj
 0003:0007f778       ??_C@_06FNONOLFP@vdivph@   100d4778     Zydis.obj
 0003:0007f780       ??_C@_06PENLCAMF@vdivps@   100d4780     Zydis.obj
 0003:0007f788       ??_C@_06PDBOBKAK@vdivsd@   100d4788     Zydis.obj
 0003:0007f790       ??_C@_06FPKLFFAG@vdivsh@   100d4790     Zydis.obj
 0003:0007f798       ??_C@_06PGJNJOJM@vdivss@   100d4798     Zydis.obj
 0003:0007f7a0       ??_C@_09JBJLOGML@vdpbf16ps@ 100d47a0     Zydis.obj
 0003:0007f7ac       ??_C@_05MBKLAHGC@vdppd@    100d47ac     Zydis.obj
 0003:0007f7b4       ??_C@_05MECIIDPE@vdpps@    100d47b4     Zydis.obj
 0003:0007f7bc       ??_C@_04JMLLNPG@verr@      100d47bc     Zydis.obj
 0003:0007f7c4       ??_C@_04HELMEJLD@verw@     100d47c4     Zydis.obj
 0003:0007f7cc       ??_C@_09ECCFKENJ@vexp223ps@ 100d47cc     Zydis.obj
 0003:0007f7d8       ??_C@_07DIINECHJ@vexp2pd@  100d47d8     Zydis.obj
 0003:0007f7e0       ??_C@_07DNAOMGOP@vexp2ps@  100d47e0     Zydis.obj
 0003:0007f7e8       ??_C@_09GGIFEPMH@vexpandpd@ 100d47e8     Zydis.obj
 0003:0007f7f4       ??_C@_09GDAGMLFB@vexpandps@ 100d47f4     Zydis.obj
 0003:0007f800       ??_C@_0N@GHEEFFJN@vextractf128@ 100d4800     Zydis.obj
 0003:0007f810       ??_C@_0O@DPKJIGPL@vextractf32x4@ 100d4810     Zydis.obj
 0003:0007f820       ??_C@_0O@JDBMMJPH@vextractf32x8@ 100d4820     Zydis.obj
 0003:0007f830       ??_C@_0O@IEHIPBNB@vextractf64x2@ 100d4830     Zydis.obj
 0003:0007f840       ??_C@_0O@NCCCFGFH@vextractf64x4@ 100d4840     Zydis.obj
 0003:0007f850       ??_C@_0N@OFBEMCEM@vextracti128@ 100d4850     Zydis.obj
 0003:0007f860       ??_C@_0O@MOPPDECO@vextracti32x4@ 100d4860     Zydis.obj
 0003:0007f870       ??_C@_0O@GCEKHLCC@vextracti32x8@ 100d4870     Zydis.obj
 0003:0007f880       ??_C@_0O@HFCOEDAE@vextracti64x2@ 100d4880     Zydis.obj
 0003:0007f890       ??_C@_0O@CDHEOEIC@vextracti64x4@ 100d4890     Zydis.obj
 0003:0007f8a0       ??_C@_0L@EDDICPO@vextractps@ 100d48a0     Zydis.obj
 0003:0007f8ac       ??_C@_0L@HCEGKABN@vfcmaddcph@ 100d48ac     Zydis.obj
 0003:0007f8b8       ??_C@_0L@HAAABOEE@vfcmaddcsh@ 100d48b8     Zydis.obj
 0003:0007f8c4       ??_C@_09KLDFMHCJ@vfcmulcph@ 100d48c4     Zydis.obj
 0003:0007f8d0       ??_C@_09KJHDHJHA@vfcmulcsh@ 100d48d0     Zydis.obj
 0003:0007f8dc       ??_C@_0M@ELBIEEBE@vfixupimmpd@ 100d48dc     Zydis.obj
 0003:0007f8e8       ??_C@_0M@EOJLMAIC@vfixupimmps@ 100d48e8     Zydis.obj
 0003:0007f8f4       ??_C@_0M@EJFOPKEN@vfixupimmsd@ 100d48f4     Zydis.obj
 0003:0007f900       ??_C@_0M@EMNNHONL@vfixupimmss@ 100d4900     Zydis.obj
 0003:0007f90c       ??_C@_0M@IBFIDGED@vfixupnanpd@ 100d490c     Zydis.obj
 0003:0007f918       ??_C@_0M@IENLLCNF@vfixupnanps@ 100d4918     Zydis.obj
 0003:0007f924       ??_C@_0M@JFIAHNOI@vfmadd132pd@ 100d4924     Zydis.obj
 0003:0007f930       ??_C@_0M@DJDFDCOE@vfmadd132ph@ 100d4930     Zydis.obj
 0003:0007f93c       ??_C@_0M@JAADPJHO@vfmadd132ps@ 100d493c     Zydis.obj
 0003:0007f948       ??_C@_0M@JHMGMDLB@vfmadd132sd@ 100d4948     Zydis.obj
 0003:0007f954       ??_C@_0M@DLHDIMLN@vfmadd132sh@ 100d4954     Zydis.obj
 0003:0007f960       ??_C@_0M@JCEFEHCH@vfmadd132ss@ 100d4960     Zydis.obj
 0003:0007f96c       ??_C@_0M@NBGIDLED@vfmadd213pd@ 100d496c     Zydis.obj
 0003:0007f978       ??_C@_0M@HNNNHEEP@vfmadd213ph@ 100d4978     Zydis.obj
 0003:0007f984       ??_C@_0M@NEOLLPNF@vfmadd213ps@ 100d4984     Zydis.obj
 0003:0007f990       ??_C@_0M@NDCOIFBK@vfmadd213sd@ 100d4990     Zydis.obj
 0003:0007f99c       ??_C@_0M@HPJLMKBG@vfmadd213sh@ 100d499c     Zydis.obj
 0003:0007f9a8       ??_C@_0M@NGKNABIM@vfmadd213ss@ 100d49a8     Zydis.obj
 0003:0007f9b4       ??_C@_0M@BKBKAKI@vfmadd231pd@ 100d49b4     Zydis.obj
 0003:0007f9c0       ??_C@_0M@KNBEOPKE@vfmadd231ph@ 100d49c0     Zydis.obj
 0003:0007f9cc       ??_C@_0M@ECCCEDO@vfmadd231ps@ 100d49cc     Zydis.obj
 0003:0007f9d8       ??_C@_0M@DOHBOPB@vfmadd231sd@ 100d49d8     Zydis.obj
 0003:0007f9e4       ??_C@_0M@KPFCFBPN@vfmadd231sh@ 100d49e4     Zydis.obj
 0003:0007f9f0       ??_C@_0M@GGEJKGH@vfmadd231ss@ 100d49f0     Zydis.obj
 0003:0007f9fc       ??_C@_0M@KOCLOMLF@vfmadd233ps@ 100d49fc     Zydis.obj
 0003:0007fa08       ??_C@_09IBOFCFJA@vfmaddcph@ 100d4a08     Zydis.obj
 0003:0007fa14       ??_C@_09IDKDJLMJ@vfmaddcsh@ 100d4a14     Zydis.obj
 0003:0007fa20       ??_C@_08CIJEHOMC@vfmaddpd@ 100d4a20     Zydis.obj
 0003:0007fa2c       ??_C@_08CNBHPKFE@vfmaddps@ 100d4a2c     Zydis.obj
 0003:0007fa38       ??_C@_08CKNCMAJL@vfmaddsd@ 100d4a38     Zydis.obj
 0003:0007fa44       ??_C@_08CPFBEEAN@vfmaddss@ 100d4a44     Zydis.obj
 0003:0007fa50       ??_C@_0P@KNOODAIB@vfmaddsub132pd@ 100d4a50     Zydis.obj
 0003:0007fa60       ??_C@_0P@BFLHPIN@vfmaddsub132ph@ 100d4a60     Zydis.obj
 0003:0007fa70       ??_C@_0P@KIGNLEBH@vfmaddsub132ps@ 100d4a70     Zydis.obj
 0003:0007fa80       ??_C@_0P@OJAGHGCK@vfmaddsub213pd@ 100d4a80     Zydis.obj
 0003:0007fa90       ??_C@_0P@EFLDDJCG@vfmaddsub213ph@ 100d4a90     Zydis.obj
 0003:0007faa0       ??_C@_0P@OMIFPCLM@vfmaddsub213ps@ 100d4aa0     Zydis.obj
 0003:0007fab0       ??_C@_0P@DJMPONMB@vfmaddsub231pd@ 100d4ab0     Zydis.obj
 0003:0007fac0       ??_C@_0P@JFHKKCMN@vfmaddsub231ph@ 100d4ac0     Zydis.obj
 0003:0007fad0       ??_C@_0P@DMEMGJFH@vfmaddsub231ps@ 100d4ad0     Zydis.obj
 0003:0007fae0       ??_C@_0M@MLKOHEME@vfmaddsubpd@ 100d4ae0     Zydis.obj
 0003:0007faec       ??_C@_0M@MOCNPAFC@vfmaddsubps@ 100d4aec     Zydis.obj
 0003:0007faf8       ??_C@_0M@MEHHBDJA@vfmsub132pd@ 100d4af8     Zydis.obj
 0003:0007fb04       ??_C@_0M@GIMCFMJM@vfmsub132ph@ 100d4b04     Zydis.obj
 0003:0007fb10       ??_C@_0M@MBPEJHAG@vfmsub132ps@ 100d4b10     Zydis.obj
 0003:0007fb1c       ??_C@_0M@MGDBKNMJ@vfmsub132sd@ 100d4b1c     Zydis.obj
 0003:0007fb28       ??_C@_0M@GKIEOCMF@vfmsub132sh@ 100d4b28     Zydis.obj
 0003:0007fb34       ??_C@_0M@MDLCCJFP@vfmsub132ss@ 100d4b34     Zydis.obj
 0003:0007fb40       ??_C@_0M@IAJPFFDL@vfmsub213pd@ 100d4b40     Zydis.obj
 0003:0007fb4c       ??_C@_0M@CMCKBKDH@vfmsub213ph@ 100d4b4c     Zydis.obj
 0003:0007fb58       ??_C@_0M@IFBMNBKN@vfmsub213ps@ 100d4b58     Zydis.obj
 0003:0007fb64       ??_C@_0M@ICNJOLGC@vfmsub213sd@ 100d4b64     Zydis.obj
 0003:0007fb70       ??_C@_0M@COGMKEGO@vfmsub213sh@ 100d4b70     Zydis.obj
 0003:0007fb7c       ??_C@_0M@IHFKGPPE@vfmsub213ss@ 100d4b7c     Zydis.obj
 0003:0007fb88       ??_C@_0M@FAFGMONA@vfmsub231pd@ 100d4b88     Zydis.obj
 0003:0007fb94       ??_C@_0M@PMODIBNM@vfmsub231ph@ 100d4b94     Zydis.obj
 0003:0007fba0       ??_C@_0M@FFNFEKEG@vfmsub231ps@ 100d4ba0     Zydis.obj
 0003:0007fbac       ??_C@_0M@FCBAHAIJ@vfmsub231sd@ 100d4bac     Zydis.obj
 0003:0007fbb8       ??_C@_0M@POKFDPIF@vfmsub231sh@ 100d4bb8     Zydis.obj
 0003:0007fbc4       ??_C@_0M@FHJDPEBP@vfmsub231ss@ 100d4bc4     Zydis.obj
 0003:0007fbd0       ??_C@_0P@HOFMEGNG@vfmsubadd132pd@ 100d4bd0     Zydis.obj
 0003:0007fbe0       ??_C@_0P@NCOJAJNK@vfmsubadd132ph@ 100d4be0     Zydis.obj
 0003:0007fbf0       ??_C@_0P@HLNPMCEA@vfmsubadd132ps@ 100d4bf0     Zydis.obj
 0003:0007fc00       ??_C@_0P@DKLEAAHN@vfmsubadd213pd@ 100d4c00     Zydis.obj
 0003:0007fc10       ??_C@_0P@JGABEPHB@vfmsubadd213ph@ 100d4c10     Zydis.obj
 0003:0007fc20       ??_C@_0P@DPDHIEOL@vfmsubadd213ps@ 100d4c20     Zydis.obj
 0003:0007fc30       ??_C@_0P@OKHNJLJG@vfmsubadd231pd@ 100d4c30     Zydis.obj
 0003:0007fc40       ??_C@_0P@EGMINEJK@vfmsubadd231ph@ 100d4c40     Zydis.obj
 0003:0007fc50       ??_C@_0P@OPPOBPAA@vfmsubadd231ps@ 100d4c50     Zydis.obj
 0003:0007fc60       ??_C@_0M@KMKMFIMC@vfmsubaddpd@ 100d4c60     Zydis.obj
 0003:0007fc6c       ??_C@_0M@KJCPNMFE@vfmsubaddps@ 100d4c6c     Zydis.obj
 0003:0007fc78       ??_C@_08BOGBDMLM@vfmsubpd@ 100d4c78     Zydis.obj
 0003:0007fc84       ??_C@_08BLOCLICK@vfmsubps@ 100d4c84     Zydis.obj
 0003:0007fc90       ??_C@_08BMCHICOF@vfmsubsd@ 100d4c90     Zydis.obj
 0003:0007fc9c       ??_C@_08BJKEAGHD@vfmsubss@ 100d4c9c     Zydis.obj
 0003:0007fca8       ??_C@_08LBMBACDL@vfmulcph@ 100d4ca8     Zydis.obj
 0003:0007fcb4       ??_C@_08LDIHLMGC@vfmulcsh@ 100d4cb4     Zydis.obj
 0003:0007fcc0       ??_C@_0N@ENOLFCOF@vfnmadd132pd@ 100d4cc0     Zydis.obj
 0003:0007fcd0       ??_C@_0N@OBFOBNOJ@vfnmadd132ph@ 100d4cd0     Zydis.obj
 0003:0007fce0       ??_C@_0N@EIGINGHD@vfnmadd132ps@ 100d4ce0     Zydis.obj
 0003:0007fcf0       ??_C@_0N@EPKNOMLM@vfnmadd132sd@ 100d4cf0     Zydis.obj
 0003:0007fd00       ??_C@_0N@ODBIKDLA@vfnmadd132sh@ 100d4d00     Zydis.obj
 0003:0007fd10       ??_C@_0N@EKCOGICK@vfnmadd132ss@ 100d4d10     Zydis.obj
 0003:0007fd20       ??_C@_0N@JADBEEO@vfnmadd213pd@ 100d4d20     Zydis.obj
 0003:0007fd30       ??_C@_0N@KFLGFLEC@vfnmadd213ph@ 100d4d30     Zydis.obj
 0003:0007fd40       ??_C@_0N@MIAJANI@vfnmadd213ps@ 100d4d40     Zydis.obj
 0003:0007fd50       ??_C@_0N@LEFKKBH@vfnmadd213sd@ 100d4d50     Zydis.obj
 0003:0007fd60       ??_C@_0N@KHPAOFBL@vfnmadd213sh@ 100d4d60     Zydis.obj
 0003:0007fd70       ??_C@_0N@OMGCOIB@vfnmadd213ss@ 100d4d70     Zydis.obj
 0003:0007fd80       ??_C@_0N@NJMKIPKF@vfnmadd231pd@ 100d4d80     Zydis.obj
 0003:0007fd90       ??_C@_0N@HFHPMAKJ@vfnmadd231ph@ 100d4d90     Zydis.obj
 0003:0007fda0       ??_C@_0N@NMEJALDD@vfnmadd231ps@ 100d4da0     Zydis.obj
 0003:0007fdb0       ??_C@_0N@NLIMDBPM@vfnmadd231sd@ 100d4db0     Zydis.obj
 0003:0007fdc0       ??_C@_0N@HHDJHOPA@vfnmadd231sh@ 100d4dc0     Zydis.obj
 0003:0007fdd0       ??_C@_0N@NOAPLFGK@vfnmadd231ss@ 100d4dd0     Zydis.obj
 0003:0007fde0       ??_C@_09KJGFKOAB@vfnmaddpd@ 100d4de0     Zydis.obj
 0003:0007fdec       ??_C@_09KMOGCKJH@vfnmaddps@ 100d4dec     Zydis.obj
 0003:0007fdf8       ??_C@_09KLCDBAFI@vfnmaddsd@ 100d4df8     Zydis.obj
 0003:0007fe04       ??_C@_09KOKAJEMO@vfnmaddss@ 100d4e04     Zydis.obj
 0003:0007fe10       ??_C@_0N@BMBMDMJN@vfnmsub132pd@ 100d4e10     Zydis.obj
 0003:0007fe20       ??_C@_0N@LAKJHDJB@vfnmsub132ph@ 100d4e20     Zydis.obj
 0003:0007fe30       ??_C@_0N@BJJPLIAL@vfnmsub132ps@ 100d4e30     Zydis.obj
 0003:0007fe40       ??_C@_0N@BOFKICME@vfnmsub132sd@ 100d4e40     Zydis.obj
 0003:0007fe50       ??_C@_0N@LCOPMNMI@vfnmsub132sh@ 100d4e50     Zydis.obj
 0003:0007fe60       ??_C@_0N@BLNJAGFC@vfnmsub132ss@ 100d4e60     Zydis.obj
 0003:0007fe70       ??_C@_0N@FIPEHKDG@vfnmsub213pd@ 100d4e70     Zydis.obj
 0003:0007fe80       ??_C@_0N@PEEBDFDK@vfnmsub213ph@ 100d4e80     Zydis.obj
 0003:0007fe90       ??_C@_0N@FNHHPOKA@vfnmsub213ps@ 100d4e90     Zydis.obj
 0003:0007fea0       ??_C@_0N@FKLCMEGP@vfnmsub213sd@ 100d4ea0     Zydis.obj
 0003:0007feb0       ??_C@_0N@PGAHILGD@vfnmsub213sh@ 100d4eb0     Zydis.obj
 0003:0007fec0       ??_C@_0N@FPDBEAPJ@vfnmsub213ss@ 100d4ec0     Zydis.obj
 0003:0007fed0       ??_C@_0N@IIDNOBNN@vfnmsub231pd@ 100d4ed0     Zydis.obj
 0003:0007fee0       ??_C@_0N@CEIIKONB@vfnmsub231ph@ 100d4ee0     Zydis.obj
 0003:0007fef0       ??_C@_0N@INLOGFEL@vfnmsub231ps@ 100d4ef0     Zydis.obj
 0003:0007ff00       ??_C@_0N@IKHLFPIE@vfnmsub231sd@ 100d4f00     Zydis.obj
 0003:0007ff10       ??_C@_0N@CGMOBAII@vfnmsub231sh@ 100d4f10     Zydis.obj
 0003:0007ff20       ??_C@_0N@IPPINLBC@vfnmsub231ss@ 100d4f20     Zydis.obj
 0003:0007ff30       ??_C@_09JPJAOMHP@vfnmsubpd@ 100d4f30     Zydis.obj
 0003:0007ff3c       ??_C@_09JKBDGIOJ@vfnmsubps@ 100d4f3c     Zydis.obj
 0003:0007ff48       ??_C@_09JNNGFCCG@vfnmsubsd@ 100d4f48     Zydis.obj
 0003:0007ff54       ??_C@_09JIFFNGLA@vfnmsubss@ 100d4f54     Zydis.obj
 0003:0007ff60       ??_C@_0L@ONPHGPOJ@vfpclasspd@ 100d4f60     Zydis.obj
 0003:0007ff6c       ??_C@_0L@EBECCAOF@vfpclassph@ 100d4f6c     Zydis.obj
 0003:0007ff78       ??_C@_0L@OIHEOLHP@vfpclassps@ 100d4f78     Zydis.obj
 0003:0007ff84       ??_C@_0L@OPLBNBLA@vfpclasssd@ 100d4f84     Zydis.obj
 0003:0007ff90       ??_C@_0L@EDAEJOLM@vfpclasssh@ 100d4f90     Zydis.obj
 0003:0007ff9c       ??_C@_0L@OKDCFFCG@vfpclassss@ 100d4f9c     Zydis.obj
 0003:0007ffa8       ??_C@_07NBBOOGAC@vfrczpd@  100d4fa8     Zydis.obj
 0003:0007ffb0       ??_C@_07NEJNGCJE@vfrczps@  100d4fb0     Zydis.obj
 0003:0007ffb8       ??_C@_07NDFIFIFL@vfrczsd@  100d4fb8     Zydis.obj
 0003:0007ffc0       ??_C@_07NGNLNMMN@vfrczss@  100d4fc0     Zydis.obj
 0003:0007ffc8       ??_C@_0L@FAIAEKEE@vgatherdpd@ 100d4fc8     Zydis.obj
 0003:0007ffd4       ??_C@_0L@FFADMONC@vgatherdps@ 100d4fd4     Zydis.obj
 0003:0007ffe0       ??_C@_0O@PKBEJHBE@vgatherpf0dpd@ 100d4fe0     Zydis.obj
 0003:0007fff0       ??_C@_0O@PPJHBDIC@vgatherpf0dps@ 100d4ff0     Zydis.obj
 0003:00080000       ??_C@_0BC@LNOFKNHG@vgatherpf0hintdpd@ 100d5000     Zydis.obj
 0003:00080014       ??_C@_0BC@LIGGCJOA@vgatherpf0hintdps@ 100d5014     Zydis.obj
 0003:00080028       ??_C@_0O@JNNDDALJ@vgatherpf0qpd@ 100d5028     Zydis.obj
 0003:00080038       ??_C@_0O@JIFALECP@vgatherpf0qps@ 100d5038     Zydis.obj
 0003:00080048       ??_C@_0O@MHHELOKE@vgatherpf1dpd@ 100d5048     Zydis.obj
 0003:00080058       ??_C@_0O@MCPHDKDC@vgatherpf1dps@ 100d5058     Zydis.obj
 0003:00080068       ??_C@_0O@KALDBJAJ@vgatherpf1qpd@ 100d5068     Zydis.obj
 0003:00080078       ??_C@_0O@KFDAJNJP@vgatherpf1qps@ 100d5078     Zydis.obj
 0003:00080088       ??_C@_0L@DHEHONOJ@vgatherqpd@ 100d5088     Zydis.obj
 0003:00080094       ??_C@_0L@DCMEGJHP@vgatherqps@ 100d5094     Zydis.obj
 0003:000800a0       ??_C@_09PAMIIHFE@vgetexppd@ 100d50a0     Zydis.obj
 0003:000800ac       ??_C@_09FMHNMIFI@vgetexpph@ 100d50ac     Zydis.obj
 0003:000800b8       ??_C@_09PFELADMC@vgetexpps@ 100d50b8     Zydis.obj
 0003:000800c4       ??_C@_09PCIODJAN@vgetexpsd@ 100d50c4     Zydis.obj
 0003:000800d0       ??_C@_09FODLHGAB@vgetexpsh@ 100d50d0     Zydis.obj
 0003:000800dc       ??_C@_09PHANLNJL@vgetexpss@ 100d50dc     Zydis.obj
 0003:000800e8       ??_C@_0L@DBMMFLOF@vgetmantpd@ 100d50e8     Zydis.obj
 0003:000800f4       ??_C@_0L@JNHJBEOJ@vgetmantph@ 100d50f4     Zydis.obj
 0003:00080100       ??_C@_0L@DEEPNPHD@vgetmantps@ 100d5100     Zydis.obj
 0003:0008010c       ??_C@_0L@DDIKOFLM@vgetmantsd@ 100d510c     Zydis.obj
 0003:00080118       ??_C@_0L@JPDPKKLA@vgetmantsh@ 100d5118     Zydis.obj
 0003:00080124       ??_C@_0L@DGAJGBCK@vgetmantss@ 100d5124     Zydis.obj
 0003:00080130       ??_C@_0BC@MLHGMHLN@vgf2p8affineinvqb@ 100d5130     Zydis.obj
 0003:00080144       ??_C@_0P@IEJLDEEB@vgf2p8affineqb@ 100d5144     Zydis.obj
 0003:00080154       ??_C@_0L@HGEBOIFM@vgf2p8mulb@ 100d5154     Zydis.obj
 0003:00080160       ??_C@_0L@NGANCEPF@vgmaxabsps@ 100d5160     Zydis.obj
 0003:0008016c       ??_C@_07FFCAMGBD@vgmaxpd@  100d516c     Zydis.obj
 0003:00080174       ??_C@_07FAKDECIF@vgmaxps@  100d5174     Zydis.obj
 0003:0008017c       ??_C@_07BACCIFJB@vgminpd@  100d517c     Zydis.obj
 0003:00080184       ??_C@_07BFKBABAH@vgminps@  100d5184     Zydis.obj
 0003:0008018c       ??_C@_07GIFBBNG@vhaddpd@   100d518c     Zydis.obj
 0003:00080194       ??_C@_07DAGJFEA@vhaddps@   100d5194     Zydis.obj
 0003:0008019c       ??_C@_07DAHAFDKI@vhsubpd@  100d519c     Zydis.obj
 0003:000801a4       ??_C@_07DFPDNHDO@vhsubps@  100d51a4     Zydis.obj
 0003:000801ac       ??_C@_0M@HPBOMOMM@vinsertf128@ 100d51ac     Zydis.obj
 0003:000801b8       ??_C@_0N@CDNNLNAC@vinsertf32x4@ 100d51b8     Zydis.obj
 0003:000801c8       ??_C@_0N@IPGIPCAO@vinsertf32x8@ 100d51c8     Zydis.obj
 0003:000801d8       ??_C@_0N@JIAMMKCI@vinsertf64x2@ 100d51d8     Zydis.obj
 0003:000801e8       ??_C@_0N@MOFGGNKO@vinsertf64x4@ 100d51e8     Zydis.obj
 0003:000801f8       ??_C@_0M@PNEOFJBN@vinserti128@ 100d51f8     Zydis.obj
 0003:00080204       ??_C@_0N@NCILAPNH@vinserti32x4@ 100d5204     Zydis.obj
 0003:00080214       ??_C@_0N@HODOEANL@vinserti32x8@ 100d5214     Zydis.obj
 0003:00080224       ??_C@_0N@GJFKHIPN@vinserti64x2@ 100d5224     Zydis.obj
 0003:00080234       ??_C@_0N@DPAANPHL@vinserti64x4@ 100d5234     Zydis.obj
 0003:00080244       ??_C@_09GAJGHFHO@vinsertps@ 100d5244     Zydis.obj
 0003:00080250       ??_C@_06ENJADELM@vlddqu@   100d5250     Zydis.obj
 0003:00080258       ??_C@_08HNBHKOBG@vldmxcsr@ 100d5258     Zydis.obj
 0003:00080264       ??_C@_0O@JOEFHCIG@vloadunpackhd@ 100d5264     Zydis.obj
 0003:00080274       ??_C@_0P@BOPLMGGI@vloadunpackhpd@ 100d5274     Zydis.obj
 0003:00080284       ??_C@_0P@BLHIECPO@vloadunpackhps@ 100d5284     Zydis.obj
 0003:00080294       ??_C@_0O@KJPAJEJC@vloadunpackhq@ 100d5294     Zydis.obj
 0003:000802a4       ??_C@_0O@JJEMNKFK@vloadunpackld@ 100d52a4     Zydis.obj
 0003:000802b4       ??_C@_0P@JBJJFBDP@vloadunpacklpd@ 100d52b4     Zydis.obj
 0003:000802c4       ??_C@_0P@JEBKNFKJ@vloadunpacklps@ 100d52c4     Zydis.obj
 0003:000802d4       ??_C@_0O@KOPJDMEO@vloadunpacklq@ 100d52d4     Zydis.obj
 0003:000802e4       ??_C@_07GEIFPKIN@vlog2ps@  100d52e4     Zydis.obj
 0003:000802ec       ??_C@_0M@HIPJIAEN@vmaskmovdqu@ 100d52ec     Zydis.obj
 0003:000802f8       ??_C@_0L@PCLMIHED@vmaskmovpd@ 100d52f8     Zydis.obj
 0003:00080304       ??_C@_0L@PHDPADNF@vmaskmovps@ 100d5304     Zydis.obj
 0003:00080310       ??_C@_06GPIMJGJ@vmaxpd@    100d5310     Zydis.obj
 0003:00080318       ??_C@_06KKENIGGF@vmaxph@   100d5318     Zydis.obj
 0003:00080320       ??_C@_06DHLENPP@vmaxps@    100d5320     Zydis.obj
 0003:00080328       ??_C@_06ELOHHDA@vmaxsd@    100d5328     Zydis.obj
 0003:00080330       ??_C@_06KIALDIDM@vmaxsh@   100d5330     Zydis.obj
 0003:00080338       ??_C@_06BDNPDKG@vmaxss@    100d5338     Zydis.obj
 0003:00080340       ??_C@_06IMMMFCAA@vmcall@   100d5340     Zydis.obj
 0003:00080348       ??_C@_07JAMFMPEO@vmclear@  100d5348     Zydis.obj
 0003:00080350       ??_C@_06BPELNFBJ@vmfunc@   100d5350     Zydis.obj
 0003:00080358       ??_C@_06EDPKIKOL@vminpd@   100d5358     Zydis.obj
 0003:00080360       ??_C@_06OPEPMFOH@vminph@   100d5360     Zydis.obj
 0003:00080368       ??_C@_06EGHJAOHN@vminps@   100d5368     Zydis.obj
 0003:00080370       ??_C@_06EBLMDELC@vminsd@   100d5370     Zydis.obj
 0003:00080378       ??_C@_06ONAJHLLO@vminsh@   100d5378     Zydis.obj
 0003:00080380       ??_C@_06EEDPLACE@vminss@   100d5380     Zydis.obj
 0003:00080388       ??_C@_08FDGBGFFD@vmlaunch@ 100d5388     Zydis.obj
 0003:00080394       ??_C@_06COECKLLJ@vmload@   100d5394     Zydis.obj
 0003:0008039c       ??_C@_07HLGEACDE@vmmcall@  100d539c     Zydis.obj
 0003:000803a4       ??_C@_07EDEJGLNB@vmovapd@  100d53a4     Zydis.obj
 0003:000803ac       ??_C@_07EGMKOPEH@vmovaps@  100d53ac     Zydis.obj
 0003:000803b4       ??_C@_05MAEMFOGI@vmovd@    100d53b4     Zydis.obj
 0003:000803bc       ??_C@_08NENHFECA@vmovddup@ 100d53bc     Zydis.obj
 0003:000803c8       ??_C@_07ICCAFJB@vmovdqa@   100d53c8     Zydis.obj
 0003:000803d0       ??_C@_09NDGNEIEO@vmovdqa32@ 100d53d0     Zydis.obj
 0003:000803dc       ??_C@_09IDPMCNCD@vmovdqa64@ 100d53dc     Zydis.obj
 0003:000803e8       ??_C@_07CGIMNCME@vmovdqu@  100d53e8     Zydis.obj
 0003:000803f0       ??_C@_09GLPOJJOM@vmovdqu16@ 100d53f0     Zydis.obj
 0003:000803fc       ??_C@_09MBGIIIG@vmovdqu32@ 100d53fc     Zydis.obj
 0003:00080408       ??_C@_09FMIHONOL@vmovdqu64@ 100d5408     Zydis.obj
 0003:00080414       ??_C@_08ILLADGIA@vmovdqu8@ 100d5414     Zydis.obj
 0003:00080420       ??_C@_08PJHFAAOG@vmovhlps@ 100d5420     Zydis.obj
 0003:0008042c       ??_C@_07DOEBCEFL@vmovhpd@  100d542c     Zydis.obj
 0003:00080434       ??_C@_07DLMCKAMN@vmovhps@  100d5434     Zydis.obj
 0003:0008043c       ??_C@_08IDJHDBHB@vmovlhps@ 100d543c     Zydis.obj
 0003:00080448       ??_C@_07LBCDLDAM@vmovlpd@  100d5448     Zydis.obj
 0003:00080450       ??_C@_07LEKADHJK@vmovlps@  100d5450     Zydis.obj
 0003:00080458       ??_C@_09HPCCGDMJ@vmovmskpd@ 100d5458     Zydis.obj
 0003:00080464       ??_C@_09HKKBOHFP@vmovmskps@ 100d5464     Zydis.obj
 0003:00080470       ??_C@_09KLGLNILD@vmovnrapd@ 100d5470     Zydis.obj
 0003:0008047c       ??_C@_09KOOIFMCF@vmovnraps@ 100d547c     Zydis.obj
 0003:00080488       ??_C@_0N@BNCIJCGL@vmovnrngoapd@ 100d5488     Zydis.obj
 0003:00080498       ??_C@_0N@BIKLBGPN@vmovnrngoaps@ 100d5498     Zydis.obj
 0003:000804a8       ??_C@_08MKIBODBI@vmovntdq@ 100d54a8     Zydis.obj
 0003:000804b4       ??_C@_09GPEAEDFD@vmovntdqa@ 100d54b4     Zydis.obj
 0003:000804c0       ??_C@_08OGBLAOKA@vmovntpd@ 100d54c0     Zydis.obj
 0003:000804cc       ??_C@_08ODJIIKDG@vmovntps@ 100d54cc     Zydis.obj
 0003:000804d8       ??_C@_05PHPJLIHM@vmovq@    100d54d8     Zydis.obj
 0003:000804e0       ??_C@_06FLFBLOGC@vmovsd@   100d54e0     Zydis.obj
 0003:000804e8       ??_C@_06PHOEPBGO@vmovsh@   100d54e8     Zydis.obj
 0003:000804f0       ??_C@_09CBMIKDFJ@vmovshdup@ 100d54f0     Zydis.obj
 0003:000804fc       ??_C@_09NEEIAFJJ@vmovsldup@ 100d54fc     Zydis.obj
 0003:00080508       ??_C@_06FONCDKPE@vmovss@   100d5508     Zydis.obj
 0003:00080510       ??_C@_07JMDCKLBJ@vmovupd@  100d5510     Zydis.obj
 0003:00080518       ??_C@_07JJLBCPIP@vmovups@  100d5518     Zydis.obj
 0003:00080520       ??_C@_05KBKDBPPK@vmovw@    100d5520     Zydis.obj
 0003:00080528       ??_C@_08ILEEIFPG@vmpsadbw@ 100d5528     Zydis.obj
 0003:00080534       ??_C@_07JMJJCKJK@vmptrld@  100d5534     Zydis.obj
 0003:0008053c       ??_C@_07MBCBNMIG@vmptrst@  100d553c     Zydis.obj
 0003:00080544       ??_C@_06JOCPGCDO@vmread@   100d5544     Zydis.obj
 0003:0008054c       ??_C@_08EIHJLGKP@vmresume@ 100d554c     Zydis.obj
 0003:00080558       ??_C@_05JKJGIHPJ@vmrun@    100d5558     Zydis.obj
 0003:00080560       ??_C@_06CMFPFIGN@vmsave@   100d5560     Zydis.obj
 0003:00080568       ??_C@_06EMODDIOD@vmulpd@   100d5568     Zydis.obj
 0003:00080570       ??_C@_06OAFGHHOP@vmulph@   100d5570     Zydis.obj
 0003:00080578       ??_C@_06EJGALMHF@vmulps@   100d5578     Zydis.obj
 0003:00080580       ??_C@_06EOKFIGLK@vmulsd@   100d5580     Zydis.obj
 0003:00080588       ??_C@_06OCBAMJLG@vmulsh@   100d5588     Zydis.obj
 0003:00080590       ??_C@_06ELCGACCM@vmulss@   100d5590     Zydis.obj
 0003:00080598       ??_C@_07ICOKPMJF@vmwrite@  100d5598     Zydis.obj
 0003:000805a0       ??_C@_06IMFLOOPM@vmxoff@   100d55a0     Zydis.obj
 0003:000805a8       ??_C@_05OEJKEBDL@vmxon@    100d55a8     Zydis.obj
 0003:000805b0       ??_C@_05BMHCPOPI@vorpd@    100d55b0     Zydis.obj
 0003:000805b8       ??_C@_05BJPBHKGO@vorps@    100d55b8     Zydis.obj
 0003:000805c0       ??_C@_0O@HDJFHKDO@vp2intersectd@ 100d55c0     Zydis.obj
 0003:000805d0       ??_C@_0O@EECAJMCK@vp2intersectq@ 100d55d0     Zydis.obj
 0003:000805e0       ??_C@_09HIDNCDE@vp4dpwssd@ 100d55e0     Zydis.obj
 0003:000805ec       ??_C@_0L@CFKBFNFC@vp4dpwssds@ 100d55ec     Zydis.obj
 0003:000805f8       ??_C@_06NCAIHGAI@vpabsb@   100d55f8     Zydis.obj
 0003:00080600       ??_C@_06IEFCNBIO@vpabsd@   100d5600     Zydis.obj
 0003:00080608       ??_C@_06LDOHDHJK@vpabsq@   100d5608     Zydis.obj
 0003:00080610       ??_C@_06OFLNJABM@vpabsw@   100d5610     Zydis.obj
 0003:00080618       ??_C@_09DLPFLBOH@vpackssdw@ 100d5618     Zydis.obj
 0003:00080624       ??_C@_09BCCAEKNK@vpacksswb@ 100d5624     Zydis.obj
 0003:00080630       ??_C@_0N@LAIJCNED@vpackstorehd@ 100d5630     Zydis.obj
 0003:00080640       ??_C@_0O@PFNLDMAI@vpackstorehpd@ 100d5640     Zydis.obj
 0003:00080650       ??_C@_0O@PAFILIJO@vpackstorehps@ 100d5650     Zydis.obj
 0003:00080660       ??_C@_0N@IHDMMLFH@vpackstorehq@ 100d5660     Zydis.obj
 0003:00080670       ??_C@_0N@LHIAIFJP@vpackstoreld@ 100d5670     Zydis.obj
 0003:00080680       ??_C@_0O@HKLJKLFP@vpackstorelpd@ 100d5680     Zydis.obj
 0003:00080690       ??_C@_0O@HPDKCPMJ@vpackstorelps@ 100d5690     Zydis.obj
 0003:000806a0       ??_C@_0N@IADFGDIL@vpackstorelq@ 100d56a0     Zydis.obj
 0003:000806b0       ??_C@_09LELFEEEH@vpackusdw@ 100d56b0     Zydis.obj
 0003:000806bc       ??_C@_09JNGALPHK@vpackuswb@ 100d56bc     Zydis.obj
 0003:000806c8       ??_C@_06LNBPCNCC@vpadcd@   100d56c8     Zydis.obj
 0003:000806d0       ??_C@_06OOAKJMCB@vpaddb@   100d56d0     Zydis.obj
 0003:000806d8       ??_C@_06LIFADLKH@vpaddd@   100d56d8     Zydis.obj
 0003:000806e0       ??_C@_06IPOFNNLD@vpaddq@   100d56e0     Zydis.obj
 0003:000806e8       ??_C@_07GKINKKA@vpaddsb@   100d56e8     Zydis.obj
 0003:000806f0       ??_C@_0L@GHNPGLCI@vpaddsetcd@ 100d56f0     Zydis.obj
 0003:000806fc       ??_C@_0L@HLPJMIFI@vpaddsetsd@ 100d56fc     Zydis.obj
 0003:00080708       ??_C@_07DBBNDMLE@vpaddsw@  100d5708     Zydis.obj
 0003:00080710       ??_C@_08LJJEJEIM@vpaddusb@ 100d5710     Zydis.obj
 0003:0008071c       ??_C@_08IOCBHCJI@vpaddusw@ 100d571c     Zydis.obj
 0003:00080728       ??_C@_06NJLPHKDF@vpaddw@   100d5728     Zydis.obj
 0003:00080730       ??_C@_08JHLGPDG@vpalignr@  100d5730     Zydis.obj
 0003:0008073c       ??_C@_05KKNGIIKA@vpand@    100d573c     Zydis.obj
 0003:00080744       ??_C@_06NHONNLMD@vpandd@   100d5744     Zydis.obj
 0003:0008074c       ??_C@_06CNACDDEJ@vpandn@   100d574c     Zydis.obj
 0003:00080754       ??_C@_07OLMFFKE@vpandnd@   100d5754     Zydis.obj
 0003:0008075c       ??_C@_07DJAJLDLA@vpandnq@  100d575c     Zydis.obj
 0003:00080764       ??_C@_06OAFIDNNH@vpandq@   100d5764     Zydis.obj
 0003:0008076c       ??_C@_06BGFMLNGM@vpavgb@   100d576c     Zydis.obj
 0003:00080774       ??_C@_06CBOJFLHI@vpavgw@   100d5774     Zydis.obj
 0003:0008077c       ??_C@_08JBGEOHCB@vpblendd@ 100d577c     Zydis.obj
 0003:00080788       ??_C@_09BEOCEGBD@vpblendmb@ 100d5788     Zydis.obj
 0003:00080794       ??_C@_09ECLIOBJF@vpblendmd@ 100d5794     Zydis.obj
 0003:000807a0       ??_C@_09HFANAHIB@vpblendmq@ 100d57a0     Zydis.obj
 0003:000807ac       ??_C@_09CDFHKAAH@vpblendmw@ 100d57ac     Zydis.obj
 0003:000807b8       ??_C@_09EJBAKIC@vpblendvb@ 100d57b8     Zydis.obj
 0003:000807c4       ??_C@_08PAILKGLD@vpblendw@ 100d57c4     Zydis.obj
 0003:000807d0       ??_C@_0N@IDDNICPI@vpbroadcastb@ 100d57d0     Zydis.obj
 0003:000807e0       ??_C@_0N@NFGHCFHO@vpbroadcastd@ 100d57e0     Zydis.obj
 0003:000807f0       ??_C@_0BA@OILOEFCD@vpbroadcastmb2q@ 100d57f0     Zydis.obj
 0003:00080800       ??_C@_0BA@LIMMAEJK@vpbroadcastmw2d@ 100d5800     Zydis.obj
 0003:00080810       ??_C@_0N@OCNCMDGK@vpbroadcastq@ 100d5810     Zydis.obj
 0003:00080820       ??_C@_0N@LEIIGEOM@vpbroadcastw@ 100d5820     Zydis.obj
 0003:00080830       ??_C@_0L@NBDJJMAH@vpclmulqdq@ 100d5830     Zydis.obj
 0003:0008083c       ??_C@_06MLDJLIHP@vpcmov@   100d583c     Zydis.obj
 0003:00080844       ??_C@_06PCONILGH@vpcmpb@   100d5844     Zydis.obj
 0003:0008084c       ??_C@_06KELHCMOB@vpcmpd@   100d584c     Zydis.obj
 0003:00080854       ??_C@_08MPPJGGNO@vpcmpeqb@ 100d5854     Zydis.obj
 0003:00080860       ??_C@_08JJKDMBFI@vpcmpeqd@ 100d5860     Zydis.obj
 0003:0008086c       ??_C@_08KOBGCHEM@vpcmpeqq@ 100d586c     Zydis.obj
 0003:00080878       ??_C@_08PIEMIAMK@vpcmpeqw@ 100d5878     Zydis.obj
 0003:00080884       ??_C@_0L@FHJCNEPG@vpcmpestri@ 100d5884     Zydis.obj
 0003:00080890       ??_C@_0L@DDPOBBPC@vpcmpestrm@ 100d5890     Zydis.obj
 0003:0008089c       ??_C@_08GDDLGMLO@vpcmpgtb@ 100d589c     Zydis.obj
 0003:000808a8       ??_C@_08DFGBMLDI@vpcmpgtd@ 100d58a8     Zydis.obj
 0003:000808b4       ??_C@_08CNECNCM@vpcmpgtq@  100d58b4     Zydis.obj
 0003:000808c0       ??_C@_08FEIOIKKK@vpcmpgtw@ 100d58c0     Zydis.obj
 0003:000808cc       ??_C@_0L@CAFABEIN@vpcmpistri@ 100d58cc     Zydis.obj
 0003:000808d8       ??_C@_0L@EEDMNBIJ@vpcmpistrm@ 100d58d8     Zydis.obj
 0003:000808e4       ??_C@_08OCGAEMDJ@vpcmpltd@ 100d58e4     Zydis.obj
 0003:000808f0       ??_C@_06JDACMKPF@vpcmpq@   100d58f0     Zydis.obj
 0003:000808f8       ??_C@_07JNIGKFKA@vpcmpub@  100d58f8     Zydis.obj
 0003:00080900       ??_C@_07MLNMACCG@vpcmpud@  100d5900     Zydis.obj
 0003:00080908       ??_C@_07PMGJOEDC@vpcmpuq@  100d5908     Zydis.obj
 0003:00080910       ??_C@_07KKDDEDLE@vpcmpuw@  100d5910     Zydis.obj
 0003:00080918       ??_C@_06MFFIGNHD@vpcmpw@   100d5918     Zydis.obj
 0003:00080920       ??_C@_06EMBKHDMP@vpcomb@   100d5920     Zydis.obj
 0003:00080928       ??_C@_06BKEANEEJ@vpcomd@   100d5928     Zydis.obj
 0003:00080930       ??_C@_0M@MADNFPJJ@vpcompressb@ 100d5930     Zydis.obj
 0003:0008093c       ??_C@_0M@JGGHPIBP@vpcompressd@ 100d593c     Zydis.obj
 0003:00080948       ??_C@_0M@KBNCBOAL@vpcompressq@ 100d5948     Zydis.obj
 0003:00080954       ??_C@_0M@PHIILJIN@vpcompressw@ 100d5954     Zydis.obj
 0003:00080960       ??_C@_06CNPFDCFN@vpcomq@   100d5960     Zydis.obj
 0003:00080968       ??_C@_07EFDFHJIC@vpcomub@  100d5968     Zydis.obj
 0003:00080970       ??_C@_07BDGPNOAE@vpcomud@  100d5970     Zydis.obj
 0003:00080978       ??_C@_07CENKDIBA@vpcomuq@  100d5978     Zydis.obj
 0003:00080980       ??_C@_07HCIAJPJG@vpcomuw@  100d5980     Zydis.obj
 0003:00080988       ??_C@_06HLKPJFNL@vpcomw@   100d5988     Zydis.obj
 0003:00080990       ??_C@_0M@LFJMJJPI@vpconflictd@ 100d5990     Zydis.obj
 0003:0008099c       ??_C@_0M@ICCJHPOM@vpconflictq@ 100d599c     Zydis.obj
 0003:000809a8       ??_C@_08IPJKPGFM@vpdpbssd@ 100d59a8     Zydis.obj
 0003:000809b4       ??_C@_09GGEAKNBM@vpdpbssds@ 100d59b4     Zydis.obj
 0003:000809c0       ??_C@_08ILBHIKOO@vpdpbsud@ 100d59c0     Zydis.obj
 0003:000809cc       ??_C@_09EDCLPCMA@vpdpbsuds@ 100d59cc     Zydis.obj
 0003:000809d8       ??_C@_08KKPBKJIA@vpdpbusd@ 100d59d8     Zydis.obj
 0003:000809e4       ??_C@_09OJAAFILM@vpdpbusds@ 100d59e4     Zydis.obj
 0003:000809f0       ??_C@_08KOHMNFDC@vpdpbuud@ 100d59f0     Zydis.obj
 0003:000809fc       ??_C@_09MMGLAHGA@vpdpbuuds@ 100d59fc     Zydis.obj
 0003:00080a08       ??_C@_08CHJKOOKO@vpdpwssd@ 100d5a08     Zydis.obj
 0003:00080a14       ??_C@_09DFFLDODE@vpdpwssds@ 100d5a14     Zydis.obj
 0003:00080a20       ??_C@_08CDBHJCBM@vpdpwsud@ 100d5a20     Zydis.obj
 0003:00080a2c       ??_C@_09BADAGBOI@vpdpwsuds@ 100d5a2c     Zydis.obj
 0003:00080a38       ??_C@_08CPBLBHC@vpdpwusd@  100d5a38     Zydis.obj
 0003:00080a44       ??_C@_09LKBLMLJE@vpdpwusds@ 100d5a44     Zydis.obj
 0003:00080a50       ??_C@_08GHMMNMA@vpdpwuud@  100d5a50     Zydis.obj
 0003:00080a5c       ??_C@_09JPHAJEEI@vpdpwuuds@ 100d5a5c     Zydis.obj
 0003:00080a68       ??_C@_0L@EBGBBKJC@vperm2f128@ 100d5a68     Zydis.obj
 0003:00080a74       ??_C@_0L@MDDBINED@vperm2i128@ 100d5a74     Zydis.obj
 0003:00080a80       ??_C@_06GBCJAJCN@vpermb@   100d5a80     Zydis.obj
 0003:00080a88       ??_C@_06DHHDKOKL@vpermd@   100d5a88     Zydis.obj
 0003:00080a90       ??_C@_0L@OFIAPIDM@vpermf32x4@ 100d5a90     Zydis.obj
 0003:00080a9c       ??_C@_08PONDDMLI@vpermi2b@ 100d5a9c     Zydis.obj
 0003:00080aa8       ??_C@_08KIIJJLDO@vpermi2d@ 100d5aa8     Zydis.obj
 0003:00080ab4       ??_C@_09NLHHDBDP@vpermi2pd@ 100d5ab4     Zydis.obj
 0003:00080ac0       ??_C@_09NOPELFKJ@vpermi2ps@ 100d5ac0     Zydis.obj
 0003:00080acc       ??_C@_08JPDMHNCK@vpermi2q@ 100d5acc     Zydis.obj
 0003:00080ad8       ??_C@_08MJGGNKKM@vpermi2w@ 100d5ad8     Zydis.obj
 0003:00080ae4       ??_C@_0L@BKDNBOBP@vpermil2pd@ 100d5ae4     Zydis.obj
 0003:00080af0       ??_C@_0L@BPLOJKIJ@vpermil2ps@ 100d5af0     Zydis.obj
 0003:00080afc       ??_C@_09PAKFEJKO@vpermilpd@ 100d5afc     Zydis.obj
 0003:00080b08       ??_C@_09PFCGMNDI@vpermilps@ 100d5b08     Zydis.obj
 0003:00080b14       ??_C@_07FLINKMMB@vpermpd@  100d5b14     Zydis.obj
 0003:00080b1c       ??_C@_07FOAOCIFH@vpermps@  100d5b1c     Zydis.obj
 0003:00080b24       ??_C@_06MGEILP@vpermq@     100d5b24     Zydis.obj
 0003:00080b2c       ??_C@_08FMKALDPK@vpermt2b@ 100d5b2c     Zydis.obj
 0003:00080b38       ??_C@_08KPKBEHM@vpermt2d@  100d5b38     Zydis.obj
 0003:00080b44       ??_C@_09EDAHGCAM@vpermt2pd@ 100d5b44     Zydis.obj
 0003:00080b50       ??_C@_09EGIEOGJK@vpermt2ps@ 100d5b50     Zydis.obj
 0003:00080b5c       ??_C@_08DNEPPCGI@vpermt2q@ 100d5b5c     Zydis.obj
 0003:00080b68       ??_C@_08GLBFFFOO@vpermt2w@ 100d5b68     Zydis.obj
 0003:00080b74       ??_C@_06FGJMOPDJ@vpermw@   100d5b74     Zydis.obj
 0003:00080b7c       ??_C@_09DMJBCIMF@vpexpandb@ 100d5b7c     Zydis.obj
 0003:00080b88       ??_C@_09GKMLIPED@vpexpandd@ 100d5b88     Zydis.obj
 0003:00080b94       ??_C@_09FNHOGJFH@vpexpandq@ 100d5b94     Zydis.obj
 0003:00080ba0       ??_C@_09LCEMONB@vpexpandw@ 100d5ba0     Zydis.obj
 0003:00080bac       ??_C@_07GJPCNPJN@vpextrb@  100d5bac     Zydis.obj
 0003:00080bb4       ??_C@_07DPKIHIBL@vpextrd@  100d5bb4     Zydis.obj
 0003:00080bbc       ??_C@_07IBNJOAP@vpextrq@   100d5bbc     Zydis.obj
 0003:00080bc4       ??_C@_07FOEHDJIJ@vpextrw@  100d5bc4     Zydis.obj
 0003:00080bcc       ??_C@_0L@HCMODLAJ@vpgatherdd@ 100d5bcc     Zydis.obj
 0003:00080bd8       ??_C@_0L@EFHLNNBN@vpgatherdq@ 100d5bd8     Zydis.obj
 0003:00080be4       ??_C@_0L@GICDFKJC@vpgatherqd@ 100d5be4     Zydis.obj
 0003:00080bf0       ??_C@_0L@FPJGLMIG@vpgatherqq@ 100d5bf0     Zydis.obj
 0003:00080bfc       ??_C@_08NPNKBONH@vphaddbd@ 100d5bfc     Zydis.obj
 0003:00080c08       ??_C@_08OIGPPIMD@vphaddbq@ 100d5c08     Zydis.obj
 0003:00080c14       ??_C@_08LODFFPEF@vphaddbw@ 100d5c14     Zydis.obj
 0003:00080c20       ??_C@_07KGHEBGGL@vphaddd@  100d5c20     Zydis.obj
 0003:00080c28       ??_C@_08OMOCIEHB@vphadddq@ 100d5c28     Zydis.obj
 0003:00080c34       ??_C@_08KDNBJGAC@vphaddsw@ 100d5c34     Zydis.obj
 0003:00080c40       ??_C@_09NALKCAFO@vphaddubd@ 100d5c40     Zydis.obj
 0003:00080c4c       ??_C@_09OHAPMGEK@vphaddubq@ 100d5c4c     Zydis.obj
 0003:00080c58       ??_C@_09LBFFGBMM@vphaddubw@ 100d5c58     Zydis.obj
 0003:00080c64       ??_C@_09ODICLKPI@vphaddudq@ 100d5c64     Zydis.obj
 0003:00080c70       ??_C@_09MKFHEBMF@vphadduwd@ 100d5c70     Zydis.obj
 0003:00080c7c       ??_C@_09PNOCKHNB@vphadduwq@ 100d5c7c     Zydis.obj
 0003:00080c88       ??_C@_07MHJLFHPJ@vphaddw@  100d5c88     Zydis.obj
 0003:00080c90       ??_C@_08MFDHHPEM@vphaddwd@ 100d5c90     Zydis.obj
 0003:00080c9c       ??_C@_08PCICJJFI@vphaddwq@ 100d5c9c     Zydis.obj
 0003:00080ca8       ??_C@_0M@JBMAEGIN@vphminposuw@ 100d5ca8     Zydis.obj
 0003:00080cb4       ??_C@_08IIMABNDL@vphsubbw@ 100d5cb4     Zydis.obj
 0003:00080cc0       ??_C@_07FAHMJOMB@vphsubd@  100d5cc0     Zydis.obj
 0003:00080cc8       ??_C@_08NKBHMGAP@vphsubdq@ 100d5cc8     Zydis.obj
 0003:00080cd4       ??_C@_08JFCENEHM@vphsubsw@ 100d5cd4     Zydis.obj
 0003:00080ce0       ??_C@_07DBJDNPFD@vphsubw@  100d5ce0     Zydis.obj
 0003:00080ce8       ??_C@_08PDMCDNDC@vphsubwd@ 100d5ce8     Zydis.obj
 0003:00080cf4       ??_C@_07GMEHEFHN@vpinsrb@  100d5cf4     Zydis.obj
 0003:00080cfc       ??_C@_07DKBNOCPL@vpinsrd@  100d5cfc     Zydis.obj
 0003:00080d04       ??_C@_07NKIAEOP@vpinsrq@   100d5d04     Zydis.obj
 0003:00080d0c       ??_C@_07FLPCKDGJ@vpinsrw@  100d5d0c     Zydis.obj
 0003:00080d14       ??_C@_08IHLCCLCK@vplzcntd@ 100d5d14     Zydis.obj
 0003:00080d20       ??_C@_08LAAHMNDO@vplzcntq@ 100d5d20     Zydis.obj
 0003:00080d2c       ??_C@_08PGIBPOPE@vpmacsdd@ 100d5d2c     Zydis.obj
 0003:00080d38       ??_C@_09NOPDHMP@vpmacsdqh@ 100d5d38     Zydis.obj
 0003:00080d44       ??_C@_09GJIDPCML@vpmacsdql@ 100d5d44     Zydis.obj
 0003:00080d50       ??_C@_09HGHJHGHO@vpmacssdd@ 100d5d50     Zydis.obj
 0003:00080d5c       ??_C@_0L@CKFHJ@vpmacssdqh@ 100d5d5c     Zydis.obj
 0003:00080d68       ??_C@_0L@GEGOGAHN@vpmacssdql@ 100d5d68     Zydis.obj
 0003:00080d74       ??_C@_09GIBJGLFH@vpmacsswd@ 100d5d74     Zydis.obj
 0003:00080d80       ??_C@_09JPGCKMF@vpmacssww@ 100d5d80     Zydis.obj
 0003:00080d8c       ??_C@_08OIOBODNN@vpmacswd@ 100d5d8c     Zydis.obj
 0003:00080d98       ??_C@_08IJAOKCEP@vpmacsww@ 100d5d98     Zydis.obj
 0003:00080da4       ??_C@_0L@KDIFMFPE@vpmadcsswd@ 100d5da4     Zydis.obj
 0003:00080db0       ??_C@_09BFPMMMGN@vpmadcswd@ 100d5db0     Zydis.obj
 0003:00080dbc       ??_C@_0L@DEBACNPK@vpmadd231d@ 100d5dbc     Zydis.obj
 0003:00080dc8       ??_C@_0L@DHJEPJJE@vpmadd233d@ 100d5dc8     Zydis.obj
 0003:00080dd4       ??_C@_0M@OAPMNDPP@vpmadd52huq@ 100d5dd4     Zydis.obj
 0003:00080de0       ??_C@_0M@GPJOEEKI@vpmadd52luq@ 100d5de0     Zydis.obj
 0003:00080dec       ??_C@_0L@LPIDNJFI@vpmaddubsw@ 100d5dec     Zydis.obj
 0003:00080df8       ??_C@_08JHAPFAOL@vpmaddwd@ 100d5df8     Zydis.obj
 0003:00080e04       ??_C@_0L@CJHCEOCK@vpmaskmovd@ 100d5e04     Zydis.obj
 0003:00080e10       ??_C@_0L@BOMHKIDO@vpmaskmovq@ 100d5e10     Zydis.obj
 0003:00080e1c       ??_C@_07KDEFHNIM@vpmaxsb@  100d5e1c     Zydis.obj
 0003:00080e24       ??_C@_07PFBPNKAK@vpmaxsd@  100d5e24     Zydis.obj
 0003:00080e2c       ??_C@_07MCKKDMBO@vpmaxsq@  100d5e2c     Zydis.obj
 0003:00080e34       ??_C@_07JEPAJLJI@vpmaxsw@  100d5e34     Zydis.obj
 0003:00080e3c       ??_C@_07KHMIABDO@vpmaxub@  100d5e3c     Zydis.obj
 0003:00080e44       ??_C@_07PBJCKGLI@vpmaxud@  100d5e44     Zydis.obj
 0003:00080e4c       ??_C@_07MGCHEAKM@vpmaxuq@  100d5e4c     Zydis.obj
 0003:00080e54       ??_C@_07JAHNOHCK@vpmaxuw@  100d5e54     Zydis.obj
 0003:00080e5c       ??_C@_07OGEHDOAO@vpminsb@  100d5e5c     Zydis.obj
 0003:00080e64       ??_C@_07LABNJJII@vpminsd@  100d5e64     Zydis.obj
 0003:00080e6c       ??_C@_07IHKIHPJM@vpminsq@  100d5e6c     Zydis.obj
 0003:00080e74       ??_C@_07NBPCNIBK@vpminsw@  100d5e74     Zydis.obj
 0003:00080e7c       ??_C@_07OCMKECLM@vpminub@  100d5e7c     Zydis.obj
 0003:00080e84       ??_C@_07LEJAOFDK@vpminud@  100d5e84     Zydis.obj
 0003:00080e8c       ??_C@_07IDCFADCO@vpminuq@  100d5e8c     Zydis.obj
 0003:00080e94       ??_C@_07NFHPKEKI@vpminuw@  100d5e94     Zydis.obj
 0003:00080e9c       ??_C@_08DFNNFOMH@vpmovb2m@ 100d5e9c     Zydis.obj
 0003:00080ea8       ??_C@_08BALGABBL@vpmovd2m@ 100d5ea8     Zydis.obj
 0003:00080eb4       ??_C@_07OFMDABCL@vpmovdb@  100d5eb4     Zydis.obj
 0003:00080ebc       ??_C@_07NCHGOHDP@vpmovdw@  100d5ebc     Zydis.obj
 0003:00080ec4       ??_C@_08OKCGFCFO@vpmovm2b@ 100d5ec4     Zydis.obj
 0003:00080ed0       ??_C@_08LMHMPFNI@vpmovm2d@ 100d5ed0     Zydis.obj
 0003:00080edc       ??_C@_08ILMJBDMM@vpmovm2q@ 100d5edc     Zydis.obj
 0003:00080ee8       ??_C@_08NNJDLEEK@vpmovm2w@ 100d5ee8     Zydis.obj
 0003:00080ef4       ??_C@_09PHILFHFD@vpmovmskb@ 100d5ef4     Zydis.obj
 0003:00080f00       ??_C@_08HHHBKGLG@vpmovq2m@ 100d5f00     Zydis.obj
 0003:00080f0c       ??_C@_07PPCOGALA@vpmovqb@  100d5f0c     Zydis.obj
 0003:00080f14       ??_C@_07KJHEMHDG@vpmovqd@  100d5f14     Zydis.obj
 0003:00080f1c       ??_C@_07MIJLIGKE@vpmovqw@  100d5f1c     Zydis.obj
 0003:00080f24       ??_C@_08DCNBCAPA@vpmovsdb@ 100d5f24     Zydis.obj
 0003:00080f30       ??_C@_08FGEMGOE@vpmovsdw@  100d5f30     Zydis.obj
 0003:00080f3c       ??_C@_08CIDMEBGL@vpmovsqb@ 100d5f3c     Zydis.obj
 0003:00080f48       ??_C@_08HOGGOGON@vpmovsqd@ 100d5f48     Zydis.obj
 0003:00080f54       ??_C@_08BPIJKHHP@vpmovsqw@ 100d5f54     Zydis.obj
 0003:00080f60       ??_C@_08CMLBDNNJ@vpmovswb@ 100d5f60     Zydis.obj
 0003:00080f6c       ??_C@_09KGNBGFLI@vpmovsxbd@ 100d5f6c     Zydis.obj
 0003:00080f78       ??_C@_09JBGEIDKM@vpmovsxbq@ 100d5f78     Zydis.obj
 0003:00080f84       ??_C@_09MHDOCECK@vpmovsxbw@ 100d5f84     Zydis.obj
 0003:00080f90       ??_C@_09JFOJPPBO@vpmovsxdq@ 100d5f90     Zydis.obj
 0003:00080f9c       ??_C@_09LMDMAECD@vpmovsxwd@ 100d5f9c     Zydis.obj
 0003:00080fa8       ??_C@_09ILIJOCDH@vpmovsxwq@ 100d5fa8     Zydis.obj
 0003:00080fb4       ??_C@_09KMEHMMCN@vpmovusdb@ 100d5fb4     Zydis.obj
 0003:00080fc0       ??_C@_09JLPCCKDJ@vpmovusdw@ 100d5fc0     Zydis.obj
 0003:00080fcc       ??_C@_09LGKKKNLG@vpmovusqb@ 100d5fcc     Zydis.obj
 0003:00080fd8       ??_C@_09OAPAAKDA@vpmovusqd@ 100d5fd8     Zydis.obj
 0003:00080fe4       ??_C@_09IBBPELKC@vpmovusqw@ 100d5fe4     Zydis.obj
 0003:00080ff0       ??_C@_09LCCHNBAE@vpmovuswb@ 100d5ff0     Zydis.obj
 0003:00080ffc       ??_C@_08FCBKPJGK@vpmovw2m@ 100d5ffc     Zydis.obj
 0003:00081008       ??_C@_07PLKDBMAC@vpmovwb@  100d6008     Zydis.obj
 0003:00081010       ??_C@_09KLMBAHMJ@vpmovzxbd@ 100d6010     Zydis.obj
 0003:0008101c       ??_C@_09JMHEOBNN@vpmovzxbq@ 100d601c     Zydis.obj
 0003:00081028       ??_C@_09MKCOEGFL@vpmovzxbw@ 100d6028     Zydis.obj
 0003:00081034       ??_C@_09JIPJJNGP@vpmovzxdq@ 100d6034     Zydis.obj
 0003:00081040       ??_C@_09LBCMGGFC@vpmovzxwd@ 100d6040     Zydis.obj
 0003:0008104c       ??_C@_09IGJJIAEG@vpmovzxwq@ 100d604c     Zydis.obj
 0003:00081058       ??_C@_07JBNIHIGB@vpmuldq@  100d6058     Zydis.obj
 0003:00081060       ??_C@_07KPHHGHBB@vpmulhd@  100d6060     Zydis.obj
 0003:00081068       ??_C@_09MDLEEJOH@vpmulhrsw@ 100d6068     Zydis.obj
 0003:00081074       ??_C@_08HGGKDAHB@vpmulhud@ 100d6074     Zydis.obj
 0003:00081080       ??_C@_08BHIFHBOD@vpmulhuw@ 100d6080     Zydis.obj
 0003:0008108c       ??_C@_07MOJICGID@vpmulhw@  100d608c     Zydis.obj
 0003:00081094       ??_C@_07KIHOMPMN@vpmulld@  100d6094     Zydis.obj
 0003:0008109c       ??_C@_07JPMLCJNJ@vpmullq@  100d609c     Zydis.obj
 0003:000810a4       ??_C@_07MJJBIOFP@vpmullw@  100d60a4     Zydis.obj
 0003:000810ac       ??_C@_0P@DNFGPCC@vpmultishiftqb@ 100d60ac     Zydis.obj
 0003:000810bc       ??_C@_08POEIJAGA@vpmuludq@ 100d60bc     Zydis.obj
 0003:000810c8       ??_C@_08EBJLLFFH@vpopcntb@ 100d60c8     Zydis.obj
 0003:000810d4       ??_C@_08BHMBBCNB@vpopcntd@ 100d60d4     Zydis.obj
 0003:000810e0       ??_C@_08CAHEPEMF@vpopcntq@ 100d60e0     Zydis.obj
 0003:000810ec       ??_C@_08HGCOFDED@vpopcntw@ 100d60ec     Zydis.obj
 0003:000810f8       ??_C@_04HKPCCKHI@vpor@     100d60f8     Zydis.obj
 0003:00081100       ??_C@_05FPDFKFIH@vpord@    100d6100     Zydis.obj
 0003:00081108       ??_C@_05GIIAEDJD@vporq@    100d6108     Zydis.obj
 0003:00081110       ??_C@_06JEAFIGHL@vpperm@   100d6110     Zydis.obj
 0003:00081118       ??_C@_0L@DOOEEDAI@vprefetch0@ 100d6118     Zydis.obj
 0003:00081124       ??_C@_0L@CHPPHCEJ@vprefetch1@ 100d6124     Zydis.obj
 0003:00081130       ??_C@_0L@MNCCBIK@vprefetch2@ 100d6130     Zydis.obj
 0003:0008113c       ??_C@_0M@LLNELGNJ@vprefetche0@ 100d613c     Zydis.obj
 0003:00081148       ??_C@_0M@KCMPIHJI@vprefetche1@ 100d6148     Zydis.obj
 0003:00081154       ??_C@_0M@IJOCNEFL@vprefetche2@ 100d6154     Zydis.obj
 0003:00081160       ??_C@_0O@HGDEDBMA@vprefetchenta@ 100d6160     Zydis.obj
 0003:00081170       ??_C@_0N@CDMAEGDN@vprefetchnta@ 100d6170     Zydis.obj
 0003:00081180       ??_C@_06EGACAAEM@vprold@   100d6180     Zydis.obj
 0003:00081188       ??_C@_06HBLHOGFI@vprolq@   100d6188     Zydis.obj
 0003:00081190       ??_C@_07GBBPNGAG@vprolvd@  100d6190     Zydis.obj
 0003:00081198       ??_C@_07FGKKDABC@vprolvq@  100d6198     Zydis.obj
 0003:000811a0       ??_C@_06FALKIODG@vprord@   100d61a0     Zydis.obj
 0003:000811a8       ??_C@_06GHAPGICC@vprorq@   100d61a8     Zydis.obj
 0003:000811b0       ??_C@_07NBNJPGKK@vprorvd@  100d61b0     Zydis.obj
 0003:000811b8       ??_C@_07OGGMBALO@vprorvq@  100d61b8     Zydis.obj
 0003:000811c0       ??_C@_06CGNFFAC@vprotb@    100d61c0     Zydis.obj
 0003:000811c8       ??_C@_06FEDHPCIE@vprotd@   100d61c8     Zydis.obj
 0003:000811d0       ??_C@_06GDICBEJA@vprotq@   100d61d0     Zydis.obj
 0003:000811d8       ??_C@_06DFNILDBG@vprotw@   100d61d8     Zydis.obj
 0003:000811e0       ??_C@_07KKAHNJBD@vpsadbw@  100d61e0     Zydis.obj
 0003:000811e8       ??_C@_06IDJGNMCL@vpsbbd@   100d61e8     Zydis.obj
 0003:000811f0       ??_C@_07LFAFBOPN@vpsbbrd@  100d61f0     Zydis.obj
 0003:000811f8       ??_C@_0M@IDJBIKDC@vpscatterdd@ 100d61f8     Zydis.obj
 0003:00081204       ??_C@_0M@LECEGMCG@vpscatterdq@ 100d6204     Zydis.obj
 0003:00081210       ??_C@_0M@JJHMOLKJ@vpscatterqd@ 100d6210     Zydis.obj
 0003:0008121c       ??_C@_0M@KOMJANLN@vpscatterqq@ 100d621c     Zydis.obj
 0003:00081228       ??_C@_06LIDHCFJA@vpshab@   100d6228     Zydis.obj
 0003:00081230       ??_C@_06OOGNICBG@vpshad@   100d6230     Zydis.obj
 0003:00081238       ??_C@_06NJNIGEAC@vpshaq@   100d6238     Zydis.obj
 0003:00081240       ??_C@_06IPICMDIE@vpshaw@   100d6240     Zydis.obj
 0003:00081248       ??_C@_06LAOPLGMD@vpshlb@   100d6248     Zydis.obj
 0003:00081250       ??_C@_06OGLFBBEF@vpshld@   100d6250     Zydis.obj
 0003:00081258       ??_C@_07HMBKOKN@vpshldd@   100d6258     Zydis.obj
 0003:00081260       ??_C@_07DAHEEILJ@vpshldq@  100d6260     Zydis.obj
 0003:00081268       ??_C@_08LGFDMHEG@vpshldvd@ 100d6268     Zydis.obj
 0003:00081274       ??_C@_08IBOGCBFC@vpshldvq@ 100d6274     Zydis.obj
 0003:00081280       ??_C@_08NHLMIGNE@vpshldvw@ 100d6280     Zydis.obj
 0003:0008128c       ??_C@_07GGCOOPDP@vpshldw@  100d628c     Zydis.obj
 0003:00081294       ??_C@_06NBAAPHFB@vpshlq@   100d6294     Zydis.obj
 0003:0008129c       ??_C@_06IHFKFANH@vpshlw@   100d629c     Zydis.obj
 0003:000812a4       ??_C@_07LHAHIOAB@vpshrdd@  100d62a4     Zydis.obj
 0003:000812ac       ??_C@_07IALCGIBF@vpshrdq@  100d62ac     Zydis.obj
 0003:000812b4       ??_C@_08GJIDOOKF@vpshrdvd@ 100d62b4     Zydis.obj
 0003:000812c0       ??_C@_08FODGAILB@vpshrdvq@ 100d62c0     Zydis.obj
 0003:000812cc       ??_C@_08IGMKPDH@vpshrdvw@  100d62cc     Zydis.obj
 0003:000812d8       ??_C@_07NGOIMPJD@vpshrdw@  100d62d8     Zydis.obj
 0003:000812e0       ??_C@_07HPAOMFFA@vpshufb@  100d62e0     Zydis.obj
 0003:000812e8       ??_C@_0N@DMFHBHPO@vpshufbitqmb@ 100d62e8     Zydis.obj
 0003:000812f8       ??_C@_07CJFEGCNG@vpshufd@  100d62f8     Zydis.obj
 0003:00081300       ??_C@_08GPNDFNG@vpshufhw@  100d6300     Zydis.obj
 0003:0008130c       ??_C@_08BPEJNAK@vpshuflw@  100d630c     Zydis.obj
 0003:00081318       ??_C@_07LGGNCCEM@vpsignb@  100d6318     Zydis.obj
 0003:00081320       ??_C@_07OADHIFMK@vpsignd@  100d6320     Zydis.obj
 0003:00081328       ??_C@_07IBNIMEFI@vpsignw@  100d6328     Zydis.obj
 0003:00081330       ??_C@_06GJNHIGBC@vpslld@   100d6330     Zydis.obj
 0003:00081338       ??_C@_07MFPEOOHJ@vpslldq@  100d6338     Zydis.obj
 0003:00081340       ??_C@_06FOGCGAAG@vpsllq@   100d6340     Zydis.obj
 0003:00081348       ??_C@_07ONODHPHD@vpsllvd@  100d6348     Zydis.obj
 0003:00081350       ??_C@_07NKFGJJGH@vpsllvq@  100d6350     Zydis.obj
 0003:00081358       ??_C@_07IMAMDOOB@vpsllvw@  100d6358     Zydis.obj
 0003:00081360       ??_C@_06IDIMHIA@vpsllw@    100d6360     Zydis.obj
 0003:00081368       ??_C@_06NBMJDFON@vpsrad@   100d6368     Zydis.obj
 0003:00081370       ??_C@_06OGHMNDPJ@vpsraq@   100d6370     Zydis.obj
 0003:00081378       ??_C@_07MAFJIOEN@vpsravd@  100d6378     Zydis.obj
 0003:00081380       ??_C@_07PHOMGIFJ@vpsravq@  100d6380     Zydis.obj
 0003:00081388       ??_C@_07KBLGMPNP@vpsravw@  100d6388     Zydis.obj
 0003:00081390       ??_C@_06LACGHEHP@vpsraw@   100d6390     Zydis.obj
 0003:00081398       ??_C@_06NJBBKGLO@vpsrld@   100d6398     Zydis.obj
 0003:000813a0       ??_C@_07BKCEMHJK@vpsrldq@  100d63a0     Zydis.obj
 0003:000813a8       ??_C@_06OOKEEAKK@vpsrlq@   100d63a8     Zydis.obj
 0003:000813b0       ??_C@_07DCDDFGJA@vpsrlvd@  100d63b0     Zydis.obj
 0003:000813b8       ??_C@_07FIGLAIE@vpsrlvq@   100d63b8     Zydis.obj
 0003:000813c0       ??_C@_07FDNMBHAC@vpsrlvw@  100d63c0     Zydis.obj
 0003:000813c8       ??_C@_06LIPOOHCM@vpsrlw@   100d63c8     Zydis.obj
 0003:000813d0       ??_C@_06BIACBEIL@vpsubb@   100d63d0     Zydis.obj
 0003:000813d8       ??_C@_06EOFILDAN@vpsubd@   100d63d8     Zydis.obj
 0003:000813e0       ??_C@_06HJONFFBJ@vpsubq@   100d63e0     Zydis.obj
 0003:000813e8       ??_C@_07GHMFFFGP@vpsubrd@  100d63e8     Zydis.obj
 0003:000813f0       ??_C@_0M@INPHJAMG@vpsubrsetbd@ 100d63f0     Zydis.obj
 0003:000813fc       ??_C@_07DAFNJINO@vpsubsb@  100d63fc     Zydis.obj
 0003:00081404       ??_C@_0L@DHOKGPGH@vpsubsetbd@ 100d6404     Zydis.obj
 0003:00081410       ??_C@_07HOIHOMK@vpsubsw@   100d6410     Zydis.obj
 0003:00081418       ??_C@_08OBPDNPF@vpsubusb@  100d6418     Zydis.obj
 0003:00081424       ??_C@_08DJKKNLOB@vpsubusw@ 100d6424     Zydis.obj
 0003:00081430       ??_C@_06CPLHPCJP@vpsubw@   100d6430     Zydis.obj
 0003:00081438       ??_C@_0L@HLGFMOAK@vpternlogd@ 100d6438     Zydis.obj
 0003:00081444       ??_C@_0L@EMNACIBO@vpternlogq@ 100d6444     Zydis.obj
 0003:00081450       ??_C@_06PLEHODJE@vptest@   100d6450     Zydis.obj
 0003:00081458       ??_C@_08DLOKFGMN@vptestmb@ 100d6458     Zydis.obj
 0003:00081464       ??_C@_08GNLAPBEL@vptestmd@ 100d6464     Zydis.obj
 0003:00081470       ??_C@_08FKAFBHFP@vptestmq@ 100d6470     Zydis.obj
 0003:0008147c       ??_C@_08MFPLANJ@vptestmw@  100d647c     Zydis.obj
 0003:00081488       ??_C@_09KLMMLFKN@vptestnmb@ 100d6488     Zydis.obj
 0003:00081494       ??_C@_09PNJGBCCL@vptestnmd@ 100d6494     Zydis.obj
 0003:000814a0       ??_C@_09MKCDPEDP@vptestnmq@ 100d64a0     Zydis.obj
 0003:000814ac       ??_C@_09JMHJFDLJ@vptestnmw@ 100d64ac     Zydis.obj
 0003:000814b8       ??_C@_0L@FCKGKDDI@vpunpckhbw@ 100d64b8     Zydis.obj
 0003:000814c4       ??_C@_0L@HBHIAM@vpunpckhdq@ 100d64c4     Zydis.obj
 0003:000814d0       ??_C@_0M@ECLILDNC@vpunpckhqdq@ 100d64d0     Zydis.obj
 0003:000814dc       ??_C@_0L@CJKEIDDB@vpunpckhwd@ 100d64dc     Zydis.obj
 0003:000814e8       ??_C@_0L@NNMEDEGP@vpunpcklbw@ 100d64e8     Zydis.obj
 0003:000814f4       ??_C@_0L@IPBDOPFL@vpunpckldq@ 100d64f4     Zydis.obj
 0003:00081500       ??_C@_0M@LHDIBFBC@vpunpcklqdq@ 100d6500     Zydis.obj
 0003:0008150c       ??_C@_0L@KGMGBEGG@vpunpcklwd@ 100d650c     Zydis.obj
 0003:00081518       ??_C@_05JKJNEPFF@vpxor@    100d6518     Zydis.obj
 0003:00081520       ??_C@_06BKAKJGJH@vpxord@   100d6520     Zydis.obj
 0003:00081528       ??_C@_06CNLPHAID@vpxorq@   100d6528     Zydis.obj
 0003:00081530       ??_C@_08BJIPIEAH@vrangepd@ 100d6530     Zydis.obj
 0003:0008153c       ??_C@_08BMAMAAJB@vrangeps@ 100d653c     Zydis.obj
 0003:00081548       ??_C@_08BLMJDKFO@vrangesd@ 100d6548     Zydis.obj
 0003:00081554       ??_C@_08BOEKLOMI@vrangess@ 100d6554     Zydis.obj
 0003:00081560       ??_C@_08HDCOKEGJ@vrcp14pd@ 100d6560     Zydis.obj
 0003:0008156c       ??_C@_08HGKNCAPP@vrcp14ps@ 100d656c     Zydis.obj
 0003:00081578       ??_C@_08HBGIBKDA@vrcp14sd@ 100d6578     Zydis.obj
 0003:00081584       ??_C@_08HEOLJOKG@vrcp14ss@ 100d6584     Zydis.obj
 0003:00081590       ??_C@_08KMNKGCJG@vrcp23ps@ 100d6590     Zydis.obj
 0003:0008159c       ??_C@_08HOFIGBAB@vrcp28pd@ 100d659c     Zydis.obj
 0003:000815a8       ??_C@_08HLNLOFJH@vrcp28ps@ 100d65a8     Zydis.obj
 0003:000815b4       ??_C@_08HMBONPFI@vrcp28sd@ 100d65b4     Zydis.obj
 0003:000815c0       ??_C@_08HJJNFLMO@vrcp28ss@ 100d65c0     Zydis.obj
 0003:000815cc       ??_C@_06OHLJENKE@vrcpph@   100d65cc     Zydis.obj
 0003:000815d4       ??_C@_06EOIPIGDO@vrcpps@   100d65d4     Zydis.obj
 0003:000815dc       ??_C@_06OFPPPDPN@vrcpsh@   100d65dc     Zydis.obj
 0003:000815e4       ??_C@_06EMMJDIGH@vrcpss@   100d65e4     Zydis.obj
 0003:000815ec       ??_C@_09CGABPAB@vreducepd@ 100d65ec     Zydis.obj
 0003:000815f8       ??_C@_09KONFFAAN@vreduceph@ 100d65f8     Zydis.obj
 0003:00081604       ??_C@_09HODJLJH@vreduceps@ 100d6604     Zydis.obj
 0003:00081610       ??_C@_09CGKBFI@vreducesd@  100d6610     Zydis.obj
 0003:0008161c       ??_C@_09KMJDOOFE@vreducesh@ 100d661c     Zydis.obj
 0003:00081628       ??_C@_09FKFCFMO@vreducess@ 100d6628     Zydis.obj
 0003:00081634       ??_C@_0M@HCKMBAHI@vrndfxpntpd@ 100d6634     Zydis.obj
 0003:00081640       ??_C@_0M@HHCPJEOO@vrndfxpntps@ 100d6640     Zydis.obj
 0003:0008164c       ??_C@_0M@HJMBFFKH@vrndscalepd@ 100d664c     Zydis.obj
 0003:00081658       ??_C@_0M@NFHEBKKL@vrndscaleph@ 100d6658     Zydis.obj
 0003:00081664       ??_C@_0M@HMECNBDB@vrndscaleps@ 100d6664     Zydis.obj
 0003:00081670       ??_C@_0M@HLIHOLPO@vrndscalesd@ 100d6670     Zydis.obj
 0003:0008167c       ??_C@_0M@NHDCKEPC@vrndscalesh@ 100d667c     Zydis.obj
 0003:00081688       ??_C@_0M@HOAEGPGI@vrndscaless@ 100d6688     Zydis.obj
 0003:00081694       ??_C@_08JFANAIBG@vroundpd@ 100d6694     Zydis.obj
 0003:000816a0       ??_C@_08JAIOIMIA@vroundps@ 100d66a0     Zydis.obj
 0003:000816ac       ??_C@_08JHELLGEP@vroundsd@ 100d66ac     Zydis.obj
 0003:000816b8       ??_C@_08JCMIDCNJ@vroundss@ 100d66b8     Zydis.obj
 0003:000816c4       ??_C@_0L@IEKLFLPO@vrsqrt14pd@ 100d66c4     Zydis.obj
 0003:000816d0       ??_C@_0L@IBCINPGI@vrsqrt14ps@ 100d66d0     Zydis.obj
 0003:000816dc       ??_C@_0L@IGONOFKH@vrsqrt14sd@ 100d66dc     Zydis.obj
 0003:000816e8       ??_C@_0L@IDGOGBDB@vrsqrt14ss@ 100d66e8     Zydis.obj
 0003:000816f4       ??_C@_0L@FLFPJNAB@vrsqrt23ps@ 100d66f4     Zydis.obj
 0003:00081700       ??_C@_0L@IJNNJOJG@vrsqrt28pd@ 100d6700     Zydis.obj
 0003:0008170c       ??_C@_0L@IMFOBKAA@vrsqrt28ps@ 100d670c     Zydis.obj
 0003:00081718       ??_C@_0L@ILJLCAMP@vrsqrt28sd@ 100d6718     Zydis.obj
 0003:00081724       ??_C@_0L@IOBIKEFJ@vrsqrt28ss@ 100d6724     Zydis.obj
 0003:00081730       ??_C@_08PHFONOKK@vrsqrtph@ 100d6730     Zydis.obj
 0003:0008173c       ??_C@_08FOGIBFDA@vrsqrtps@ 100d673c     Zydis.obj
 0003:00081748       ??_C@_08PFBIGAPD@vrsqrtsh@ 100d6748     Zydis.obj
 0003:00081754       ??_C@_08FMCOKLGJ@vrsqrtss@ 100d6754     Zydis.obj
 0003:00081760       ??_C@_09DIGACEHP@vscalefpd@ 100d6760     Zydis.obj
 0003:0008176c       ??_C@_09JENFGLHD@vscalefph@ 100d676c     Zydis.obj
 0003:00081778       ??_C@_09DNODKAOJ@vscalefps@ 100d6778     Zydis.obj
 0003:00081784       ??_C@_09DKCGJKCG@vscalefsd@ 100d6784     Zydis.obj
 0003:00081790       ??_C@_09JGJDNFCK@vscalefsh@ 100d6790     Zydis.obj
 0003:0008179c       ??_C@_09DPKFBOLA@vscalefss@ 100d679c     Zydis.obj
 0003:000817a8       ??_C@_08MBLPJCOC@vscaleps@ 100d67a8     Zydis.obj
 0003:000817b4       ??_C@_0M@FDGHODFB@vscatterdpd@ 100d67b4     Zydis.obj
 0003:000817c0       ??_C@_0M@FGOEGHMH@vscatterdps@ 100d67c0     Zydis.obj
 0003:000817cc       ??_C@_0P@KBFCIGPH@vscatterpf0dpd@ 100d67cc     Zydis.obj
 0003:000817dc       ??_C@_0P@KENBACGB@vscatterpf0dps@ 100d67dc     Zydis.obj
 0003:000817ec       ??_C@_0BD@DOFBOKBI@vscatterpf0hintdpd@ 100d67ec     Zydis.obj
 0003:00081800       ??_C@_0BD@DLNCGOIO@vscatterpf0hintdps@ 100d6800     Zydis.obj
 0003:00081814       ??_C@_0P@MGJFCBFK@vscatterpf0qpd@ 100d6814     Zydis.obj
 0003:00081824       ??_C@_0P@MDBGKFMM@vscatterpf0qps@ 100d6824     Zydis.obj
 0003:00081834       ??_C@_0P@JMDCKPEH@vscatterpf1dpd@ 100d6834     Zydis.obj
 0003:00081844       ??_C@_0P@JJLBCLNB@vscatterpf1dps@ 100d6844     Zydis.obj
 0003:00081854       ??_C@_0P@PLPFAIOK@vscatterpf1qpd@ 100d6854     Zydis.obj
 0003:00081864       ??_C@_0P@POHGIMHM@vscatterpf1qps@ 100d6864     Zydis.obj
 0003:00081874       ??_C@_0M@DEKAEEPM@vscatterqpd@ 100d6874     Zydis.obj
 0003:00081880       ??_C@_0M@DBCDMAGK@vscatterqps@ 100d6880     Zydis.obj
 0003:0008188c       ??_C@_0M@LINDMLNF@vsha512msg1@ 100d688c     Zydis.obj
 0003:00081898       ??_C@_0M@JDPOJIBG@vsha512msg2@ 100d6898     Zydis.obj
 0003:000818a4       ??_C@_0N@BACKLENM@vsha512rnds2@ 100d68a4     Zydis.obj
 0003:000818b4       ??_C@_0L@PHDKPJIL@vshuff32x4@ 100d68b4     Zydis.obj
 0003:000818c0       ??_C@_0L@EMOLIOKB@vshuff64x2@ 100d68c0     Zydis.obj
 0003:000818cc       ??_C@_0L@GGMELFO@vshufi32x4@ 100d68cc     Zydis.obj
 0003:000818d8       ??_C@_0L@LNLNDMHE@vshufi64x2@ 100d68d8     Zydis.obj
 0003:000818e4       ??_C@_07LDNKPOJD@vshufpd@  100d68e4     Zydis.obj
 0003:000818ec       ??_C@_07LGFJHKAF@vshufps@  100d68ec     Zydis.obj
 0003:000818f4       ??_C@_08EDPCPJMC@vsm3msg1@ 100d68f4     Zydis.obj
 0003:00081900       ??_C@_08GINPKKAB@vsm3msg2@ 100d6900     Zydis.obj
 0003:0008190c       ??_C@_09JDACBACJ@vsm3rnds2@ 100d690c     Zydis.obj
 0003:00081918       ??_C@_08MPAKEOKG@vsm4key4@ 100d6918     Zydis.obj
 0003:00081924       ??_C@_09PPIJCB@vsm4rnds4@  100d6924     Zydis.obj
 0003:00081930       ??_C@_07NPDDOOME@vsqrtpd@  100d6930     Zydis.obj
 0003:00081938       ??_C@_07HDIGKBMI@vsqrtph@  100d6938     Zydis.obj
 0003:00081940       ??_C@_07NKLAGKFC@vsqrtps@  100d6940     Zydis.obj
 0003:00081948       ??_C@_07NNHFFAJN@vsqrtsd@  100d6948     Zydis.obj
 0003:00081950       ??_C@_07HBMABPJB@vsqrtsh@  100d6950     Zydis.obj
 0003:00081958       ??_C@_07NIPGNEAL@vsqrtss@  100d6958     Zydis.obj
 0003:00081960       ??_C@_08LPFCBBFP@vstmxcsr@ 100d6960     Zydis.obj
 0003:0008196c       ??_C@_06JFOACMDL@vsubpd@   100d696c     Zydis.obj
 0003:00081974       ??_C@_06DJFFGDDH@vsubph@   100d6974     Zydis.obj
 0003:0008197c       ??_C@_06JAGDKIKN@vsubps@   100d697c     Zydis.obj
 0003:00081984       ??_C@_07BCJGEIM@vsubrpd@   100d6984     Zydis.obj
 0003:0008198c       ??_C@_07EKKOABK@vsubrps@   100d698c     Zydis.obj
 0003:00081994       ??_C@_06JHKGJCGC@vsubsd@   100d6994     Zydis.obj
 0003:0008199c       ??_C@_06DLBDNNGO@vsubsh@   100d699c     Zydis.obj
 0003:000819a4       ??_C@_06JCCFBGPE@vsubss@   100d69a4     Zydis.obj
 0003:000819ac       ??_C@_07LPLDLJHH@vtestpd@  100d69ac     Zydis.obj
 0003:000819b4       ??_C@_07LKDADNOB@vtestps@  100d69b4     Zydis.obj
 0003:000819bc       ??_C@_08ENKJFGNC@vucomisd@ 100d69bc     Zydis.obj
 0003:000819c8       ??_C@_08OBBMBJNO@vucomish@ 100d69c8     Zydis.obj
 0003:000819d4       ??_C@_08EICKNCEE@vucomiss@ 100d69d4     Zydis.obj
 0003:000819e0       ??_C@_09LPGPKENJ@vunpckhpd@ 100d69e0     Zydis.obj
 0003:000819ec       ??_C@_09LKOMCAEP@vunpckhps@ 100d69ec     Zydis.obj
 0003:000819f8       ??_C@_09DAANDDIO@vunpcklpd@ 100d69f8     Zydis.obj
 0003:00081a04       ??_C@_09DFIOLHBI@vunpcklps@ 100d6a04     Zydis.obj
 0003:00081a10       ??_C@_06IFGOAEEE@vxorpd@   100d6a10     Zydis.obj
 0003:00081a18       ??_C@_06IAONIANC@vxorps@   100d6a18     Zydis.obj
 0003:00081a20       ??_C@_08CIMGHFML@vzeroall@ 100d6a20     Zydis.obj
 0003:00081a2c       ??_C@_0L@HMOMGDGG@vzeroupper@ 100d6a2c     Zydis.obj
 0003:00081a38       ??_C@_06BAFGEPDI@wbinvd@   100d6a38     Zydis.obj
 0003:00081a40       ??_C@_08CIMECILA@wrfsbase@ 100d6a40     Zydis.obj
 0003:00081a4c       ??_C@_08IOLDCDAE@wrgsbase@ 100d6a4c     Zydis.obj
 0003:00081a58       ??_C@_05FJPKDCCJ@wrmsr@    100d6a58     Zydis.obj
 0003:00081a60       ??_C@_09BDJHJBD@wrmsrlist@ 100d6a60     Zydis.obj
 0003:00081a6c       ??_C@_07MKMKFLIO@wrmsrns@  100d6a6c     Zydis.obj
 0003:00081a74       ??_C@_06BNHOMDKO@wrpkru@   100d6a74     Zydis.obj
 0003:00081a7c       ??_C@_05PFKEKHFC@wrssd@    100d6a7c     Zydis.obj
 0003:00081a84       ??_C@_05MCBBEBEG@wrssq@    100d6a84     Zydis.obj
 0003:00081a8c       ??_C@_06BCCIHKIJ@wrussd@   100d6a8c     Zydis.obj
 0003:00081a94       ??_C@_06CFJNJMJN@wrussq@   100d6a94     Zydis.obj
 0003:00081a9c       ??_C@_06OCCNKBIG@xabort@   100d6a9c     Zydis.obj
 0003:00081aa4       ??_C@_04DNKKPONF@xadd@     100d6aa4     Zydis.obj
 0003:00081aac       ??_C@_06LDHDJBJN@xbegin@   100d6aac     Zydis.obj
 0003:00081ab4       ??_C@_04LFJEJMPJ@xchg@     100d6ab4     Zydis.obj
 0003:00081abc       ??_C@_0L@GNILJLBP@xcrypt_cbc@ 100d6abc     Zydis.obj
 0003:00081ac8       ??_C@_0L@HDJJACIC@xcrypt_cfb@ 100d6ac8     Zydis.obj
 0003:00081ad4       ??_C@_0L@CGPJGHMN@xcrypt_ctr@ 100d6ad4     Zydis.obj
 0003:00081ae0       ??_C@_0L@FADJJPLF@xcrypt_ecb@ 100d6ae0     Zydis.obj
 0003:00081aec       ??_C@_0L@DJEPLNDK@xcrypt_ofb@ 100d6aec     Zydis.obj
 0003:00081af8       ??_C@_04LPFPOMFE@xend@     100d6af8     Zydis.obj
 0003:00081b00       ??_C@_06CPFMIPOH@xgetbv@   100d6b00     Zydis.obj
 0003:00081b08       ??_C@_04IDMJPGLC@xlat@     100d6b08     Zydis.obj
 0003:00081b10       ??_C@_03COLCDPPJ@xor@      100d6b10     Zydis.obj
 0003:00081b14       ??_C@_05CGHIJPII@xorpd@    100d6b14     Zydis.obj
 0003:00081b1c       ??_C@_05CDPLBLBO@xorps@    100d6b1c     Zydis.obj
 0003:00081b24       ??_C@_09EEJAPKOK@xresldtrk@ 100d6b24     Zydis.obj
 0003:00081b30       ??_C@_06PPFDCILK@xrstor@   100d6b30     Zydis.obj
 0003:00081b38       ??_C@_08LAFDHLEO@xrstor64@ 100d6b38     Zydis.obj
 0003:00081b44       ??_C@_07CPFJCDIP@xrstors@  100d6b44     Zydis.obj
 0003:00081b4c       ??_C@_09IFLALAHK@xrstors64@ 100d6b4c     Zydis.obj
 0003:00081b58       ??_C@_05NMFCFAIJ@xsave@    100d6b58     Zydis.obj
 0003:00081b60       ??_C@_07BKOGMEHB@xsave64@  100d6b60     Zydis.obj
 0003:00081b68       ??_C@_06NKGIFBLA@xsavec@   100d6b68     Zydis.obj
 0003:00081b70       ??_C@_08GDGFHPGH@xsavec64@ 100d6b70     Zydis.obj
 0003:00081b7c       ??_C@_08KNNNHOKI@xsaveopt@ 100d6b7c     Zydis.obj
 0003:00081b88       ??_C@_0L@EKKPKNNC@xsaveopt64@ 100d6b88     Zydis.obj
 0003:00081b94       ??_C@_06JAKKEDOB@xsaves@   100d6b94     Zydis.obj
 0003:00081b9c       ??_C@_08DDHMCIPI@xsaves64@ 100d6b9c     Zydis.obj
 0003:00081ba8       ??_C@_06LHBLMPGK@xsetbv@   100d6ba8     Zydis.obj
 0003:00081bb0       ??_C@_05GGOEDCKG@xsha1@    100d6bb0     Zydis.obj
 0003:00081bb8       ??_C@_07IJIDDFOL@xsha256@  100d6bb8     Zydis.obj
 0003:00081bc0       ??_C@_06BAEKEDCE@xstore@   100d6bc0     Zydis.obj
 0003:00081bc8       ??_C@_09CPFANPIC@xsusldtrk@ 100d6bc8     Zydis.obj
 0003:00081bd4       ??_C@_05LEACPKDF@xtest@    100d6bd4     Zydis.obj
 0003:00081bdc       ??_C@_04CGFJFPFD@none@     100d6bdc     Zydis.obj
 0003:00081be4       ??_C@_02IAODKDFB@al@       100d6be4     Zydis.obj
 0003:00081be8       ??_C@_02IDGHHHDP@cl@       100d6be8     Zydis.obj
 0003:00081bec       ??_C@_02IGCIGBLK@dl@       100d6bec     Zydis.obj
 0003:00081bf0       ??_C@_02ICKFBNAI@bl@       100d6bf0     Zydis.obj
 0003:00081bf4       ??_C@_02OEIPGGFF@ah@       100d6bf4     Zydis.obj
 0003:00081bf8       ??_C@_02OHALLCDL@ch@       100d6bf8     Zydis.obj
 0003:00081bfc       ??_C@_02OCEEKELO@dh@       100d6bfc     Zydis.obj
 0003:00081c00       ??_C@_02OGMJNIAM@bh@       100d6c00     Zydis.obj
 0003:00081c04       ??_C@_03DKIIGDGK@spl@      100d6c04     Zydis.obj
 0003:00081c08       ??_C@_03NCCNFDJA@bpl@      100d6c08     Zydis.obj
 0003:00081c0c       ??_C@_03CJHPPLJF@sil@      100d6c0c     Zydis.obj
 0003:00081c10       ??_C@_03OELBJELD@dil@      100d6c10     Zydis.obj
 0003:00081c14       ??_C@_03GCDOPFPJ@r8b@      100d6c14     Zydis.obj
 0003:00081c18       ??_C@_03GDPMJPMO@r9b@      100d6c18     Zydis.obj
 0003:00081c1c       ??_C@_04IBPIMIDM@r10b@     100d6c1c     Zydis.obj
 0003:00081c24       ??_C@_04IADKKCAL@r11b@     100d6c24     Zydis.obj
 0003:00081c2c       ??_C@_04ICHMBMFC@r12b@     100d6c2c     Zydis.obj
 0003:00081c34       ??_C@_04IDLOHGGF@r13b@     100d6c34     Zydis.obj
 0003:00081c3c       ??_C@_04IGPBGAOA@r14b@     100d6c3c     Zydis.obj
 0003:00081c44       ??_C@_04IHDDAKNH@r15b@     100d6c44     Zydis.obj
 0003:00081c4c       ??_C@_02KOENHEAE@ax@       100d6c4c     Zydis.obj
 0003:00081c50       ??_C@_02KNMJKAGK@cx@       100d6c50     Zydis.obj
 0003:00081c54       ??_C@_02KIIGLGOP@dx@       100d6c54     Zydis.obj
 0003:00081c58       ??_C@_02KMALMKFN@bx@       100d6c58     Zydis.obj
 0003:00081c5c       ??_C@_02HJDGIJBC@sp@       100d6c5c     Zydis.obj
 0003:00081c60       ??_C@_02GENCEAFF@bp@       100d6c60     Zydis.obj
 0003:00081c64       ??_C@_02OCDGCAAK@si@       100d6c64     Zydis.obj
 0003:00081c68       ??_C@_02PLFPJFPP@di@       100d6c68     Zydis.obj
 0003:00081c6c       ??_C@_03FFILBDON@r8w@      100d6c6c     Zydis.obj
 0003:00081c70       ??_C@_03FEEJHJNK@r9w@      100d6c70     Zydis.obj
 0003:00081c74       ??_C@_04LGENCOCI@r10w@     100d6c74     Zydis.obj
 0003:00081c7c       ??_C@_04LHIPEEBP@r11w@     100d6c7c     Zydis.obj
 0003:00081c84       ??_C@_04LFMJPKEG@r12w@     100d6c84     Zydis.obj
 0003:00081c8c       ??_C@_04LEALJAHB@r13w@     100d6c8c     Zydis.obj
 0003:00081c94       ??_C@_04LBEEIGPE@r14w@     100d6c94     Zydis.obj
 0003:00081c9c       ??_C@_04LAIGOMMD@r15w@     100d6c9c     Zydis.obj
 0003:00081ca4       ??_C@_03HMLAHFDL@eax@      100d6ca4     Zydis.obj
 0003:00081ca8       ??_C@_03HPDEKBFF@ecx@      100d6ca8     Zydis.obj
 0003:00081cac       ??_C@_03HKHLLHNA@edx@      100d6cac     Zydis.obj
 0003:00081cb0       ??_C@_03HOPGMLGC@ebx@      100d6cb0     Zydis.obj
 0003:00081cb4       ??_C@_03KLMLIICN@esp@      100d6cb4     Zydis.obj
 0003:00081cb8       ??_C@_03LGCPEBGK@ebp@      100d6cb8     Zydis.obj
 0003:00081cbc       ??_C@_03DAMLCBDF@esi@      100d6cbc     Zydis.obj
 0003:00081cc0       ??_C@_03CJKCJEMA@edi@      100d6cc0     Zydis.obj
 0003:00081cc4       ??_C@_03DEGEFCHP@r8d@      100d6cc4     Zydis.obj
 0003:00081cc8       ??_C@_03DFKGDIEI@r9d@      100d6cc8     Zydis.obj
 0003:00081ccc       ??_C@_04NHKCGPLK@r10d@     100d6ccc     Zydis.obj
 0003:00081cd4       ??_C@_04NGGAAFIN@r11d@     100d6cd4     Zydis.obj
 0003:00081cdc       ??_C@_04NECGLLNE@r12d@     100d6cdc     Zydis.obj
 0003:00081ce4       ??_C@_04NFOENBOD@r13d@     100d6ce4     Zydis.obj
 0003:00081cec       ??_C@_04NAKLMHGG@r14d@     100d6cec     Zydis.obj
 0003:00081cf4       ??_C@_04NBGJKNFB@r15d@     100d6cf4     Zydis.obj
 0003:00081cfc       ??_C@_03LBHOBKBN@rax@      100d6cfc     Zydis.obj
 0003:00081d00       ??_C@_03LCPKMOHD@rcx@      100d6d00     Zydis.obj
 0003:00081d04       ??_C@_03LHLFNIPG@rdx@      100d6d04     Zydis.obj
 0003:00081d08       ??_C@_03LDDIKEEE@rbx@      100d6d08     Zydis.obj
 0003:00081d0c       ??_C@_03GGAFOHAL@rsp@      100d6d0c     Zydis.obj
 0003:00081d10       ??_C@_03HLOBCOEM@rbp@      100d6d10     Zydis.obj
 0003:00081d14       ??_C@_03PNAFEOBD@rsi@      100d6d14     Zydis.obj
 0003:00081d18       ??_C@_03OEGMPLOG@rdi@      100d6d18     Zydis.obj
 0003:00081d1c       ??_C@_02EAFECGCI@r8@       100d6d1c     Zydis.obj
 0003:00081d20       ??_C@_02FJEPBHGJ@r9@       100d6d20     Zydis.obj
 0003:00081d24       ??_C@_03OFGCPBKA@r10@      100d6d24     Zydis.obj
 0003:00081d28       ??_C@_03PMHJMAOB@r11@      100d6d28     Zydis.obj
 0003:00081d2c       ??_C@_03NHFEJDCC@r12@      100d6d2c     Zydis.obj
 0003:00081d30       ??_C@_03MOEPKCGD@r13@      100d6d30     Zydis.obj
 0003:00081d34       ??_C@_03IBAODEKE@r14@      100d6d34     Zydis.obj
 0003:00081d38       ??_C@_03JIBFAFOF@r15@      100d6d38     Zydis.obj
 0003:00081d3c       ??_C@_03CLIPNJOO@st0@      100d6d3c     Zydis.obj
 0003:00081d40       ??_C@_03DCJEOIKP@st1@      100d6d40     Zydis.obj
 0003:00081d44       ??_C@_03BJLJLLGM@st2@      100d6d44     Zydis.obj
 0003:00081d48       ??_C@_03KCIKCN@st3@        100d6d48     Zydis.obj
 0003:00081d4c       ??_C@_03EPODBMOK@st4@      100d6d4c     Zydis.obj
 0003:00081d50       ??_C@_03FGPICNKL@st5@      100d6d50     Zydis.obj
 0003:00081d54       ??_C@_03HNNFHOGI@st6@      100d6d54     Zydis.obj
 0003:00081d58       ??_C@_03GEMOEPCJ@st7@      100d6d58     Zydis.obj
 0003:00081d5c       ??_C@_0L@LHCOOBKC@x87control@ 100d6d5c     Zydis.obj
 0003:00081d68       ??_C@_09LIBOAGJC@x87status@ 100d6d68     Zydis.obj
 0003:00081d74       ??_C@_06MBMIDECH@x87tag@   100d6d74     Zydis.obj
 0003:00081d7c       ??_C@_03IILOGBLN@mm0@      100d6d7c     Zydis.obj
 0003:00081d80       ??_C@_03JBKFFAPM@mm1@      100d6d80     Zydis.obj
 0003:00081d84       ??_C@_03LKIIADDP@mm2@      100d6d84     Zydis.obj
 0003:00081d88       ??_C@_03KDJDDCHO@mm3@      100d6d88     Zydis.obj
 0003:00081d8c       ??_C@_03OMNCKELJ@mm4@      100d6d8c     Zydis.obj
 0003:00081d90       ??_C@_03PFMJJFPI@mm5@      100d6d90     Zydis.obj
 0003:00081d94       ??_C@_03NOOEMGDL@mm6@      100d6d94     Zydis.obj
 0003:00081d98       ??_C@_03MHPPPHHK@mm7@      100d6d98     Zydis.obj
 0003:00081d9c       ??_C@_04KGHKOCLC@xmm0@     100d6d9c     Zydis.obj
 0003:00081da4       ??_C@_04LPGBNDPD@xmm1@     100d6da4     Zydis.obj
 0003:00081dac       ??_C@_04JEEMIADA@xmm2@     100d6dac     Zydis.obj
 0003:00081db4       ??_C@_04INFHLBHB@xmm3@     100d6db4     Zydis.obj
 0003:00081dbc       ??_C@_04MCBGCHLG@xmm4@     100d6dbc     Zydis.obj
 0003:00081dc4       ??_C@_04NLANBGPH@xmm5@     100d6dc4     Zydis.obj
 0003:00081dcc       ??_C@_04PACAEFDE@xmm6@     100d6dcc     Zydis.obj
 0003:00081dd4       ??_C@_04OJDLHEHF@xmm7@     100d6dd4     Zydis.obj
 0003:00081ddc       ??_C@_04GOKDGILK@xmm8@     100d6ddc     Zydis.obj
 0003:00081de4       ??_C@_04HHLIFJPL@xmm9@     100d6de4     Zydis.obj
 0003:00081dec       ??_C@_05PLENPEIG@xmm10@    100d6dec     Zydis.obj
 0003:00081df4       ??_C@_05OCFGMFMH@xmm11@    100d6df4     Zydis.obj
 0003:00081dfc       ??_C@_05MJHLJGAE@xmm12@    100d6dfc     Zydis.obj
 0003:00081e04       ??_C@_05NAGAKHEF@xmm13@    100d6e04     Zydis.obj
 0003:00081e0c       ??_C@_05JPCBDBIC@xmm14@    100d6e0c     Zydis.obj
 0003:00081e14       ??_C@_05IGDKAAMD@xmm15@    100d6e14     Zydis.obj
 0003:00081e1c       ??_C@_05KNBHFDAA@xmm16@    100d6e1c     Zydis.obj
 0003:00081e24       ??_C@_05LEAMGCEB@xmm17@    100d6e24     Zydis.obj
 0003:00081e2c       ??_C@_05DDJEHOIO@xmm18@    100d6e2c     Zydis.obj
 0003:00081e34       ??_C@_05CKIPEPMP@xmm19@    100d6e34     Zydis.obj
 0003:00081e3c       ??_C@_05PJALEKNP@xmm20@    100d6e3c     Zydis.obj
 0003:00081e44       ??_C@_05OABAHLJO@xmm21@    100d6e44     Zydis.obj
 0003:00081e4c       ??_C@_05MLDNCIFN@xmm22@    100d6e4c     Zydis.obj
 0003:00081e54       ??_C@_05NCCGBJBM@xmm23@    100d6e54     Zydis.obj
 0003:00081e5c       ??_C@_05JNGHIPNL@xmm24@    100d6e5c     Zydis.obj
 0003:00081e64       ??_C@_05IEHMLOJK@xmm25@    100d6e64     Zydis.obj
 0003:00081e6c       ??_C@_05KPFBONFJ@xmm26@    100d6e6c     Zydis.obj
 0003:00081e74       ??_C@_05LGEKNMBI@xmm27@    100d6e74     Zydis.obj
 0003:00081e7c       ??_C@_05DBNCMANH@xmm28@    100d6e7c     Zydis.obj
 0003:00081e84       ??_C@_05CIMJPBJG@xmm29@    100d6e84     Zydis.obj
 0003:00081e8c       ??_C@_05PIMJCAOI@xmm30@    100d6e8c     Zydis.obj
 0003:00081e94       ??_C@_05OBNCBBKJ@xmm31@    100d6e94     Zydis.obj
 0003:00081e9c       ??_C@_04JLBKMLAC@ymm0@     100d6e9c     Zydis.obj
 0003:00081ea4       ??_C@_04ICABPKED@ymm1@     100d6ea4     Zydis.obj
 0003:00081eac       ??_C@_04KJCMKJIA@ymm2@     100d6eac     Zydis.obj
 0003:00081eb4       ??_C@_04LADHJIMB@ymm3@     100d6eb4     Zydis.obj
 0003:00081ebc       ??_C@_04PPHGAOAG@ymm4@     100d6ebc     Zydis.obj
 0003:00081ec4       ??_C@_04OGGNDPEH@ymm5@     100d6ec4     Zydis.obj
 0003:00081ecc       ??_C@_04MNEAGMIE@ymm6@     100d6ecc     Zydis.obj
 0003:00081ed4       ??_C@_04NEFLFNMF@ymm7@     100d6ed4     Zydis.obj
 0003:00081edc       ??_C@_04FDMDEBAK@ymm8@     100d6edc     Zydis.obj
 0003:00081ee4       ??_C@_04EKNIHAEL@ymm9@     100d6ee4     Zydis.obj
 0003:00081eec       ??_C@_05DABBCHCD@ymm10@    100d6eec     Zydis.obj
 0003:00081ef4       ??_C@_05CJAKBGGC@ymm11@    100d6ef4     Zydis.obj
 0003:00081efc       ??_C@_05CCHEFKB@ymm12@     100d6efc     Zydis.obj
 0003:00081f04       ??_C@_05BLDMHEOA@ymm13@    100d6f04     Zydis.obj
 0003:00081f0c       ??_C@_05FEHNOCCH@ymm14@    100d6f0c     Zydis.obj
 0003:00081f14       ??_C@_05ENGGNDGG@ymm15@    100d6f14     Zydis.obj
 0003:00081f1c       ??_C@_05GGELIAKF@ymm16@    100d6f1c     Zydis.obj
 0003:00081f24       ??_C@_05HPFALBOE@ymm17@    100d6f24     Zydis.obj
 0003:00081f2c       ??_C@_05PIMIKNCL@ymm18@    100d6f2c     Zydis.obj
 0003:00081f34       ??_C@_05OBNDJMGK@ymm19@    100d6f34     Zydis.obj
 0003:00081f3c       ??_C@_05DCFHJJHK@ymm20@    100d6f3c     Zydis.obj
 0003:00081f44       ??_C@_05CLEMKIDL@ymm21@    100d6f44     Zydis.obj
 0003:00081f4c       ??_C@_05GBPLPI@ymm22@      100d6f4c     Zydis.obj
 0003:00081f54       ??_C@_05BJHKMKLJ@ymm23@    100d6f54     Zydis.obj
 0003:00081f5c       ??_C@_05FGDLFMHO@ymm24@    100d6f5c     Zydis.obj
 0003:00081f64       ??_C@_05EPCAGNDP@ymm25@    100d6f64     Zydis.obj
 0003:00081f6c       ??_C@_05GEANDOPM@ymm26@    100d6f6c     Zydis.obj
 0003:00081f74       ??_C@_05HNBGAPLN@ymm27@    100d6f74     Zydis.obj
 0003:00081f7c       ??_C@_05PKIOBDHC@ymm28@    100d6f7c     Zydis.obj
 0003:00081f84       ??_C@_05ODJFCCDD@ymm29@    100d6f84     Zydis.obj
 0003:00081f8c       ??_C@_05DDJFPDEN@ymm30@    100d6f8c     Zydis.obj
 0003:00081f94       ??_C@_05CKIOMCAM@ymm31@    100d6f94     Zydis.obj
 0003:00081f9c       ??_C@_04NMLKLBNC@zmm0@     100d6f9c     Zydis.obj
 0003:00081fa4       ??_C@_04MFKBIAJD@zmm1@     100d6fa4     Zydis.obj
 0003:00081fac       ??_C@_04OOIMNDFA@zmm2@     100d6fac     Zydis.obj
 0003:00081fb4       ??_C@_04PHJHOCBB@zmm3@     100d6fb4     Zydis.obj
 0003:00081fbc       ??_C@_04LINGHENG@zmm4@     100d6fbc     Zydis.obj
 0003:00081fc4       ??_C@_04KBMNEFJH@zmm5@     100d6fc4     Zydis.obj
 0003:00081fcc       ??_C@_04IKOABGFE@zmm6@     100d6fcc     Zydis.obj
 0003:00081fd4       ??_C@_04JDPLCHBF@zmm7@     100d6fd4     Zydis.obj
 0003:00081fdc       ??_C@_04BEGDDLNK@zmm8@     100d6fdc     Zydis.obj
 0003:00081fe4       ??_C@_04NHIAKJL@zmm9@      100d6fe4     Zydis.obj
 0003:00081fec       ??_C@_05LGIFFFIN@zmm10@    100d6fec     Zydis.obj
 0003:00081ff4       ??_C@_05KPJOGEMM@zmm11@    100d6ff4     Zydis.obj
 0003:00081ffc       ??_C@_05IELDDHAP@zmm12@    100d6ffc     Zydis.obj
 0003:00082004       ??_C@_05JNKIAGEO@zmm13@    100d7004     Zydis.obj
 0003:0008200c       ??_C@_05NCOJJAIJ@zmm14@    100d700c     Zydis.obj
 0003:00082014       ??_C@_05MLPCKBMI@zmm15@    100d7014     Zydis.obj
 0003:0008201c       ??_C@_05OANPPCAL@zmm16@    100d701c     Zydis.obj
 0003:00082024       ??_C@_05PJMEMDEK@zmm17@    100d7024     Zydis.obj
 0003:0008202c       ??_C@_05HOFMNPIF@zmm18@    100d702c     Zydis.obj
 0003:00082034       ??_C@_05GHEHOOME@zmm19@    100d7034     Zydis.obj
 0003:0008203c       ??_C@_05LEMDOLNE@zmm20@    100d703c     Zydis.obj
 0003:00082044       ??_C@_05KNNINKJF@zmm21@    100d7044     Zydis.obj
 0003:0008204c       ??_C@_05IGPFIJFG@zmm22@    100d704c     Zydis.obj
 0003:00082054       ??_C@_05JPOOLIBH@zmm23@    100d7054     Zydis.obj
 0003:0008205c       ??_C@_05NAKPCONA@zmm24@    100d705c     Zydis.obj
 0003:00082064       ??_C@_05MJLEBPJB@zmm25@    100d7064     Zydis.obj
 0003:0008206c       ??_C@_05OCJJEMFC@zmm26@    100d706c     Zydis.obj
 0003:00082074       ??_C@_05PLICHNBD@zmm27@    100d7074     Zydis.obj
 0003:0008207c       ??_C@_05HMBKGBNM@zmm28@    100d707c     Zydis.obj
 0003:00082084       ??_C@_05GFABFAJN@zmm29@    100d7084     Zydis.obj
 0003:0008208c       ??_C@_05LFABIBOD@zmm30@    100d708c     Zydis.obj
 0003:00082094       ??_C@_05KMBKLAKC@zmm31@    100d7094     Zydis.obj
 0003:0008209c       ??_C@_04GDIKAPLD@tmm0@     100d709c     Zydis.obj
 0003:000820a4       ??_C@_04HKJBDOPC@tmm1@     100d70a4     Zydis.obj
 0003:000820ac       ??_C@_04FBLMGNDB@tmm2@     100d70ac     Zydis.obj
 0003:000820b4       ??_C@_04EIKHFMHA@tmm3@     100d70b4     Zydis.obj
 0003:000820bc       ??_C@_04HOGMKLH@tmm4@      100d70bc     Zydis.obj
 0003:000820c4       ??_C@_04BOPNPLPG@tmm5@     100d70c4     Zydis.obj
 0003:000820cc       ??_C@_04DFNAKIDF@tmm6@     100d70cc     Zydis.obj
 0003:000820d4       ??_C@_04CMMLJJHE@tmm7@     100d70d4     Zydis.obj
 0003:000820dc       ??_C@_05GECEPKB@flags@     100d70dc     Zydis.obj
 0003:000820e4       ??_C@_06PDGCFCDO@eflags@   100d70e4     Zydis.obj
 0003:000820ec       ??_C@_06FBBLPAHO@rflags@   100d70ec     Zydis.obj
 0003:000820f4       ??_C@_02GIIHKPLE@ip@       100d70f4     Zydis.obj
 0003:000820f8       ??_C@_03LKHKKOIL@eip@      100d70f8     Zydis.obj
 0003:000820fc       ??_C@_03HHLEMBKN@rip@      100d70fc     Zydis.obj
 0003:00082100       ??_C@_02EKLAAFBD@es@       100d7100     Zydis.obj
 0003:00082104       ??_C@_02EODNHJKB@cs@       100d7104     Zydis.obj
 0003:00082108       ??_C@_02FCBLNKNB@ss@       100d7108     Zydis.obj
 0003:0008210c       ??_C@_02ELHCGPCE@ds@       100d710c     Zydis.obj
 0003:00082110       ??_C@_02EIPGLLEK@fs@       100d7110     Zydis.obj
 0003:00082114       ??_C@_02EJDENBHN@gs@       100d7114     Zydis.obj
 0003:00082118       ??_C@_04OIHKBIBD@gdtr@     100d7118     Zydis.obj
 0003:00082120       ??_C@_04JPKKCJAC@ldtr@     100d7120     Zydis.obj
 0003:00082128       ??_C@_04FHEKKGHC@idtr@     100d7128     Zydis.obj
 0003:00082130       ??_C@_02EOEPPNBF@tr@       100d7130     Zydis.obj
 0003:00082134       ??_C@_03LCNFJNOF@tr0@      100d7134     Zydis.obj
 0003:00082138       ??_C@_03KLMOKMKE@tr1@      100d7138     Zydis.obj
 0003:0008213c       ??_C@_03IAODPPGH@tr2@      100d713c     Zydis.obj
 0003:00082140       ??_C@_03JJPIMOCG@tr3@      100d7140     Zydis.obj
 0003:00082144       ??_C@_03NGLJFIOB@tr4@      100d7144     Zydis.obj
 0003:00082148       ??_C@_03MPKCGJKA@tr5@      100d7148     Zydis.obj
 0003:0008214c       ??_C@_03OEIPDKGD@tr6@      100d714c     Zydis.obj
 0003:00082150       ??_C@_03PNJEALCC@tr7@      100d7150     Zydis.obj
 0003:00082154       ??_C@_03HPBLPCMD@cr0@      100d7154     Zydis.obj
 0003:00082158       ??_C@_03GGAAMDIC@cr1@      100d7158     Zydis.obj
 0003:0008215c       ??_C@_03ENCNJAEB@cr2@      100d715c     Zydis.obj
 0003:00082160       ??_C@_03FEDGKBAA@cr3@      100d7160     Zydis.obj
 0003:00082164       ??_C@_03BLHHDHMH@cr4@      100d7164     Zydis.obj
 0003:00082168       ??_C@_03CGMAGIG@cr5@       100d7168     Zydis.obj
 0003:0008216c       ??_C@_03CJEBFFEF@cr6@      100d716c     Zydis.obj
 0003:00082170       ??_C@_03DAFKGEAE@cr7@      100d7170     Zydis.obj
 0003:00082174       ??_C@_03LHMCHIML@cr8@      100d7174     Zydis.obj
 0003:00082178       ??_C@_03KONJEJIK@cr9@      100d7178     Zydis.obj
 0003:0008217c       ??_C@_04NMJGNEDM@cr10@     100d717c     Zydis.obj
 0003:00082184       ??_C@_04MFINOFHN@cr11@     100d7184     Zydis.obj
 0003:0008218c       ??_C@_04OOKALGLO@cr12@     100d718c     Zydis.obj
 0003:00082194       ??_C@_04PHLLIHPP@cr13@     100d7194     Zydis.obj
 0003:0008219c       ??_C@_04LIPKBBDI@cr14@     100d719c     Zydis.obj
 0003:000821a4       ??_C@_04KBOBCAHJ@cr15@     100d71a4     Zydis.obj
 0003:000821ac       ??_C@_03OCMMMKHK@dr0@      100d71ac     Zydis.obj
 0003:000821b0       ??_C@_03PLNHPLDL@dr1@      100d71b0     Zydis.obj
 0003:000821b4       ??_C@_03NAPKKIPI@dr2@      100d71b4     Zydis.obj
 0003:000821b8       ??_C@_03MJOBJJLJ@dr3@      100d71b8     Zydis.obj
 0003:000821bc       ??_C@_03IGKAAPHO@dr4@      100d71bc     Zydis.obj
 0003:000821c0       ??_C@_03JPLLDODP@dr5@      100d71c0     Zydis.obj
 0003:000821c4       ??_C@_03LEJGGNPM@dr6@      100d71c4     Zydis.obj
 0003:000821c8       ??_C@_03KNINFMLN@dr7@      100d71c8     Zydis.obj
 0003:000821cc       ??_C@_03CKBFEAHC@dr8@      100d71cc     Zydis.obj
 0003:000821d0       ??_C@_03DDAOHBDD@dr9@      100d71d0     Zydis.obj
 0003:000821d4       ??_C@_04GOLGAICM@dr10@     100d71d4     Zydis.obj
 0003:000821dc       ??_C@_04HHKNDJGN@dr11@     100d71dc     Zydis.obj
 0003:000821e4       ??_C@_04FMIAGKKO@dr12@     100d71e4     Zydis.obj
 0003:000821ec       ??_C@_04EFJLFLOP@dr13@     100d71ec     Zydis.obj
 0003:000821f4       ??_C@_04KNKMNCI@dr14@      100d71f4     Zydis.obj
 0003:000821fc       ??_C@_04BDMBPMGJ@dr15@     100d71fc     Zydis.obj
 0003:00082204       ??_C@_02JLHKDENP@k0@       100d7204     Zydis.obj
 0003:00082208       ??_C@_02ICGBAFJO@k1@       100d7208     Zydis.obj
 0003:0008220c       ??_C@_02KJEMFGFN@k2@       100d720c     Zydis.obj
 0003:00082210       ??_C@_02LAFHGHBM@k3@       100d7210     Zydis.obj
 0003:00082214       ??_C@_02PPBGPBNL@k4@       100d7214     Zydis.obj
 0003:00082218       ??_C@_02OGANMAJK@k5@       100d7218     Zydis.obj
 0003:0008221c       ??_C@_02MNCAJDFJ@k6@       100d721c     Zydis.obj
 0003:00082220       ??_C@_02NEDLKCBI@k7@       100d7220     Zydis.obj
 0003:00082224       ??_C@_04JBEOPJPA@bnd0@     100d7224     Zydis.obj
 0003:0008222c       ??_C@_04IIFFMILB@bnd1@     100d722c     Zydis.obj
 0003:00082234       ??_C@_04KDHIJLHC@bnd2@     100d7234     Zydis.obj
 0003:0008223c       ??_C@_04LKGDKKDD@bnd3@     100d723c     Zydis.obj
 0003:00082244       ??_C@_06GPIDNAPF@bndcfg@   100d7244     Zydis.obj
 0003:0008224c       ??_C@_09FCHDNLGK@bndstatus@ 100d724c     Zydis.obj
 0003:00082258       ??_C@_05FBNIHMEG@mxcsr@    100d7258     Zydis.obj
 0003:00082260       ??_C@_04CJBFKJKC@pkru@     100d7260     Zydis.obj
 0003:00082268       ??_C@_04FBNPHBMM@xcr0@     100d7268     Zydis.obj
 0003:00082270       ??_C@_03PGPLEMMD@uif@      100d7270     Zydis.obj
 0003:00082278       ??_C@_0MJ@HFBCCPGP@0001020304050607080910111213141@ 100d7278     Zydis.obj
 0003:00082344       ??_C@_0BB@JGGOGLEG@0123456789ABCDEF@ 100d7344     Zydis.obj
 0003:00082358       ??_C@_0BB@JCEFLFJE@0123456789abcdef@ 100d7358     Zydis.obj
 0003:00082370       __xmm@41f00000000000000000000000000000 100d7370     mods_manager.obj
 0003:000823b0       __load_config_used         100d73b0     LIBCMT:loadcfg.obj
 0003:000824c0       __tls_used                 100d74c0     LIBCMT:tlssup.obj
 0003:000824d8       ??_R4bad_function_call@std@@6B@ 100d74d8     libcpmt:xthrow.obj
 0003:000824ec       ??_R3bad_function_call@std@@8 100d74ec     libcpmt:xthrow.obj
 0003:000824fc       ??_R2bad_function_call@std@@8 100d74fc     libcpmt:xthrow.obj
 0003:00082508       ??_R1A@?0A@EA@bad_function_call@std@@8 100d7508     libcpmt:xthrow.obj
 0003:00082524       ??_R4length_error@std@@6B@ 100d7524     libcpmt:xthrow.obj
 0003:00082538       ??_R3length_error@std@@8   100d7538     libcpmt:xthrow.obj
 0003:00082548       ??_R2length_error@std@@8   100d7548     libcpmt:xthrow.obj
 0003:00082558       ??_R1A@?0A@EA@length_error@std@@8 100d7558     libcpmt:xthrow.obj
 0003:00082574       ??_R4out_of_range@std@@6B@ 100d7574     libcpmt:xthrow.obj
 0003:00082588       ??_R3out_of_range@std@@8   100d7588     libcpmt:xthrow.obj
 0003:00082598       ??_R2out_of_range@std@@8   100d7598     libcpmt:xthrow.obj
 0003:000825a8       ??_R1A@?0A@EA@out_of_range@std@@8 100d75a8     libcpmt:xthrow.obj
 0003:000825c4       ??_R4type_info@@6B@        100d75c4     LIBCMT:std_type_info_static.obj
 0003:000825d8       ??_R3type_info@@8          100d75d8     LIBCMT:std_type_info_static.obj
 0003:000825e8       ??_R2type_info@@8          100d75e8     LIBCMT:std_type_info_static.obj
 0003:000825f0       ??_R1A@?0A@EA@type_info@@8 100d75f0     LIBCMT:std_type_info_static.obj
 0003:0008260c       ??_R4bad_exception@std@@6B@ 100d760c     libvcruntime:frame.obj
 0003:00082620       ??_R3bad_exception@std@@8  100d7620     libvcruntime:frame.obj
 0003:00082630       ??_R2bad_exception@std@@8  100d7630     libvcruntime:frame.obj
 0003:0008263c       ??_R1A@?0A@EA@bad_exception@std@@8 100d763c     libvcruntime:frame.obj
 0003:00082658       ??_R2EnumIteratorIniFileString@@8 100d7658     portable_settings.obj
 0003:00082668       ??_R2?$EnumIteratorIniFileBase@V?$basic_string@_WU?$char_traits@_W@std@@V?$allocator@_W@2@@std@@@@8 100d7668     portable_settings.obj
 0003:00082674       ??_R2EnumIteratorIniFileInt@@8 100d7674     portable_settings.obj
 0003:00082684       ??_R2?$EnumIteratorIniFileBase@H@@8 100d7684     portable_settings.obj
 0003:00082690       ??_R2EnumIteratorRegistryString@@8 100d7690     portable_settings.obj
 0003:000826a0       ??_R2?$EnumIteratorRegistryBase@V?$basic_string@_WU?$char_traits@_W@std@@V?$allocator@_W@2@@std@@@@8 100d76a0     portable_settings.obj
 0003:000826ac       ??_R2EnumIteratorRegistryInt@@8 100d76ac     portable_settings.obj
 0003:000826bc       ??_R2?$EnumIteratorRegistryBase@H@@8 100d76bc     portable_settings.obj
 0003:000826c8       ??_R2?$EnumIteratorImpl@V?$basic_string@_WU?$char_traits@_W@std@@V?$allocator@_W@2@@std@@@@8 100d76c8     portable_settings.obj
 0003:000826d0       ??_R2?$EnumIteratorImpl@H@@8 100d76d0     portable_settings.obj
 0003:000826d8       ??_R2IniFileSettings@@8    100d76d8     portable_settings.obj
 0003:000826e4       ??_R2RegistrySettings@@8   100d76e4     portable_settings.obj
 0003:000826f0       ??_R2PortableSettings@@8   100d76f0     portable_settings.obj
 0003:000826f8       ??_R1A@?0A@EA@EnumIteratorIniFileString@@8 100d76f8     portable_settings.obj
 0003:00082714       ??_R1A@?0A@EA@?$EnumIteratorIniFileBase@V?$basic_string@_WU?$char_traits@_W@std@@V?$allocator@_W@2@@std@@@@8 100d7714     portable_settings.obj
 0003:00082730       ??_R1A@?0A@EA@EnumIteratorIniFileInt@@8 100d7730     portable_settings.obj
 0003:0008274c       ??_R1A@?0A@EA@?$EnumIteratorIniFileBase@H@@8 100d774c     portable_settings.obj
 0003:00082768       ??_R1A@?0A@EA@EnumIteratorRegistryString@@8 100d7768     portable_settings.obj
 0003:00082784       ??_R1A@?0A@EA@?$EnumIteratorRegistryBase@V?$basic_string@_WU?$char_traits@_W@std@@V?$allocator@_W@2@@std@@@@8 100d7784     portable_settings.obj
 0003:000827a0       ??_R1A@?0A@EA@EnumIteratorRegistryInt@@8 100d77a0     portable_settings.obj
 0003:000827bc       ??_R1A@?0A@EA@?$EnumIteratorRegistryBase@H@@8 100d77bc     portable_settings.obj
 0003:000827d8       ??_R1A@?0A@EA@?$EnumIteratorImpl@V?$basic_string@_WU?$char_traits@_W@std@@V?$allocator@_W@2@@std@@@@8 100d77d8     portable_settings.obj
 0003:000827f4       ??_R1A@?0A@EA@?$EnumIteratorImpl@H@@8 100d77f4     portable_settings.obj
 0003:00082810       ??_R1A@?0A@EA@IniFileSettings@@8 100d7810     portable_settings.obj
 0003:0008282c       ??_R1A@?0A@EA@RegistrySettings@@8 100d782c     portable_settings.obj
 0003:00082848       ??_R1A@?0A@EA@PortableSettings@@8 100d7848     portable_settings.obj
 0003:00082864       ??_R3?$EnumIteratorIniFileBase@V?$basic_string@_WU?$char_traits@_W@std@@V?$allocator@_W@2@@std@@@@8 100d7864     portable_settings.obj
 0003:00082874       ??_R3EnumIteratorIniFileString@@8 100d7874     portable_settings.obj
 0003:00082884       ??_R3?$EnumIteratorIniFileBase@H@@8 100d7884     portable_settings.obj
 0003:00082894       ??_R3EnumIteratorIniFileInt@@8 100d7894     portable_settings.obj
 0003:000828a4       ??_R3?$EnumIteratorRegistryBase@V?$basic_string@_WU?$char_traits@_W@std@@V?$allocator@_W@2@@std@@@@8 100d78a4     portable_settings.obj
 0003:000828b4       ??_R3EnumIteratorRegistryString@@8 100d78b4     portable_settings.obj
 0003:000828c4       ??_R3?$EnumIteratorRegistryBase@H@@8 100d78c4     portable_settings.obj
 0003:000828d4       ??_R3EnumIteratorRegistryInt@@8 100d78d4     portable_settings.obj
 0003:000828e4       ??_R3?$EnumIteratorImpl@V?$basic_string@_WU?$char_traits@_W@std@@V?$allocator@_W@2@@std@@@@8 100d78e4     portable_settings.obj
 0003:000828f4       ??_R3?$EnumIteratorImpl@H@@8 100d78f4     portable_settings.obj
 0003:00082904       ??_R3IniFileSettings@@8    100d7904     portable_settings.obj
 0003:00082914       ??_R3RegistrySettings@@8   100d7914     portable_settings.obj
 0003:00082924       ??_R3PortableSettings@@8   100d7924     portable_settings.obj
 0003:00082934       ??_R4?$EnumIteratorIniFileBase@V?$basic_string@_WU?$char_traits@_W@std@@V?$allocator@_W@2@@std@@@@6B@ 100d7934     portable_settings.obj
 0003:00082948       ??_R4EnumIteratorIniFileString@@6B@ 100d7948     portable_settings.obj
 0003:0008295c       ??_R4?$EnumIteratorIniFileBase@H@@6B@ 100d795c     portable_settings.obj
 0003:00082970       ??_R4EnumIteratorIniFileInt@@6B@ 100d7970     portable_settings.obj
 0003:00082984       ??_R4?$EnumIteratorRegistryBase@V?$basic_string@_WU?$char_traits@_W@std@@V?$allocator@_W@2@@std@@@@6B@ 100d7984     portable_settings.obj
 0003:00082998       ??_R4EnumIteratorRegistryString@@6B@ 100d7998     portable_settings.obj
 0003:000829ac       ??_R4?$EnumIteratorRegistryBase@H@@6B@ 100d79ac     portable_settings.obj
 0003:000829c0       ??_R4EnumIteratorRegistryInt@@6B@ 100d79c0     portable_settings.obj
 0003:000829d4       ??_R4?$EnumIteratorImpl@V?$basic_string@_WU?$char_traits@_W@std@@V?$allocator@_W@2@@std@@@@6B@ 100d79d4     portable_settings.obj
 0003:000829e8       ??_R4?$EnumIteratorImpl@H@@6B@ 100d79e8     portable_settings.obj
 0003:000829fc       ??_R4IniFileSettings@@6B@  100d79fc     portable_settings.obj
 0003:00082a10       ??_R4RegistrySettings@@6B@ 100d7a10     portable_settings.obj
 0003:00082a24       ??_R4logic_error@std@@6B@  100d7a24     portable_settings.obj
 0003:00082a38       ??_R1A@?0A@EA@invalid_argument@std@@8 100d7a38     portable_settings.obj
 0003:00082a54       ??_R2logic_error@std@@8    100d7a54     portable_settings.obj
 0003:00082a60       ??_R3logic_error@std@@8    100d7a60     portable_settings.obj
 0003:00082a70       ??_R1A@?0A@EA@logic_error@std@@8 100d7a70     portable_settings.obj
 0003:00082a8c       ??_R2invalid_argument@std@@8 100d7a8c     portable_settings.obj
 0003:00082a9c       ??_R3invalid_argument@std@@8 100d7a9c     portable_settings.obj
 0003:00082aac       ??_R4invalid_argument@std@@6B@ 100d7aac     portable_settings.obj
 0003:00082ac0       ??_R1A@?0A@EA@bad_array_new_length@std@@8 100d7ac0     portable_settings.obj
 0003:00082adc       ??_R2bad_array_new_length@std@@8 100d7adc     portable_settings.obj
 0003:00082aec       ??_R3bad_array_new_length@std@@8 100d7aec     portable_settings.obj
 0003:00082afc       ??_R4bad_array_new_length@std@@6B@ 100d7afc     portable_settings.obj
 0003:00082b10       ??_R1A@?0A@EA@bad_alloc@std@@8 100d7b10     portable_settings.obj
 0003:00082b2c       ??_R2bad_alloc@std@@8      100d7b2c     portable_settings.obj
 0003:00082b38       ??_R3bad_alloc@std@@8      100d7b38     portable_settings.obj
 0003:00082b48       ??_R4bad_alloc@std@@6B@    100d7b48     portable_settings.obj
 0003:00082b5c       ??_R1A@?0A@EA@exception@std@@8 100d7b5c     portable_settings.obj
 0003:00082b78       ??_R2exception@std@@8      100d7b78     portable_settings.obj
 0003:00082b80       ??_R3exception@std@@8      100d7b80     portable_settings.obj
 0003:00082b90       ??_R4exception@std@@6B@    100d7b90     portable_settings.obj
 0003:00082ba4       ??_R2?$__func@V<lambda_1>@?1???$K32GetModuleFileNameExW@V?$basic_string@_WU?$char_traits@_W@std@@V?$allocator@_W@2@@std@@$0IA@@wil@@YAJPAXPAUHINSTANCE__@@AAV?$basic_string@_WU?$char_traits@_W@std@@V?$allocator@_W@2@@std@@@Z@$$A6AJPA_WIPAI@Z@__function@wistd@@8 100d7ba4     all_processes_injector.obj
 0003:00082bb0       ??_R2?$__func@V<lambda_1>@?1???$QueryFullProcessImageNameW@V?$basic_string@_WU?$char_traits@_W@std@@V?$allocator@_W@2@@std@@$0BAA@@wil@@YAJPAXKAAV?$basic_string@_WU?$char_traits@_W@std@@V?$allocator@_W@2@@std@@@Z@$$A6AJPA_WIPAI@Z@__function@wistd@@8 100d7bb0     all_processes_injector.obj
 0003:00082bbc       ??_R1A@?0A@EA@?$__func@V<lambda_1>@?1???$K32GetModuleFileNameExW@V?$basic_string@_WU?$char_traits@_W@std@@V?$allocator@_W@2@@std@@$0IA@@wil@@YAJPAXPAUHINSTANCE__@@AAV?$basic_string@_WU?$char_traits@_W@std@@V?$allocator@_W@2@@std@@@Z@$$A6AJPA_WIPAI@Z@__function@wistd@@8 100d7bbc     all_processes_injector.obj
 0003:00082bd8       ??_R1A@?0A@EA@?$__func@V<lambda_1>@?1???$QueryFullProcessImageNameW@V?$basic_string@_WU?$char_traits@_W@std@@V?$allocator@_W@2@@std@@$0BAA@@wil@@YAJPAXKAAV?$basic_string@_WU?$char_traits@_W@std@@V?$allocator@_W@2@@std@@@Z@$$A6AJPA_WIPAI@Z@__function@wistd@@8 100d7bd8     all_processes_injector.obj
 0003:00082bf4       ??_R3?$__func@V<lambda_1>@?1???$K32GetModuleFileNameExW@V?$basic_string@_WU?$char_traits@_W@std@@V?$allocator@_W@2@@std@@$0IA@@wil@@YAJPAXPAUHINSTANCE__@@AAV?$basic_string@_WU?$char_traits@_W@std@@V?$allocator@_W@2@@std@@@Z@$$A6AJPA_WIPAI@Z@__function@wistd@@8 100d7bf4     all_processes_injector.obj
 0003:00082c04       ??_R3?$__func@V<lambda_1>@?1???$QueryFullProcessImageNameW@V?$basic_string@_WU?$char_traits@_W@std@@V?$allocator@_W@2@@std@@$0BAA@@wil@@YAJPAXKAAV?$basic_string@_WU?$char_traits@_W@std@@V?$allocator@_W@2@@std@@@Z@$$A6AJPA_WIPAI@Z@__function@wistd@@8 100d7c04     all_processes_injector.obj
 0003:00082c14       ??_R4?$__func@V<lambda_1>@?1???$K32GetModuleFileNameExW@V?$basic_string@_WU?$char_traits@_W@std@@V?$allocator@_W@2@@std@@$0IA@@wil@@YAJPAXPAUHINSTANCE__@@AAV?$basic_string@_WU?$char_traits@_W@std@@V?$allocator@_W@2@@std@@@Z@$$A6AJPA_WIPAI@Z@__function@wistd@@6B@ 100d7c14     all_processes_injector.obj
 0003:00082c28       ??_R4?$__func@V<lambda_1>@?1???$QueryFullProcessImageNameW@V?$basic_string@_WU?$char_traits@_W@std@@V?$allocator@_W@2@@std@@$0BAA@@wil@@YAJPAXKAAV?$basic_string@_WU?$char_traits@_W@std@@V?$allocator@_W@2@@std@@@Z@$$A6AJPA_WIPAI@Z@__function@wistd@@6B@ 100d7c28     all_processes_injector.obj
 0003:00082c3c       ??_R1A@?0A@EA@?$__base@$$A6AJPA_WIPAI@Z@__function@wistd@@8 100d7c3c     all_processes_injector.obj
 0003:00082c58       ??_R2?$__base@$$A6AJPA_WIPAI@Z@__function@wistd@@8 100d7c58     all_processes_injector.obj
 0003:00082c60       ??_R3?$__base@$$A6AJPA_WIPAI@Z@__function@wistd@@8 100d7c60     all_processes_injector.obj
 0003:00082c70       ??_R4?$__base@$$A6AJPA_WIPAI@Z@__function@wistd@@6B@ 100d7c70     all_processes_injector.obj
 0003:00082c84       ??_R1A@?0A@EA@_System_error_category@std@@8 100d7c84     all_processes_injector.obj
 0003:00082ca0       ??_R2_System_error_category@std@@8 100d7ca0     all_processes_injector.obj
 0003:00082cac       ??_R3_System_error_category@std@@8 100d7cac     all_processes_injector.obj
 0003:00082cbc       ??_R4_System_error_category@std@@6B@ 100d7cbc     all_processes_injector.obj
 0003:00082cd0       ??_R1A@?0A@EA@_Generic_error_category@std@@8 100d7cd0     all_processes_injector.obj
 0003:00082cec       ??_R2error_category@std@@8 100d7cec     all_processes_injector.obj
 0003:00082cf4       ??_R3error_category@std@@8 100d7cf4     all_processes_injector.obj
 0003:00082d04       ??_R1A@?0A@EA@error_category@std@@8 100d7d04     all_processes_injector.obj
 0003:00082d20       ??_R2_Generic_error_category@std@@8 100d7d20     all_processes_injector.obj
 0003:00082d2c       ??_R3_Generic_error_category@std@@8 100d7d2c     all_processes_injector.obj
 0003:00082d3c       ??_R4_Generic_error_category@std@@6B@ 100d7d3c     all_processes_injector.obj
 0003:00082d50       ??_R1A@?0A@EA@system_error@std@@8 100d7d50     all_processes_injector.obj
 0003:00082d6c       ??_R2system_error@std@@8   100d7d6c     all_processes_injector.obj
 0003:00082d80       ??_R3system_error@std@@8   100d7d80     all_processes_injector.obj
 0003:00082d90       ??_R4system_error@std@@6B@ 100d7d90     all_processes_injector.obj
 0003:00082da4       ??_R1A@?0A@EA@_System_error@std@@8 100d7da4     all_processes_injector.obj
 0003:00082dc0       ??_R2_System_error@std@@8  100d7dc0     all_processes_injector.obj
 0003:00082dd0       ??_R3_System_error@std@@8  100d7dd0     all_processes_injector.obj
 0003:00082de0       ??_R4_System_error@std@@6B@ 100d7de0     all_processes_injector.obj
 0003:00082df4       ??_R1A@?0A@EA@runtime_error@std@@8 100d7df4     all_processes_injector.obj
 0003:00082e10       ??_R2runtime_error@std@@8  100d7e10     all_processes_injector.obj
 0003:00082e1c       ??_R3runtime_error@std@@8  100d7e1c     all_processes_injector.obj
 0003:00082e2c       ??_R4runtime_error@std@@6B@ 100d7e2c     all_processes_injector.obj
 0003:00082e40       ??_R2?$__func@V<lambda_1>@?1???$ExpandEnvironmentStringsW@V?$basic_string@_WU?$char_traits@_W@std@@V?$allocator@_W@2@@std@@$0BAA@@wil@@YAJPB_WAAV?$basic_string@_WU?$char_traits@_W@std@@V?$allocator@_W@2@@std@@@Z@$$A6AJPA_WIPAI@Z@__function@wistd@@8 100d7e40     functions.obj
 0003:00082e4c       ??_R1A@?0A@EA@?$__func@V<lambda_1>@?1???$ExpandEnvironmentStringsW@V?$basic_string@_WU?$char_traits@_W@std@@V?$allocator@_W@2@@std@@$0BAA@@wil@@YAJPB_WAAV?$basic_string@_WU?$char_traits@_W@std@@V?$allocator@_W@2@@std@@@Z@$$A6AJPA_WIPAI@Z@__function@wistd@@8 100d7e4c     functions.obj
 0003:00082e68       ??_R3?$__func@V<lambda_1>@?1???$ExpandEnvironmentStringsW@V?$basic_string@_WU?$char_traits@_W@std@@V?$allocator@_W@2@@std@@$0BAA@@wil@@YAJPB_WAAV?$basic_string@_WU?$char_traits@_W@std@@V?$allocator@_W@2@@std@@@Z@$$A6AJPA_WIPAI@Z@__function@wistd@@8 100d7e68     functions.obj
 0003:00082e78       ??_R4?$__func@V<lambda_1>@?1???$ExpandEnvironmentStringsW@V?$basic_string@_WU?$char_traits@_W@std@@V?$allocator@_W@2@@std@@$0BAA@@wil@@YAJPB_WAAV?$basic_string@_WU?$char_traits@_W@std@@V?$allocator@_W@2@@std@@@Z@$$A6AJPA_WIPAI@Z@__function@wistd@@6B@ 100d7e78     functions.obj
 0003:00082e8c       ??_R2?$_Func_impl_no_alloc@U?$default_delete@V?$optional@W4Verbosity@LoggerBase@@@std@@@std@@XPAV?$optional@W4Verbosity@LoggerBase@@@2@@std@@8 100d7e8c     logger.obj
 0003:00082e98       ??_R2?$_Func_impl_no_alloc@V<lambda_5_>@?0???0?$ThreadLocal@V?$optional@W4Verbosity@LoggerBase@@@std@@@@QAE@XZ@PAV?$optional@W4Verbosity@LoggerBase@@@std@@$$V@std@@8 100d7e98     logger.obj
 0003:00082ea4       ??_R2?$_Func_base@XPAV?$optional@W4Verbosity@LoggerBase@@@std@@@std@@8 100d7ea4     logger.obj
 0003:00082eac       ??_R2?$_Func_base@PAV?$optional@W4Verbosity@LoggerBase@@@std@@$$V@std@@8 100d7eac     logger.obj
 0003:00082eb4       ??_R1A@?0A@EA@?$_Func_impl_no_alloc@U?$default_delete@V?$optional@W4Verbosity@LoggerBase@@@std@@@std@@XPAV?$optional@W4Verbosity@LoggerBase@@@2@@std@@8 100d7eb4     logger.obj
 0003:00082ed0       ??_R1A@?0A@EA@?$_Func_impl_no_alloc@V<lambda_5_>@?0???0?$ThreadLocal@V?$optional@W4Verbosity@LoggerBase@@@std@@@@QAE@XZ@PAV?$optional@W4Verbosity@LoggerBase@@@std@@$$V@std@@8 100d7ed0     logger.obj
 0003:00082eec       ??_R1A@?0A@EA@?$_Func_base@XPAV?$optional@W4Verbosity@LoggerBase@@@std@@@std@@8 100d7eec     logger.obj
 0003:00082f08       ??_R1A@?0A@EA@?$_Func_base@PAV?$optional@W4Verbosity@LoggerBase@@@std@@$$V@std@@8 100d7f08     logger.obj
 0003:00082f24       ??_R3?$_Func_impl_no_alloc@U?$default_delete@V?$optional@W4Verbosity@LoggerBase@@@std@@@std@@XPAV?$optional@W4Verbosity@LoggerBase@@@2@@std@@8 100d7f24     logger.obj
 0003:00082f34       ??_R3?$_Func_impl_no_alloc@V<lambda_5_>@?0???0?$ThreadLocal@V?$optional@W4Verbosity@LoggerBase@@@std@@@@QAE@XZ@PAV?$optional@W4Verbosity@LoggerBase@@@std@@$$V@std@@8 100d7f34     logger.obj
 0003:00082f44       ??_R3?$_Func_base@XPAV?$optional@W4Verbosity@LoggerBase@@@std@@@std@@8 100d7f44     logger.obj
 0003:00082f54       ??_R3?$_Func_base@PAV?$optional@W4Verbosity@LoggerBase@@@std@@$$V@std@@8 100d7f54     logger.obj
 0003:00082f64       ??_R4?$_Func_impl_no_alloc@U?$default_delete@V?$optional@W4Verbosity@LoggerBase@@@std@@@std@@XPAV?$optional@W4Verbosity@LoggerBase@@@2@@std@@6B@ 100d7f64     logger.obj
 0003:00082f78       ??_R4?$_Func_impl_no_alloc@V<lambda_5_>@?0???0?$ThreadLocal@V?$optional@W4Verbosity@LoggerBase@@@std@@@@QAE@XZ@PAV?$optional@W4Verbosity@LoggerBase@@@std@@$$V@std@@6B@ 100d7f78     logger.obj
 0003:00082fa4       ??_R2?$_Func_base@XH@std@@8 100d7fa4     mod.obj
 0003:00082fac       ??_R2?$_Func_base@_N$$V@std@@8 100d7fac     mod.obj
 0003:00082fec       ??_R1A@?0A@EA@?$_Func_base@XH@std@@8 100d7fec     mod.obj
 0003:00083008       ??_R1A@?0A@EA@?$_Func_base@_N$$V@std@@8 100d8008     mod.obj
 0003:00083044       ??_R3?$_Func_base@XH@std@@8 100d8044     mod.obj
 0003:00083054       ??_R3?$_Func_base@_N$$V@std@@8 100d8054     mod.obj
 0003:000830a4       ??_R2?$_Func_base@XPB_W@std@@8 100d80a4     mods_manager.obj
 0003:000830e4       ??_R1A@?0A@EA@?$_Func_base@XPB_W@std@@8 100d80e4     mods_manager.obj
 0003:00083120       ??_R3?$_Func_base@XPB_W@std@@8 100d8120     mods_manager.obj
 0003:00083158       ??_R1A@?0A@EA@bad_optional_access@std@@8 100d8158     customization_session.obj
 0003:00083174       ??_R2bad_optional_access@std@@8 100d8174     customization_session.obj
 0003:00083180       ??_R3bad_optional_access@std@@8 100d8180     customization_session.obj
 0003:00083190       ??_R4bad_optional_access@std@@6B@ 100d8190     customization_session.obj
 0003:000831a4       ??_R2?$__func@V<lambda_1>@?1???$GetEnvironmentVariableW@V?$basic_string@_WU?$char_traits@_W@std@@V?$allocator@_W@2@@std@@$0IA@@wil@@YAJPB_WAAV?$basic_string@_WU?$char_traits@_W@std@@V?$allocator@_W@2@@std@@@Z@$$A6AJPA_WIPAI@Z@__function@wistd@@8 100d81a4     storage_manager.obj
 0003:000831b0       ??_R1A@?0A@EA@?$__func@V<lambda_1>@?1???$GetEnvironmentVariableW@V?$basic_string@_WU?$char_traits@_W@std@@V?$allocator@_W@2@@std@@$0IA@@wil@@YAJPB_WAAV?$basic_string@_WU?$char_traits@_W@std@@V?$allocator@_W@2@@std@@@Z@$$A6AJPA_WIPAI@Z@__function@wistd@@8 100d81b0     storage_manager.obj
 0003:000831cc       ??_R3?$__func@V<lambda_1>@?1???$GetEnvironmentVariableW@V?$basic_string@_WU?$char_traits@_W@std@@V?$allocator@_W@2@@std@@$0IA@@wil@@YAJPB_WAAV?$basic_string@_WU?$char_traits@_W@std@@V?$allocator@_W@2@@std@@@Z@$$A6AJPA_WIPAI@Z@__function@wistd@@8 100d81cc     storage_manager.obj
 0003:000831dc       ??_R4?$__func@V<lambda_1>@?1???$GetEnvironmentVariableW@V?$basic_string@_WU?$char_traits@_W@std@@V?$allocator@_W@2@@std@@$0IA@@wil@@YAJPB_WAAV?$basic_string@_WU?$char_traits@_W@std@@V?$allocator@_W@2@@std@@@Z@$$A6AJPA_WIPAI@Z@__function@wistd@@6B@ 100d81dc     storage_manager.obj
 0003:000831f0       ??_R1A@?0A@EA@?$_Ref_count_obj2@U_Dir_enum_impl@filesystem@std@@@std@@8 100d81f0     storage_manager.obj
 0003:0008320c       ??_R2_Ref_count_base@std@@8 100d820c     storage_manager.obj
 0003:00083214       ??_R3_Ref_count_base@std@@8 100d8214     storage_manager.obj
 0003:00083224       ??_R1A@?0A@EA@_Ref_count_base@std@@8 100d8224     storage_manager.obj
 0003:00083240       ??_R2?$_Ref_count_obj2@U_Dir_enum_impl@filesystem@std@@@std@@8 100d8240     storage_manager.obj
 0003:0008324c       ??_R3?$_Ref_count_obj2@U_Dir_enum_impl@filesystem@std@@@std@@8 100d824c     storage_manager.obj
 0003:0008325c       ??_R4?$_Ref_count_obj2@U_Dir_enum_impl@filesystem@std@@@std@@6B@ 100d825c     storage_manager.obj
 0003:00083270       ??_R1A@?0A@EA@filesystem_error@filesystem@std@@8 100d8270     storage_manager.obj
 0003:0008328c       ??_R2filesystem_error@filesystem@std@@8 100d828c     storage_manager.obj
 0003:000832a4       ??_R3filesystem_error@filesystem@std@@8 100d82a4     storage_manager.obj
 0003:000832b4       ??_R4filesystem_error@filesystem@std@@6B@ 100d82b4     storage_manager.obj
 0003:000832c8       ??_R1A@?0A@EA@bad_variant_access@std@@8 100d82c8     storage_manager.obj
 0003:000832e4       ??_R2bad_variant_access@std@@8 100d82e4     storage_manager.obj
 0003:000832f0       ??_R3bad_variant_access@std@@8 100d82f0     storage_manager.obj
 0003:00083300       ??_R4bad_variant_access@std@@6B@ 100d8300     storage_manager.obj
 0003:00083314       ??_R3ResultException@wil@@8 100d8314     stdafx.obj
 0003:00083324       ??_R1A@?0A@EA@ResultException@wil@@8 100d8324     stdafx.obj
 0003:00083340       ??_R2ResultException@wil@@8 100d8340     stdafx.obj
 0003:0008334c       ??_R4ResultException@wil@@6B@ 100d834c     stdafx.obj
 0003:00083360       ??_R2?$_Func_impl_no_alloc@U?$default_delete@PAUCallbacks@SymbolEnum@@@std@@XPAPAUCallbacks@SymbolEnum@@@std@@8 100d8360     symbol_enum.obj
 0003:0008336c       ??_R2?$_Func_impl_no_alloc@V<lambda_5_>@?0???0?$ThreadLocal@PAUCallbacks@SymbolEnum@@@@QAE@XZ@PAPAUCallbacks@SymbolEnum@@$$V@std@@8 100d836c     symbol_enum.obj
 0003:0008338c       ??_R2?$_Func_base@XPAPAUCallbacks@SymbolEnum@@@std@@8 100d838c     symbol_enum.obj
 0003:00083394       ??_R2?$_Func_base@PAPAUCallbacks@SymbolEnum@@$$V@std@@8 100d8394     symbol_enum.obj
 0003:0008339c       ??_R2IDiaLoadCallback2@@8  100d839c     symbol_enum.obj
 0003:000833ac       ??_R2IDiaLoadCallback@@8   100d83ac     symbol_enum.obj
 0003:000833b8       ??_R2IUnknown@@8           100d83b8     symbol_enum.obj
 0003:000833c0       ??_R1A@?0A@EA@?$_Func_impl_no_alloc@U?$default_delete@PAUCallbacks@SymbolEnum@@@std@@XPAPAUCallbacks@SymbolEnum@@@std@@8 100d83c0     symbol_enum.obj
 0003:000833dc       ??_R1A@?0A@EA@?$_Func_impl_no_alloc@V<lambda_5_>@?0???0?$ThreadLocal@PAUCallbacks@SymbolEnum@@@@QAE@XZ@PAPAUCallbacks@SymbolEnum@@$$V@std@@8 100d83dc     symbol_enum.obj
 0003:00083414       ??_R1A@?0A@EA@?$_Func_base@XPAPAUCallbacks@SymbolEnum@@@std@@8 100d8414     symbol_enum.obj
 0003:00083430       ??_R1A@?0A@EA@?$_Func_base@PAPAUCallbacks@SymbolEnum@@$$V@std@@8 100d8430     symbol_enum.obj
 0003:0008344c       ??_R1A@?0A@EA@IDiaLoadCallback2@@8 100d844c     symbol_enum.obj
 0003:00083468       ??_R1A@?0A@EA@IDiaLoadCallback@@8 100d8468     symbol_enum.obj
 0003:00083484       ??_R1A@?0A@EA@IUnknown@@8  100d8484     symbol_enum.obj
 0003:000834a0       ??_R3?$_Func_impl_no_alloc@U?$default_delete@PAUCallbacks@SymbolEnum@@@std@@XPAPAUCallbacks@SymbolEnum@@@std@@8 100d84a0     symbol_enum.obj
 0003:000834b0       ??_R3?$_Func_impl_no_alloc@V<lambda_5_>@?0???0?$ThreadLocal@PAUCallbacks@SymbolEnum@@@@QAE@XZ@PAPAUCallbacks@SymbolEnum@@$$V@std@@8 100d84b0     symbol_enum.obj
 0003:000834d0       ??_R3?$_Func_base@XPAPAUCallbacks@SymbolEnum@@@std@@8 100d84d0     symbol_enum.obj
 0003:000834e0       ??_R3?$_Func_base@PAPAUCallbacks@SymbolEnum@@$$V@std@@8 100d84e0     symbol_enum.obj
 0003:000834f0       ??_R3IDiaLoadCallback2@@8  100d84f0     symbol_enum.obj
 0003:00083500       ??_R3IDiaLoadCallback@@8   100d8500     symbol_enum.obj
 0003:00083510       ??_R3IUnknown@@8           100d8510     symbol_enum.obj
 0003:00083520       ??_R4?$_Func_impl_no_alloc@U?$default_delete@PAUCallbacks@SymbolEnum@@@std@@XPAPAUCallbacks@SymbolEnum@@@std@@6B@ 100d8520     symbol_enum.obj
 0003:00083534       ??_R4?$_Func_impl_no_alloc@V<lambda_5_>@?0???0?$ThreadLocal@PAUCallbacks@SymbolEnum@@@@QAE@XZ@PAPAUCallbacks@SymbolEnum@@$$V@std@@6B@ 100d8534     symbol_enum.obj
 0003:0008355c       ___safe_se_handler_table   100d855c     <linker-defined>
 0003:0008388c       ___volatile_metadata       100d888c     <linker-defined>
 0003:00083d10       ___rtc_iaa                 100d8d10     LIBCMT:initsect.obj
 0003:00083d14       ___rtc_izz                 100d8d14     LIBCMT:initsect.obj
 0003:00083d18       ___rtc_taa                 100d8d18     LIBCMT:initsect.obj
 0003:00083d1c       ___rtc_tzz                 100d8d1c     LIBCMT:initsect.obj
 0003:00083d20       __tls_start                100d8d20     LIBCMT:tlssup.obj
 0003:00083d24       __Init_thread_epoch        100d8d24     LIBCMT:thread_safe_statics.obj
 0003:00083d28       __tls_end                  100d8d28     LIBCMT:tlssup.obj
 0003:00087484       __TI2?AVbad_alloc@std@@    100dc484     libcpmt:xthrow.obj
 0003:00087494       __CTA2?AVbad_alloc@std@@   100dc494     libcpmt:xthrow.obj
 0003:000874a0       __TI3?AVlength_error@std@@ 100dc4a0     libcpmt:xthrow.obj
 0003:000874b0       __CTA3?AVlength_error@std@@ 100dc4b0     libcpmt:xthrow.obj
 0003:000874c0       __CT??_R0?AVlength_error@std@@@8??0length_error@std@@QAE@ABV01@@Z12 100dc4c0     libcpmt:xthrow.obj
 0003:000874dc       __TI3?AVout_of_range@std@@ 100dc4dc     libcpmt:xthrow.obj
 0003:000874ec       __CTA3?AVout_of_range@std@@ 100dc4ec     libcpmt:xthrow.obj
 0003:000874fc       __CT??_R0?AVout_of_range@std@@@8??0out_of_range@std@@QAE@ABV01@@Z12 100dc4fc     libcpmt:xthrow.obj
 0003:00087518       __TI2?AVbad_function_call@std@@ 100dc518     libcpmt:xthrow.obj
 0003:00087528       __CTA2?AVbad_function_call@std@@ 100dc528     libcpmt:xthrow.obj
 0003:00087534       __CT??_R0?AVbad_function_call@std@@@8??0bad_function_call@std@@QAE@ABV01@@Z12 100dc534     libcpmt:xthrow.obj
 0003:0008771c       __TI2?AVbad_exception@std@@ 100dc71c     libvcruntime:frame.obj
 0003:0008772c       __CTA2?AVbad_exception@std@@ 100dc72c     libvcruntime:frame.obj
 0003:00087738       __CT??_R0?AVbad_exception@std@@@8??0bad_exception@std@@QAE@ABV01@@Z12 100dc738     libvcruntime:frame.obj
 0003:00087b7c       __CTA3?AVinvalid_argument@std@@ 100dcb7c     portable_settings.obj
 0003:00087b8c       __CT??_R0?AVlogic_error@std@@@8??0logic_error@std@@QAE@ABV01@@Z12 100dcb8c     portable_settings.obj
 0003:00087ba8       __CT??_R0?AVinvalid_argument@std@@@8??0invalid_argument@std@@QAE@ABV01@@Z12 100dcba8     portable_settings.obj
 0003:00087bc4       __TI3?AVinvalid_argument@std@@ 100dcbc4     portable_settings.obj
 0003:00087bd4       __CT??_R0?AVbad_array_new_length@std@@@8??0bad_array_new_length@std@@QAE@ABV01@@Z12 100dcbd4     portable_settings.obj
 0003:00087bf0       __CT??_R0?AVbad_alloc@std@@@8??0bad_alloc@std@@QAE@ABV01@@Z12 100dcbf0     portable_settings.obj
 0003:00087c0c       __CT??_R0?AVexception@std@@@8??0exception@std@@QAE@ABV01@@Z12 100dcc0c     portable_settings.obj
 0003:00087c28       __CTA3?AVbad_array_new_length@std@@ 100dcc28     portable_settings.obj
 0003:00087c38       __TI3?AVbad_array_new_length@std@@ 100dcc38     portable_settings.obj
 0003:00087c48       __CTA2?AVruntime_error@std@@ 100dcc48     all_processes_injector.obj
 0003:00087c54       __TI2?AVruntime_error@std@@ 100dcc54     all_processes_injector.obj
 0003:00087c64       __CT??_R0?AVsystem_error@std@@@8??0system_error@std@@QAE@ABV01@@Z20 100dcc64     all_processes_injector.obj
 0003:00087c80       __CT??_R0?AV_System_error@std@@@8??0_System_error@std@@QAE@ABV01@@Z20 100dcc80     all_processes_injector.obj
 0003:00087c9c       __CT??_R0?AVruntime_error@std@@@8??0runtime_error@std@@QAE@ABV01@@Z12 100dcc9c     all_processes_injector.obj
 0003:00087cb8       __CTA4?AVsystem_error@std@@ 100dccb8     all_processes_injector.obj
 0003:00087ccc       __TI4?AVsystem_error@std@@ 100dcccc     all_processes_injector.obj
 0003:00087cdc       __CTA2?AVlogic_error@std@@ 100dccdc     dll_inject.obj
 0003:00087ce8       __TI2?AVlogic_error@std@@  100dcce8     dll_inject.obj
 0003:00087cf8       __CT??_R0?AVbad_optional_access@std@@@8??0bad_optional_access@std@@QAE@ABV01@@Z12 100dccf8     customization_session.obj
 0003:00087d14       __CTA2?AVbad_optional_access@std@@ 100dcd14     customization_session.obj
 0003:00087d20       __TI2?AVbad_optional_access@std@@ 100dcd20     customization_session.obj
 0003:00087d30       __CT??_R0?AVfilesystem_error@filesystem@std@@@8??0filesystem_error@filesystem@std@@QAE@ABV012@@Z92 100dcd30     storage_manager.obj
 0003:00087d4c       __CTA5?AVfilesystem_error@filesystem@std@@ 100dcd4c     storage_manager.obj
 0003:00087d64       __TI5?AVfilesystem_error@filesystem@std@@ 100dcd64     storage_manager.obj
 0003:00087d74       __CT??_R0?AVbad_variant_access@std@@@8??0bad_variant_access@std@@QAE@ABV01@@Z12 100dcd74     storage_manager.obj
 0003:00087d90       __CTA2?AVbad_variant_access@std@@ 100dcd90     storage_manager.obj
 0003:00087d9c       __TI2?AVbad_variant_access@std@@ 100dcd9c     storage_manager.obj
 0003:00087dac       __CT??_R0?AVResultException@wil@@@8??0ResultException@wil@@QAE@ABV01@@Z116 100dcdac     stdafx.obj
 0003:00087dc8       __CTA2?AVResultException@wil@@ 100dcdc8     stdafx.obj
 0003:00087dd4       __TI2?AVResultException@wil@@ 100dcdd4     stdafx.obj
 0003:0008826c       __IMPORT_DESCRIPTOR_ntdll  100dd26c     ntdll:ntdll.dll
 0003:00088280       __IMPORT_DESCRIPTOR_KERNEL32 100dd280     kernel32:KERNEL32.dll
 0003:00088294       __IMPORT_DESCRIPTOR_ADVAPI32 100dd294     advapi32:ADVAPI32.dll
 0003:000882a8       __NULL_IMPORT_DESCRIPTOR   100dd2a8     ntdll:ntdll.dll
 0004:00000030       __Init_global_epoch        100df030     LIBCMT:thread_safe_statics.obj
 0004:00000034       ___scrt_native_dllmain_reason 100df034     LIBCMT:utility.obj
 0004:00000040       ___security_cookie         100df040     LIBCMT:gs_cookie.obj
 0004:00000080       ___security_cookie_complement 100df080     LIBCMT:gs_cookie.obj
 0004:00000088       ___isa_inverted            100df088     LIBCMT:cpu_disp.obj
 0004:00000090       ___isa_enabled             100df090     LIBCMT:cpu_disp.obj
 0004:00000094       __fltused                  100df094     LIBCMT:fltused.obj
 0004:000000b0       __NLG_Destination          100df0b0     libvcruntime:exsup.obj
 0004:000000c8       ___abort_behavior          100df0c8     libucrt:abort.obj
 0004:000000d0       __iob                      100df0d0     libucrt:_file.obj
 0004:00000180       ___acrt_initial_locale_data 100df180     libucrt:nlsdata.obj
 0004:00000238       ___acrt_initial_locale_pointers 100df238     libucrt:nlsdata.obj
 0004:00000240       ___acrt_wide_c_locale_string 100df240     libucrt:nlsdata.obj
 0004:00000244       __pwctype                  100df244     libucrt:ctype.obj
 0004:00000248       ___acrt_initial_multibyte_data 100df248     libucrt:mbctype.obj
 0004:00000768       ___globallocalestatus      100df768     libucrt:glstatus.obj
 0004:00000770       ___acrt_lconv_c            100df770     libucrt:localeconv.obj
 0004:000007c0       ___acrt_lconv_static_decimal 100df7c0     libucrt:localeconv.obj
 0004:000007c4       ___acrt_lconv_static_W_decimal 100df7c4     libucrt:localeconv.obj
 0004:000007d0       __lookuptrailbytes         100df7d0     libucrt:read.obj
 0004:000008f0       ?_Static@?1???$_Immortalize_memcpy_image@V_Generic_error_category@std@@@std@@YAABV_Generic_error_category@1@XZ@4V21@B 100df8f0     all_processes_injector.obj
 0004:000008f8       ?_Static@?1???$_Immortalize_memcpy_image@V_System_error_category@std@@@std@@YAABV_System_error_category@1@XZ@4V21@B 100df8f8     all_processes_injector.obj
 0004:00000900       ?s_telemetryId@ThreadFailureCallbackHolder@details@wil@@0JC 100df900     stdafx.obj
 0004:00000994       _g_header_init_InitializeResultHeader 100df994     stdafx.obj
 0004:00000998       ?g_threadFailureCallbacks@details@wil@@3V?$ThreadLocalStorage@PAVThreadFailureCallbackHolder@details@wil@@@details_abi@2@A 100df998     stdafx.obj
 0004:000009c0       _g_header_init_WilInitialize_ResultMacros_DesktopOrSystem_SuppressPrivateApiUse 100df9c0     stdafx.obj
 0004:000009c4       ?g_processLocalData@details@wil@@3V?$ProcessLocalStorage@UProcessLocalData@details_abi@wil@@@details_abi@2@A 100df9c4     stdafx.obj
 0004:000009cc       _g_header_init_InitializeResultExceptions 100df9cc     stdafx.obj
 0004:000009d0       ??_R0?AVlength_error@std@@@8 100df9d0     libcpmt:xthrow.obj
 0004:000009f0       ??_R0?AVout_of_range@std@@@8 100df9f0     libcpmt:xthrow.obj
 0004:00000a10       ??_R0?AVbad_function_call@std@@@8 100dfa10     libcpmt:xthrow.obj
 0004:00000a34       ??_R0?AVbad_exception@std@@@8 100dfa34     libvcruntime:frame.obj
 0004:00000a54       ??_R0?AVinvalid_argument@std@@@8 100dfa54     portable_settings.obj
 0004:00000a78       ??_R0?AVlogic_error@std@@@8 100dfa78     portable_settings.obj
 0004:00000a98       ??_R0?AVbad_array_new_length@std@@@8 100dfa98     portable_settings.obj
 0004:00000ac0       ??_R0?AVbad_alloc@std@@@8  100dfac0     portable_settings.obj
 0004:00000adc       ??_R0?AVexception@std@@@8  100dfadc     portable_settings.obj
 0004:00000af8       ??_R0?AVResultException@wil@@@8 100dfaf8     all_processes_injector.obj
 0004:00000b1c       ??_R0?AVsystem_error@std@@@8 100dfb1c     all_processes_injector.obj
 0004:00000b3c       ??_R0?AV_System_error@std@@@8 100dfb3c     all_processes_injector.obj
 0004:00000b5c       ??_R0?AVruntime_error@std@@@8 100dfb5c     all_processes_injector.obj
 0004:00000b80       ??_R0?AV<lambda_5_>@?0???0?$ThreadLocal@V?$optional@W4Verbosity@LoggerBase@@@std@@@@QAE@XZ@@8 100dfb80     logger.obj
 0004:00000be0       ??_R0?AU?$default_delete@V?$optional@W4Verbosity@LoggerBase@@@std@@@std@@@8 100dfbe0     logger.obj
 0004:00000dc0       ??_R0?AVbad_optional_access@std@@@8 100dfdc0     customization_session.obj
 0004:00000de8       ??_R0?AVfilesystem_error@filesystem@std@@@8 100dfde8     storage_manager.obj
 0004:00000e18       ??_R0?AVbad_variant_access@std@@@8 100dfe18     storage_manager.obj
 0004:00000e40       ??_R0?AV<lambda_5_>@?0???0?$ThreadLocal@PAUCallbacks@SymbolEnum@@@@QAE@XZ@@8 100dfe40     symbol_enum.obj
 0004:00000e90       ??_R0?AU?$default_delete@PAUCallbacks@SymbolEnum@@@std@@@8 100dfe90     symbol_enum.obj
 0004:00000ed0       ??_R0?AVtype_info@@@8      100dfed0     LIBCMT:std_type_info_static.obj
 0004:00000ee8       ??_R0?AV?$EnumIteratorIniFileBase@V?$basic_string@_WU?$char_traits@_W@std@@V?$allocator@_W@2@@std@@@@@8 100dfee8     portable_settings.obj
 0004:00000f54       ??_R0?AVEnumIteratorIniFileString@@@8 100dff54     portable_settings.obj
 0004:00000f7c       ??_R0?AV?$EnumIteratorIniFileBase@H@@@8 100dff7c     portable_settings.obj
 0004:00000fa8       ??_R0?AVEnumIteratorIniFileInt@@@8 100dffa8     portable_settings.obj
 0004:00000fd0       ??_R0?AV?$EnumIteratorRegistryBase@V?$basic_string@_WU?$char_traits@_W@std@@V?$allocator@_W@2@@std@@@@@8 100dffd0     portable_settings.obj
 0004:0000103c       ??_R0?AVEnumIteratorRegistryString@@@8 100e003c     portable_settings.obj
 0004:00001068       ??_R0?AV?$EnumIteratorRegistryBase@H@@@8 100e0068     portable_settings.obj
 0004:00001094       ??_R0?AVEnumIteratorRegistryInt@@@8 100e0094     portable_settings.obj
 0004:000010c0       ??_R0?AV?$EnumIteratorImpl@V?$basic_string@_WU?$char_traits@_W@std@@V?$allocator@_W@2@@std@@@@@8 100e00c0     portable_settings.obj
 0004:00001124       ??_R0?AV?$EnumIteratorImpl@H@@@8 100e0124     portable_settings.obj
 0004:00001148       ??_R0?AVIniFileSettings@@@8 100e0148     portable_settings.obj
 0004:00001168       ??_R0?AVRegistrySettings@@@8 100e0168     portable_settings.obj
 0004:00001188       ??_R0?AVPortableSettings@@@8 100e0188     portable_settings.obj
 0004:000011a8       ??_R0?AV?$__func@V<lambda_1>@?1???$K32GetModuleFileNameExW@V?$basic_string@_WU?$char_traits@_W@std@@V?$allocator@_W@2@@std@@$0IA@@wil@@YAJPAXPAUHINSTANCE__@@AAV?$basic_string@_WU?$char_traits@_W@std@@V?$allocator@_W@2@@std@@@Z@$$A6AJPA_WIPAI@Z@__function@wistd@@@8 100e01a8     all_processes_injector.obj
 0004:000012b8       ??_R0?AV?$__func@V<lambda_1>@?1???$QueryFullProcessImageNameW@V?$basic_string@_WU?$char_traits@_W@std@@V?$allocator@_W@2@@std@@$0BAA@@wil@@YAJPAXKAAV?$basic_string@_WU?$char_traits@_W@std@@V?$allocator@_W@2@@std@@@Z@$$A6AJPA_WIPAI@Z@__function@wistd@@@8 100e02b8     all_processes_injector.obj
 0004:000013b8       ??_R0?AV?$__base@$$A6AJPA_WIPAI@Z@__function@wistd@@@8 100e03b8     all_processes_injector.obj
 0004:000013f4       ??_R0?AV_System_error_category@std@@@8 100e03f4     all_processes_injector.obj
 0004:00001420       ??_R0?AV_Generic_error_category@std@@@8 100e0420     all_processes_injector.obj
 0004:0000144c       ??_R0?AVerror_category@std@@@8 100e044c     all_processes_injector.obj
 0004:00001470       ??_R0?AV?$__func@V<lambda_1>@?1???$ExpandEnvironmentStringsW@V?$basic_string@_WU?$char_traits@_W@std@@V?$allocator@_W@2@@std@@$0BAA@@wil@@YAJPB_WAAV?$basic_string@_WU?$char_traits@_W@std@@V?$allocator@_W@2@@std@@@Z@$$A6AJPA_WIPAI@Z@__function@wistd@@@8 100e0470     functions.obj
 0004:00001570       ??_R0?AV?$_Func_impl_no_alloc@U?$default_delete@V?$optional@W4Verbosity@LoggerBase@@@std@@@std@@XPAV?$optional@W4Verbosity@LoggerBase@@@2@@std@@@8 100e0570     logger.obj
 0004:00001608       ??_R0?AV?$_Func_impl_no_alloc@V<lambda_5_>@?0???0?$ThreadLocal@V?$optional@W4Verbosity@LoggerBase@@@std@@@@QAE@XZ@PAV?$optional@W4Verbosity@LoggerBase@@@std@@$$V@std@@@8 100e0608     logger.obj
 0004:000016b8       ??_R0?AV?$_Func_base@XPAV?$optional@W4Verbosity@LoggerBase@@@std@@@std@@@8 100e06b8     logger.obj
 0004:00001708       ??_R0?AV?$_Func_base@PAV?$optional@W4Verbosity@LoggerBase@@@std@@$$V@std@@@8 100e0708     logger.obj
 0004:000018a8       ??_R0?AV?$_Func_base@XH@std@@@8 100e08a8     mod.obj
 0004:000018cc       ??_R0?AV?$_Func_base@_N$$V@std@@@8 100e08cc     mod.obj
 0004:000019b4       ??_R0?AV?$_Func_base@XPB_W@std@@@8 100e09b4     mods_manager.obj
 0004:000019e0       ??_R0?AV?$__func@V<lambda_1>@?1???$GetEnvironmentVariableW@V?$basic_string@_WU?$char_traits@_W@std@@V?$allocator@_W@2@@std@@$0IA@@wil@@YAJPB_WAAV?$basic_string@_WU?$char_traits@_W@std@@V?$allocator@_W@2@@std@@@Z@$$A6AJPA_WIPAI@Z@__function@wistd@@@8 100e09e0     storage_manager.obj
 0004:00001ae0       ??_R0?AV?$_Ref_count_obj2@U_Dir_enum_impl@filesystem@std@@@std@@@8 100e0ae0     storage_manager.obj
 0004:00001b28       ??_R0?AV_Ref_count_base@std@@@8 100e0b28     storage_manager.obj
 0004:00001b50       ??_R0?AV?$_Func_impl_no_alloc@U?$default_delete@PAUCallbacks@SymbolEnum@@@std@@XPAPAUCallbacks@SymbolEnum@@@std@@@8 100e0b50     symbol_enum.obj
 0004:00001bc8       ??_R0?AV?$_Func_impl_no_alloc@V<lambda_5_>@?0???0?$ThreadLocal@PAUCallbacks@SymbolEnum@@@@QAE@XZ@PAPAUCallbacks@SymbolEnum@@$$V@std@@@8 100e0bc8     symbol_enum.obj
 0004:00001c80       ??_R0?AV?$_Func_base@XPAPAUCallbacks@SymbolEnum@@@std@@@8 100e0c80     symbol_enum.obj
 0004:00001cbc       ??_R0?AV?$_Func_base@PAPAUCallbacks@SymbolEnum@@$$V@std@@@8 100e0cbc     symbol_enum.obj
 0004:00001cfc       ??_R0?AUIDiaLoadCallback2@@@8 100e0cfc     symbol_enum.obj
 0004:00001d1c       ??_R0?AUIDiaLoadCallback@@@8 100e0d1c     symbol_enum.obj
 0004:00001d3c       ??_R0?AUIUnknown@@@8       100e0d3c     symbol_enum.obj
 0004:0000222c       ___scrt_current_native_startup_state 100e122c     LIBCMT:utility.obj
 0004:00002230       ___scrt_native_startup_lock 100e1230     LIBCMT:utility.obj
 0004:00002254       ___avx10_version           100e1254     LIBCMT:cpu_disp.obj
 0004:00002258       ___isa_available           100e1258     LIBCMT:cpu_disp.obj
 0004:0000225c       ___favor                   100e125c     LIBCMT:cpu_disp.obj
 0004:00002260       __tls_index                100e1260     LIBCMT:tlssup.obj
 0004:00002264       ___scrt_debugger_hook_flag 100e1264     LIBCMT:utility_desktop.obj
 0004:00002268       ?__type_info_root_node@@3U__type_info_node@@A 100e1268     LIBCMT:tncleanup.obj
 0004:00002270       ?_OptionsStorage@?1??__local_stdio_scanf_options@@9@4_KA 100e1270     LIBCMT:default_local_stdio_options.obj
 0004:00002278       ?__WinRTOutOfMemoryExceptionCallback@@3P6GPAXXZA 100e1278     libvcruntime:ehhelpers.obj
 0004:000022a4       ___pPurecall               100e12a4     libvcruntime:purevirt_data.obj
 0004:000022e8       __nstream                  100e12e8     libucrt:_file.obj
 0004:000022ec       ___piob                    100e12ec     libucrt:_file.obj
 0004:00002408       __environ_table            100e1408     libucrt:environment_initialization.obj
 0004:0000240c       __wenviron_table           100e140c     libucrt:environment_initialization.obj
 0004:00002410       ___dcrt_initial_wide_environment 100e1410     libucrt:environment_initialization.obj
 0004:00002414       ___dcrt_initial_narrow_environment 100e1414     libucrt:environment_initialization.obj
 0004:00002418       ___acrt_atexit_table       100e1418     libucrt:onexit.obj
 0004:00002424       ___acrt_at_quick_exit_table 100e1424     libucrt:onexit.obj
 0004:00002444       ___acrt_stdout_buffer      100e1444     libucrt:_sftbuf.obj
 0004:00002448       ___acrt_stderr_buffer      100e1448     libucrt:_sftbuf.obj
 0004:0000244c       ?__acrt_use_tls2_apis@@3_NA 100e144c     libucrt:per_thread_data.obj
 0004:00002450       ___acrt_locale_changed_data 100e1450     libucrt:wsetlocale.obj
 0004:00002454       ___acrt_current_locale_data 100e1454     libucrt:nlsdata.obj
 0004:00002458       ___pioinfo                 100e1458     libucrt:ioinit.obj
 0004:00002658       __nhandle                  100e1658     libucrt:ioinit.obj
 0004:0000283c       __mbctype                  100e183c     libucrt:mbctype.obj
 0004:00002840       __mbcasemap                100e1840     libucrt:mbctype.obj
 0004:00002844       ___acrt_current_multibyte_data 100e1844     libucrt:mbctype.obj
 0004:00002850       __pgmptr                   100e1850     libucrt:argv_data.obj
 0004:00002854       ___argc                    100e1854     libucrt:argv_data.obj
 0004:00002858       ___argv                    100e1858     libucrt:argv_data.obj
 0004:0000285c       ___wargv                   100e185c     libucrt:argv_data.obj
 0004:00002860       __acmdln                   100e1860     libucrt:argv_data.obj
 0004:00002864       __wcmdln                   100e1864     libucrt:argv_data.obj
 0004:00002868       ___acrt_heap               100e1868     libucrt:heap_handle.obj
 0004:00002874       ___acrt_lconv_static_null  100e1874     libucrt:localeconv.obj
 0004:00002878       ___acrt_lconv_static_W_null 100e1878     libucrt:localeconv.obj
 0004:00002884       ___fastflag                100e1884     libucrt:fp_flags.obj
 0004:00002888       ?_OptionsStorage@?1??__local_stdio_printf_options@@9@4_KA 100e1888     logger_base.obj
 0004:00002890       ?s_hrErrorLast@?1??RecordException@details@wil@@YAHJ@Z@4JC 100e1890     portable_settings.obj
 0004:00002894       ?s_cErrorCount@?1??RecordException@details@wil@@YAHJ@Z@4JC 100e1894     portable_settings.obj
 0004:00002898       ?s_hrErrorLast@?1??RecordReturn@details@wil@@YAHJ@Z@4JC 100e1898     portable_settings.obj
 0004:0000289c       ?s_cErrorCount@?1??RecordReturn@details@wil@@YAHJ@Z@4JC 100e189c     portable_settings.obj
 0004:000028a0       ?s_hrErrorLast@?1??RecordLog@details@wil@@YAHJ@Z@4JC 100e18a0     portable_settings.obj
 0004:000028a4       ?s_cErrorCount@?1??RecordLog@details@wil@@YAHJ@Z@4JC 100e18a4     portable_settings.obj
 0004:000028a8       ?s_hrErrorLast@?1??RecordFailFast@details@wil@@YAHJ@Z@4JC 100e18a8     portable_settings.obj
 0004:000028ac       ?g_pfnGetModuleName@details@wil@@3P6GPBDX_EA 100e18ac     portable_settings.obj
 0004:000028b0       ?g_pfnNotifyFailure@details@wil@@3P6GXPAUFailureInfo@2@@_EA 100e18b0     portable_settings.obj
 0004:000028b4       ?g_pfnGetContextAndNotifyFailure@details@wil@@3P6GXPAUFailureInfo@2@PADI@_EA 100e18b4     portable_settings.obj
 0004:000028b8       ?g_pfnLoggingCallback@details@wil@@3P6GXABUFailureInfo@2@@_EA 100e18b8     portable_settings.obj
 0004:000028bc       ?g_pfnOriginateCallback@details@wil@@3P6GXABUFailureInfo@2@@_EA 100e18bc     portable_settings.obj
 0004:000028c0       ?g_fIsDebuggerPresent@wil@@3_NA 100e18c0     portable_settings.obj
 0004:000028c4       ?g_pfnIsDebuggerPresent@wil@@3P6G_NX_EA 100e18c4     portable_settings.obj
 0004:000028c8       ?g_pfnFormatNtStatusMsg@details@wil@@3P6GXJPA_WK@ZA 100e18c8     portable_settings.obj
 0004:000028cc       ?g_resultMessageCallbackSet@details@wil@@3_NA 100e18cc     portable_settings.obj
 0004:000028d0       _g_pfnResultLoggingCallback 100e18d0     portable_settings.obj
 0004:000028d4       ?g_fBreakOnFailure@wil@@3_NA 100e18d4     portable_settings.obj
 0004:000028d8       ?g_pfnDebugBreak@details@wil@@3P6GXX_EA 100e18d8     portable_settings.obj
 0004:000028dc       ?s_failureId@?1??LogFailure@details@wil@@YAXPAXIPBD110W4FailureType@3@ABUResultStatus@23@PB_W_NPA_WIPADIW4FailureFlags@3@PAUFailureInfo@3@@Z@4JC 100e18dc     portable_settings.obj
 0004:000028e0       _g_pfnThrowPlatformException 100e18e0     portable_settings.obj
 0004:000028e4       ?g_pfnRethrow@details@wil@@3P6GXXZA 100e18e4     portable_settings.obj
 0004:000028e8       ?g_pfnThrowResultException@details@wil@@3P6GXABUFailureInfo@2@@ZA 100e18e8     portable_settings.obj
 0004:000028ec       ?g_pfnWilFailFast@wil@@3P6G_NABUFailureInfo@1@@_EA 100e18ec     portable_settings.obj
 0004:000028f0       ?g_pfnFailfastWithContextCallback@details@wil@@3P6GXABUFailureInfo@2@@_EA 100e18f0     portable_settings.obj
 0004:000028f4       ?g_pfnRaiseFailFastException@details@wil@@3P6GXPAU_EXCEPTION_RECORD@@PAU_CONTEXT@@K@ZA 100e18f4     portable_settings.obj
 0004:000028fc       ?g_pfnRtlNtStatusToDosErrorNoTeb@details@wil@@3P6GKJ@_EA 100e18fc     all_processes_injector.obj
 0004:00002900       ?$TSS0@?1??get_cached_ldr_procedure_address@detail@wow64pp@@YA_KAAVerror_code@std@@@Z@4HA 100e1900     all_processes_injector.obj
 0004:00002908       ?ldr_result@?1??get_cached_ldr_procedure_address@detail@wow64pp@@YA_KAAVerror_code@std@@@Z@4V?$expected@_KVerror_code@std@@@5@A 100e1908     all_processes_injector.obj
 0004:00002918       ?$TSS0@?1??get_native_machine@detail@wow64pp@@YAGAAVerror_code@std@@@Z@4HA 100e1918     all_processes_injector.obj
 0004:0000291c       ?native_machine@?1??get_native_machine@detail@wow64pp@@YAGAAVerror_code@std@@@Z@4V?$expected@GVerror_code@std@@@5@A 100e191c     all_processes_injector.obj
 0004:00002928       ?$TSS0@?1??get_call_function_arm64_data@detail@wow64pp@@YAPAUCALL_FUNCTION_ARM64_DATA@23@XZ@4HA 100e1928     all_processes_injector.obj
 0004:00002930       ?function_result@?1??get_call_function_arm64_data@detail@wow64pp@@YAPAUCALL_FUNCTION_ARM64_DATA@23@XZ@4V?$optional@UCALL_FUNCTION_ARM64_DATA@detail@wow64pp@@@std@@A 100e1930     all_processes_injector.obj
 0004:00002970       ?$TSS0@?1???$get_cached_native_ntdll_function@P6GJPAXI0IPAI@Z$1?function_name@?1??get_cached_nt_wow64_query_information_process_64@detail@wow64pp@@YAP6GJPAXI0IPAI@ZAAVerror_code@std@@@Z@4QBDB@detail@wow64pp@@YAP6GJPAXI0IPAI@ZAAVerror_code@std@@@Z@4HA 100e1970     all_processes_injector.obj
 0004:00002974       ?function_result@?1???$get_cached_native_ntdll_function@P6GJPAXI0IPAI@Z$1?function_name@?1??get_cached_nt_wow64_query_information_process_64@detail@wow64pp@@YAP6GJPAXI0IPAI@ZAAVerror_code@std@@@Z@4QBDB@detail@wow64pp@@YAP6GJPAXI0IPAI@ZAAVerror_code@std@@@Z@4V?$expected@P6GJPAXI0IPAI@ZVerror_code@std@@@4@A 100e1974     all_processes_injector.obj
 0004:00002980       ?$TSS0@?1???$get_cached_native_ntdll_function@P6GJPAX_K01PA_K@Z$1?function_name@?1??get_cached_nt_wow64_read_virtual_memory_64@detail@wow64pp@@YAP6GJPAX_K01PA_K@ZAAVerror_code@std@@@Z@4QBDB@detail@wow64pp@@YAP6GJPAX_K01PA_K@ZAAVerror_code@std@@@Z@4HA 100e1980     all_processes_injector.obj
 0004:00002984       ?function_result@?1???$get_cached_native_ntdll_function@P6GJPAX_K01PA_K@Z$1?function_name@?1??get_cached_nt_wow64_read_virtual_memory_64@detail@wow64pp@@YAP6GJPAX_K01PA_K@ZAAVerror_code@std@@@Z@4QBDB@detail@wow64pp@@YAP6GJPAX_K01PA_K@ZAAVerror_code@std@@@Z@4V?$expected@P6GJPAX_K01PA_K@ZVerror_code@std@@@4@A 100e1984     all_processes_injector.obj
 0004:000029c0       ?m_pThis@NewProcessInjector@@0U?$atomic@PAVNewProcessInjector@@@std@@A 100e19c0     new_process_injector.obj
 0004:000029c4       ?g_hDllInst@@3PAUHINSTANCE__@@A 100e19c4     main.obj
 0004:000029c8       ?m_is_terminating@NoDestructorIfTerminatingBase@@1U?$atomic@_N@std@@A 100e19c8     no_destructor.obj
 0004:00002bc4       ?static_init_once_flag_@?3??GetInstance@ScopedStaticSessionManagerProcess@CustomizationSession@@SAAAV?$optional@V?$unique_any_t@V?$unique_storage@U?$handle_null_only_resource_policy@P6GHPAX@Z$1?CloseHandle@@YGH0@Z@details@wil@@@details@wil@@@wil@@@std@@XZ@4Uonce_flag@5@A 100e1bc4     customization_session.obj
 0004:00002bd4       ___@@_PchSym_@00@UfhvihUpzrJJUwvhpglkUmvdLulowviLSBCTUdrmwszdpUhixUdrmwszdpUvmtrmvUvmtrmvUivovzhvUlyqUhgwzucOlyq@4B2008FD98C1DD4 100e1bd4     stdafx.obj
 0004:00002bd8       ?depth@?4??SetLastError@wil@@YAXABUFailureInfo@2@@Z@4JC 100e1bd8     stdafx.obj
 0004:00002bdc       ?g_pProcessLocalData@details_abi@wil@@3PAV?$ProcessLocalStorage@UProcessLocalData@details_abi@wil@@@12@A 100e1bdc     stdafx.obj
 0004:00002be0       ?g_pThreadFailureCallbacks@details@wil@@3PAV?$ThreadLocalStorage@PAVThreadFailureCallbackHolder@details@wil@@@details_abi@2@A 100e1be0     stdafx.obj
 0004:00002be4       ?g_pfnTelemetryCallback@details@wil@@3P6GX_NABUFailureInfo@2@@_EA 100e1be4     stdafx.obj
 0004:00002be8       ?g_pfnDllShutdownInProgress@details@wil@@3P6GEX_EA 100e1be8     stdafx.obj
 0004:00002bec       ?g_processShutdownInProgress@details@wil@@3_NA 100e1bec     stdafx.obj
 0004:00002bf0       __Avx2WmemEnabled          100e1bf0     * CIL library *:* CIL module *
 0004:00002bf0       __Avx2WmemEnabledWeakValue 100e1bf0     stdafx.obj
 0004:00002bf4       ?pfnRtlDisownModuleHeapAllocation@?1??ProcessHeapAlloc@details@wil@@YAPAXKI@Z@4P6GJPAX0@_EA 100e1bf4     stdafx.obj
 0004:00002bf8       ?s_fModuleValid@?1??GetCurrentModuleName@details@wil@@YGPBDXZ@4_NC 100e1bf8     stdafx.obj
 0004:00002c00       ?s_szModule@?1??GetCurrentModuleName@details@wil@@YGPBDXZ@4PADA 100e1c00     stdafx.obj
 0004:00002c40       ?fetchedRtlDisownModuleHeapAllocation@?1??ProcessHeapAlloc@details@wil@@YAPAXKI@Z@4_NA 100e1c40     stdafx.obj
 0004:00002c44       ?lastThread@?1??SetLastError@wil@@YAXABUFailureInfo@2@@Z@4IC 100e1c44     stdafx.obj
 0004:00002d78       ?static_init_once_storage_@?3??GetInstance@ScopedStaticSessionManagerProcess@CustomizationSession@@SAAAV?$optional@V?$unique_any_t@V?$unique_storage@U?$handle_null_only_resource_policy@P6GHPAX@Z$1?CloseHandle@@YGH0@Z@details@wil@@@details@wil@@@wil@@@std@@XZ@4PADA 100e1d78     customization_session.obj
 0004:00002e98       ___dyn_tls_init_callback   100e1e98     <common>
 0004:00002e9c       ___scrt_ucrt_dll_is_in_use 100e1e9c     <common>
 0004:00002ea0       ___use_sse2_mathfcns       100e1ea0     <common>
 0004:00002ea4       __pmatherr                 100e1ea4     <common>
 0004:00002eb0       _g_hooks                   100e1eb0     <common>

 entry point at        0001:0003addc

 Static symbols

 0001:00000000       ?shellcode_syscall_via_fastcall@detail@wow64pp@@3QBEB 10001000     all_processes_injector.obj
 0001:00000008       ?call_function_x64_shellcode@detail@wow64pp@@3QBEB 10001008     all_processes_injector.obj
 0001:00000092       ?shellcode_syscall_via_fastcall@detail@wow64pp@@3QBEB 10001092     dll_inject.obj
 0001:0000009a       ?call_function_x64_shellcode@detail@wow64pp@@3QBEB 1000109a     dll_inject.obj
 0001:00000124       ?shellcode_syscall_via_fastcall@detail@wow64pp@@3QBEB 10001124     stdafx.obj
 0001:0000012c       ?call_function_x64_shellcode@detail@wow64pp@@3QBEB 1000112c     stdafx.obj
 0001:000001c0       ??__Eg_hooks@?A0x8e05aadc@HwbpHook@@YAXXZ 100011c0 f   hwbp_hook.obj
 0001:000001d0       ??__Eg_MonitoredRegions@InjectionMonitor@@YAXXZ 100011d0 f   injection_monitor.obj
 0001:00000280       ??__Eg_header_init_WilInitialize_ResultMacros_DesktopOrSystem_SuppressPrivateApiUse@details@wil@@YAXXZ 10001280 f   stdafx.obj
 0001:000002a0       ??__Eg_header_init_InitializeResultExceptions@details@wil@@YAXXZ 100012a0 f   stdafx.obj
 0001:000002c0       ??__Eg_processLocalData@details@wil@@YAXXZ 100012c0 f   stdafx.obj
 0001:000002d0       ??__Eg_threadFailureCallbacks@details@wil@@YAXXZ 100012d0 f   stdafx.obj
 0001:000002e0       ??__Eg_header_init_InitializeResultHeader@details@wil@@YAXXZ 100012e0 f   stdafx.obj
 0001:00000300       ??__Eg_symbolServerCallbacks@?A0x0a5fb974@@YAXXZ 10001300 f   symbol_enum.obj
 0001:00000510       ?RawItemToInt@RegistrySettingsHelperFunctions@?A0x1960b386@@YAHV?$basic_string@_WU?$char_traits@_W@std@@V?$allocator@_W@2@@std@@KK@Z 10001510 f   portable_settings.obj
 0001:00000620       ?RawItemToString@RegistrySettingsHelperFunctions@?A0x1960b386@@YA?AV?$basic_string@_WU?$char_traits@_W@std@@V?$allocator@_W@2@@std@@V34@KK@Z 10001620 f   portable_settings.obj
 0001:00003550       ?_Xlength@?$vector@UPendingHook@HookSymbolsSession@?A0x64030c04@@V?$allocator@UPendingHook@HookSymbolsSession@?A0x64030c04@@@std@@@std@@CAXXZ 10004550 f i mod.obj
 0001:00004390       $LN33                      10005390     portable_settings.obj
 0001:0000462c       $LN61                      1000562c     portable_settings.obj
 0001:00004bb4       $LN43                      10005bb4     portable_settings.obj
 0001:00004bdc       $LN42                      10005bdc     portable_settings.obj
 0001:00004cc8       $LN45                      10005cc8     portable_settings.obj
 0001:00004cdc       $LN44                      10005cdc     portable_settings.obj
 0001:00005350       ?GetNativeMachine@?A0x2fc73eb2@@YAGXZ 10006350 f   all_processes_injector.obj
 0001:00005480       ?GetRtlUserThreadStart_x64OnArm64@?A0x2fc73eb2@@YA_KXZ 10006480 f   all_processes_injector.obj
 0001:00005750       ?GetThreadContext64@?A0x2fc73eb2@@YAXPAXPAU_CONTEXT@@@Z 10006750 f   all_processes_injector.obj
 0001:000061c0       __catch$?InjectIntoNewProcesses@AllProcessesInjector@@QAE?AV?$vector@KV?$allocator@K@std@@@std@@XZ$0 100071c0 f   all_processes_injector.obj
 0001:000062a6       __catch$?InjectIntoNewProcesses@AllProcessesInjector@@QAE?AV?$vector@KV?$allocator@K@std@@@std@@XZ$1 100072a6 f   all_processes_injector.obj
 0001:00006d20       ??1?$lambda_call@V<lambda_1>@?BC@??InjectIntoNewProcess@AllProcessesInjector@@AAEXPAXK_N@Z@@details@wil@@QAE@XZ 10007d20 f   all_processes_injector.obj
 0001:00006d40       ??1?$lambda_call@V<lambda_1>@?1??GetRtlUserThreadStart_x64OnArm64@?A0x2fc73eb2@@YA_KXZ@@details@wil@@QAE@XZ 10007d40 f   all_processes_injector.obj
 0001:00007d2d       __catch$?make@?$string_maker@V?$basic_string@_WU?$char_traits@_W@std@@V?$allocator@_W@2@@std@@@details@wil@@QAEJPB_WI@Z$0 10008d2d f i all_processes_injector.obj
 0001:0000b405       __catch$?module_handle@wow64pp@@YA_KV?$basic_string_view@DU?$char_traits@D@std@@@std@@@Z$0 1000c405 f i all_processes_injector.obj
 0001:0000bc90       ?NtCreateThreadEx64@?A0x5857acc8@@YAXPAPAXKPAX1P6GJ1@Z1K_K331@Z 1000cc90 f   dll_inject.obj
 0001:0000be00       ?MyQueueUserAPC@?A0x5857acc8@@YAXP6GXPAX00@Z00G@Z 1000ce00 f   dll_inject.obj
 0001:0000c020       ?GetProcessArch@?A0x5857acc8@@YAGPAX@Z 1000d020 f   dll_inject.obj
 0001:0000c870       ??1?$lambda_call@V<lambda_3>@?1??DllInject@2@YAXPAX000_N@Z@@details@wil@@QAE@XZ 1000d870 f   dll_inject.obj
 0001:0000c8a0       ??1?$lambda_call@V<lambda_2>@?1??DllInject@2@YAXPAX000_N@Z@@details@wil@@QAE@XZ 1000d8a0 f   dll_inject.obj
 0001:0000c8d0       ??1?$lambda_call@V<lambda_1>@?1??DllInject@2@YAXPAX000_N@Z@@details@wil@@QAE@XZ 1000d8d0 f   dll_inject.obj
 0001:0000d290       ?Hooked_EtwEventWrite@EtwStealth@@YGK_KPBU_EVENT_DESCRIPTOR@@KPAU_EVENT_DATA_DESCRIPTOR@@@Z 1000e290 f   etw_stealth.obj
 0001:0000d950       ??R<lambda_1>@?1??ReplaceAll@Functions@@YA?AV?$basic_string@_WU?$char_traits@_W@std@@V?$allocator@_W@2@@std@@V?$basic_string_view@_WU?$char_traits@_W@std@@@4@00_N@Z@QBEI00I@Z 1000e950 f   functions.obj
 0001:0000e6b0       ?<lambda_invoker_cdecl>@<lambda_1>@?9???R1?3??GetModuleVersion@Functions@@YA?AV?$basic_string@DU?$char_traits@D@std@@V?$allocator@D@2@@std@@PAUHINSTANCE__@@@Z@QBE@XZ@SA@XZ 1000f6b0 f   functions.obj
 0001:0000e7e0       ?<lambda_invoker_cdecl>@<lambda_1>@?9???R1?3??SetThreadDescriptionIfAvailable@Functions@@YAJPAXPB_W@Z@QBE@XZ@SA@XZ 1000f7e0 f   functions.obj
 0001:0000f600       ?VehHandler@InjectionMonitor@@YGJPAU_EXCEPTION_POINTERS@@@Z 10010600 f   injection_monitor.obj
 0001:00010190       ?GetVerbosityFromConfig@?A0xc8b977ee@@YA?AW4Verbosity@LoggerBase@@XZ 10011190 f   logger.obj
 0001:0001026c       __catch$?GetVerbosityFromConfig@?A0xc8b977ee@@YA?AW4Verbosity@LoggerBase@@XZ$0 1001126c f   logger.obj
 0001:00010730       ?<lambda_invoker_cdecl>@<lambda_1>@?2???R1?3??GetThreadVerbosity@Logger@@CAAAV?$optional@W4Verbosity@LoggerBase@@@std@@XZ@QBE@XZ@SA@XZ 10011730 f   logger.obj
 0001:00010810       ?_Delete_this@?$_Func_impl_no_alloc@V<lambda_1>@?1???0ModsManager@@QAE@XZ@XPB_W@std@@EAEX_N@Z 10011810 f i mods_manager.obj
 0001:00010830       ?_Get@?$_Func_impl_no_alloc@V<lambda_2>@?L@??FindFirstSymbol4@LoadedMod@@QAEPAXPAUHINSTANCE__@@PBUtagWH_FIND_SYMBOL_OPTIONS@@PAUtagWH_FIND_SYMBOL@@@Z@_N$$V@std@@EBEPBXXZ 10011830 f i mod.obj
 0001:00010830       ?_Get@?$_Func_impl_no_alloc@V<lambda_3>@?L@??FindFirstSymbol4@LoadedMod@@QAEPAXPAUHINSTANCE__@@PBUtagWH_FIND_SYMBOL_OPTIONS@@PAUtagWH_FIND_SYMBOL@@@Z@XH@std@@EBEPBXXZ 10011830 f i mod.obj
 0001:00010830       ?_Get@?$_Func_impl_no_alloc@V<lambda_1>@?1???0ModsManager@@QAE@XZ@XPB_W@std@@EBEPBXXZ 10011830 f i mods_manager.obj
 0001:00010830       ?_Get@?$_Func_impl_no_alloc@V<lambda_1>@?1??ReloadModsAndSettings@ModsManager@@QAEXXZ@XPB_W@std@@EBEPBXXZ 10011830 f i mods_manager.obj
 0001:00010a90       ??0ModDebugLoggingScope@?A0x64030c04@@QAE@PBD@Z 10011a90 f   mod.obj
 0001:00010b30       ??1?$optional@VModDebugLoggingScope@?A0x64030c04@@@std@@QAE@XZ 10011b30 f   mod.obj
 0001:00010b30       ??1ModDebugLoggingScopeHelper@?A0x64030c04@@QAE@XZ 10011b30 f   mod.obj
 0001:00010b40       ??0CrossModMutex@?A0x64030c04@@QAE@PB_W@Z 10011b40 f   mod.obj
 0001:00010ca3       __catch$??0CrossModMutex@?A0x64030c04@@QAE@PB_W@Z$0 10011ca3 f   mod.obj
 0001:00010d40       ?Acquire@CrossModMutex@?A0x64030c04@@QAE_NK@Z 10011d40 f   mod.obj
 0001:00010dc0       ?GenerateModInstanceId@?A0x64030c04@@YA?AV?$basic_string@_WU?$char_traits@_W@std@@V?$allocator@_W@2@@std@@PB_W@Z 10011dc0 f   mod.obj
 0001:00011080       ?SetModMetadataValue@?A0x64030c04@@YAXAAV?$unique_any_t@V?$unique_storage@U?$handle_invalid_resource_policy@P6GHPAX@Z$1?CloseHandle@@YGH0@Z@details@wil@@@details@wil@@@wil@@PB_W11@Z 10012080 f   mod.obj
 0001:00011350       ?DoesArchitectureMatchPattern@?A0x64030c04@@YA_NV?$basic_string_view@_WU?$char_traits@_W@std@@@std@@@Z 10012350 f   mod.obj
 0001:000113e0       ?GetModVersion@?A0x64030c04@@YA?AV?$basic_string@_WU?$char_traits@_W@std@@V?$allocator@_W@2@@std@@PB_W@Z 100123e0 f   mod.obj
 0001:000114d0       ?ShouldUseCompatDemangling@?A0x64030c04@@YA_NV?$basic_zstring_view@_W@wil@@@Z 100124d0 f   mod.obj
 0001:00011b50       ??1<unnamed-type-compatMods>@?1??ShouldUseCompatDemangling@?A0x64030c04@@YA_NV?$basic_zstring_view@_W@wil@@@Z@QAE@XZ 10012b50 f   mod.obj
 0001:00011b50       ??1<unnamed-type-incompatibleMods>@?1??IsModBanned@?A0x64030c04@@YA_NV?$basic_zstring_view@_W@wil@@@Z@QAE@XZ 10012b50 f   mod.obj
 0001:00011b60       ?IsModBanned@?A0x64030c04@@YA_NV?$basic_zstring_view@_W@wil@@@Z 10012b60 f   mod.obj
 0001:00011fd0       ?SetModShimsLibraryIfNeeded@?A0x64030c04@@YA?AV?$unique_any_t@V?$unique_storage@U?$resource_policy@PAUHINSTANCE__@@P6GHPAU1@@Z$1?FreeLibrary@@YGH0@ZU?$integral_constant@I$0A@@wistd@@PAU1@PAU1@$0A@$$T@details@wil@@@details@wil@@@wil@@PAUHINSTANCE__@@@Z 10012fd0 f   mod.obj
 0001:000123d0       ??0HookSymbolsSession@?A0x64030c04@@QAE@PAVLoadedMod@@PAUHINSTANCE__@@PBUtagWH_SYMBOL_HOOK@@I@Z 100133d0 f   mod.obj
 0001:000124f0       ?OnSymbolResolved@HookSymbolsSession@?A0x64030c04@@QAE_NV?$basic_string_view@_WU?$char_traits@_W@std@@@std@@PAX@Z 100134f0 f   mod.obj
 0001:000127e0       ?ResolveSymbolsFromCache@HookSymbolsSession@?A0x64030c04@@QAE?AW4ResolveSymbolsFromCacheResult@12@V?$optional@_K@std@@@Z 100137e0 f   mod.obj
 0001:00012cc2       __catch$?ResolveSymbolsFromCache@HookSymbolsSession@?A0x64030c04@@QAE?AW4ResolveSymbolsFromCacheResult@12@V?$optional@_K@std@@@Z$0 10013cc2 f   mod.obj
 0001:00012d70       ?ResolveSymbolsFromCacheStringParts@HookSymbolsSession@?A0x64030c04@@QAE_NAAV?$vector@V?$basic_string_view@_WU?$char_traits@_W@std@@@std@@V?$allocator@V?$basic_string_view@_WU?$char_traits@_W@std@@@std@@@2@@std@@@Z 10013d70 f   mod.obj
 0001:00012f60       ?UpdateSymbolsCache@HookSymbolsSession@?A0x64030c04@@QAE_NXZ 10013f60 f   mod.obj
 0001:00013004       __catch$?UpdateSymbolsCache@HookSymbolsSession@?A0x64030c04@@QAE_NXZ$0 10014004 f   mod.obj
 0001:00013060       ?UpdateSymbolsCacheWithErrorForThrottle@HookSymbolsSession@?A0x64030c04@@QAE_NXZ 10014060 f   mod.obj
 0001:00013267       __catch$?UpdateSymbolsCacheWithErrorForThrottle@HookSymbolsSession@?A0x64030c04@@QAE_NXZ$0 10014267 f   mod.obj
 0001:000132f0       ?ApplyPendingHooks@HookSymbolsSession@?A0x64030c04@@QAEXXZ 100142f0 f   mod.obj
 0001:00013380       ?CalculateHookSymbolsInitialParams@HookSymbolsSession@?A0x64030c04@@AAEXXZ 10014380 f   mod.obj
 0001:00013bf0       ??R<lambda_1>@?1??GetWindowsVersionForLogging@?A0x64030c04@@YA?AV?$basic_string@_WU?$char_traits@_W@std@@V?$allocator@_W@2@@std@@XZ@QBE@XZ 10014bf0 f   mod.obj
 0001:000143af       __catch$??0LoadedMod@@QAE@PB_W00_N11@Z$0 100153af f   mod.obj
 0001:00014c97       __catch$?GetIntValue@LoadedMod@@QAEHPB_WH@Z$0 10015c97 f   mod.obj
 0001:00014e67       __catch$?SetIntValue@LoadedMod@@QAEHPB_WH@Z$0 10015e67 f   mod.obj
 0001:00015103       __catch$?GetStringValue@LoadedMod@@QAEIPB_WPA_WI@Z$0 10016103 f   mod.obj
 0001:000152e4       __catch$?SetStringValue@LoadedMod@@QAEHPB_W0@Z$0 100162e4 f   mod.obj
 0001:000155b4       __catch$?GetBinaryValue@LoadedMod@@QAEIPB_WPAXI@Z$0 100165b4 f   mod.obj
 0001:00015726       __catch$?SetBinaryValue@LoadedMod@@QAEHPB_WPBXI@Z$0 10016726 f   mod.obj
 0001:000158aa       __catch$?DeleteValue@LoadedMod@@QAEHPB_W@Z$0 100168aa f   mod.obj
 0001:00015ab6       __catch$?GetModStoragePath@LoadedMod@@QAEIPA_WI@Z$0 10016ab6 f   mod.obj
 0001:00015d4b       __catch$?GetIntSetting@LoadedMod@@QAEHPB_WPAD@Z$0 10016d4b f   mod.obj
 0001:00016043       __catch$?GetStringSetting@LoadedMod@@QAEPB_WPB_WPAD@Z$0 10017043 f   mod.obj
 0001:00017065       __catch$?FindFirstSymbol4@LoadedMod@@QAEPAXPAUHINSTANCE__@@PBUtagWH_FIND_SYMBOL_OPTIONS@@PAUtagWH_FIND_SYMBOL@@@Z$0 10018065 f   mod.obj
 0001:00017526       __catch$?FindFirstSymbol4@LoadedMod@@QAEPAXPAUHINSTANCE__@@PBUtagWH_FIND_SYMBOL_OPTIONS@@PAUtagWH_FIND_SYMBOL@@@Z$2 10018526 f   mod.obj
 0001:00017620       ??R<lambda_2>@?L@??FindFirstSymbol4@LoadedMod@@QAEPAXPAUHINSTANCE__@@PBUtagWH_FIND_SYMBOL_OPTIONS@@PAUtagWH_FIND_SYMBOL@@@Z@QBE@XZ 10018620 f   mod.obj
 0001:000176bd       __catch$??R<lambda_2>@?L@??FindFirstSymbol4@LoadedMod@@QAEPAXPAUHINSTANCE__@@PBUtagWH_FIND_SYMBOL_OPTIONS@@PAUtagWH_FIND_SYMBOL@@@Z@QBE@XZ$0 100186bd f   mod.obj
 0001:00017720       ??R<lambda_3>@?L@??FindFirstSymbol4@LoadedMod@@QAEPAXPAUHINSTANCE__@@PBUtagWH_FIND_SYMBOL_OPTIONS@@PAUtagWH_FIND_SYMBOL@@@Z@QBE@H@Z 10018720 f   mod.obj
 0001:000178ae       __catch$??R<lambda_3>@?L@??FindFirstSymbol4@LoadedMod@@QAEPAXPAUHINSTANCE__@@PBUtagWH_FIND_SYMBOL_OPTIONS@@PAUtagWH_FIND_SYMBOL@@@Z@QBE@H@Z$0 100188ae f   mod.obj
 0001:000178f0       ??1?$optional@VCrossModMutex@?A0x64030c04@@@std@@QAE@XZ 100188f0 f   mod.obj
 0001:000179ef       __catch$?FindNextSymbol2@LoadedMod@@QAEHPAXPAUtagWH_FIND_SYMBOL@@@Z$0 100189ef f   mod.obj
 0001:00018c07       __catch$?HookSymbols@LoadedMod@@QAEHPAUHINSTANCE__@@PBUtagWH_SYMBOL_HOOK@@IPBUtagWH_HOOK_SYMBOLS_OPTIONS@@@Z$0 10019c07 f   mod.obj
 0001:00018d20       ??1HookSymbolsSession@?A0x64030c04@@QAE@XZ 10019d20 f   mod.obj
 0001:000195de       __catch$?GetUrlContent@LoadedMod@@QAEPBUtagWH_URL_CONTENT@@PB_WPBUtagWH_GET_URL_CONTENT_OPTIONS@@@Z$0 1001a5de f   mod.obj
 0001:00019750       ??0WinHttpFunctions@?1??GetUrlContent@LoadedMod@@QAEPBUtagWH_URL_CONTENT@@PB_WPBUtagWH_GET_URL_CONTENT_OPTIONS@@@Z@QAE@XZ 1001a750 f   mod.obj
 0001:00019950       ?<lambda_invoker_cdecl>@<lambda_1>@?2???R1?BG@??GetUrlContent@LoadedMod@@QAEPBUtagWH_URL_CONTENT@@PB_WPBUtagWH_GET_URL_CONTENT_OPTIONS@@@Z@QBE@XZ@SA@XZ 1001a950 f   mod.obj
 0001:0001a135       __catch$?SetTask@LoadedMod@@AAEXPB_W@Z$0 1001b135 f   mod.obj
 0001:0001af15       __catch$?SetStatus@Mod@@AAEXPB_W@Z$0 1001bf15 f   mod.obj
 0001:0001b050       ??$?RUtagWH_SYMBOL_HOOK@@@<lambda_1>@?1??OnSymbolResolved@HookSymbolsSession@?A0x64030c04@@QAE_NV?$basic_string_view@_WU?$char_traits@_W@std@@@std@@PAX@Z@QBE?A_PPBUtagWH_SYMBOL_HOOK@@@Z 1001c050 f   mod.obj
 0001:0001b290       ??$?4V<lambda_2>@?L@??FindFirstSymbol4@LoadedMod@@QAEPAXPAUHINSTANCE__@@PBUtagWH_FIND_SYMBOL_OPTIONS@@PAUtagWH_FIND_SYMBOL@@@Z@$0A@@?$function@$$A6A_NXZ@std@@QAEAAV01@$$QAV<lambda_2>@?L@??FindFirstSymbol4@LoadedMod@@QAEPAXPAUHINSTANCE__@@PBUtagWH_FIND_SYMBOL_OPTIONS@@PAUtagWH_FIND_SYMBOL@@@Z@@Z 1001c290 f   mod.obj
 0001:0001b3d0       ??$?4V<lambda_3>@?L@??FindFirstSymbol4@LoadedMod@@QAEPAXPAUHINSTANCE__@@PBUtagWH_FIND_SYMBOL_OPTIONS@@PAUtagWH_FIND_SYMBOL@@@Z@$0A@@?$function@$$A6AXH@Z@std@@QAEAAV01@$$QAV<lambda_3>@?L@??FindFirstSymbol4@LoadedMod@@QAEPAXPAUHINSTANCE__@@PBUtagWH_FIND_SYMBOL_OPTIONS@@PAUtagWH_FIND_SYMBOL@@@Z@@Z 1001c3d0 f   mod.obj
 0001:0001b610       ??1?$lambda_call@V<lambda_1>@?1??Load@Mod@@QAE_N_N@Z@@details@wil@@QAE@XZ 1001c610 f   mod.obj
 0001:0001b670       ??1?$lambda_call@V<lambda_1>@?BG@??HookSymbolsGetOnlineCache@LoadedMod@@AAE?AV?$optional@V?$basic_string@_WU?$char_traits@_W@std@@V?$allocator@_W@2@@std@@@std@@PB_WV?$basic_string_view@_WU?$char_traits@_W@std@@@5@@Z@@details@wil@@QAE@XZ 1001c670 f   mod.obj
 0001:0001b7c0       ??1?$lambda_call@V<lambda_2>@?BP@??GetUrlContent@LoadedMod@@QAEPBUtagWH_URL_CONTENT@@PB_WPBUtagWH_GET_URL_CONTENT_OPTIONS@@@Z@@details@wil@@QAE@XZ 1001c7c0 f   mod.obj
 0001:0001b7c0       ??1?$lambda_call@V<lambda_3>@?BP@??GetUrlContent@LoadedMod@@QAEPBUtagWH_URL_CONTENT@@PB_WPBUtagWH_GET_URL_CONTENT_OPTIONS@@@Z@@details@wil@@QAE@XZ 1001c7c0 f   mod.obj
 0001:0001b7c0       ??1?$lambda_call@V<lambda_4>@?BP@??GetUrlContent@LoadedMod@@QAEPBUtagWH_URL_CONTENT@@PB_WPBUtagWH_GET_URL_CONTENT_OPTIONS@@@Z@@details@wil@@QAE@XZ 1001c7c0 f   mod.obj
 0001:0001b820       ??1?$lambda_call@V<lambda_4>@?BO@??HookSymbols@LoadedMod@@QAEHPAUHINSTANCE__@@PBUtagWH_SYMBOL_HOOK@@IPBUtagWH_HOOK_SYMBOLS_OPTIONS@@@Z@@details@wil@@QAE@XZ 1001c820 f   mod.obj
 0001:0001b8d0       ??1?$lambda_call@V<lambda_2>@?BO@??HookSymbols@LoadedMod@@QAEHPAUHINSTANCE__@@PBUtagWH_SYMBOL_HOOK@@IPBUtagWH_HOOK_SYMBOLS_OPTIONS@@@Z@@details@wil@@QAE@XZ 1001c8d0 f   mod.obj
 0001:0001b920       ??1?$lambda_call@V<lambda_1>@?BO@??HookSymbols@LoadedMod@@QAEHPAUHINSTANCE__@@PBUtagWH_SYMBOL_HOOK@@IPBUtagWH_HOOK_SYMBOLS_OPTIONS@@@Z@@details@wil@@QAE@XZ 1001c920 f   mod.obj
 0001:0001b920       ??1?$lambda_call@V<lambda_1>@?L@??FindFirstSymbol4@LoadedMod@@QAEPAXPAUHINSTANCE__@@PBUtagWH_FIND_SYMBOL_OPTIONS@@PAUtagWH_FIND_SYMBOL@@@Z@@details@wil@@QAE@XZ 1001c920 f   mod.obj
 0001:0001b9a0       ??1?$vector@UPendingHook@HookSymbolsSession@?A0x64030c04@@V?$allocator@UPendingHook@HookSymbolsSession@?A0x64030c04@@@std@@@std@@QAE@XZ 1001c9a0 f   mod.obj
 0001:0001bb30       ??_GCrossModMutex@?A0x64030c04@@QAEPAXI@Z 1001cb30 f   mod.obj
 0001:0001bb80       ??_GModDebugLoggingScope@?A0x64030c04@@QAEPAXI@Z 1001cb80 f   mod.obj
 0001:0001bef0       ??$_Emplace_reallocate@AAPAXABQAXABQAPAX@?$vector@UPendingHook@HookSymbolsSession@?A0x64030c04@@V?$allocator@UPendingHook@HookSymbolsSession@?A0x64030c04@@@std@@@std@@AAEPAUPendingHook@HookSymbolsSession@?A0x64030c04@@QAU234@AAPAXABQAXABQAPAX@Z 1001cef0 f   mod.obj
 0001:0001c0c0       ??$?RUtagWH_SYMBOL_HOOK@@@<lambda_1>@?1??ResolveSymbolsFromCacheStringParts@HookSymbolsSession@?A0x64030c04@@QAE_NAAV?$vector@V?$basic_string_view@_WU?$char_traits@_W@std@@@std@@V?$allocator@V?$basic_string_view@_WU?$char_traits@_W@std@@@std@@@2@@std@@@Z@QBE?A_PPBUtagWH_SYMBOL_HOOK@@@Z 1001d0c0 f   mod.obj
 0001:0001c390       ??$?RUtagWH_SYMBOL_HOOK@@@<lambda_1>@?1??MarkUnresolvedSymbolsAsMissing@HookSymbolsSession@?A0x64030c04@@QAEXXZ@QBE?A_PPBUtagWH_SYMBOL_HOOK@@@Z 1001d390 f   mod.obj
 0001:0001c850       ?_Delete_this@?$_Func_impl_no_alloc@V<lambda_3>@?L@??FindFirstSymbol4@LoadedMod@@QAEPAXPAUHINSTANCE__@@PBUtagWH_FIND_SYMBOL_OPTIONS@@PAUtagWH_FIND_SYMBOL@@@Z@XH@std@@EAEX_N@Z 1001d850 f   mod.obj
 0001:0001c870       ?_Target_type@?$_Func_impl_no_alloc@V<lambda_3>@?L@??FindFirstSymbol4@LoadedMod@@QAEPAXPAUHINSTANCE__@@PBUtagWH_FIND_SYMBOL_OPTIONS@@PAUtagWH_FIND_SYMBOL@@@Z@XH@std@@EBEABVtype_info@@XZ 1001d870 f   mod.obj
 0001:0001c880       ?_Do_call@?$_Func_impl_no_alloc@V<lambda_3>@?L@??FindFirstSymbol4@LoadedMod@@QAEPAXPAUHINSTANCE__@@PBUtagWH_FIND_SYMBOL_OPTIONS@@PAUtagWH_FIND_SYMBOL@@@Z@XH@std@@EAEX$$QAH@Z 1001d880 f   mod.obj
 0001:0001c8a0       ?_Copy@?$_Func_impl_no_alloc@V<lambda_3>@?L@??FindFirstSymbol4@LoadedMod@@QAEPAXPAUHINSTANCE__@@PBUtagWH_FIND_SYMBOL_OPTIONS@@PAUtagWH_FIND_SYMBOL@@@Z@XH@std@@EBEPAV?$_Func_base@XH@2@PAX@Z 1001d8a0 f   mod.obj
 0001:0001c8a0       ?_Move@?$_Func_impl_no_alloc@V<lambda_3>@?L@??FindFirstSymbol4@LoadedMod@@QAEPAXPAUHINSTANCE__@@PBUtagWH_FIND_SYMBOL_OPTIONS@@PAUtagWH_FIND_SYMBOL@@@Z@XH@std@@EAEPAV?$_Func_base@XH@2@PAX@Z 1001d8a0 f   mod.obj
 0001:0001c8c0       ?_Delete_this@?$_Func_impl_no_alloc@V<lambda_2>@?L@??FindFirstSymbol4@LoadedMod@@QAEPAXPAUHINSTANCE__@@PBUtagWH_FIND_SYMBOL_OPTIONS@@PAUtagWH_FIND_SYMBOL@@@Z@_N$$V@std@@EAEX_N@Z 1001d8c0 f   mod.obj
 0001:0001c8e0       ?_Target_type@?$_Func_impl_no_alloc@V<lambda_2>@?L@??FindFirstSymbol4@LoadedMod@@QAEPAXPAUHINSTANCE__@@PBUtagWH_FIND_SYMBOL_OPTIONS@@PAUtagWH_FIND_SYMBOL@@@Z@_N$$V@std@@EBEABVtype_info@@XZ 1001d8e0 f   mod.obj
 0001:0001c8f0       ?_Do_call@?$_Func_impl_no_alloc@V<lambda_2>@?L@??FindFirstSymbol4@LoadedMod@@QAEPAXPAUHINSTANCE__@@PBUtagWH_FIND_SYMBOL_OPTIONS@@PAUtagWH_FIND_SYMBOL@@@Z@_N$$V@std@@EAE_NXZ 1001d8f0 f   mod.obj
 0001:0001c900       ?_Copy@?$_Func_impl_no_alloc@V<lambda_2>@?L@??FindFirstSymbol4@LoadedMod@@QAEPAXPAUHINSTANCE__@@PBUtagWH_FIND_SYMBOL_OPTIONS@@PAUtagWH_FIND_SYMBOL@@@Z@_N$$V@std@@EBEPAV?$_Func_base@_N$$V@2@PAX@Z 1001d900 f   mod.obj
 0001:0001c900       ?_Move@?$_Func_impl_no_alloc@V<lambda_2>@?L@??FindFirstSymbol4@LoadedMod@@QAEPAXPAUHINSTANCE__@@PBUtagWH_FIND_SYMBOL_OPTIONS@@PAUtagWH_FIND_SYMBOL@@@Z@_N$$V@std@@EAEPAV?$_Func_base@_N$$V@2@PAX@Z 1001d900 f   mod.obj
 0001:0001d86e       __catch$??0ModsManager@@QAE@XZ$0 1001e86e f   mods_manager.obj
 0001:0001d8f0       ??R<lambda_1>@?1???0ModsManager@@QAE@XZ@QBE@PB_W@Z 1001e8f0 f   mods_manager.obj
 0001:0001d94e       __catch$??R<lambda_1>@?1???0ModsManager@@QAE@XZ@QBE@PB_W@Z$0 1001e94e f   mods_manager.obj
 0001:0001db2e       __catch$??1ModsManager@@QAE@XZ$0 1001eb2e f   mods_manager.obj
 0001:0001dcd7       __catch$?AfterInit@ModsManager@@QAEXXZ$0 1001ecd7 f   mods_manager.obj
 0001:0001ddaa       __catch$?BeforeUninit@ModsManager@@QAEXXZ$0 1001edaa f   mods_manager.obj
 0001:0001e053       __catch$?ReloadModsAndSettings@ModsManager@@QAEXXZ$0 1001f053 f   mods_manager.obj
 0001:0001e2c9       __catch$?ReloadModsAndSettings@ModsManager@@QAEXXZ$2 1001f2c9 f   mods_manager.obj
 0001:0001e59f       __catch$?ReloadModsAndSettings@ModsManager@@QAEXXZ$4 1001f59f f   mods_manager.obj
 0001:0001e6b1       __catch$?ReloadModsAndSettings@ModsManager@@QAEXXZ$6 1001f6b1 f   mods_manager.obj
 0001:0001e99f       __catch$?ReloadModsAndSettings@ModsManager@@QAEXXZ$8 1001f99f f   mods_manager.obj
 0001:0001eae0       ??R<lambda_1>@?1??ReloadModsAndSettings@ModsManager@@QAEXXZ@QBE@PB_W@Z 1001fae0 f   mods_manager.obj
 0001:0001ec23       __catch$??R<lambda_1>@?1??ReloadModsAndSettings@ModsManager@@QAEXXZ@QBE@PB_W@Z$0 1001fc23 f   mods_manager.obj
 0001:0001fa90       ?_Delete_this@?$_Func_impl_no_alloc@V<lambda_1>@?1??ReloadModsAndSettings@ModsManager@@QAEXXZ@XPB_W@std@@EAEX_N@Z 10020a90 f   mods_manager.obj
 0001:0001fab0       ?_Target_type@?$_Func_impl_no_alloc@V<lambda_1>@?1??ReloadModsAndSettings@ModsManager@@QAEXXZ@XPB_W@std@@EBEABVtype_info@@XZ 10020ab0 f   mods_manager.obj
 0001:0001fac0       ?_Do_call@?$_Func_impl_no_alloc@V<lambda_1>@?1??ReloadModsAndSettings@ModsManager@@QAEXXZ@XPB_W@std@@EAEX$$QAPB_W@Z 10020ac0 f   mods_manager.obj
 0001:0001fae0       ?_Copy@?$_Func_impl_no_alloc@V<lambda_1>@?1??ReloadModsAndSettings@ModsManager@@QAEXXZ@XPB_W@std@@EBEPAV?$_Func_base@XPB_W@2@PAX@Z 10020ae0 f   mods_manager.obj
 0001:0001fae0       ?_Move@?$_Func_impl_no_alloc@V<lambda_1>@?1??ReloadModsAndSettings@ModsManager@@QAEXXZ@XPB_W@std@@EAEPAV?$_Func_base@XPB_W@2@PAX@Z 10020ae0 f   mods_manager.obj
 0001:0001fb00       ?_Target_type@?$_Func_impl_no_alloc@V<lambda_1>@?1???0ModsManager@@QAE@XZ@XPB_W@std@@EBEABVtype_info@@XZ 10020b00 f   mods_manager.obj
 0001:0001fb10       ?_Do_call@?$_Func_impl_no_alloc@V<lambda_1>@?1???0ModsManager@@QAE@XZ@XPB_W@std@@EAEX$$QAPB_W@Z 10020b10 f   mods_manager.obj
 0001:0001fb30       ?_Copy@?$_Func_impl_no_alloc@V<lambda_1>@?1???0ModsManager@@QAE@XZ@XPB_W@std@@EBEPAV?$_Func_base@XPB_W@2@PAX@Z 10020b30 f   mods_manager.obj
 0001:0001fb30       ?_Move@?$_Func_impl_no_alloc@V<lambda_1>@?1???0ModsManager@@QAE@XZ@XPB_W@std@@EAEPAV?$_Func_base@XPB_W@2@PAX@Z 10020b30 f   mods_manager.obj
 0001:00020f5d       __catch$?HandleCreatedProcess@NewProcessInjector@@AAEXPAU_PROCESS_INFORMATION@@@Z$0 10021f5d f   new_process_injector.obj
 0001:00021020       ??R<lambda_1>@?BE@??HandleCreatedProcess@NewProcessInjector@@AAEXPAU_PROCESS_INFORMATION@@@Z@QBE@XZ 10022020 f   new_process_injector.obj
 0001:000210ef       __catch$??R<lambda_1>@?BE@??HandleCreatedProcess@NewProcessInjector@@AAEXPAU_PROCESS_INFORMATION@@@Z@QBE@XZ$0 100220ef f   new_process_injector.obj
 0001:000213e0       ??$_Invoke@V?$tuple@V<lambda_1>@?BE@??HandleCreatedProcess@NewProcessInjector@@AAEXPAU_PROCESS_INFORMATION@@@Z@@std@@$0A@@thread@std@@CGIPAX@Z 100223e0 f   new_process_injector.obj
 0001:00021440       ??1?$unique_ptr@V?$tuple@V<lambda_1>@?BE@??HandleCreatedProcess@NewProcessInjector@@AAEXPAU_PROCESS_INFORMATION@@@Z@@std@@U?$default_delete@V?$tuple@V<lambda_1>@?BE@??HandleCreatedProcess@NewProcessInjector@@AAEXPAU_PROCESS_INFORMATION@@@Z@@std@@@2@@std@@QAE@XZ 10022440 f   new_process_injector.obj
 0001:000215fb       __catch$?LazyInitialize@@YA_NXZ$0 100225fb f   main.obj
 0001:0002178d       __catch$?InjectInit@@YAHPBULOAD_LIBRARY_REMOTE_DATA@DllInject@@@Z$0 1002278d f   main.obj
 0001:00021886       __catch$?GlobalHookSessionStart@@YAPAXXZ$0 10022886 f   main.obj
 0001:00021ae0       ?GetFirstThreadOfCurrentProcess@?A0x63da581d@@YA?AV?$optional@PAX@std@@K@Z 10022ae0 f   customization_session.obj
 0001:00021d80       ?CurrentProcessHasMitigationPolicy@?A0x63da581d@@YA_NXZ 10022d80 f   customization_session.obj
 0001:00022378       __catch$??0CustomizationSession@@QAE@UConstructorSecret@0@_N1V?$unique_any_t@V?$unique_storage@U?$handle_null_only_resource_policy@P6GHPAX@Z$1?CloseHandle@@YGH0@Z@details@wil@@@details@wil@@@wil@@V?$unique_any_t@V?$mutex_t@V?$unique_storage@U?$resource_policy@PAXP6GXPAX@_E$1?CloseHandle@details@wil@@YGX0@ZU?$integral_constant@I$0A@@wistd@@PAXPAX$0A@$$T@details@wil@@@details@wil@@Uerr_returncode_policy@3@@wil@@@3@@Z$0 10023378 f   customization_session.obj
 0001:000224fa       __catch$??1CustomizationSession@@QAE@XZ$0 100234fa f   customization_session.obj
 0001:00022630       ?<lambda_invoker_stdcall>@<lambda_1>@?1???0MinHookScopeInit@CustomizationSession@@QAE@W4MH_THREAD_FREEZE_METHOD@@@Z@SG@PAXJ@Z 10023630 f   customization_session.obj
 0001:0002290d       __catch$??0MainLoopRunner@CustomizationSession@@QAE@XZ$0 1002390d f   customization_session.obj
 0001:00022c46       __catch$?ContinueMonitoring@MainLoopRunner@CustomizationSession@@QAE_NXZ$0 10023c46 f   customization_session.obj
 0001:00022d60       ?<lambda_invoker_cdecl>@<lambda_1>@?2???R1?3??GetInstance@CustomizationSession@@CAAAV?$optional@VCustomizationSession@@@std@@XZ@QBE@XZ@SA@XZ 10023d60 f   customization_session.obj
 0001:00022fe0       ??R<lambda_1>@?1??StartInitialized@CustomizationSession@@AAEXV?$unique_any_t@V?$semaphore_t@V?$unique_storage@U?$resource_policy@PAXP6GXPAX@_E$1?CloseHandle@details@wil@@YGX0@ZU?$integral_constant@I$0A@@wistd@@PAXPAX$0A@$$T@details@wil@@@details@wil@@Uerr_exception_policy@3@@wil@@@wil@@V?$unique_any_t@V?$unique_storage@U?$resource_policy@PAXP6GXPAX@_E$1?ReleaseSemaphore@details@wil@@YGX0@ZU?$integral_constant@I$01@wistd@@PAXPAX$0A@$$T@details@wil@@@details@wil@@@4@_N@Z@QBEKPAX@Z 10023fe0 f   customization_session.obj
 0001:00023040       ?<lambda_invoker_stdcall>@<lambda_1>@?1??StartInitialized@CustomizationSession@@AAEXV?$unique_any_t@V?$semaphore_t@V?$unique_storage@U?$resource_policy@PAXP6GXPAX@_E$1?CloseHandle@details@wil@@YGX0@ZU?$integral_constant@I$0A@@wistd@@PAXPAX$0A@$$T@details@wil@@@details@wil@@Uerr_exception_policy@3@@wil@@@wil@@V?$unique_any_t@V?$unique_storage@U?$resource_policy@PAXP6GXPAX@_E$1?ReleaseSemaphore@details@wil@@YGX0@ZU?$integral_constant@I$01@wistd@@PAXPAX$0A@$$T@details@wil@@@details@wil@@@5@_N@Z@SGKPAX@Z 10024040 f   customization_session.obj
 0001:000231e0       ??R<lambda_1>@?7??RunMainLoopAndDeleteThisWithThreadRecreate@CustomizationSession@@AAEXXZ@QBEKPAX@Z 100241e0 f   customization_session.obj
 0001:000232f5       __catch$??R<lambda_1>@?7??RunMainLoopAndDeleteThisWithThreadRecreate@CustomizationSession@@AAEXXZ@QBEKPAX@Z$0 100242f5 f   customization_session.obj
 0001:00023370       ?<lambda_invoker_stdcall>@<lambda_1>@?7??RunMainLoopAndDeleteThisWithThreadRecreate@CustomizationSession@@AAEXXZ@SGKPAX@Z 10024370 f   customization_session.obj
 0001:00023380       ??R<lambda_2>@?9??RunMainLoopAndDeleteThisWithThreadRecreate@CustomizationSession@@AAEXXZ@QBEKPAX@Z 10024380 f   customization_session.obj
 0001:000233b0       ?<lambda_invoker_stdcall>@<lambda_2>@?9??RunMainLoopAndDeleteThisWithThreadRecreate@CustomizationSession@@AAEXXZ@SGKPAX@Z 100243b0 f   customization_session.obj
 0001:0002354d       __catch$?RunMainLoop@CustomizationSession@@AAEXXZ$0 1002454d f   customization_session.obj
 0001:000237e8       $LN119                     100247e8     customization_session.obj
 0001:00023950       ?BuildBoundaryDescriptor@?A0x17396ab2@@YA?AV?$unique_any_t@V?$unique_storage@U?$handle_null_only_resource_policy@P6GXPAX@Z$1?DeleteBoundaryDescriptor@@YGX0@Z@details@wil@@@details@wil@@@wil@@PB_W@Z 10024950 f   session_private_namespace.obj
 0001:00023b10       ?PathFromStorage@?A0x7539b29f@@YA?AVpath@filesystem@std@@ABVPortableSettings@@PB_WABV234@@Z 10024b10 f   storage_manager.obj
 0001:00024190       ?<lambda_invoker_cdecl>@<lambda_1>@?9???R1?N@??PathFromStorage@?A0x7539b29f@@YA?AVpath@filesystem@std@@ABVPortableSettings@@PB_WABV456@@Z@QBE@XZ@SA@XZ 10025190 f   storage_manager.obj
 0001:000241a0       ?<lambda_invoker_cdecl>@<lambda_1>@?9???R<lambda_2>@?BF@??PathFromStorage@?A0x7539b29f@@YA?AVpath@filesystem@std@@ABVPortableSettings@@PB_WABV567@@Z@QBE@XZ@SA@XZ 100251a0 f   storage_manager.obj
 0001:00024260       ?<lambda_invoker_cdecl>@<lambda_1>@?2???R1?3??GetInstance@StorageManager@@SAAAV3@XZ@QBE@XZ@SA@XZ 10025260 f   storage_manager.obj
 0001:000242a4       $LN137                     100252a4     storage_manager.obj
 0001:0002568c       $LN1548                    1002668c     storage_manager.obj
 0001:0002569c       $LN1549                    1002669c     storage_manager.obj
 0001:000256c8       $LN91                      100266c8     storage_manager.obj
 0001:00026af0       ?RestrictSymbolServerAccess@DiaLoadCallback@?A0x0a5fb974@@UAGJXZ 10027af0 f i symbol_enum.obj
 0001:0002a570       ?<lambda_invoker_cdecl>@<lambda_1>@?9???R1?3??MySysFreeString@@YAXPA_W@Z@QBE@XZ@SA@XZ 1002b570 f   symbol_enum.obj
 0001:0002a580       ?GetSymbolsSearchPath@?A0x0a5fb974@@YA?AV?$basic_string@_WU?$char_traits@_W@std@@V?$allocator@_W@2@@std@@PB_W@Z 1002b580 f   symbol_enum.obj
 0001:0002a6a0       ?SymbolServerCallback@?A0x0a5fb974@@YGHI_K0@Z 1002b6a0 f   symbol_enum.obj
 0001:0002a910       ?QueryInterface@DiaLoadCallback@?A0x0a5fb974@@UAGJABU_GUID@@PAPAX@Z 1002b910 f   symbol_enum.obj
 0001:0002a9b0       ?AddRef@DiaLoadCallback@?A0x0a5fb974@@UAGKXZ 1002b9b0 f   symbol_enum.obj
 0001:0002a9c0       ?Release@DiaLoadCallback@?A0x0a5fb974@@UAGKXZ 1002b9c0 f   symbol_enum.obj
 0001:0002a9d0       ?NotifyDebugDir@DiaLoadCallback@?A0x0a5fb974@@UAGJHKPAE@Z 1002b9d0 f   symbol_enum.obj
 0001:0002a9e0       ?NotifyOpenDBG@DiaLoadCallback@?A0x0a5fb974@@UAGJPB_WJ@Z 1002b9e0 f   symbol_enum.obj
 0001:0002aa40       ?NotifyOpenPDB@DiaLoadCallback@?A0x0a5fb974@@UAGJPB_WJ@Z 1002ba40 f   symbol_enum.obj
 0001:0002aaa0       ?RestrictDBGAccess@DiaLoadCallback@?A0x0a5fb974@@UAGJXZ 1002baa0 f   symbol_enum.obj
 0001:0002aaa0       ?RestrictOriginalPathAccess@DiaLoadCallback@?A0x0a5fb974@@UAGJXZ 1002baa0 f   symbol_enum.obj
 0001:0002aaa0       ?RestrictReferencePathAccess@DiaLoadCallback@?A0x0a5fb974@@UAGJXZ 1002baa0 f   symbol_enum.obj
 0001:0002aaa0       ?RestrictRegistryAccess@DiaLoadCallback@?A0x0a5fb974@@UAGJXZ 1002baa0 f   symbol_enum.obj
 0001:0002aaa0       ?RestrictSystemRootAccess@DiaLoadCallback@?A0x0a5fb974@@UAGJXZ 1002baa0 f   symbol_enum.obj
 0001:0002aab0       ?MsdiaLoadLibraryExWHook@?A0x0a5fb974@@YGPAUHINSTANCE__@@PB_WPAXK@Z 1002bab0 f   symbol_enum.obj
 0001:0002aca4       __catch$?MsdiaLoadLibraryExWHook@?A0x0a5fb974@@YGPAUHINSTANCE__@@PB_WPAXK@Z$0 1002bca4 f   symbol_enum.obj
 0001:0002b850       ??1?$lambda_call@V<lambda_1>@?1???0SymbolEnum@@QAE@PB_WPAUHINSTANCE__@@0W4UndecorateMode@2@UCallbacks@2@@Z@@details@wil@@QAE@XZ 1002c850 f   symbol_enum.obj
 0001:0002bd10       _FindHookEntryEnabled      1002cd10 f   MinHook.obj
 0001:0002bdb0       _FindHookEntryQueued       1002cdb0 f   MinHook.obj
 0001:0002be40       _FreeHookTrampolineIfNeeded 1002ce40 f   MinHook.obj
 0001:0002bed0       _CreateHook                1002ced0 f   MinHook.obj
 0001:0002c0d0       _EnableHook                1002d0d0 f   MinHook.obj
 0001:0002c370       _RemoveDisabledHooks       1002d370 f   MinHook.obj
 0001:0002c480       _QueueHook                 1002d480 f   MinHook.obj
 0001:0002c590       _ApplyQueued               1002d590 f   MinHook.obj
 0001:0002c700       _Invalid                   1002d700 f   Disassembler.obj
 0001:0002c710       _CopyBytes                 1002d710 f   Disassembler.obj
 0001:0002c8c0       _CopyBytesPrefix           1002d8c0 f   Disassembler.obj
 0001:0002c900       _CopyBytesSegment          1002d900 f   Disassembler.obj
 0001:0002c940       _CopyBytesRax              1002d940 f   Disassembler.obj
 0001:0002c990       _CopyBytesJump             1002d990 f   Disassembler.obj
 0001:0002ca00       _Copy0F                    1002da00 f   Disassembler.obj
 0001:0002ca40       _Copy0F78                  1002da40 f   Disassembler.obj
 0001:0002ca70       _Copy0F00                  1002da70 f   Disassembler.obj
 0001:0002caa0       _Copy0FB8                  1002daa0 f   Disassembler.obj
 0001:0002cad0       _Copy66                    1002dad0 f   Disassembler.obj
 0001:0002cb10       _Copy67                    1002db10 f   Disassembler.obj
 0001:0002cb50       _CopyF2                    1002db50 f   Disassembler.obj
 0001:0002cb90       _CopyF3                    1002db90 f   Disassembler.obj
 0001:0002cbd0       _CopyF6                    1002dbd0 f   Disassembler.obj
 0001:0002cc00       _CopyF7                    1002dc00 f   Disassembler.obj
 0001:0002cc30       _CopyFF                    1002dc30 f   Disassembler.obj
 0001:0002cca0       _CopyVexEvexCommon         1002dca0 f   Disassembler.obj
 0001:0002cd44       $LN17                      1002dd44     Disassembler.obj
 0001:0002cd60       _CopyVex3                  1002dd60 f   Disassembler.obj
 0001:0002cdd0       _CopyVex2                  1002ddd0 f   Disassembler.obj
 0001:0002ce30       _CopyEvex                  1002de30 f   Disassembler.obj
 0001:0002cea0       _CopyXop                   1002dea0 f   Disassembler.obj
 0001:0002cfc0       _detour_is_imported        1002dfc0 f   Instruction.obj
 0001:0002d7e0       _detour_alloc_trampoline_allocate_new 1002e7e0 f   Trampoline.obj
 0001:0002db60       _detour_is_region_empty    1002eb60 f   Trampoline.obj
 0001:0002eca0       _ZydisDecodeVEX            1002fca0 f   Zydis.obj
 0001:0002ee30       _ZydisDecodeEVEX           1002fe30 f   Zydis.obj
 0001:0002f010       _ZydisReadDisplacement     10030010 f   Zydis.obj
 0001:0002f14c       $LN47                      1003014c     Zydis.obj
 0001:0002f160       $LN46                      10030160     Zydis.obj
 0001:0002f1a0       _ZydisReadImmediate        100301a0 f   Zydis.obj
 0001:0002f354       $LN56                      10030354     Zydis.obj
 0001:0002f368       $LN55                      10030368     Zydis.obj
 0001:0002f3b0       _ZydisCalcRegisterId       100303b0 f   Zydis.obj
 0001:0002f46c       $LN26                      1003046c     Zydis.obj
 0001:0002f490       _ZydisSetOperandSizeAndElementInfo 10030490 f   Zydis.obj
 0001:0002f800       $LN86                      10030800     Zydis.obj
 0001:0002f810       $LN87                      10030810     Zydis.obj
 0001:0002f828       $LN88                      10030828     Zydis.obj
 0001:0002f840       $LN90                      10030840     Zydis.obj
 0001:0002f858       $LN89                      10030858     Zydis.obj
 0001:0002f868       $LN92                      10030868     Zydis.obj
 0001:0002f878       $LN91                      10030878     Zydis.obj
 0001:0002f890       _ZydisDecodeOperandRegister 10030890 f   Zydis.obj
 0001:0002f930       _ZydisDecodeOperandMemory  10030930 f   Zydis.obj
 0001:0002fc20       _ZydisDecodeOperandImplicitRegister 10030c20 f   Zydis.obj
 0001:0002fd84       $LN47                      10030d84     Zydis.obj
 0001:0002fda0       _ZydisDecodeOperandImplicitMemory 10030da0 f   Zydis.obj
 0001:00030078       $LN76                      10031078     Zydis.obj
 0001:000300a0       _ZydisDecodeOperands       100310a0 f   Zydis.obj
 0001:000306a0       $LN175                     100316a0     Zydis.obj
 0001:000306ec       $LN176                     100316ec     Zydis.obj
 0001:00030704       $LN177                     10031704     Zydis.obj
 0001:00030730       _ZydisSetAttributes        10031730 f   Zydis.obj
 0001:00030c50       $LN87                      10031c50     Zydis.obj
 0001:00030c68       $LN89                      10031c68     Zydis.obj
 0001:00030c84       $LN88                      10031c84     Zydis.obj
 0001:00030cc4       $LN91                      10031cc4     Zydis.obj
 0001:00030ce0       $LN90                      10031ce0     Zydis.obj
 0001:00030d20       _ZydisSetAVXInformation    10031d20 f   Zydis.obj
 0001:000311a0       $LN177                     100321a0     Zydis.obj
 0001:000311b0       $LN178                     100321b0     Zydis.obj
 0001:000311f0       $LN179                     100321f0     Zydis.obj
 0001:00031200       $LN180                     10032200     Zydis.obj
 0001:00031210       $LN182                     10032210     Zydis.obj
 0001:0003122c       $LN181                     1003222c     Zydis.obj
 0001:00031248       $LN184                     10032248     Zydis.obj
 0001:0003126c       $LN183                     1003226c     Zydis.obj
 0001:00031288       $LN185                     10032288     Zydis.obj
 0001:000312a8       $LN186                     100322a8     Zydis.obj
 0001:000312c8       $LN187                     100322c8     Zydis.obj
 0001:000312e8       $LN188                     100322e8     Zydis.obj
 0001:00031310       _ZydisCollectOptionalPrefixes 10032310 f   Zydis.obj
 0001:000314fc       $LN54                      100324fc     Zydis.obj
 0001:00031518       $LN53                      10032518     Zydis.obj
 0001:000315f0       _ZydisDecodeOptionalInstructionParts 100325f0 f   Zydis.obj
 0001:0003183c       $LN84                      1003283c     Zydis.obj
 0001:0003184c       $LN85                      1003284c     Zydis.obj
 0001:00031860       _ZydisNodeHandlerOpcode    10032860 f   Zydis.obj
 0001:00031e68       $LN167                     10032e68     Zydis.obj
 0001:00031e78       $LN166                     10032e78     Zydis.obj
 0001:00031e84       $LN169                     10032e84     Zydis.obj
 0001:00031e94       $LN168                     10032e94     Zydis.obj
 0001:00031f50       _ZydisPopulateRegisterIds  10032f50 f   Zydis.obj
 0001:00032160       _ZydisCheckErrorConditions 10033160 f   Zydis.obj
 0001:000323ec       $LN67                      100333ec     Zydis.obj
 0001:00032404       $LN68                      10033404     Zydis.obj
 0001:00032420       _ZydisDecodeInstruction    10033420 f   Zydis.obj
 0001:00032c50       $LN286                     10033c50     Zydis.obj
 0001:00032cc8       $LN287                     10033cc8     Zydis.obj
 0001:00032ce0       $LN288                     10033ce0     Zydis.obj
 0001:00032cf8       $LN289                     10033cf8     Zydis.obj
 0001:00032d10       $LN290                     10033d10     Zydis.obj
 0001:00033054       $LN35                      10034054     Zydis.obj
 0001:000330d0       _ZydisDisassemble          100340d0 f   Zydis.obj
 0001:00033b7c       $LN177                     10034b7c     Zydis.obj
 0001:00034f90       $LN67                      10035f90     Zydis.obj
 0001:00034fa4       $LN66                      10035fa4     Zydis.obj
 0001:00035104       $LN50                      10036104     Zydis.obj
 0001:00035d5c       $LN509                     10036d5c     Zydis.obj
 0001:00035d7c       $LN508                     10036d7c     Zydis.obj
 0001:00036d70       $LN648                     10037d70     Zydis.obj
 0001:00036d8c       $LN649                     10037d8c     Zydis.obj
 0001:00036dc0       $LN650                     10037dc0     Zydis.obj
 0001:00036dd4       $LN651                     10037dd4     Zydis.obj
 0001:00036de8       $LN652                     10037de8     Zydis.obj
 0001:00036e0c       $LN653                     10037e0c     Zydis.obj
 0001:00037200       $LN177                     10038200     Zydis.obj
 0001:00038070       $LN198                     10039070     Zydis.obj
 0001:00038084       $LN197                     10039084     Zydis.obj
 0001:00038300       $LN12                      10039300     Zydis.obj
 0001:00038320       _ZydisStringAppendHexU64   10039320 f   Zydis.obj
 0001:00038b08       $LN33                      10039b08     Zydis.obj
 0001:00038d10       ??$_Can_fit_256_bits_sse@G@__std_find_meow_of_bitmap@?A0x8417fefe@@YA_NPBGI@Z 10039d10 f   libcpmt:vector_algorithms.obj
 0001:00038d70       ??$_Dispatch_pos@G@__std_find_first_of@?A0x8417fefe@@YAIQBXI0I@Z 10039d70 f   libcpmt:vector_algorithms.obj
 0001:00038f70       ??$_Impl_first_avx@G@__std_find_meow_of_bitmap@?A0x8417fefe@@YAIQBXI0I@Z 10039f70 f   libcpmt:vector_algorithms.obj
 0001:000390b0       ??$_Impl_first_scalar@G@__std_find_meow_of_bitmap@?A0x8417fefe@@YAIQBXIAAY0BAA@$$CB_N@Z 1003a0b0 f   libcpmt:vector_algorithms.obj
 0001:000390f0       ??$_Impl_pcmpestri@G@__std_find_first_of@?A0x8417fefe@@YAPBXPBXIQBXI@Z 1003a0f0 f   libcpmt:vector_algorithms.obj
 0001:000392e0       ??$_Make_bitmap@G@__std_find_meow_of_bitmap_details@?A0x8417fefe@@YA?AT__m256i@@QBGI@Z 1003a2e0 f   libcpmt:vector_algorithms.obj
 0001:00039450       ??$_Pick_strategy@G@__std_find_meow_of_bitmap@?A0x8417fefe@@YA?AW4_Strategy@01@II_N@Z 1003a450 f   libcpmt:vector_algorithms.obj
 0001:000394b0       ??$__std_find_last_trivial_impl@U_Find_traits_2@?A0x8417fefe@@G@?A0x8417fefe@@YGPBXPBX0G@Z 1003a4b0 f   libcpmt:vector_algorithms.obj
 0001:000395e0       ??$__std_find_trivial_impl@U_Find_traits_2@?A0x8417fefe@@G@?A0x8417fefe@@YGPBXPBX0G@Z 1003a5e0 f   libcpmt:vector_algorithms.obj
 0001:00039700       ??$__std_search_impl@U_Find_traits_2@?A0x8417fefe@@G@?A0x8417fefe@@YGPBXPBXQBX1I@Z 1003a700 f   libcpmt:vector_algorithms.obj
 0001:00039940       ??R<lambda_2>@?BC@???$_Impl_pcmpestri@G@__std_find_first_of@?A0x8417fefe@@YAPBXPBXIQBXI@Z@QBE@T__m128i@@H@Z 1003a940 f   libcpmt:vector_algorithms.obj
 0001:00039b41       _mtx_do_lock               1003ab41 f   libcpmt:mutex.obj
 0001:0003a26a       ?initialize_pointers@@YAHXZ 1003b26a f   libcpmt:winapisupp.obj
 0001:0003a65b       ?find_pe_section@@YAPAU_IMAGE_SECTION_HEADER@@QAEI@Z 1003b65b f   LIBCMT:utility.obj
 0001:0003aa8f       ?dllmain_crt_dispatch@@YGHQAUHINSTANCE__@@KQAX@Z 1003ba8f f   LIBCMT:dll_dllmain.obj
 0001:0003aae2       ?dllmain_crt_process_attach@@YAHQAUHINSTANCE__@@QAX@Z 1003bae2 f   LIBCMT:dll_dllmain.obj
 0001:0003abec       ?dllmain_crt_process_detach@@YAH_N@Z 1003bbec f   LIBCMT:dll_dllmain.obj
 0001:0003aca3       ?dllmain_dispatch@@YAHQAUHINSTANCE__@@KQAX@Z 1003bca3 f   LIBCMT:dll_dllmain.obj
 0001:0003adb1       ?dllmain_raw@@YGHQAUHINSTANCE__@@KQAX@Z 1003bdb1 f   LIBCMT:dll_dllmain.obj
 0001:0003b1a0       $$000000                   1003c1a0     LIBCMT:ulldiv.obj
 0001:0003b1c2       L1                         1003c1c2     LIBCMT:ulldiv.obj
 0001:0003b1d0       L3                         1003c1d0     LIBCMT:ulldiv.obj
 0001:0003b1fe       L4                         1003c1fe     LIBCMT:ulldiv.obj
 0001:0003b1ff       L5                         1003c1ff     LIBCMT:ulldiv.obj
 0001:0003b203       L2                         1003c203     LIBCMT:ulldiv.obj
 0001:0003b210       $$000000                   1003c210     LIBCMT:ullrem.obj
 0001:0003b231       L1                         1003c231     LIBCMT:ullrem.obj
 0001:0003b23f       L3                         1003c23f     LIBCMT:ullrem.obj
 0001:0003b26a       L4                         1003c26a     LIBCMT:ullrem.obj
 0001:0003b272       L5                         1003c272     LIBCMT:ullrem.obj
 0001:0003b281       L2                         1003c281     LIBCMT:ullrem.obj
 0001:0003b3e0       $$000000                   1003c3e0     LIBCMT:sehprolg4.obj
 0001:0003b425       ___get_entropy             1003c425 f   LIBCMT:gs_support.obj
 0001:0003b9cf       ?_FilterSetCurrentException@@YAKPAU_EXCEPTION_POINTERS@@E@Z 1003c9cf f   libvcruntime:ehhelpers.obj
 0001:0003bb90       _ValidateLocalCookies      1003cb90 f   libvcruntime:chandler4.obj
 0001:0003bfc0       $$000000                   1003cfc0     libvcruntime:memset.obj
 0001:0003c005       XMMMov                     1003d005     libvcruntime:memset.obj
 0001:0003c040       LargeRangeBytes            1003d040     libvcruntime:memset.obj
 0001:0003c07d       XmmMovSmall                1003d07d     libvcruntime:memset.obj
 0001:0003c090       XmmSmallLoop               1003d090     libvcruntime:memset.obj
 0001:0003c095       MidRangeBytes              1003d095     libvcruntime:memset.obj
 0001:0003c0b1       XMMTrailingBytes           1003d0b1     libvcruntime:memset.obj
 0001:0003c0c5       SmallMov                   1003d0c5     libvcruntime:memset.obj
 0001:0003c0cd       ByteLoop                   1003d0cd     libvcruntime:memset.obj
 0001:0003c0db       DwordTest                  1003d0db     libvcruntime:memset.obj
 0001:0003c0eb       QwordTest                  1003d0eb     libvcruntime:memset.obj
 0001:0003c100       QwordLoop                  1003d100     libvcruntime:memset.obj
 0001:0003c113       toend                      1003d113     libvcruntime:memset.obj
 0001:0003c190       $$000000                   1003d190     libvcruntime:memcpy.obj
 0001:0003c190       $$000000                   1003d190     libvcruntime:memmove.obj
 0001:0003c1b0       CopyUp                     1003d1b0     libvcruntime:memcpy.obj
 0001:0003c1b0       CopyUp                     1003d1b0     libvcruntime:memmove.obj
 0001:0003c1d4       CopyUpLargeMov             1003d1d4     libvcruntime:memcpy.obj
 0001:0003c1d4       CopyUpLargeMov             1003d1d4     libvcruntime:memmove.obj
 0001:0003c1e7       CopyUpSSE2Check            1003d1e7     libvcruntime:memcpy.obj
 0001:0003c1e7       CopyUpSSE2Check            1003d1e7     libvcruntime:memmove.obj
 0001:0003c200       AtomChk                    1003d200     libvcruntime:memcpy.obj
 0001:0003c200       AtomChk                    1003d200     libvcruntime:memmove.obj
 0001:0003c226       PalignHead4                1003d226     libvcruntime:memcpy.obj
 0001:0003c226       PalignHead4                1003d226     libvcruntime:memmove.obj
 0001:0003c239       PalignHead8                1003d239     libvcruntime:memcpy.obj
 0001:0003c239       PalignHead8                1003d239     libvcruntime:memmove.obj
 0001:0003c250       PalignLoop                 1003d250     libvcruntime:memcpy.obj
 0001:0003c250       PalignLoop                 1003d250     libvcruntime:memmove.obj
 0001:0003c262       MovPalign12                1003d262     libvcruntime:memcpy.obj
 0001:0003c262       MovPalign12                1003d262     libvcruntime:memmove.obj
 0001:0003c26c       PalignLoop12               1003d26c     libvcruntime:memcpy.obj
 0001:0003c26c       PalignLoop12               1003d26c     libvcruntime:memmove.obj
 0001:0003c2bd       MovPalign8                 1003d2bd     libvcruntime:memcpy.obj
 0001:0003c2bd       MovPalign8                 1003d2bd     libvcruntime:memmove.obj
 0001:0003c2c8       PalignLoop8                1003d2c8     libvcruntime:memcpy.obj
 0001:0003c2c8       PalignLoop8                1003d2c8     libvcruntime:memmove.obj
 0001:0003c316       MovPalign4                 1003d316     libvcruntime:memcpy.obj
 0001:0003c316       MovPalign4                 1003d316     libvcruntime:memmove.obj
 0001:0003c320       PalignLoop4                1003d320     libvcruntime:memcpy.obj
 0001:0003c320       PalignLoop4                1003d320     libvcruntime:memmove.obj
 0001:0003c36c       PalignTail                 1003d36c     libvcruntime:memcpy.obj
 0001:0003c36c       PalignTail                 1003d36c     libvcruntime:memmove.obj
 0001:0003c384       PalignTail4                1003d384     libvcruntime:memcpy.obj
 0001:0003c384       PalignTail4                1003d384     libvcruntime:memmove.obj
 0001:0003c397       PalignTail8                1003d397     libvcruntime:memcpy.obj
 0001:0003c397       PalignTail8                1003d397     libvcruntime:memmove.obj
 0001:0003c3ae       PalignTailLE3              1003d3ae     libvcruntime:memcpy.obj
 0001:0003c3ae       PalignTailLE3              1003d3ae     libvcruntime:memmove.obj
 0001:0003c3b7       Dword_align                1003d3b7     libvcruntime:memcpy.obj
 0001:0003c3b7       Dword_align                1003d3b7     libvcruntime:memmove.obj
 0001:0003c3bf       Dword_up_align_loop        1003d3bf     libvcruntime:memcpy.obj
 0001:0003c3bf       Dword_up_align_loop        1003d3bf     libvcruntime:memmove.obj
 0001:0003c3d2       Dword_align_Ok             1003d3d2     libvcruntime:memcpy.obj
 0001:0003c3d2       Dword_align_Ok             1003d3d2     libvcruntime:memmove.obj
 0001:0003c3ec       ByteCopyUp                 1003d3ec     libvcruntime:memcpy.obj
 0001:0003c3ec       ByteCopyUp                 1003d3ec     libvcruntime:memmove.obj
 0001:0003c3f4       TrailingUpVec              1003d3f4     libvcruntime:memcpy.obj
 0001:0003c3f4       TrailingUpVec              1003d3f4     libvcruntime:memmove.obj
 0001:0003c404       TrailingUp0                1003d404     libvcruntime:memcpy.obj
 0001:0003c404       TrailingUp0                1003d404     libvcruntime:memmove.obj
 0001:0003c40c       TrailingUp1                1003d40c     libvcruntime:memcpy.obj
 0001:0003c40c       TrailingUp1                1003d40c     libvcruntime:memmove.obj
 0001:0003c418       TrailingUp2                1003d418     libvcruntime:memcpy.obj
 0001:0003c418       TrailingUp2                1003d418     libvcruntime:memmove.obj
 0001:0003c42c       TrailingUp3                1003d42c     libvcruntime:memcpy.obj
 0001:0003c42c       TrailingUp3                1003d42c     libvcruntime:memmove.obj
 0001:0003c444       CopyDown                   1003d444     libvcruntime:memcpy.obj
 0001:0003c444       CopyDown                   1003d444     libvcruntime:memmove.obj
 0001:0003c469       CopyDownNotAligned         1003d469     libvcruntime:memcpy.obj
 0001:0003c469       CopyDownNotAligned         1003d469     libvcruntime:memmove.obj
 0001:0003c470       CopyDownAlignLoop          1003d470     libvcruntime:memcpy.obj
 0001:0003c470       CopyDownAlignLoop          1003d470     libvcruntime:memmove.obj
 0001:0003c47d       CopyDownAligned            1003d47d     libvcruntime:memcpy.obj
 0001:0003c47d       CopyDownAligned            1003d47d     libvcruntime:memmove.obj
 0001:0003c4a0       TrailingDownVec            1003d4a0     libvcruntime:memcpy.obj
 0001:0003c4a0       TrailingDownVec            1003d4a0     libvcruntime:memmove.obj
 0001:0003c4b0       TrailingDown0              1003d4b0     libvcruntime:memcpy.obj
 0001:0003c4b0       TrailingDown0              1003d4b0     libvcruntime:memmove.obj
 0001:0003c4b8       TrailingDown1              1003d4b8     libvcruntime:memcpy.obj
 0001:0003c4b8       TrailingDown1              1003d4b8     libvcruntime:memmove.obj
 0001:0003c4c8       TrailingDown2              1003d4c8     libvcruntime:memcpy.obj
 0001:0003c4c8       TrailingDown2              1003d4c8     libvcruntime:memmove.obj
 0001:0003c4dc       TrailingDown3              1003d4dc     libvcruntime:memcpy.obj
 0001:0003c4dc       TrailingDown3              1003d4dc     libvcruntime:memmove.obj
 0001:0003c4f5       XmmMovLargeAlignTest       1003d4f5     libvcruntime:memcpy.obj
 0001:0003c4f5       XmmMovLargeAlignTest       1003d4f5     libvcruntime:memmove.obj
 0001:0003c4fd       XmmMovAlignLoop            1003d4fd     libvcruntime:memcpy.obj
 0001:0003c4fd       XmmMovAlignLoop            1003d4fd     libvcruntime:memmove.obj
 0001:0003c50c       XmmMovLargeLoop            1003d50c     libvcruntime:memcpy.obj
 0001:0003c50c       XmmMovLargeLoop            1003d50c     libvcruntime:memmove.obj
 0001:0003c57c       XmmMovSmallTest            1003d57c     libvcruntime:memcpy.obj
 0001:0003c57c       XmmMovSmallTest            1003d57c     libvcruntime:memmove.obj
 0001:0003c581       XmmMovSmallLoop            1003d581     libvcruntime:memcpy.obj
 0001:0003c581       XmmMovSmallLoop            1003d581     libvcruntime:memmove.obj
 0001:0003c5a4       CopyDownSmall              1003d5a4     libvcruntime:memcpy.obj
 0001:0003c5a4       CopyDownSmall              1003d5a4     libvcruntime:memmove.obj
 0001:0003c5ac       CopyDownDwordLoop          1003d5ac     libvcruntime:memcpy.obj
 0001:0003c5ac       CopyDownDwordLoop          1003d5ac     libvcruntime:memmove.obj
 0001:0003c5c1       CopyDownByteTest           1003d5c1     libvcruntime:memcpy.obj
 0001:0003c5c1       CopyDownByteTest           1003d5c1     libvcruntime:memmove.obj
 0001:0003c5c5       CopyDownByteLoop           1003d5c5     libvcruntime:memcpy.obj
 0001:0003c5c5       CopyDownByteLoop           1003d5c5     libvcruntime:memmove.obj
 0001:0003c5d4       CopyDownReturn             1003d5d4     libvcruntime:memcpy.obj
 0001:0003c5d4       CopyDownReturn             1003d5d4     libvcruntime:memmove.obj
 0001:0003c5e0       XmmCopy                    1003d5e0     libvcruntime:memcpy.obj
 0001:0003c5e0       XmmCopy                    1003d5e0     libvcruntime:memmove.obj
 0001:0003c5ed       XmmCopyAligned             1003d5ed     libvcruntime:memcpy.obj
 0001:0003c5ed       XmmCopyAligned             1003d5ed     libvcruntime:memmove.obj
 0001:0003c600       XmmCopyLargeLoop           1003d600     libvcruntime:memcpy.obj
 0001:0003c600       XmmCopyLargeLoop           1003d600     libvcruntime:memmove.obj
 0001:0003c65d       XmmCopySmallTest           1003d65d     libvcruntime:memcpy.obj
 0001:0003c65d       XmmCopySmallTest           1003d65d     libvcruntime:memmove.obj
 0001:0003c670       XmmCopySmallLoop           1003d670     libvcruntime:memcpy.obj
 0001:0003c670       XmmCopySmallLoop           1003d670     libvcruntime:memmove.obj
 0001:0003c68b       CopyUpDwordMov             1003d68b     libvcruntime:memcpy.obj
 0001:0003c68b       CopyUpDwordMov             1003d68b     libvcruntime:memmove.obj
 0001:0003c690       CopyUpDwordTest            1003d690     libvcruntime:memcpy.obj
 0001:0003c690       CopyUpDwordTest            1003d690     libvcruntime:memmove.obj
 0001:0003c697       CopyUpDwordLoop            1003d697     libvcruntime:memcpy.obj
 0001:0003c697       CopyUpDwordLoop            1003d697     libvcruntime:memmove.obj
 0001:0003c6a6       CopyUpByteTest             1003d6a6     libvcruntime:memcpy.obj
 0001:0003c6a6       CopyUpByteTest             1003d6a6     libvcruntime:memmove.obj
 0001:0003c6ad       CopyUpByteLoop             1003d6ad     libvcruntime:memcpy.obj
 0001:0003c6ad       CopyUpByteLoop             1003d6ad     libvcruntime:memmove.obj
 0001:0003c6c0       CopyUpReturn               1003d6c0     libvcruntime:memcpy.obj
 0001:0003c6c0       CopyUpReturn               1003d6c0     libvcruntime:memmove.obj
 0001:0003c6d0       XmmCopyUnaligned           1003d6d0     libvcruntime:memcpy.obj
 0001:0003c6d0       XmmCopyUnaligned           1003d6d0     libvcruntime:memmove.obj
 0001:0003c6e3       XmmAlignByte               1003d6e3     libvcruntime:memcpy.obj
 0001:0003c6e3       XmmAlignByte               1003d6e3     libvcruntime:memmove.obj
 0001:0003c6ec       XmmAlignDwordTest          1003d6ec     libvcruntime:memcpy.obj
 0001:0003c6ec       XmmAlignDwordTest          1003d6ec     libvcruntime:memmove.obj
 0001:0003c6f1       XmmAlignDwordLoop          1003d6f1     libvcruntime:memcpy.obj
 0001:0003c6f1       XmmAlignDwordLoop          1003d6f1     libvcruntime:memmove.obj
 0001:0003c6fe       XmmAlignAdjustCnt          1003d6fe     libvcruntime:memcpy.obj
 0001:0003c6fe       XmmAlignAdjustCnt          1003d6fe     libvcruntime:memmove.obj
 0001:0003c8f8       ??$BuildCatchObjectHelperInternal@V__FrameHandler3@@@@YAHPAUEHExceptionRecord@@PAXPBU_s_HandlerType@@PBU_s_CatchableType@@@Z 1003d8f8 f   libvcruntime:frame.obj
 0001:0003ca36       ??$BuildCatchObjectInternal@V__FrameHandler3@@@@YAXPAUEHExceptionRecord@@PAXPBU_s_HandlerType@@PBU_s_CatchableType@@@Z 1003da36 f   libvcruntime:frame.obj
 0001:0003cad2       ??$CatchIt@V__FrameHandler3@@@@YAXPAUEHExceptionRecord@@PAUEHRegistrationNode@@PAU_CONTEXT@@PAXPBU_s_FuncInfo@@PBU_s_HandlerType@@PBU_s_CatchableType@@PBU_s_TryBlockMapEntry@@H1EE@Z 1003dad2 f   libvcruntime:frame.obj
 0001:0003cb53       ??$FindHandler@V__FrameHandler3@@@@YAXPAUEHExceptionRecord@@PAUEHRegistrationNode@@PAU_CONTEXT@@PAXPBU_s_FuncInfo@@EH1@Z 1003db53 f   libvcruntime:frame.obj
 0001:0003cef6       ??$FindHandlerForForeignException@V__FrameHandler3@@@@YAXPAUEHExceptionRecord@@PAUEHRegistrationNode@@PAU_CONTEXT@@PAXPBU_s_FuncInfo@@HH1@Z 1003def6 f   libvcruntime:frame.obj
 0001:0003d21d       ?CallCatchBlock@@YAPAXPAUEHExceptionRecord@@PAUEHRegistrationNode@@PAU_CONTEXT@@PBU_s_FuncInfo@@PAXHK@Z 1003e21d f   libvcruntime:frame.obj
 0001:0003d3ec       ?CallUnexpected@@YAXPBU_s_ESTypeList@@@Z 1003e3ec f   libvcruntime:frame.obj
 0001:0003d40f       __catch$?CallUnexpected@@YAXPBU_s_ESTypeList@@@Z$0 1003e40f f   libvcruntime:frame.obj
 0001:0003d42e       ?ExFilterRethrow@@YAHPAU_EXCEPTION_POINTERS@@@Z 1003e42e f   libvcruntime:frame.obj
 0001:0003d57e       ?IsInExceptionSpec@@YAEPAUEHExceptionRecord@@PBU_s_ESTypeList@@@Z 1003e57e f   libvcruntime:frame.obj
 0001:0003d650       $$000000                   1003e650     libvcruntime:lowhelpr.obj
 0001:0003d68f       _NLG_Continue              1003e68f     libvcruntime:lowhelpr.obj
 0001:0003d6d0       $$000000                   1003e6d0     libvcruntime:exsup4.obj
 0001:0003d702       _lu_top                    1003e702     libvcruntime:exsup4.obj
 0001:0003d761       _lu_done                   1003e761     libvcruntime:exsup4.obj
 0001:0003d770       $$000000                   1003e770     libvcruntime:exsup4.obj
 0001:0003d770       __unwind_handler4          1003e770 f   libvcruntime:exsup4.obj
 0001:0003d7c0       $$000000                   1003e7c0     libvcruntime:exsup4.obj
 0001:0003d7e0       $$000000                   1003e7e0     libvcruntime:exsup4.obj
 0001:0003d800       $$000000                   1003e800     libvcruntime:exsup4.obj
 0001:0003d815       ReturnPoint                1003e815     libvcruntime:exsup4.obj
 0001:0003d820       $$000000                   1003e820     libvcruntime:exsup4.obj
 0001:0003d8a2       ?try_get_function@@YAPAXW4function_id@?A0x14174aea@@QBDQBW4module_id@2@2@Z 1003e8a2 f   libvcruntime:winapi_downlevel.obj
 0001:0003d942       ?try_load_library_from_system_directory@@YAPAUHINSTANCE__@@QB_W@Z 1003e942 f   libvcruntime:winapi_downlevel.obj
 0001:0003db10       $$000000                   1003eb10     libvcruntime:exsup.obj
 0001:0003db20       $$000000                   1003eb20     libvcruntime:exsup.obj
 0001:0003db2b       __NLG_Go                   1003eb2b     libvcruntime:exsup.obj
 0001:0003db40       $$000000                   1003eb40     libvcruntime:exsup.obj
 0001:0003db43       ??$common_vsnprintf_s@_W@@YAH_KQA_WIIQB_WAAV__crt_cached_ptd_host@@QAD@Z 1003eb43 f   libucrt:output.obj
 0001:0003dc55       ??$common_vsprintf@Vformat_validation_base@__crt_stdio_output@@_W@@YAH_KQA_WIQB_WAAV__crt_cached_ptd_host@@QAD@Z 1003ec55 f   libucrt:output.obj
 0001:0003ddd8       ??$common_vsprintf@Vstandard_base@__crt_stdio_output@@_W@@YAH_KQA_WIQB_WAAV__crt_cached_ptd_host@@QAD@Z 1003edd8 f   libucrt:output.obj
 0001:0003df5b       ??$common_vsprintf_s@_W@@YAH_KQA_WIQB_WAAV__crt_cached_ptd_host@@QAD@Z 1003ef5b f   libucrt:output.obj
 0001:0003f5ae       $LN118                     100405ae     libucrt:output.obj
 0001:0003f7ea       $LN107                     100407ea     libucrt:output.obj
 0001:0003fede       $LN18                      10040ede     libucrt:output.obj
 0001:0003fef2       $LN17                      10040ef2     libucrt:output.obj
 0001:00041546       ?bsearch_errentry@@YAPBUerrentry@?A0x31fdb9ec@@KQBU12@I@Z 10042546 f   libucrt:errno.obj
 0001:00041740       ?_stricmp_validate_param@@YAHQBD0@Z 10042740 f   libucrt:stricmp.obj
 0001:00041e0b       ??$thread_start@P6GIPAX@Z$00@@YGKQAX@Z 10042e0b f   libucrt:thread.obj
 0001:00041e89       ??1?$__crt_unique_heap_ptr@U__acrt_thread_parameter@@Uthread_parameter_free_policy@?A0x4e93fcdd@@@@QAE@XZ 10042e89 f   libucrt:thread.obj
 0001:00041ec0       ?common_end_thread@@YAXI@Z 10042ec0 f   libucrt:thread.obj
 0001:00041f17       ?create_thread_parameter@@YAPAU__acrt_thread_parameter@@QAX0@Z 10042f17 f   libucrt:thread.obj
 0001:00042120       $$000000                   10043120     libucrt:strncmp.obj
 0001:0004260d       ??$?RV<lambda_03b1d95aef87969028cfba75ccab2455>@@AAV<lambda_6e4b09c48022b2350581041d5f6b0c4c>@@V<lambda_22bdf7517842c4b3e53723af5aa32b9e>@@@?$__crt_seh_guarded_call@X@@QAEX$$QAV<lambda_03b1d95aef87969028cfba75ccab2455>@@AAV<lambda_6e4b09c48022b2350581041d5f6b0c4c>@@$$QAV<lambda_22bdf7517842c4b3e53723af5aa32b9e>@@@Z 1004360d f   libucrt:exit.obj
 0001:0004265a       ??R<lambda_6e4b09c48022b2350581041d5f6b0c4c>@@QBE@XZ 1004365a f   libucrt:exit.obj
 0001:00042742       ?common_exit@@YAXHW4_crt_exit_cleanup_mode@@W4_crt_exit_return_mode@@@Z 10043742 f   libucrt:exit.obj
 0001:00042800       ?exit_or_terminate_process@@YAXI_N@Z 10043800 f   libucrt:exit.obj
 0001:0004282e       ?is_managed_app@@YA_NXZ    1004382e f   libucrt:exit.obj
 0001:00042870       ?try_cor_exit_process@@YAXI@Z 10043870 f   libucrt:exit.obj
 0001:0004292d       ??$common_configure_argv@D@@YAHW4_crt_argv_mode@@@Z 1004392d f   libucrt:argv_parsing.obj
 0001:00042a6a       ??$parse_command_line@D@@YAXPADPAPAD0PAI2@Z 10043a6a f   libucrt:argv_parsing.obj
 0001:00042c36       ??$common_initialize_environment_nolock@D@@YAHXZ 10043c36 f   libucrt:environment_initialization.obj
 0001:00042c90       ??$create_environment@D@@YAQAPADQAD@Z 10043c90 f   libucrt:environment_initialization.obj
 0001:00042d75       ??$free_environment@D@@YAXQAPAD@Z 10043d75 f   libucrt:environment_initialization.obj
 0001:00042d75       ??$free_environment@_W@@YAXQAPA_W@Z 10043d75 f   libucrt:environment_initialization.obj
 0001:00042da4       ??$uninitialize_environment_internal@D@@YAXAAPAPAD@Z 10043da4 f   libucrt:environment_initialization.obj
 0001:00042dbf       ??$uninitialize_environment_internal@_W@@YAXAAPAPA_W@Z 10043dbf f   libucrt:environment_initialization.obj
 0001:00042e30       ??$?RV<lambda_69a2805e680e0e292e8ba93315fe43a8>@@AAV<lambda_f03950bc5685219e0bcd2087efbe011e>@@V<lambda_03fcd07e894ec930e3f35da366ca99d6>@@@?$__crt_seh_guarded_call@H@@QAEH$$QAV<lambda_69a2805e680e0e292e8ba93315fe43a8>@@AAV<lambda_f03950bc5685219e0bcd2087efbe011e>@@$$QAV<lambda_03fcd07e894ec930e3f35da366ca99d6>@@@Z 10043e30 f   libucrt:onexit.obj
 0001:00042e8b       ??$?RV<lambda_8e746cf0007f6ed984d6f78af1fec997>@@AAV<lambda_22ebabd17bc4fa466a2aca6d8deb888d>@@V<lambda_18ed0c0b38a6dc0daf1e7ac6d6adf05e>@@@?$__crt_seh_guarded_call@H@@QAEH$$QAV<lambda_8e746cf0007f6ed984d6f78af1fec997>@@AAV<lambda_22ebabd17bc4fa466a2aca6d8deb888d>@@$$QAV<lambda_18ed0c0b38a6dc0daf1e7ac6d6adf05e>@@@Z 10043e8b f   libucrt:onexit.obj
 0001:00042ee6       ??R<lambda_22ebabd17bc4fa466a2aca6d8deb888d>@@QBE@XZ 10043ee6 f   libucrt:onexit.obj
 0001:00042ff9       ??R<lambda_f03950bc5685219e0bcd2087efbe011e>@@QBE@XZ 10043ff9 f   libucrt:onexit.obj
 0001:00043183       _initialize_global_variables 10044183 f   libucrt:initialization.obj
 0001:00043190       _initialize_c              10044190 f   libucrt:initialization.obj
 0001:000431aa       _initialize_environment    100441aa f   libucrt:initialization.obj
 0001:000431aa       _initialize_global_state_isolation 100441aa f   libucrt:initialization.obj
 0001:000431aa       _report_memory_leaks       100441aa f   libucrt:initialization.obj
 0001:000431aa       _uninitialize_c            100441aa f   libucrt:initialization.obj
 0001:000431aa       _uninitialize_global_state_isolation 100441aa f   libucrt:initialization.obj
 0001:000431ad       _uninitialize_environment  100441ad f   libucrt:initialization.obj
 0001:000431b5       _initialize_pointers       100441b5 f   libucrt:initialization.obj
 0001:000431e3       _uninitialize_vcruntime    100441e3 f   libucrt:initialization.obj
 0001:000431ec       _uninitialize_allocated_memory 100441ec f   libucrt:initialization.obj
 0001:00043203       _uninitialize_allocated_io_buffers 10044203 f   libucrt:initialization.obj
 0001:00043253       ??R<lambda_af42a3ee9806e9a7305d451646e05244>@@QBE@AAPAU__crt_multibyte_data@@@Z 10044253 f   libucrt:initialization.obj
 0001:000433e0       ?select_heap@@YAPAXQAX@Z   100443e0 f   libucrt:free_base.obj
 0001:0004355f       ?fe_to_nearest@@YA_NQBN_KF@Z 1004455f f   libucrt:cvt.obj
 0001:00043611       ?fp_format_a@@YAHQBNPADIQADIH_NIW4__acrt_rounding_mode@@AAV__crt_cached_ptd_host@@@Z 10044611 f   libucrt:cvt.obj
 0001:0004394d       ?fp_format_e@@YAHQBNQADI1IH_NIW4__acrt_rounding_mode@@AAV__crt_cached_ptd_host@@@Z 1004494d f   libucrt:cvt.obj
 0001:000439dd       ?fp_format_e_internal@@YAHQADIH_NIQAU_strflt@@1AAV__crt_cached_ptd_host@@@Z 100449dd f   libucrt:cvt.obj
 0001:00043b20       ?fp_format_f@@YAHQBNQADI1IHW4__acrt_rounding_mode@@AAV__crt_cached_ptd_host@@@Z 10044b20 f   libucrt:cvt.obj
 0001:00043ba9       ?fp_format_f_internal@@YAHQADIHQAU_strflt@@_NAAV__crt_cached_ptd_host@@@Z 10044ba9 f   libucrt:cvt.obj
 0001:00043c89       ?fp_format_g@@YAHQBNQADI1IH_NIW4__acrt_rounding_mode@@AAV__crt_cached_ptd_host@@@Z 10044c89 f   libucrt:cvt.obj
 0001:00043d50       ?fp_format_nan_or_infinity@@YAHW4__acrt_fp_class@@_NPADI1@Z 10044d50 f   libucrt:cvt.obj
 0001:00043de5       ?shift_bytes@@YAXQADI0H@Z  10044de5 f   libucrt:cvt.obj
 0001:00043e19       ?should_round_up@@YA_NQBN_KFW4__acrt_rounding_mode@@@Z 10044e19 f   libucrt:cvt.obj
 0001:00044356       ??R<lambda_e96123212306c92459f955e8e4eac55d>@@QBEIPBD@Z 10045356 f   libucrt:mbrtowc.obj
 0001:00044514       ??$?RV<lambda_15ade71b0218206bbe3333a0c9b79046>@@AAV<lambda_da44e0f8b0f19ba52fefafb335991732>@@V<lambda_207f2d024fc103971653565357d6cd41>@@@?$__crt_seh_guarded_call@X@@QAEX$$QAV<lambda_15ade71b0218206bbe3333a0c9b79046>@@AAV<lambda_da44e0f8b0f19ba52fefafb335991732>@@$$QAV<lambda_207f2d024fc103971653565357d6cd41>@@@Z 10045514 f   libucrt:per_thread_data.obj
 0001:00044566       ??$?RV<lambda_38edbb1296d33220d7e4dd0ed76b244a>@@AAV<lambda_5ce1d447e08cb34b2473517608e21441>@@V<lambda_fb385d3da700c9147fc39e65dd577a8c>@@@?$__crt_seh_guarded_call@X@@QAEX$$QAV<lambda_38edbb1296d33220d7e4dd0ed76b244a>@@AAV<lambda_5ce1d447e08cb34b2473517608e21441>@@$$QAV<lambda_fb385d3da700c9147fc39e65dd577a8c>@@@Z 10045566 f   libucrt:per_thread_data.obj
 0001:000445d1       ??$?RV<lambda_6affb1475c98b40b75cdec977db92e3c>@@AAV<lambda_b8d4b9c228a6ecc3f80208dbb4b4a104>@@V<lambda_608742c3c92a14382c1684fc64f96c88>@@@?$__crt_seh_guarded_call@X@@QAEX$$QAV<lambda_6affb1475c98b40b75cdec977db92e3c>@@AAV<lambda_b8d4b9c228a6ecc3f80208dbb4b4a104>@@$$QAV<lambda_608742c3c92a14382c1684fc64f96c88>@@@Z 100455d1 f   libucrt:per_thread_data.obj
 0001:00044626       ??$?RV<lambda_a7e850c220f1c8d1e6efeecdedd162c6>@@AAV<lambda_46720907175c18b6c9d2717bc0d2d362>@@V<lambda_9048902d66e8d99359bc9897bbb930a8>@@@?$__crt_seh_guarded_call@X@@QAEX$$QAV<lambda_a7e850c220f1c8d1e6efeecdedd162c6>@@AAV<lambda_46720907175c18b6c9d2717bc0d2d362>@@$$QAV<lambda_9048902d66e8d99359bc9897bbb930a8>@@@Z 10045626 f   libucrt:per_thread_data.obj
 0001:00044680       ?construct_ptd@@YAXQAU__acrt_ptd@@QAPAU__crt_locale_data@@@Z 10045680 f   libucrt:per_thread_data.obj
 0001:00044719       ?destroy_fls@@YGXPAX@Z     10045719 f   libucrt:per_thread_data.obj
 0001:0004473a       ?destroy_ptd@@YAXQAU__acrt_ptd@@@Z 1004573a f   libucrt:per_thread_data.obj
 0001:000448af       ?replace_current_thread_locale_nolock@@YAXQAU__acrt_ptd@@QAU__crt_locale_data@@@Z 100458af f   libucrt:per_thread_data.obj
 0001:00044ab4       ??$?RV<lambda_e5124f882df8998aaf41531e079ba474>@@AAV<lambda_3e16ef9562a7dcce91392c22ab16ea36>@@V<lambda_e25ca0880e6ef98be67edffd8c599615>@@@?$__crt_seh_guarded_call@X@@QAEX$$QAV<lambda_e5124f882df8998aaf41531e079ba474>@@AAV<lambda_3e16ef9562a7dcce91392c22ab16ea36>@@$$QAV<lambda_e25ca0880e6ef98be67edffd8c599615>@@@Z 10045ab4 f   libucrt:wsetlocale.obj
 0001:00044b54       ?initialize_inherited_file_handles_nolock@@YAXXZ 10045b54 f   libucrt:ioinit.obj
 0001:00044c04       ?initialize_stdio_handles_nolock@@YAXXZ 10045c04 f   libucrt:ioinit.obj
 0001:00044e74       ??$?RV<lambda_cbab9ec6f41b0180b23cc171c22676b0>@@AAV<lambda_44731a7d0e6d81c3e6aa82d741081786>@@V<lambda_4b292cb8dd18144e164572427af410ab>@@@?$__crt_seh_guarded_call@P6AXH@Z@@QAEP6AXH@Z$$QAV<lambda_cbab9ec6f41b0180b23cc171c22676b0>@@AAV<lambda_44731a7d0e6d81c3e6aa82d741081786>@@$$QAV<lambda_4b292cb8dd18144e164572427af410ab>@@@Z 10045e74 f   libucrt:signal.obj
 0001:00044edc       ?get_global_action_nolock@@YAPAP6AXH@ZH@Z 10045edc f   libucrt:signal.obj
 0001:00044f1e       ?siglookup@@YAPAU__crt_signal_action_t@@HQAU1@@Z 10045f1e f   libucrt:signal.obj
 0001:000451e0       ?try_get_AreFileApisANSI@@YAP6GHXZXZ 100461e0 f   libucrt:winapi_thunks.obj
 0001:0004520a       ?try_get_LCMapStringEx@@YAP6GHPB_WK0HPA_WHPAU_nlsversioninfo@@PAXJ@ZXZ 1004620a f   libucrt:winapi_thunks.obj
 0001:00045235       ?try_get_LocaleNameToLCID@@YAP6GKPB_WK@ZXZ 10046235 f   libucrt:winapi_thunks.obj
 0001:00045260       ?try_get_function_slow@@YAPAXW4function_id@?A0x391cf84c@@QBDQBW4module_id@2@2@Z 10046260 f   libucrt:winapi_thunks.obj
 0001:0004532d       ?try_load_library_from_system_directory@@YAPAUHINSTANCE__@@QB_W@Z 1004632d f   libucrt:winapi_thunks.obj
 0001:00045741       ??$?RV<lambda_2866be3712abc81a800a822484c830d8>@@AAV<lambda_39ca0ed439415581b5b15c265174cece>@@V<lambda_2b24c74d71094a6cd0cb82e44167d71b>@@@?$__crt_seh_guarded_call@X@@QAEX$$QAV<lambda_2866be3712abc81a800a822484c830d8>@@AAV<lambda_39ca0ed439415581b5b15c265174cece>@@$$QAV<lambda_2b24c74d71094a6cd0cb82e44167d71b>@@@Z 10046741 f   libucrt:fflush.obj
 0001:000457cd       ??$?RV<lambda_2cc53f568c5a2bb6f192f930a45d44ea>@@AAV<lambda_ab61a845afdef5b7c387490eaf3616ee>@@V<lambda_c2ffc0b7726aa6be21d5f0026187e748>@@@?$__crt_seh_guarded_call@X@@QAEX$$QAV<lambda_2cc53f568c5a2bb6f192f930a45d44ea>@@AAV<lambda_ab61a845afdef5b7c387490eaf3616ee>@@$$QAV<lambda_c2ffc0b7726aa6be21d5f0026187e748>@@@Z 100467cd f   libucrt:fflush.obj
 0001:00045879       ?common_flush_all@@YAH_N@Z 10046879 f   libucrt:fflush.obj
 0001:000458c5       ?common_flush_all_should_try_to_flush_stream@@YA_NV__crt_stdio_stream@@QAH@Z 100468c5 f   libucrt:fflush.obj
 0001:000458f6       ?is_stream_flushable_or_commitable@@YA_NJ@Z 100468f6 f   libucrt:fflush.obj
 0001:00045b4e       ?__acrt_LCMapStringA_stat@@YAHPAU__crt_locale_pointers@@PB_WKPBDHPADHHH@Z 10046b4e f   libucrt:lcmapstringa.obj
 0001:00045e49       ?<lambda_invoker_cdecl>@<lambda_838c7f62c73c983481e27c09e84b0b5d>@@CAHPBX0@Z 10046e49 f   libucrt:argv_wildcards.obj
 0001:00045ff6       ??$common_expand_argv_wildcards@D@@YAHQAPADQAPAPAD@Z 10046ff6 f   libucrt:argv_wildcards.obj
 0001:00046173       ??$copy_and_add_argument_to_buffer@D@@YAHQBD0IAAV?$argument_list@D@?A0x5f5c8891@@@Z 10047173 f   libucrt:argv_wildcards.obj
 0001:00046224       ??$expand_argument_wildcards@D@@YAHQAD0AAV?$argument_list@D@?A0x5f5c8891@@@Z 10047224 f   libucrt:argv_wildcards.obj
 0001:000464b0       ??1?$argument_list@D@?A0x5f5c8891@@QAE@XZ 100474b0 f   libucrt:argv_wildcards.obj
 0001:000465ee       ?expand_if_necessary@?$argument_list@D@?A0x5f5c8891@@AAEHXZ 100475ee f   libucrt:argv_wildcards.obj
 0001:0004681e       ??$?RV<lambda_ceb1ee4838e85a9d631eb091e2fbe199>@@AAV<lambda_ae742caa10f662c28703da3d2ea5e57e>@@V<lambda_cd08b5d6af4937fe54fc07d0c9bf6b37>@@@?$__crt_seh_guarded_call@X@@QAEX$$QAV<lambda_ceb1ee4838e85a9d631eb091e2fbe199>@@AAV<lambda_ae742caa10f662c28703da3d2ea5e57e>@@$$QAV<lambda_cd08b5d6af4937fe54fc07d0c9bf6b37>@@@Z 1004781e f   libucrt:mbctype.obj
 0001:0004686b       ??R<lambda_ae742caa10f662c28703da3d2ea5e57e>@@QBE@XZ 1004786b f   libucrt:mbctype.obj
 0001:000468ee       ?CPtoLocaleName@@YAPB_WH@Z 100478ee f   libucrt:mbctype.obj
 0001:0004692c       ?getSystemCP@@YAHH@Z       1004792c f   libucrt:mbctype.obj
 0001:0004699d       ?setSBCS@@YAXPAU__crt_multibyte_data@@@Z 1004799d f   libucrt:mbctype.obj
 0001:00046a00       ?setSBUpLow@@YAXPAU__crt_multibyte_data@@@Z 10047a00 f   libucrt:mbctype.obj
 0001:00046ba5       ?setmbcp_internal@@YAHH_NQAU__acrt_ptd@@QAPAU__crt_multibyte_data@@@Z 10047ba5 f   libucrt:mbctype.obj
 0001:00046cfa       ?update_thread_multibyte_data_internal@@YAPAU__crt_multibyte_data@@QAU__acrt_ptd@@QAPAU1@@Z 10047cfa f   libucrt:mbctype.obj
 0001:00046ffa       _memcpy_s                  10047ffa f   libucrt:cfout.obj
 0001:00046ffa       _memcpy_s                  10047ffa f   libucrt:mbctype.obj
 0001:0004707b       ?x_ismbbtype_l@@YAHPAU__crt_locale_pointers@@IHH@Z 1004807b f   libucrt:ismbbyte.obj
 0001:000470fc       ?filter_mbtowcs_flags@@YAKIK@Z 100480fc f   libucrt:multibytetowidechar.obj
 0001:000471be       ?filter_wcstomb_flags@@YAKIK@Z 100481be f   libucrt:widechartomultibyte.obj
 0001:000472b8       ?find_end_of_double_null_terminated_sequence@@YAPB_WQB_W@Z 100482b8 f   libucrt:get_environment_from_os.obj
 0001:00047949       ?check_trailing@@YA_NPBDW4__acrt_has_trailing_digits@@@Z 10048949 f   libucrt:_fptostr.obj
 0001:0004796c       ?should_round_up@@YA_NQBD0HW4__acrt_has_trailing_digits@@W4__acrt_rounding_mode@@@Z 1004896c f   libucrt:_fptostr.obj
 0001:000496b2       ?free_crt_array_internal@@YAXQAPBXI@Z 1004a6b2 f   libucrt:inittime.obj
 0001:00049a63       ?GetTableIndexFromLocaleName@@YAHPB_W@Z 1004aa63 f   libucrt:lcidtoname_downlevel.obj
 0001:00049ae3       ?_fclose_internal@@YAHQAU_iobuf@@AAV__crt_cached_ptd_host@@@Z 1004aae3 f   libucrt:fclose.obj
 0001:00049b7a       ?_fclose_nolock_internal@@YAHQAU_iobuf@@AAV__crt_cached_ptd_host@@@Z 1004ab7a f   libucrt:fclose.obj
 0001:00049c38       ??$?RV<lambda_9e9de3de5fa147e2223d7db92bc10aa6>@@AAV<lambda_38ce7e780aa69e748d6df282ebc68efe>@@V<lambda_8ca6da459f0f6780f1cff60fdc3d00e5>@@@?$__crt_seh_guarded_call@H@@QAEH$$QAV<lambda_9e9de3de5fa147e2223d7db92bc10aa6>@@AAV<lambda_38ce7e780aa69e748d6df282ebc68efe>@@$$QAV<lambda_8ca6da459f0f6780f1cff60fdc3d00e5>@@@Z 1004ac38 f   libucrt:commit.obj
 0001:00049d57       ?write_double_translated_ansi_nolock@@YA?AUwrite_result@?A0x17268360@@HQBDIAAV__crt_cached_ptd_host@@@Z 1004ad57 f   libucrt:write.obj
 0001:0004a122       ?write_double_translated_unicode_nolock@@YA?AUwrite_result@?A0x17268360@@QBDI@Z 1004b122 f   libucrt:write.obj
 0001:0004a18a       ?write_requires_double_translation_nolock@@YA_NHAAV__crt_cached_ptd_host@@@Z 1004b18a f   libucrt:write.obj
 0001:0004a207       ?write_text_ansi_nolock@@YA?AUwrite_result@?A0x17268360@@HQBDI@Z 1004b207 f   libucrt:write.obj
 0001:0004a2e2       ?write_text_utf16le_nolock@@YA?AUwrite_result@?A0x17268360@@HQBDI@Z 1004b2e2 f   libucrt:write.obj
 0001:0004a3cb       ?write_text_utf8_nolock@@YA?AUwrite_result@?A0x17268360@@HQBDI@Z 1004b3cb f   libucrt:write.obj
 0001:0004a82a       ??$common_lseek_nolock@_J@@YA_JH_JHAAV__crt_cached_ptd_host@@@Z 1004b82a f   libucrt:lseek.obj
 0001:0004ae30       $$000000                   1004be30     libucrt:strpbrk.obj
 0001:0004af14       ?initialize_multibyte@@YAHXZ 1004bf14 f   libucrt:multibyte_initializer.obj
 0001:0004b130       $$000000                   1004c130     libucrt:log10_sse2_precise.obj
 0001:0004b3e0       $$000000                   1004c3e0     libucrt:ceil_pentium4.obj
 0001:0004bbad       ??$?RV<lambda_d422a76eb4c3bf3ad751449ab71a6ea4>@@AAV<lambda_c9ba49e555ba839a7b07aa3fbecb7617>@@V<lambda_9476263c8ee91a25d21c55370bdb50de>@@@?$__crt_seh_guarded_call@H@@QAEH$$QAV<lambda_d422a76eb4c3bf3ad751449ab71a6ea4>@@AAV<lambda_c9ba49e555ba839a7b07aa3fbecb7617>@@$$QAV<lambda_9476263c8ee91a25d21c55370bdb50de>@@@Z 1004cbad f   libucrt:close.obj
 0001:0004bdf0       ___hw_cw_sse2              1004cdf0 f   libucrt:ieee87.obj
 0001:0004c370       __hw_cw                    1004d370 f   libucrt:ieee87.obj
 0001:0004c68c       $LN38                      1004d68c     libucrt:libm_error.obj
 0001:0004c6c8       $LN37                      1004d6c8     libucrt:libm_error.obj
 0001:0004c710       $$000000                   1004d710     libucrt:log10_impl.obj
 0001:0004c923       ?__dcrt_lowio_initialize_console_output@@YAXXZ 1004d923 f   libucrt:initcon.obj
 0001:0004c9d0       $$000000                   1004d9d0     libucrt:_strnicm.obj
 0001:0004cbf0       $$000000                   1004dbf0     libucrt:log10_pentium4.obj
 0001:0004ce80       $$000000                   1004de80     libucrt:87tran.obj
 0001:0004d090       $$000000                   1004e090     libucrt:87disp.obj
 0001:0004d2f0       $$000000                   1004e2f0     libucrt:common.obj
 0001:0004d480       $$000000                   1004e480     libucrt:genexcep.obj
 0001:0004dcb4       $LN55                      1004ecb4     libucrt:fpexcept.obj
 0001:0004e2b8       $LN24                      1004f2b8     libucrt:87except.obj
 0001:0004e500       $$000000                   1004f500     LIBCMT:ulldvrm.obj
 0001:0004e531       L1                         1004f531     LIBCMT:ulldvrm.obj
 0001:0004e53f       L3                         1004f53f     LIBCMT:ulldvrm.obj
 0001:0004e56d       L4                         1004f56d     LIBCMT:ulldvrm.obj
 0001:0004e576       L5                         1004f576     LIBCMT:ulldvrm.obj
 0001:0004e578       L2                         1004f578     LIBCMT:ulldvrm.obj
 0001:0004e5a0       $$000000                   1004f5a0     LIBCMT:llmul.obj
 0001:0004e5b9       hard                       1004f5b9     LIBCMT:llmul.obj
 0001:0004e5e0       $$000000                   1004f5e0     LIBCMT:lldiv.obj
 0001:0004e601       L1                         1004f601     LIBCMT:lldiv.obj
 0001:0004e61d       L2                         1004f61d     LIBCMT:lldiv.obj
 0001:0004e639       L3                         1004f639     LIBCMT:lldiv.obj
 0001:0004e647       L5                         1004f647     LIBCMT:lldiv.obj
 0001:0004e675       L6                         1004f675     LIBCMT:lldiv.obj
 0001:0004e676       L7                         1004f676     LIBCMT:lldiv.obj
 0001:0004e67a       L4                         1004f67a     LIBCMT:lldiv.obj
 0001:0004e684       L8                         1004f684     LIBCMT:lldiv.obj
 0001:0004e690       $$000000                   1004f690     LIBCMT:lldvrm.obj
 0001:0004e6b4       L1                         1004f6b4     LIBCMT:lldvrm.obj
 0001:0004e6d0       L2                         1004f6d0     LIBCMT:lldvrm.obj
 0001:0004e6fc       L3                         1004f6fc     LIBCMT:lldvrm.obj
 0001:0004e70a       L5                         1004f70a     LIBCMT:lldvrm.obj
 0001:0004e738       L6                         1004f738     LIBCMT:lldvrm.obj
 0001:0004e741       L7                         1004f741     LIBCMT:lldvrm.obj
 0001:0004e743       L4                         1004f743     LIBCMT:lldvrm.obj
 0001:0004e755       L9                         1004f755     LIBCMT:lldvrm.obj
 0001:0004e769       L8                         1004f769     LIBCMT:lldvrm.obj
 0001:0004e770       $$000000                   1004f770     LIBCMT:llrem.obj
 0001:0004e790       L1                         1004f790     LIBCMT:llrem.obj
 0001:0004e7ab       L2                         1004f7ab     LIBCMT:llrem.obj
 0001:0004e7ca       L3                         1004f7ca     LIBCMT:llrem.obj
 0001:0004e7d8       L5                         1004f7d8     LIBCMT:llrem.obj
 0001:0004e803       L6                         1004f803     LIBCMT:llrem.obj
 0001:0004e80b       L7                         1004f80b     LIBCMT:llrem.obj
 0001:0004e816       L4                         1004f816     LIBCMT:llrem.obj
 0001:0004e81d       L8                         1004f81d     LIBCMT:llrem.obj
 0001:0004e830       $$000000                   1004f830     LIBCMT:ullshr.obj
 0001:0004e840       MORE32                     1004f840     LIBCMT:ullshr.obj
 0001:0004e84a       RETZERO                    1004f84a     LIBCMT:ullshr.obj
 0001:0004e850       $$000000                   1004f850     LIBCMT:alloca16.obj
 0001:0004e866       alloca_8                   1004f866     LIBCMT:alloca16.obj
 0001:0004e880       $$000000                   1004f880     LIBCMT:llshl.obj
 0001:0004e890       MORE32                     1004f890     LIBCMT:llshl.obj
 0001:0004e89a       RETZERO                    1004f89a     LIBCMT:llshl.obj
 0001:0004e8a0       $$000000                   1004f8a0     LIBCMT:chkstk.obj
 0001:0004e8b4       cs10                       1004f8b4     LIBCMT:chkstk.obj
 0001:0004e8c2       cs20                       1004f8c2     LIBCMT:chkstk.obj
 0001:0004e8d0       $$000000                   1004f8d0     libvcruntime:strrchr.obj
 0001:0004e90d       strrchr_sse_loop           1004f90d     libvcruntime:strrchr.obj
 0001:0004e93d       strrchr_sse_break          1004f93d     libvcruntime:strrchr.obj
 0001:0004e95d       strrchr_sttni              1004f95d     libvcruntime:strrchr.obj
 0001:0004e96f       strrchr_sttni_chars        1004f96f     libvcruntime:strrchr.obj
 0001:0004e984       strrchr_sttni_aligned      1004f984     libvcruntime:strrchr.obj
 0001:0004e988       strrchr_sttni_xmm          1004f988     libvcruntime:strrchr.obj
 0001:0004e99b       exit                       1004f99b     libvcruntime:strrchr.obj
 0001:0004e99e       strrchr_zero               1004f99e     libvcruntime:strrchr.obj
 0001:0004e9c3       strchr_zero_loop           1004f9c3     libvcruntime:strrchr.obj
 0001:0004e9d7       strchr_zero_result         1004f9d7     libvcruntime:strrchr.obj
 0001:0004e9de       strrchr_no_sse             1004f9de     libvcruntime:strrchr.obj
 0001:0004ea01       returndi                   1004fa01     libvcruntime:strrchr.obj
 0001:0004ea03       toend                      1004fa03     libvcruntime:strrchr.obj
 0001:0004ea90       $$000000                   1004fa90     LIBCMT:ftol3.obj
 0001:0004eaaf       _ftol3_default             1004faaf     LIBCMT:ftol3.obj
 0001:0004eac3       _ftol3_notsafe             1004fac3     LIBCMT:ftol3.obj
 0001:0004eae3       _ftol3_mincheck            1004fae3     LIBCMT:ftol3.obj
 0001:0004eae9       _ftol3_NaN                 1004fae9     LIBCMT:ftol3.obj
 0001:0004eaf1       _ftol3_retmin              1004faf1     LIBCMT:ftol3.obj
 0001:0004eb00       __unwindfunclet$?RawItemToInt@RegistrySettingsHelperFunctions@?A0x1960b386@@YAHV?$basic_string@_WU?$char_traits@_W@std@@V?$allocator@_W@2@@std@@KK@Z$0 1004fb00 f   portable_settings.obj
 0001:0004eb0d       __ehhandler$?RawItemToInt@RegistrySettingsHelperFunctions@?A0x1960b386@@YAHV?$basic_string@_WU?$char_traits@_W@std@@V?$allocator@_W@2@@std@@KK@Z 1004fb0d f   portable_settings.obj
 0001:0004eb40       __unwindfunclet$?RawItemToString@RegistrySettingsHelperFunctions@?A0x1960b386@@YA?AV?$basic_string@_WU?$char_traits@_W@std@@V?$allocator@_W@2@@std@@V34@KK@Z$0 1004fb40 f   portable_settings.obj
 0001:0004eb48       __unwindfunclet$?RawItemToString@RegistrySettingsHelperFunctions@?A0x1960b386@@YA?AV?$basic_string@_WU?$char_traits@_W@std@@V?$allocator@_W@2@@std@@V34@KK@Z$1 1004fb48 f   portable_settings.obj
 0001:0004eb66       __ehhandler$?RawItemToString@RegistrySettingsHelperFunctions@?A0x1960b386@@YA?AV?$basic_string@_WU?$char_traits@_W@std@@V?$allocator@_W@2@@std@@V34@KK@Z 1004fb66 f   portable_settings.obj
 0001:0004eb90       __unwindfunclet$?next@EnumIteratorRegistryInt@@UAEXXZ$0 1004fb90 f   portable_settings.obj
 0001:0004eb9d       __ehhandler$?next@EnumIteratorRegistryInt@@UAEXXZ 1004fb9d f   portable_settings.obj
 0001:0004ebd0       __unwindfunclet$?clone@EnumIteratorRegistryInt@@UBE?AV?$unique_ptr@V?$EnumIteratorImpl@H@@U?$default_delete@V?$EnumIteratorImpl@H@@@std@@@std@@XZ$2 1004fbd0 f   portable_settings.obj
 0001:0004ebe4       __ehhandler$?clone@EnumIteratorRegistryInt@@UBE?AV?$unique_ptr@V?$EnumIteratorImpl@H@@U?$default_delete@V?$EnumIteratorImpl@H@@@std@@@std@@XZ 1004fbe4 f   portable_settings.obj
 0001:0004ec10       __unwindfunclet$?next@EnumIteratorRegistryString@@UAEXXZ$0 1004fc10 f   portable_settings.obj
 0001:0004ec1d       __ehhandler$?next@EnumIteratorRegistryString@@UAEXXZ 1004fc1d f   portable_settings.obj
 0001:0004ec50       __unwindfunclet$?clone@EnumIteratorRegistryString@@UBE?AV?$unique_ptr@V?$EnumIteratorImpl@V?$basic_string@_WU?$char_traits@_W@std@@V?$allocator@_W@2@@std@@@@U?$default_delete@V?$EnumIteratorImpl@V?$basic_string@_WU?$char_traits@_W@std@@V?$allocator@_W@2@@std@@@@@std@@@std@@XZ$2 1004fc50 f   portable_settings.obj
 0001:0004ec5f       __unwindfunclet$?clone@EnumIteratorRegistryString@@UBE?AV?$unique_ptr@V?$EnumIteratorImpl@V?$basic_string@_WU?$char_traits@_W@std@@V?$allocator@_W@2@@std@@@@U?$default_delete@V?$EnumIteratorImpl@V?$basic_string@_WU?$char_traits@_W@std@@V?$allocator@_W@2@@std@@@@@std@@@std@@XZ$7 1004fc5f f   portable_settings.obj
 0001:0004ec6c       __ehhandler$?clone@EnumIteratorRegistryString@@UBE?AV?$unique_ptr@V?$EnumIteratorImpl@V?$basic_string@_WU?$char_traits@_W@std@@V?$allocator@_W@2@@std@@@@U?$default_delete@V?$EnumIteratorImpl@V?$basic_string@_WU?$char_traits@_W@std@@V?$allocator@_W@2@@std@@@@@std@@@std@@XZ 1004fc6c f   portable_settings.obj
 0001:0004ec90       __unwindfunclet$??0RegistrySettings@@QAE@PAUHKEY__@@PB_W_N@Z$0 1004fc90 f   portable_settings.obj
 0001:0004eca0       __ehhandler$??0RegistrySettings@@QAE@PAUHKEY__@@PB_W_N@Z 1004fca0 f   portable_settings.obj
 0001:0004ecc0       __unwindfunclet$?GetString@RegistrySettings@@UBE?AV?$optional@V?$basic_string@_WU?$char_traits@_W@std@@V?$allocator@_W@2@@std@@@std@@PB_W@Z$0 1004fcc0 f   portable_settings.obj
 0001:0004eccd       __ehhandler$?GetString@RegistrySettings@@UBE?AV?$optional@V?$basic_string@_WU?$char_traits@_W@std@@V?$allocator@_W@2@@std@@@std@@PB_W@Z 1004fccd f   portable_settings.obj
 0001:0004ed00       __unwindfunclet$?GetInt@RegistrySettings@@UBE?AV?$optional@H@std@@PB_W@Z$0 1004fd00 f   portable_settings.obj
 0001:0004ed0d       __ehhandler$?GetInt@RegistrySettings@@UBE?AV?$optional@H@std@@PB_W@Z 1004fd0d f   portable_settings.obj
 0001:0004ed40       __unwindfunclet$?GetBinary@RegistrySettings@@UBE?AV?$optional@V?$vector@EV?$allocator@E@std@@@std@@@std@@PB_W@Z$0 1004fd40 f   portable_settings.obj
 0001:0004ed48       __unwindfunclet$?GetBinary@RegistrySettings@@UBE?AV?$optional@V?$vector@EV?$allocator@E@std@@@std@@@std@@PB_W@Z$22 1004fd48 f   portable_settings.obj
 0001:0004ed61       __unwindfunclet$?GetBinary@RegistrySettings@@UBE?AV?$optional@V?$vector@EV?$allocator@E@std@@@std@@@std@@PB_W@Z$21 1004fd61 f   portable_settings.obj
 0001:0004ed6e       __ehhandler$?GetBinary@RegistrySettings@@UBE?AV?$optional@V?$vector@EV?$allocator@E@std@@@std@@@std@@PB_W@Z 1004fd6e f   portable_settings.obj
 0001:0004eda0       __unwindfunclet$?EnumIntValues@RegistrySettings@@UBE?AV?$EnumIterator@H@PortableSettings@@XZ$3 1004fda0 f   portable_settings.obj
 0001:0004edaf       __unwindfunclet$?EnumIntValues@RegistrySettings@@UBE?AV?$EnumIterator@H@PortableSettings@@XZ$5 1004fdaf f   portable_settings.obj
 0001:0004edb7       __unwindfunclet$?EnumIntValues@RegistrySettings@@UBE?AV?$EnumIterator@H@PortableSettings@@XZ$11 1004fdb7 f   portable_settings.obj
 0001:0004edc4       __ehhandler$?EnumIntValues@RegistrySettings@@UBE?AV?$EnumIterator@H@PortableSettings@@XZ 1004fdc4 f   portable_settings.obj
 0001:0004edf0       __unwindfunclet$?EnumStringValues@RegistrySettings@@UBE?AV?$EnumIterator@V?$basic_string@_WU?$char_traits@_W@std@@V?$allocator@_W@2@@std@@@PortableSettings@@XZ$3 1004fdf0 f   portable_settings.obj
 0001:0004edff       __unwindfunclet$?EnumStringValues@RegistrySettings@@UBE?AV?$EnumIterator@V?$basic_string@_WU?$char_traits@_W@std@@V?$allocator@_W@2@@std@@@PortableSettings@@XZ$5 1004fdff f   portable_settings.obj
 0001:0004ee07       __unwindfunclet$?EnumStringValues@RegistrySettings@@UBE?AV?$EnumIterator@V?$basic_string@_WU?$char_traits@_W@std@@V?$allocator@_W@2@@std@@@PortableSettings@@XZ$14 1004fe07 f   portable_settings.obj
 0001:0004ee14       __ehhandler$?EnumStringValues@RegistrySettings@@UBE?AV?$EnumIterator@V?$basic_string@_WU?$char_traits@_W@std@@V?$allocator@_W@2@@std@@@PortableSettings@@XZ 1004fe14 f   portable_settings.obj
 0001:0004ee40       __unwindfunclet$?GetRaw@RegistrySettings@@ABE?AV?$optional@URawData@RegistrySettings@@@std@@PB_W@Z$0 1004fe40 f   portable_settings.obj
 0001:0004ee4d       __ehhandler$?GetRaw@RegistrySettings@@ABE?AV?$optional@URawData@RegistrySettings@@@std@@PB_W@Z 1004fe4d f   portable_settings.obj
 0001:0004ee80       __unwindfunclet$?next@EnumIteratorIniFileInt@@UAEXXZ$3 1004fe80 f   portable_settings.obj
 0001:0004ee88       __unwindfunclet$?next@EnumIteratorIniFileInt@@UAEXXZ$0 1004fe88 f   portable_settings.obj
 0001:0004ee95       __ehhandler$?next@EnumIteratorIniFileInt@@UAEXXZ 1004fe95 f   portable_settings.obj
 0001:0004eec0       __unwindfunclet$?clone@EnumIteratorIniFileInt@@UBE?AV?$unique_ptr@V?$EnumIteratorImpl@H@@U?$default_delete@V?$EnumIteratorImpl@H@@@std@@@std@@XZ$2 1004fec0 f   portable_settings.obj
 0001:0004eecf       __unwindfunclet$?clone@EnumIteratorIniFileInt@@UBE?AV?$unique_ptr@V?$EnumIteratorImpl@H@@U?$default_delete@V?$EnumIteratorImpl@H@@@std@@@std@@XZ$5 1004fecf f   portable_settings.obj
 0001:0004eedc       __ehhandler$?clone@EnumIteratorIniFileInt@@UBE?AV?$unique_ptr@V?$EnumIteratorImpl@H@@U?$default_delete@V?$EnumIteratorImpl@H@@@std@@@std@@XZ 1004fedc f   portable_settings.obj
 0001:0004ef00       __unwindfunclet$?next@EnumIteratorIniFileString@@UAEXXZ$4 1004ff00 f   portable_settings.obj
 0001:0004ef08       __unwindfunclet$?next@EnumIteratorIniFileString@@UAEXXZ$0 1004ff08 f   portable_settings.obj
 0001:0004ef15       __ehhandler$?next@EnumIteratorIniFileString@@UAEXXZ 1004ff15 f   portable_settings.obj
 0001:0004ef40       __unwindfunclet$?clone@EnumIteratorIniFileString@@UBE?AV?$unique_ptr@V?$EnumIteratorImpl@V?$basic_string@_WU?$char_traits@_W@std@@V?$allocator@_W@2@@std@@@@U?$default_delete@V?$EnumIteratorImpl@V?$basic_string@_WU?$char_traits@_W@std@@V?$allocator@_W@2@@std@@@@@std@@@std@@XZ$2 1004ff40 f   portable_settings.obj
 0001:0004ef4f       __unwindfunclet$?clone@EnumIteratorIniFileString@@UBE?AV?$unique_ptr@V?$EnumIteratorImpl@V?$basic_string@_WU?$char_traits@_W@std@@V?$allocator@_W@2@@std@@@@U?$default_delete@V?$EnumIteratorImpl@V?$basic_string@_WU?$char_traits@_W@std@@V?$allocator@_W@2@@std@@@@@std@@@std@@XZ$8 1004ff4f f   portable_settings.obj
 0001:0004ef57       __unwindfunclet$?clone@EnumIteratorIniFileString@@UBE?AV?$unique_ptr@V?$EnumIteratorImpl@V?$basic_string@_WU?$char_traits@_W@std@@V?$allocator@_W@2@@std@@@@U?$default_delete@V?$EnumIteratorImpl@V?$basic_string@_WU?$char_traits@_W@std@@V?$allocator@_W@2@@std@@@@@std@@@std@@XZ$5 1004ff57 f   portable_settings.obj
 0001:0004ef64       __ehhandler$?clone@EnumIteratorIniFileString@@UBE?AV?$unique_ptr@V?$EnumIteratorImpl@V?$basic_string@_WU?$char_traits@_W@std@@V?$allocator@_W@2@@std@@@@U?$default_delete@V?$EnumIteratorImpl@V?$basic_string@_WU?$char_traits@_W@std@@V?$allocator@_W@2@@std@@@@@std@@@std@@XZ 1004ff64 f   portable_settings.obj
 0001:0004ef90       __unwindfunclet$??0IniFileSettings@@QAE@PB_W0_N@Z$0 1004ff90 f   portable_settings.obj
 0001:0004efa0       __ehhandler$??0IniFileSettings@@QAE@PB_W0_N@Z 1004ffa0 f   portable_settings.obj
 0001:0004efd0       __unwindfunclet$?GetString@IniFileSettings@@UBE?AV?$optional@V?$basic_string@_WU?$char_traits@_W@std@@V?$allocator@_W@2@@std@@@std@@PB_W@Z$0 1004ffd0 f   portable_settings.obj
 0001:0004efd0       __unwindfunclet$?create_directories@filesystem@std@@YA_NABVpath@12@AAVerror_code@2@@Z$0 1004ffd0 f   storage_manager.obj
 0001:0004efdd       __ehhandler$?GetString@IniFileSettings@@UBE?AV?$optional@V?$basic_string@_WU?$char_traits@_W@std@@V?$allocator@_W@2@@std@@@std@@PB_W@Z 1004ffdd f   portable_settings.obj
 0001:0004efdd       __ehhandler$?create_directories@filesystem@std@@YA_NABVpath@12@AAVerror_code@2@@Z 1004ffdd f   storage_manager.obj
 0001:0004f010       __unwindfunclet$?SetString@IniFileSettings@@UAEXPB_W0@Z$0 10050010 f   portable_settings.obj
 0001:0004f01d       __ehhandler$?SetString@IniFileSettings@@UAEXPB_W0@Z 1005001d f   portable_settings.obj
 0001:0004f050       __unwindfunclet$?GetInt@IniFileSettings@@UBE?AV?$optional@H@std@@PB_W@Z$0 10050050 f   portable_settings.obj
 0001:0004f05d       __ehhandler$?GetInt@IniFileSettings@@UBE?AV?$optional@H@std@@PB_W@Z 1005005d f   portable_settings.obj
 0001:0004f090       __unwindfunclet$?SetInt@IniFileSettings@@UAEXPB_WH@Z$0 10050090 f   portable_settings.obj
 0001:0004f09d       __ehhandler$?SetInt@IniFileSettings@@UAEXPB_WH@Z 1005009d f   portable_settings.obj
 0001:0004f0c0       __unwindfunclet$?GetBinary@IniFileSettings@@UBE?AV?$optional@V?$vector@EV?$allocator@E@std@@@std@@@std@@PB_W@Z$0 100500c0 f   portable_settings.obj
 0001:0004f0c8       __unwindfunclet$?GetBinary@IniFileSettings@@UBE?AV?$optional@V?$vector@EV?$allocator@E@std@@@std@@@std@@PB_W@Z$2 100500c8 f   portable_settings.obj
 0001:0004f0d5       __ehhandler$?GetBinary@IniFileSettings@@UBE?AV?$optional@V?$vector@EV?$allocator@E@std@@@std@@@std@@PB_W@Z 100500d5 f   portable_settings.obj
 0001:0004f100       __unwindfunclet$?SetBinary@IniFileSettings@@UAEXPB_WPBEI@Z$0 10050100 f   portable_settings.obj
 0001:0004f10d       __ehhandler$?SetBinary@IniFileSettings@@UAEXPB_WPBEI@Z 1005010d f   portable_settings.obj
 0001:0004f140       __unwindfunclet$?EnumIntValues@IniFileSettings@@UBE?AV?$EnumIterator@H@PortableSettings@@XZ$3 10050140 f   portable_settings.obj
 0001:0004f14f       __unwindfunclet$?EnumIntValues@IniFileSettings@@UBE?AV?$EnumIterator@H@PortableSettings@@XZ$5 1005014f f   portable_settings.obj
 0001:0004f15c       __ehhandler$?EnumIntValues@IniFileSettings@@UBE?AV?$EnumIterator@H@PortableSettings@@XZ 1005015c f   portable_settings.obj
 0001:0004f180       __unwindfunclet$?EnumStringValues@IniFileSettings@@UBE?AV?$EnumIterator@V?$basic_string@_WU?$char_traits@_W@std@@V?$allocator@_W@2@@std@@@PortableSettings@@XZ$3 10050180 f   portable_settings.obj
 0001:0004f18f       __unwindfunclet$?EnumStringValues@IniFileSettings@@UBE?AV?$EnumIterator@V?$basic_string@_WU?$char_traits@_W@std@@V?$allocator@_W@2@@std@@@PortableSettings@@XZ$5 1005018f f   portable_settings.obj
 0001:0004f19c       __ehhandler$?EnumStringValues@IniFileSettings@@UBE?AV?$EnumIterator@V?$basic_string@_WU?$char_traits@_W@std@@V?$allocator@_W@2@@std@@@PortableSettings@@XZ 1005019c f   portable_settings.obj
 0001:0004f1c0       __unwindfunclet$??0?$EnumIteratorIniFileBase@V?$basic_string@_WU?$char_traits@_W@std@@V?$allocator@_W@2@@std@@@@QAE@PBVIniFileSettings@@@Z$0 100501c0 f   portable_settings.obj
 0001:0004f1c8       __unwindfunclet$??0?$EnumIteratorIniFileBase@V?$basic_string@_WU?$char_traits@_W@std@@V?$allocator@_W@2@@std@@@@QAE@PBVIniFileSettings@@@Z$1 100501c8 f   portable_settings.obj
 0001:0004f1d8       __ehhandler$??0?$EnumIteratorIniFileBase@V?$basic_string@_WU?$char_traits@_W@std@@V?$allocator@_W@2@@std@@@@QAE@PBVIniFileSettings@@@Z 100501d8 f   portable_settings.obj
 0001:0004f200       __unwindfunclet$??0?$EnumIteratorIniFileBase@H@@QAE@PBVIniFileSettings@@@Z$0 10050200 f   portable_settings.obj
 0001:0004f208       __unwindfunclet$??0?$EnumIteratorIniFileBase@H@@QAE@PBVIniFileSettings@@@Z$1 10050208 f   portable_settings.obj
 0001:0004f218       __ehhandler$??0?$EnumIteratorIniFileBase@H@@QAE@PBVIniFileSettings@@@Z 10050218 f   portable_settings.obj
 0001:0004f240       __unwindfunclet$?get_next_item_raw@?$EnumIteratorRegistryBase@H@@IAE?AV?$optional@V?$tuple@V?$basic_string@_WU?$char_traits@_W@std@@V?$allocator@_W@2@@std@@V12@KK@std@@@std@@XZ$0 10050240 f   portable_settings.obj
 0001:0004f240       __unwindfunclet$?get_next_item_raw@?$EnumIteratorRegistryBase@V?$basic_string@_WU?$char_traits@_W@std@@V?$allocator@_W@2@@std@@@@IAE?AV?$optional@V?$tuple@V?$basic_string@_WU?$char_traits@_W@std@@V?$allocator@_W@2@@std@@V12@KK@std@@@std@@XZ$0 10050240 f   portable_settings.obj
 0001:0004f248       __unwindfunclet$?get_next_item_raw@?$EnumIteratorRegistryBase@H@@IAE?AV?$optional@V?$tuple@V?$basic_string@_WU?$char_traits@_W@std@@V?$allocator@_W@2@@std@@V12@KK@std@@@std@@XZ$1 10050248 f   portable_settings.obj
 0001:0004f248       __unwindfunclet$?get_next_item_raw@?$EnumIteratorRegistryBase@V?$basic_string@_WU?$char_traits@_W@std@@V?$allocator@_W@2@@std@@@@IAE?AV?$optional@V?$tuple@V?$basic_string@_WU?$char_traits@_W@std@@V?$allocator@_W@2@@std@@V12@KK@std@@@std@@XZ$1 10050248 f   portable_settings.obj
 0001:0004f255       __ehhandler$?get_next_item_raw@?$EnumIteratorRegistryBase@H@@IAE?AV?$optional@V?$tuple@V?$basic_string@_WU?$char_traits@_W@std@@V?$allocator@_W@2@@std@@V12@KK@std@@@std@@XZ 10050255 f   portable_settings.obj
 0001:0004f255       __ehhandler$?get_next_item_raw@?$EnumIteratorRegistryBase@V?$basic_string@_WU?$char_traits@_W@std@@V?$allocator@_W@2@@std@@@@IAE?AV?$optional@V?$tuple@V?$basic_string@_WU?$char_traits@_W@std@@V?$allocator@_W@2@@std@@V12@KK@std@@@std@@XZ 10050255 f   portable_settings.obj
 0001:0004f280       __ehhandler$?GetFailureLogString@wil@@YAJPA_WIABUFailureInfo@1@@Z 10050280 f   portable_settings.obj
 0001:0004f2b0       __ehhandler$?LogFailure@details@wil@@YAXPAXIPBD110W4FailureType@2@ABUResultStatus@12@PB_W_NPA_WIPADIW4FailureFlags@2@PAUFailureInfo@2@@Z 100502b0 f   portable_settings.obj
 0001:0004f2d0       __ehhandler$??$ReportFailure_NoReturn@$0A@@details@wil@@YAXPAXIPBD110ABUResultStatus@01@PB_WW4ReportFailureOptions@01@@Z 100502d0 f   portable_settings.obj
 0001:0004f2f0       __unwindfunclet$?GetNativeMachine@?A0x2fc73eb2@@YAGXZ$0 100502f0 f   all_processes_injector.obj
 0001:0004f2f0       __unwindfunclet$?NtCreateThreadEx64@?A0x5857acc8@@YAXPAPAXKPAX1P6GJ1@Z1K_K331@Z$0 100502f0 f   dll_inject.obj
 0001:0004f2fd       __ehhandler$?GetNativeMachine@?A0x2fc73eb2@@YAGXZ 100502fd f   all_processes_injector.obj
 0001:0004f2fd       __ehhandler$?NtCreateThreadEx64@?A0x5857acc8@@YAXPAPAXKPAX1P6GJ1@Z1K_K331@Z 100502fd f   dll_inject.obj
 0001:0004f330       __unwindfunclet$?GetRtlUserThreadStart_x64OnArm64@?A0x2fc73eb2@@YA_KXZ$1 10050330 f   all_processes_injector.obj
 0001:0004f338       __unwindfunclet$?GetRtlUserThreadStart_x64OnArm64@?A0x2fc73eb2@@YA_KXZ$2 10050338 f   all_processes_injector.obj
 0001:0004f343       __unwindfunclet$?GetRtlUserThreadStart_x64OnArm64@?A0x2fc73eb2@@YA_KXZ$3 10050343 f   all_processes_injector.obj
 0001:0004f34e       __unwindfunclet$?GetRtlUserThreadStart_x64OnArm64@?A0x2fc73eb2@@YA_KXZ$4 1005034e f   all_processes_injector.obj
 0001:0004f35e       __ehhandler$?GetRtlUserThreadStart_x64OnArm64@?A0x2fc73eb2@@YA_KXZ 1005035e f   all_processes_injector.obj
 0001:0004f390       __unwindfunclet$?GetThreadContext64@?A0x2fc73eb2@@YAXPAXPAU_CONTEXT@@@Z$0 10050390 f   all_processes_injector.obj
 0001:0004f39d       __ehhandler$?GetThreadContext64@?A0x2fc73eb2@@YAXPAXPAU_CONTEXT@@@Z 1005039d f   all_processes_injector.obj
 0001:0004f3d0       __unwindfunclet$??0AllProcessesInjector@@QAE@XZ$0 100503d0 f   all_processes_injector.obj
 0001:0004f3db       __unwindfunclet$??0AllProcessesInjector@@QAE@XZ$1 100503db f   all_processes_injector.obj
 0001:0004f3e6       __unwindfunclet$??0AllProcessesInjector@@QAE@XZ$2 100503e6 f   all_processes_injector.obj
 0001:0004f3f1       __unwindfunclet$??0AllProcessesInjector@@QAE@XZ$3 100503f1 f   all_processes_injector.obj
 0001:0004f3fc       __unwindfunclet$??0AllProcessesInjector@@QAE@XZ$4 100503fc f   all_processes_injector.obj
 0001:0004f407       __unwindfunclet$??0AllProcessesInjector@@QAE@XZ$26 10050407 f   all_processes_injector.obj
 0001:0004f420       __unwindfunclet$??0AllProcessesInjector@@QAE@XZ$24 10050420 f   all_processes_injector.obj
 0001:0004f428       __unwindfunclet$??0AllProcessesInjector@@QAE@XZ$25 10050428 f   all_processes_injector.obj
 0001:0004f430       __unwindfunclet$??0AllProcessesInjector@@QAE@XZ$6 10050430 f   all_processes_injector.obj
 0001:0004f438       __unwindfunclet$??0AllProcessesInjector@@QAE@XZ$7 10050438 f   all_processes_injector.obj
 0001:0004f440       __unwindfunclet$??0AllProcessesInjector@@QAE@XZ$9 10050440 f   all_processes_injector.obj
 0001:0004f448       __unwindfunclet$??0AllProcessesInjector@@QAE@XZ$11 10050448 f   all_processes_injector.obj
 0001:0004f455       __ehhandler$??0AllProcessesInjector@@QAE@XZ 10050455 f   all_processes_injector.obj
 0001:0004f480       __unwindfunclet$?InjectIntoNewProcesses@AllProcessesInjector@@QAE?AV?$vector@KV?$allocator@K@std@@@std@@XZ$3 10050480 f   all_processes_injector.obj
 0001:0004f499       __unwindfunclet$?InjectIntoNewProcesses@AllProcessesInjector@@QAE?AV?$vector@KV?$allocator@K@std@@@std@@XZ$4 10050499 f   all_processes_injector.obj
 0001:0004f4a6       __ehhandler$?InjectIntoNewProcesses@AllProcessesInjector@@QAE?AV?$vector@KV?$allocator@K@std@@@std@@XZ 100504a6 f   all_processes_injector.obj
 0001:0004f4d0       __unwindfunclet$?InjectIntoNewProcess@AllProcessesInjector@@AAEXPAXK_N@Z$0 100504d0 f   all_processes_injector.obj
 0001:0004f4db       __unwindfunclet$?InjectIntoNewProcess@AllProcessesInjector@@AAEXPAXK_N@Z$1 100504db f   all_processes_injector.obj
 0001:0004f4e6       __unwindfunclet$?InjectIntoNewProcess@AllProcessesInjector@@AAEXPAXK_N@Z$2 100504e6 f   all_processes_injector.obj
 0001:0004f4f1       __unwindfunclet$?InjectIntoNewProcess@AllProcessesInjector@@AAEXPAXK_N@Z$3 100504f1 f   all_processes_injector.obj
 0001:0004f4fc       __unwindfunclet$?InjectIntoNewProcess@AllProcessesInjector@@AAEXPAXK_N@Z$25 100504fc f   all_processes_injector.obj
 0001:0004f507       __unwindfunclet$?InjectIntoNewProcess@AllProcessesInjector@@AAEXPAXK_N@Z$26 10050507 f   all_processes_injector.obj
 0001:0004f512       __unwindfunclet$?InjectIntoNewProcess@AllProcessesInjector@@AAEXPAXK_N@Z$4 10050512 f   all_processes_injector.obj
 0001:0004f51d       __unwindfunclet$?InjectIntoNewProcess@AllProcessesInjector@@AAEXPAXK_N@Z$5 1005051d f   all_processes_injector.obj
 0001:0004f528       __unwindfunclet$?InjectIntoNewProcess@AllProcessesInjector@@AAEXPAXK_N@Z$6 10050528 f   all_processes_injector.obj
 0001:0004f538       __ehhandler$?InjectIntoNewProcess@AllProcessesInjector@@AAEXPAXK_N@Z 10050538 f   all_processes_injector.obj
 0001:0004f570       __unwindfunclet$??$GetModuleFileNameW@V?$basic_string@_WU?$char_traits@_W@std@@V?$allocator@_W@2@@std@@$0IA@@wil@@YA?AV?$basic_string@_WU?$char_traits@_W@std@@V?$allocator@_W@2@@std@@PAUHINSTANCE__@@@Z$0 10050570 f   all_processes_injector.obj
 0001:0004f570       __unwindfunclet$??$ExpandEnvironmentStringsW@V?$basic_string@_WU?$char_traits@_W@std@@V?$allocator@_W@2@@std@@$0BAA@@wil@@YA?AV?$basic_string@_WU?$char_traits@_W@std@@V?$allocator@_W@2@@std@@PB_W@Z$0 10050570 f   functions.obj
 0001:0004f58e       __ehhandler$??$GetModuleFileNameW@V?$basic_string@_WU?$char_traits@_W@std@@V?$allocator@_W@2@@std@@$0IA@@wil@@YA?AV?$basic_string@_WU?$char_traits@_W@std@@V?$allocator@_W@2@@std@@PAUHINSTANCE__@@@Z 1005058e f   all_processes_injector.obj
 0001:0004f58e       __ehhandler$??$ExpandEnvironmentStringsW@V?$basic_string@_WU?$char_traits@_W@std@@V?$allocator@_W@2@@std@@$0BAA@@wil@@YA?AV?$basic_string@_WU?$char_traits@_W@std@@V?$allocator@_W@2@@std@@PB_W@Z 1005058e f   functions.obj
 0001:0004f5b0       __ehhandler$??$call_function@_K_K@wow64pp@@YA_KAAVerror_code@std@@_K11@Z 100505b0 f   all_processes_injector.obj
 0001:0004f5e0       __ehhandler$??$AdaptFixedSizeToAllocatedResult@V?$basic_string@_WU?$char_traits@_W@std@@V?$allocator@_W@2@@std@@$0BAA@@wil@@YAJAAV?$basic_string@_WU?$char_traits@_W@std@@V?$allocator@_W@2@@std@@V?$function@$$A6AJPA_WIPAI@Z@wistd@@@Z 100505e0 f   all_processes_injector.obj
 0001:0004f610       __ehhandler$??$AdaptFixedSizeToAllocatedResult@V?$basic_string@_WU?$char_traits@_W@std@@V?$allocator@_W@2@@std@@$0IA@@wil@@YAJAAV?$basic_string@_WU?$char_traits@_W@std@@V?$allocator@_W@2@@std@@V?$function@$$A6AJPA_WIPAI@Z@wistd@@@Z 10050610 f   all_processes_injector.obj
 0001:0004f640       __ehhandler$?Return_Hr@in1diag3@details@wil@@YAXPAXIPBDJ@Z 10050640 f   all_processes_injector.obj
 0001:0004f640       __ehhandler$??1?$com_ptr_t@UIDiaEnumSymbols@@Uerr_exception_policy@wil@@@wil@@QAE@XZ 10050640 f   mod.obj
 0001:0004f640       __ehhandler$??1?$com_ptr_t@UIDiaSymbol@@Uerr_exception_policy@wil@@@wil@@QAE@XZ 10050640 f   mod.obj
 0001:0004f640       __ehhandler$??1?$com_ptr_t@UIDiaDataSource@@Uerr_exception_policy@wil@@@wil@@QAE@XZ 10050640 f   symbol_enum.obj
 0001:0004f640       __ehhandler$??1?$com_ptr_t@UIDiaSession@@Uerr_exception_policy@wil@@@wil@@QAE@XZ 10050640 f   symbol_enum.obj
 0001:0004f660       __unwindfunclet$?make@?$string_maker@V?$basic_string@_WU?$char_traits@_W@std@@V?$allocator@_W@2@@std@@@details@wil@@QAEJPB_WI@Z$2 10050660 f   all_processes_injector.obj
 0001:0004f67e       __ehhandler$?make@?$string_maker@V?$basic_string@_WU?$char_traits@_W@std@@V?$allocator@_W@2@@std@@@details@wil@@QAEJPB_WI@Z 1005067e f   all_processes_injector.obj
 0001:0004f6a0       __ehhandler$?FailFast_Unexpected@in1diag3@details@wil@@YAXPAXIPBD@Z 100506a0 f   all_processes_injector.obj
 0001:0004f6a0       __ehhandler$?NtStatusToHr@details@wil@@YAJJ@Z 100506a0 f   all_processes_injector.obj
 0001:0004f6a0       __ehhandler$?Return_GetLastError@in1diag3@details@wil@@YAJPAXIPBD@Z 100506a0 f   all_processes_injector.obj
 0001:0004f6a0       __ehhandler$?_FailFast_GetLastError@in1diag3@details@wil@@YAXPAXIPBD@Z 100506a0 f   all_processes_injector.obj
 0001:0004f6a0       __ehhandler$??$_Invoke@V?$tuple@V<lambda_1>@?BE@??HandleCreatedProcess@NewProcessInjector@@AAEXPAU_PROCESS_INFORMATION@@@Z@@std@@$0A@@thread@std@@CGIPAX@Z 100506a0 f   new_process_injector.obj
 0001:0004f6a0       __ehhandler$___crtGetSystemTimePreciseAsFileTime 100506a0 f   libcpmt:winapisupp.obj
 0001:0004f6c0       __ehhandler$??$ReportFailure_Return@$00@details@wil@@YAXPAXIPBD110ABUResultStatus@01@PB_WW4ReportFailureOptions@01@W4FailureFlags@1@@Z 100506c0 f   all_processes_injector.obj
 0001:0004f6f0       __ehhandler$??$ReportFailure_GetLastErrorHr@$00@details@wil@@YAJPAXIPBD110@Z 100506f0 f   all_processes_injector.obj
 0001:0004f710       __ehhandler$??$ReportFailure_NoReturn@$02@details@wil@@YAXPAXIPBD110ABUResultStatus@01@PB_WW4ReportFailureOptions@01@@Z 10050710 f   all_processes_injector.obj
 0001:0004f730       __ehhandler$?image_export_dir@detail@wow64pp@@YA?AU_IMAGE_EXPORT_DIRECTORY@@_KAAVerror_code@std@@@Z 10050730 f   all_processes_injector.obj
 0001:0004f760       __ehhandler$??$read_memory@I@detail@wow64pp@@YAX_KPAIIAAVerror_code@std@@@Z 10050760 f   all_processes_injector.obj
 0001:0004f790       __ehhandler$?ldr_procedure_address@detail@wow64pp@@YA_KAAVerror_code@std@@@Z 10050790 f   all_processes_injector.obj
 0001:0004f7c0       __ehhandler$?get_native_machine@detail@wow64pp@@YAGAAVerror_code@std@@@Z 100507c0 f   all_processes_injector.obj
 0001:0004f7f0       __ehhandler$??$read_memory@$$BY0CA@W4byte@std@@@detail@wow64pp@@YAX_KPAY0CA@W4byte@std@@IAAVerror_code@3@@Z 100507f0 f   all_processes_injector.obj
 0001:0004f820       __ehhandler$?module_handle@wow64pp@@YA_KV?$basic_string_view@DU?$char_traits@D@std@@@std@@AAVerror_code@3@@Z 10050820 f   all_processes_injector.obj
 0001:0004f850       __ehhandler$??$call_function@_K_KH_K@wow64pp@@YA_KAAVerror_code@std@@_K11H1@Z 10050850 f   all_processes_injector.obj
 0001:0004f880       __unwindfunclet$??0_System_error@std@@IAE@Verror_code@1@ABV?$basic_string@DU?$char_traits@D@std@@V?$allocator@D@2@@1@@Z$3 10050880 f   all_processes_injector.obj
 0001:0004f888       __unwindfunclet$??0_System_error@std@@IAE@Verror_code@1@ABV?$basic_string@DU?$char_traits@D@std@@V?$allocator@D@2@@1@@Z$4 10050888 f   all_processes_injector.obj
 0001:0004f895       __ehhandler$??0_System_error@std@@IAE@Verror_code@1@ABV?$basic_string@DU?$char_traits@D@std@@V?$allocator@D@2@@1@@Z 10050895 f   all_processes_injector.obj
 0001:0004f8c0       __unwindfunclet$??0system_error@std@@QAE@Verror_code@1@PBD@Z$0 100508c0 f   all_processes_injector.obj
 0001:0004f8c0       __unwindfunclet$??0system_error@std@@QAE@HABVerror_category@1@PBD@Z$0 100508c0 f   logger.obj
 0001:0004f8cd       __ehhandler$??0system_error@std@@QAE@Verror_code@1@PBD@Z 100508cd f   all_processes_injector.obj
 0001:0004f8cd       __ehhandler$??0system_error@std@@QAE@HABVerror_category@1@PBD@Z 100508cd f   logger.obj
 0001:0004f8f0       __unwindfunclet$?message@_System_error_category@std@@UBE?AV?$basic_string@DU?$char_traits@D@std@@V?$allocator@D@2@@2@H@Z$0 100508f0 f   all_processes_injector.obj
 0001:0004f8fd       __ehhandler$?message@_System_error_category@std@@UBE?AV?$basic_string@DU?$char_traits@D@std@@V?$allocator@D@2@@2@H@Z 100508fd f   all_processes_injector.obj
 0001:0004f930       __ehhandler$?GetLastErrorFail@details@wil@@YAKPAXIPBD110@Z 10050930 f   all_processes_injector.obj
 0001:0004f930       __ehhandler$?default_error_condition@_System_error_category@std@@UBE?AVerror_condition@2@H@Z 10050930 f   all_processes_injector.obj
 0001:0004f930       __ehhandler$??1MinHookScopeApply@CustomizationSession@@QAE@XZ 10050930 f   customization_session.obj
 0001:0004f930       __ehhandler$??1MinHookScopeInit@CustomizationSession@@QAE@XZ 10050930 f   customization_session.obj
 0001:0004f930       __ehhandler$??1NewProcessInjector@@QAE@XZ 10050930 f   new_process_injector.obj
 0001:0004f930       __ehhandler$?try_cor_exit_process@@YAXI@Z 10050930 f   libucrt:exit.obj
 0001:0004f950       __unwindfunclet$?module_handle@wow64pp@@YA_KV?$basic_string_view@DU?$char_traits@D@std@@@std@@@Z$2 10050950 f   all_processes_injector.obj
 0001:0004f95d       __ehhandler$?module_handle@wow64pp@@YA_KV?$basic_string_view@DU?$char_traits@D@std@@@std@@@Z 1005095d f   all_processes_injector.obj
 0001:0004f990       __ehhandler$?replace_filename@path@filesystem@std@@QAEAAV123@ABV123@@Z 10050990 f   all_processes_injector.obj
 0001:0004f990       __ehhandler$?SetLastError@wil@@YAXABUFailureInfo@1@@Z 10050990 f   stdafx.obj
 0001:0004f9b0       __unwindfunclet$?MyQueueUserAPC@?A0x5857acc8@@YAXP6GXPAX00@Z00G@Z$0 100509b0 f   dll_inject.obj
 0001:0004f9bd       __ehhandler$?MyQueueUserAPC@?A0x5857acc8@@YAXP6GXPAX00@Z00G@Z 100509bd f   dll_inject.obj
 0001:0004f9f0       __unwindfunclet$?DllInject@0@YAXPAX000_N@Z$0 100509f0 f   dll_inject.obj
 0001:0004f9f8       __unwindfunclet$?DllInject@0@YAXPAX000_N@Z$1 100509f8 f   dll_inject.obj
 0001:0004fa03       __unwindfunclet$?DllInject@0@YAXPAX000_N@Z$2 10050a03 f   dll_inject.obj
 0001:0004fa0e       __unwindfunclet$?DllInject@0@YAXPAX000_N@Z$3 10050a0e f   dll_inject.obj
 0001:0004fa19       __unwindfunclet$?DllInject@0@YAXPAX000_N@Z$4 10050a19 f   dll_inject.obj
 0001:0004fa24       __unwindfunclet$?DllInject@0@YAXPAX000_N@Z$5 10050a24 f   dll_inject.obj
 0001:0004fa2c       __unwindfunclet$?DllInject@0@YAXPAX000_N@Z$6 10050a2c f   dll_inject.obj
 0001:0004fa37       __unwindfunclet$?DllInject@0@YAXPAX000_N@Z$7 10050a37 f   dll_inject.obj
 0001:0004fa42       __unwindfunclet$?DllInject@0@YAXPAX000_N@Z$8 10050a42 f   dll_inject.obj
 0001:0004fa4a       __unwindfunclet$?DllInject@0@YAXPAX000_N@Z$9 10050a4a f   dll_inject.obj
 0001:0004fa55       __unwindfunclet$?DllInject@0@YAXPAX000_N@Z$12 10050a55 f   dll_inject.obj
 0001:0004fa60       __unwindfunclet$?DllInject@0@YAXPAX000_N@Z$15 10050a60 f   dll_inject.obj
 0001:0004fa6b       __unwindfunclet$?DllInject@0@YAXPAX000_N@Z$13 10050a6b f   dll_inject.obj
 0001:0004fa78       __ehhandler$?DllInject@0@YAXPAX000_N@Z 10050a78 f   dll_inject.obj
 0001:0004fab0       __ehhandler$??$call_function@_K_K_K_K_K@wow64pp@@YA_KAAVerror_code@std@@_K11111@Z 10050ab0 f   dll_inject.obj
 0001:0004fae0       __ehhandler$??$call_function@_KK_K_K_K_KK_K_K_K_K@wow64pp@@YA_KAAVerror_code@std@@_K1K1111K1111@Z 10050ae0 f   dll_inject.obj
 0001:0004fb10       __unwindfunclet$??Kfilesystem@std@@YA?AVpath@01@ABV201@0@Z$0 10050b10 f   dll_inject.obj
 0001:0004fb29       __unwindfunclet$??Kfilesystem@std@@YA?AVpath@01@ABV201@0@Z$1 10050b29 f   dll_inject.obj
 0001:0004fb47       __ehhandler$??Kfilesystem@std@@YA?AVpath@01@ABV201@0@Z 10050b47 f   dll_inject.obj
 0001:0004fb70       __unwindfunclet$?ReplaceAll@Functions@@YA?AV?$basic_string@_WU?$char_traits@_W@std@@V?$allocator@_W@2@@std@@V?$basic_string_view@_WU?$char_traits@_W@std@@@3@00_N@Z$0 10050b70 f   functions.obj
 0001:0004fb8e       __ehhandler$?ReplaceAll@Functions@@YA?AV?$basic_string@_WU?$char_traits@_W@std@@V?$allocator@_W@2@@std@@V?$basic_string_view@_WU?$char_traits@_W@std@@@3@00_N@Z 10050b8e f   functions.obj
 0001:0004fbc0       __unwindfunclet$?DoesPathMatchPattern@Functions@@YA_NV?$basic_string_view@_WU?$char_traits@_W@std@@@std@@0_N@Z$0 10050bc0 f   functions.obj
 0001:0004fbc8       __unwindfunclet$?DoesPathMatchPattern@Functions@@YA_NV?$basic_string_view@_WU?$char_traits@_W@std@@@std@@0_N@Z$1 10050bc8 f   functions.obj
 0001:0004fbd0       __unwindfunclet$?DoesPathMatchPattern@Functions@@YA_NV?$basic_string_view@_WU?$char_traits@_W@std@@@std@@0_N@Z$2 10050bd0 f   functions.obj
 0001:0004fbd8       __unwindfunclet$?DoesPathMatchPattern@Functions@@YA_NV?$basic_string_view@_WU?$char_traits@_W@std@@@std@@0_N@Z$4 10050bd8 f   functions.obj
 0001:0004fbe5       __ehhandler$?DoesPathMatchPattern@Functions@@YA_NV?$basic_string_view@_WU?$char_traits@_W@std@@@std@@0_N@Z 10050be5 f   functions.obj
 0001:0004fc10       __unwindfunclet$?GetModuleVersion@Functions@@YA?AV?$basic_string@DU?$char_traits@D@std@@V?$allocator@D@2@@std@@PAUHINSTANCE__@@@Z$1 10050c10 f   functions.obj
 0001:0004fc18       __unwindfunclet$?GetModuleVersion@Functions@@YA?AV?$basic_string@DU?$char_traits@D@std@@V?$allocator@D@2@@std@@PAUHINSTANCE__@@@Z$2 10050c18 f   functions.obj
 0001:0004fc20       __unwindfunclet$?GetModuleVersion@Functions@@YA?AV?$basic_string@DU?$char_traits@D@std@@V?$allocator@D@2@@std@@PAUHINSTANCE__@@@Z$3 10050c20 f   functions.obj
 0001:0004fc28       __unwindfunclet$?GetModuleVersion@Functions@@YA?AV?$basic_string@DU?$char_traits@D@std@@V?$allocator@D@2@@std@@PAUHINSTANCE__@@@Z$4 10050c28 f   functions.obj
 0001:0004fc30       __unwindfunclet$?GetModuleVersion@Functions@@YA?AV?$basic_string@DU?$char_traits@D@std@@V?$allocator@D@2@@std@@PAUHINSTANCE__@@@Z$5 10050c30 f   functions.obj
 0001:0004fc3d       __ehhandler$?GetModuleVersion@Functions@@YA?AV?$basic_string@DU?$char_traits@D@std@@V?$allocator@D@2@@std@@PAUHINSTANCE__@@@Z 10050c3d f   functions.obj
 0001:0004fc70       __unwindfunclet$?SetHook@HwbpHook@@YA_NPAX0PAPAXK@Z$0 10050c70 f   hwbp_hook.obj
 0001:0004fc80       __ehhandler$?SetHook@HwbpHook@@YA_NPAX0PAPAXK@Z 10050c80 f   hwbp_hook.obj
 0001:0004fcb0       __unwindfunclet$??__Eg_MonitoredRegions@InjectionMonitor@@YAXXZ$1 10050cb0 f   injection_monitor.obj
 0001:0004fcba       __unwindfunclet$??__Eg_MonitoredRegions@InjectionMonitor@@YAXXZ$2 10050cba f   injection_monitor.obj
 0001:0004fcc9       __ehhandler$??__Eg_MonitoredRegions@InjectionMonitor@@YAXXZ 10050cc9 f   injection_monitor.obj
 0001:0004fcf0       __unwindfunclet$?VehHandler@InjectionMonitor@@YGJPAU_EXCEPTION_POINTERS@@@Z$0 10050cf0 f   injection_monitor.obj
 0001:0004fcfd       __ehhandler$?VehHandler@InjectionMonitor@@YGJPAU_EXCEPTION_POINTERS@@@Z 10050cfd f   injection_monitor.obj
 0001:0004fd20       __unwindfunclet$?RegisterHookRegion@InjectionMonitor@@YA_NPAXI@Z$0 10050d20 f   injection_monitor.obj
 0001:0004fd2d       __ehhandler$?RegisterHookRegion@InjectionMonitor@@YA_NPAXI@Z 10050d2d f   injection_monitor.obj
 0001:0004fd60       __unwindfunclet$??$_Try_emplace@ABQAX$$V@?$_Hash@V?$_Umap_traits@PAXURegionInfo@InjectionMonitor@@V?$_Uhash_compare@PAXU?$hash@PAX@std@@U?$equal_to@PAX@2@@std@@V?$allocator@U?$pair@QAXURegionInfo@InjectionMonitor@@@std@@@4@$0A@@std@@@std@@IAE?AU?$pair@PAU?$_List_node@U?$pair@QAXURegionInfo@InjectionMonitor@@@std@@PAX@std@@_N@1@ABQAX@Z$1 10050d60 f   injection_monitor.obj
 0001:0004fd68       __unwindfunclet$??$_Try_emplace@ABQAX$$V@?$_Hash@V?$_Umap_traits@PAXURegionInfo@InjectionMonitor@@V?$_Uhash_compare@PAXU?$hash@PAX@std@@U?$equal_to@PAX@2@@std@@V?$allocator@U?$pair@QAXURegionInfo@InjectionMonitor@@@std@@@4@$0A@@std@@@std@@IAE?AU?$pair@PAU?$_List_node@U?$pair@QAXURegionInfo@InjectionMonitor@@@std@@PAX@std@@_N@1@ABQAX@Z$0 10050d68 f   injection_monitor.obj
 0001:0004fd75       __ehhandler$??$_Try_emplace@ABQAX$$V@?$_Hash@V?$_Umap_traits@PAXURegionInfo@InjectionMonitor@@V?$_Uhash_compare@PAXU?$hash@PAX@std@@U?$equal_to@PAX@2@@std@@V?$allocator@U?$pair@QAXURegionInfo@InjectionMonitor@@@std@@@4@$0A@@std@@@std@@IAE?AU?$pair@PAU?$_List_node@U?$pair@QAXURegionInfo@InjectionMonitor@@@std@@PAX@std@@_N@1@ABQAX@Z 10050d75 f   injection_monitor.obj
 0001:0004fda0       __unwindfunclet$?GetVerbosityFromConfig@?A0xc8b977ee@@YA?AW4Verbosity@LoggerBase@@XZ$2 10050da0 f   logger.obj
 0001:0004fdad       __ehhandler$?GetVerbosityFromConfig@?A0xc8b977ee@@YA?AW4Verbosity@LoggerBase@@XZ 10050dad f   logger.obj
 0001:0004fdd0       __ehhandler$?DeleteThis@CustomizationSession@@AAEXXZ 10050dd0 f   customization_session.obj
 0001:0004fdd0       __ehhandler$??1ScopedThreadVerbosity@Logger@@QAE@XZ 10050dd0 f   logger.obj
 0001:0004fdd0       __ehhandler$__Cnd_do_broadcast_at_thread_exit 10050dd0 f   libcpmt:xnotify.obj
 0001:0004fdf0       __unwindfunclet$?GetInstance@Logger@@SAAAV1@XZ$0 10050df0 f   logger.obj
 0001:0004fdfd       __ehhandler$?GetInstance@Logger@@SAAAV1@XZ 10050dfd f   logger.obj
 0001:0004fe30       __unwindfunclet$?GetThreadVerbosity@Logger@@CAAAV?$optional@W4Verbosity@LoggerBase@@@std@@XZ$0 10050e30 f   logger.obj
 0001:0004fe38       __unwindfunclet$?GetThreadVerbosity@Logger@@CAAAV?$optional@W4Verbosity@LoggerBase@@@std@@XZ$4 10050e38 f   logger.obj
 0001:0004fe40       __unwindfunclet$?GetThreadVerbosity@Logger@@CAAAV?$optional@W4Verbosity@LoggerBase@@@std@@XZ$5 10050e40 f   logger.obj
 0001:0004fe48       __unwindfunclet$?GetThreadVerbosity@Logger@@CAAAV?$optional@W4Verbosity@LoggerBase@@@std@@XZ$8 10050e48 f   logger.obj
 0001:0004fe50       __unwindfunclet$?GetThreadVerbosity@Logger@@CAAAV?$optional@W4Verbosity@LoggerBase@@@std@@XZ$6 10050e50 f   logger.obj
 0001:0004fe5b       __unwindfunclet$?GetThreadVerbosity@Logger@@CAAAV?$optional@W4Verbosity@LoggerBase@@@std@@XZ$9 10050e5b f   logger.obj
 0001:0004fe63       __unwindfunclet$?GetThreadVerbosity@Logger@@CAAAV?$optional@W4Verbosity@LoggerBase@@@std@@XZ$7 10050e63 f   logger.obj
 0001:0004fe73       __ehhandler$?GetThreadVerbosity@Logger@@CAAAV?$optional@W4Verbosity@LoggerBase@@@std@@XZ 10050e73 f   logger.obj
 0001:0004fea0       __unwindfunclet$??0ModDebugLoggingScope@?A0x64030c04@@QAE@PBD@Z$0 10050ea0 f   mod.obj
 0001:0004feb0       __ehhandler$??0ModDebugLoggingScope@?A0x64030c04@@QAE@PBD@Z 10050eb0 f   mod.obj
 0001:0004fed0       __unwindfunclet$??0CrossModMutex@?A0x64030c04@@QAE@PB_W@Z$2 10050ed0 f   mod.obj
 0001:0004fed8       __unwindfunclet$??0CrossModMutex@?A0x64030c04@@QAE@PB_W@Z$3 10050ed8 f   mod.obj
 0001:0004fee3       __unwindfunclet$??0CrossModMutex@?A0x64030c04@@QAE@PB_W@Z$7 10050ee3 f   mod.obj
 0001:0004feeb       __unwindfunclet$??0CrossModMutex@?A0x64030c04@@QAE@PB_W@Z$8 10050eeb f   mod.obj
 0001:0004fef3       __unwindfunclet$??0CrossModMutex@?A0x64030c04@@QAE@PB_W@Z$9 10050ef3 f   mod.obj
 0001:0004ff00       __ehhandler$??0CrossModMutex@?A0x64030c04@@QAE@PB_W@Z 10050f00 f   mod.obj
 0001:0004ff30       __unwindfunclet$?GenerateModInstanceId@?A0x64030c04@@YA?AV?$basic_string@_WU?$char_traits@_W@std@@V?$allocator@_W@2@@std@@PB_W@Z$0 10050f30 f   mod.obj
 0001:0004ff3b       __unwindfunclet$?GenerateModInstanceId@?A0x64030c04@@YA?AV?$basic_string@_WU?$char_traits@_W@std@@V?$allocator@_W@2@@std@@PB_W@Z$1 10050f3b f   mod.obj
 0001:0004ff46       __unwindfunclet$?GenerateModInstanceId@?A0x64030c04@@YA?AV?$basic_string@_WU?$char_traits@_W@std@@V?$allocator@_W@2@@std@@PB_W@Z$2 10050f46 f   mod.obj
 0001:0004ff51       __unwindfunclet$?GenerateModInstanceId@?A0x64030c04@@YA?AV?$basic_string@_WU?$char_traits@_W@std@@V?$allocator@_W@2@@std@@PB_W@Z$3 10050f51 f   mod.obj
 0001:0004ff59       __unwindfunclet$?GenerateModInstanceId@?A0x64030c04@@YA?AV?$basic_string@_WU?$char_traits@_W@std@@V?$allocator@_W@2@@std@@PB_W@Z$4 10050f59 f   mod.obj
 0001:0004ff64       __unwindfunclet$?GenerateModInstanceId@?A0x64030c04@@YA?AV?$basic_string@_WU?$char_traits@_W@std@@V?$allocator@_W@2@@std@@PB_W@Z$5 10050f64 f   mod.obj
 0001:0004ff6c       __unwindfunclet$?GenerateModInstanceId@?A0x64030c04@@YA?AV?$basic_string@_WU?$char_traits@_W@std@@V?$allocator@_W@2@@std@@PB_W@Z$6 10050f6c f   mod.obj
 0001:0004ff77       __unwindfunclet$?GenerateModInstanceId@?A0x64030c04@@YA?AV?$basic_string@_WU?$char_traits@_W@std@@V?$allocator@_W@2@@std@@PB_W@Z$7 10050f77 f   mod.obj
 0001:0004ff87       __ehhandler$?GenerateModInstanceId@?A0x64030c04@@YA?AV?$basic_string@_WU?$char_traits@_W@std@@V?$allocator@_W@2@@std@@PB_W@Z 10050f87 f   mod.obj
 0001:0004ffc0       __unwindfunclet$?SetModMetadataValue@?A0x64030c04@@YAXAAV?$unique_any_t@V?$unique_storage@U?$handle_invalid_resource_policy@P6GHPAX@Z$1?CloseHandle@@YGH0@Z@details@wil@@@details@wil@@@wil@@PB_W11@Z$2 10050fc0 f   mod.obj
 0001:0004ffc8       __unwindfunclet$?SetModMetadataValue@?A0x64030c04@@YAXAAV?$unique_any_t@V?$unique_storage@U?$handle_invalid_resource_policy@P6GHPAX@Z$1?CloseHandle@@YGH0@Z@details@wil@@@details@wil@@@wil@@PB_W11@Z$3 10050fc8 f   mod.obj
 0001:0004ffd3       __unwindfunclet$?SetModMetadataValue@?A0x64030c04@@YAXAAV?$unique_any_t@V?$unique_storage@U?$handle_invalid_resource_policy@P6GHPAX@Z$1?CloseHandle@@YGH0@Z@details@wil@@@details@wil@@@wil@@PB_W11@Z$4 10050fd3 f   mod.obj
 0001:0004ffdb       __unwindfunclet$?SetModMetadataValue@?A0x64030c04@@YAXAAV?$unique_any_t@V?$unique_storage@U?$handle_invalid_resource_policy@P6GHPAX@Z$1?CloseHandle@@YGH0@Z@details@wil@@@details@wil@@@wil@@PB_W11@Z$5 10050fdb f   mod.obj
 0001:0004ffe8       __ehhandler$?SetModMetadataValue@?A0x64030c04@@YAXAAV?$unique_any_t@V?$unique_storage@U?$handle_invalid_resource_policy@P6GHPAX@Z$1?CloseHandle@@YGH0@Z@details@wil@@@details@wil@@@wil@@PB_W11@Z 10050fe8 f   mod.obj
 0001:00050020       __unwindfunclet$?GetModVersion@?A0x64030c04@@YA?AV?$basic_string@_WU?$char_traits@_W@std@@V?$allocator@_W@2@@std@@PB_W@Z$0 10051020 f   mod.obj
 0001:00050028       __unwindfunclet$?GetModVersion@?A0x64030c04@@YA?AV?$basic_string@_WU?$char_traits@_W@std@@V?$allocator@_W@2@@std@@PB_W@Z$1 10051028 f   mod.obj
 0001:00050035       __ehhandler$?GetModVersion@?A0x64030c04@@YA?AV?$basic_string@_WU?$char_traits@_W@std@@V?$allocator@_W@2@@std@@PB_W@Z 10051035 f   mod.obj
 0001:00050060       __unwindfunclet$?ShouldUseCompatDemangling@?A0x64030c04@@YA_NV?$basic_zstring_view@_W@wil@@@Z$1 10051060 f   mod.obj
 0001:0005006b       __unwindfunclet$?ShouldUseCompatDemangling@?A0x64030c04@@YA_NV?$basic_zstring_view@_W@wil@@@Z$3 1005106b f   mod.obj
 0001:00050076       __unwindfunclet$?ShouldUseCompatDemangling@?A0x64030c04@@YA_NV?$basic_zstring_view@_W@wil@@@Z$5 10051076 f   mod.obj
 0001:0005007e       __unwindfunclet$?ShouldUseCompatDemangling@?A0x64030c04@@YA_NV?$basic_zstring_view@_W@wil@@@Z$7 1005107e f   mod.obj
 0001:00050086       __unwindfunclet$?ShouldUseCompatDemangling@?A0x64030c04@@YA_NV?$basic_zstring_view@_W@wil@@@Z$9 10051086 f   mod.obj
 0001:0005008e       __unwindfunclet$?ShouldUseCompatDemangling@?A0x64030c04@@YA_NV?$basic_zstring_view@_W@wil@@@Z$11 1005108e f   mod.obj
 0001:00050096       __unwindfunclet$?ShouldUseCompatDemangling@?A0x64030c04@@YA_NV?$basic_zstring_view@_W@wil@@@Z$14 10051096 f   mod.obj
 0001:000500ac       __unwindfunclet$?ShouldUseCompatDemangling@?A0x64030c04@@YA_NV?$basic_zstring_view@_W@wil@@@Z$15 100510ac f   mod.obj
 0001:000500bc       __ehhandler$?ShouldUseCompatDemangling@?A0x64030c04@@YA_NV?$basic_zstring_view@_W@wil@@@Z 100510bc f   mod.obj
 0001:000500f0       __unwindfunclet$?IsModBanned@?A0x64030c04@@YA_NV?$basic_zstring_view@_W@wil@@@Z$1 100510f0 f   mod.obj
 0001:000500f8       __unwindfunclet$?IsModBanned@?A0x64030c04@@YA_NV?$basic_zstring_view@_W@wil@@@Z$3 100510f8 f   mod.obj
 0001:00050100       __unwindfunclet$?IsModBanned@?A0x64030c04@@YA_NV?$basic_zstring_view@_W@wil@@@Z$5 10051100 f   mod.obj
 0001:00050108       __unwindfunclet$?IsModBanned@?A0x64030c04@@YA_NV?$basic_zstring_view@_W@wil@@@Z$8 10051108 f   mod.obj
 0001:00050120       __ehhandler$?IsModBanned@?A0x64030c04@@YA_NV?$basic_zstring_view@_W@wil@@@Z 10051120 f   mod.obj
 0001:00050150       __unwindfunclet$?SetModShimsLibraryIfNeeded@?A0x64030c04@@YA?AV?$unique_any_t@V?$unique_storage@U?$resource_policy@PAUHINSTANCE__@@P6GHPAU1@@Z$1?FreeLibrary@@YGH0@ZU?$integral_constant@I$0A@@wistd@@PAU1@PAU1@$0A@$$T@details@wil@@@details@wil@@@wil@@PAUHINSTANCE__@@@Z$0 10051150 f   mod.obj
 0001:00050158       __unwindfunclet$?SetModShimsLibraryIfNeeded@?A0x64030c04@@YA?AV?$unique_any_t@V?$unique_storage@U?$resource_policy@PAUHINSTANCE__@@P6GHPAU1@@Z$1?FreeLibrary@@YGH0@ZU?$integral_constant@I$0A@@wistd@@PAU1@PAU1@$0A@$$T@details@wil@@@details@wil@@@wil@@PAUHINSTANCE__@@@Z$2 10051158 f   mod.obj
 0001:00050163       __unwindfunclet$?SetModShimsLibraryIfNeeded@?A0x64030c04@@YA?AV?$unique_any_t@V?$unique_storage@U?$resource_policy@PAUHINSTANCE__@@P6GHPAU1@@Z$1?FreeLibrary@@YGH0@ZU?$integral_constant@I$0A@@wistd@@PAU1@PAU1@$0A@$$T@details@wil@@@details@wil@@@wil@@PAUHINSTANCE__@@@Z$13 10051163 f   mod.obj
 0001:0005016e       __unwindfunclet$?SetModShimsLibraryIfNeeded@?A0x64030c04@@YA?AV?$unique_any_t@V?$unique_storage@U?$resource_policy@PAUHINSTANCE__@@P6GHPAU1@@Z$1?FreeLibrary@@YGH0@ZU?$integral_constant@I$0A@@wistd@@PAU1@PAU1@$0A@$$T@details@wil@@@details@wil@@@wil@@PAUHINSTANCE__@@@Z$14 1005116e f   mod.obj
 0001:00050179       __unwindfunclet$?SetModShimsLibraryIfNeeded@?A0x64030c04@@YA?AV?$unique_any_t@V?$unique_storage@U?$resource_policy@PAUHINSTANCE__@@P6GHPAU1@@Z$1?FreeLibrary@@YGH0@ZU?$integral_constant@I$0A@@wistd@@PAU1@PAU1@$0A@$$T@details@wil@@@details@wil@@@wil@@PAUHINSTANCE__@@@Z$15 10051179 f   mod.obj
 0001:00050184       __unwindfunclet$?SetModShimsLibraryIfNeeded@?A0x64030c04@@YA?AV?$unique_any_t@V?$unique_storage@U?$resource_policy@PAUHINSTANCE__@@P6GHPAU1@@Z$1?FreeLibrary@@YGH0@ZU?$integral_constant@I$0A@@wistd@@PAU1@PAU1@$0A@$$T@details@wil@@@details@wil@@@wil@@PAUHINSTANCE__@@@Z$3 10051184 f   mod.obj
 0001:0005018f       __unwindfunclet$?SetModShimsLibraryIfNeeded@?A0x64030c04@@YA?AV?$unique_any_t@V?$unique_storage@U?$resource_policy@PAUHINSTANCE__@@P6GHPAU1@@Z$1?FreeLibrary@@YGH0@ZU?$integral_constant@I$0A@@wistd@@PAU1@PAU1@$0A@$$T@details@wil@@@details@wil@@@wil@@PAUHINSTANCE__@@@Z$4 1005118f f   mod.obj
 0001:0005019c       __ehhandler$?SetModShimsLibraryIfNeeded@?A0x64030c04@@YA?AV?$unique_any_t@V?$unique_storage@U?$resource_policy@PAUHINSTANCE__@@P6GHPAU1@@Z$1?FreeLibrary@@YGH0@ZU?$integral_constant@I$0A@@wistd@@PAU1@PAU1@$0A@$$T@details@wil@@@details@wil@@@wil@@PAUHINSTANCE__@@@Z 1005119c f   mod.obj
 0001:000501d0       __unwindfunclet$??0HookSymbolsSession@?A0x64030c04@@QAE@PAVLoadedMod@@PAUHINSTANCE__@@PBUtagWH_SYMBOL_HOOK@@I@Z$0 100511d0 f   mod.obj
 0001:000501db       __unwindfunclet$??0HookSymbolsSession@?A0x64030c04@@QAE@PAVLoadedMod@@PAUHINSTANCE__@@PBUtagWH_SYMBOL_HOOK@@I@Z$1 100511db f   mod.obj
 0001:000501e6       __unwindfunclet$??0HookSymbolsSession@?A0x64030c04@@QAE@PAVLoadedMod@@PAUHINSTANCE__@@PBUtagWH_SYMBOL_HOOK@@I@Z$2 100511e6 f   mod.obj
 0001:000501f1       __unwindfunclet$??0HookSymbolsSession@?A0x64030c04@@QAE@PAVLoadedMod@@PAUHINSTANCE__@@PBUtagWH_SYMBOL_HOOK@@I@Z$3 100511f1 f   mod.obj
 0001:000501fc       __unwindfunclet$??0HookSymbolsSession@?A0x64030c04@@QAE@PAVLoadedMod@@PAUHINSTANCE__@@PBUtagWH_SYMBOL_HOOK@@I@Z$4 100511fc f   mod.obj
 0001:00050207       __unwindfunclet$??0HookSymbolsSession@?A0x64030c04@@QAE@PAVLoadedMod@@PAUHINSTANCE__@@PBUtagWH_SYMBOL_HOOK@@I@Z$5 10051207 f   mod.obj
 0001:00050215       __unwindfunclet$??0HookSymbolsSession@?A0x64030c04@@QAE@PAVLoadedMod@@PAUHINSTANCE__@@PBUtagWH_SYMBOL_HOOK@@I@Z$6 10051215 f   mod.obj
 0001:00050228       __ehhandler$??0HookSymbolsSession@?A0x64030c04@@QAE@PAVLoadedMod@@PAUHINSTANCE__@@PBUtagWH_SYMBOL_HOOK@@I@Z 10051228 f   mod.obj
 0001:00050250       __unwindfunclet$?OnSymbolResolved@HookSymbolsSession@?A0x64030c04@@QAE_NV?$basic_string_view@_WU?$char_traits@_W@std@@@std@@PAX@Z$0 10051250 f   mod.obj
 0001:0005025d       __ehhandler$?OnSymbolResolved@HookSymbolsSession@?A0x64030c04@@QAE_NV?$basic_string_view@_WU?$char_traits@_W@std@@@std@@PAX@Z 1005125d f   mod.obj
 0001:00050290       __unwindfunclet$?ResolveSymbolsFromCache@HookSymbolsSession@?A0x64030c04@@QAE?AW4ResolveSymbolsFromCacheResult@12@V?$optional@_K@std@@@Z$2 10051290 f   mod.obj
 0001:00050298       __unwindfunclet$?ResolveSymbolsFromCache@HookSymbolsSession@?A0x64030c04@@QAE?AW4ResolveSymbolsFromCacheResult@12@V?$optional@_K@std@@@Z$3 10051298 f   mod.obj
 0001:000502a0       __unwindfunclet$?ResolveSymbolsFromCache@HookSymbolsSession@?A0x64030c04@@QAE?AW4ResolveSymbolsFromCacheResult@12@V?$optional@_K@std@@@Z$4 100512a0 f   mod.obj
 0001:000502ab       __unwindfunclet$?ResolveSymbolsFromCache@HookSymbolsSession@?A0x64030c04@@QAE?AW4ResolveSymbolsFromCacheResult@12@V?$optional@_K@std@@@Z$6 100512ab f   mod.obj
 0001:000502b3       __unwindfunclet$?ResolveSymbolsFromCache@HookSymbolsSession@?A0x64030c04@@QAE?AW4ResolveSymbolsFromCacheResult@12@V?$optional@_K@std@@@Z$7 100512b3 f   mod.obj
 0001:000502cf       __unwindfunclet$?ResolveSymbolsFromCache@HookSymbolsSession@?A0x64030c04@@QAE?AW4ResolveSymbolsFromCacheResult@12@V?$optional@_K@std@@@Z$10 100512cf f   mod.obj
 0001:000502dc       __ehhandler$?ResolveSymbolsFromCache@HookSymbolsSession@?A0x64030c04@@QAE?AW4ResolveSymbolsFromCacheResult@12@V?$optional@_K@std@@@Z 100512dc f   mod.obj
 0001:00050310       __unwindfunclet$?UpdateSymbolsCache@HookSymbolsSession@?A0x64030c04@@QAE_NXZ$2 10051310 f   mod.obj
 0001:0005031d       __ehhandler$?UpdateSymbolsCache@HookSymbolsSession@?A0x64030c04@@QAE_NXZ 1005131d f   mod.obj
 0001:00050340       __unwindfunclet$?UpdateSymbolsCacheWithErrorForThrottle@HookSymbolsSession@?A0x64030c04@@QAE_NXZ$2 10051340 f   mod.obj
 0001:00050348       __unwindfunclet$?UpdateSymbolsCacheWithErrorForThrottle@HookSymbolsSession@?A0x64030c04@@QAE_NXZ$3 10051348 f   mod.obj
 0001:00050350       __unwindfunclet$?UpdateSymbolsCacheWithErrorForThrottle@HookSymbolsSession@?A0x64030c04@@QAE_NXZ$4 10051350 f   mod.obj
 0001:00050358       __unwindfunclet$?UpdateSymbolsCacheWithErrorForThrottle@HookSymbolsSession@?A0x64030c04@@QAE_NXZ$5 10051358 f   mod.obj
 0001:00050360       __unwindfunclet$?UpdateSymbolsCacheWithErrorForThrottle@HookSymbolsSession@?A0x64030c04@@QAE_NXZ$6 10051360 f   mod.obj
 0001:0005036d       __ehhandler$?UpdateSymbolsCacheWithErrorForThrottle@HookSymbolsSession@?A0x64030c04@@QAE_NXZ 1005136d f   mod.obj
 0001:000503a0       __unwindfunclet$?CalculateHookSymbolsInitialParams@HookSymbolsSession@?A0x64030c04@@AAEXXZ$1 100513a0 f   mod.obj
 0001:000503ab       __unwindfunclet$?CalculateHookSymbolsInitialParams@HookSymbolsSession@?A0x64030c04@@AAEXXZ$2 100513ab f   mod.obj
 0001:000503b3       __unwindfunclet$?CalculateHookSymbolsInitialParams@HookSymbolsSession@?A0x64030c04@@AAEXXZ$3 100513b3 f   mod.obj
 0001:000503be       __unwindfunclet$?CalculateHookSymbolsInitialParams@HookSymbolsSession@?A0x64030c04@@AAEXXZ$5 100513be f   mod.obj
 0001:000503c9       __unwindfunclet$?CalculateHookSymbolsInitialParams@HookSymbolsSession@?A0x64030c04@@AAEXXZ$6 100513c9 f   mod.obj
 0001:000503d4       __unwindfunclet$?CalculateHookSymbolsInitialParams@HookSymbolsSession@?A0x64030c04@@AAEXXZ$7 100513d4 f   mod.obj
 0001:000503df       __unwindfunclet$?CalculateHookSymbolsInitialParams@HookSymbolsSession@?A0x64030c04@@AAEXXZ$8 100513df f   mod.obj
 0001:000503ec       __ehhandler$?CalculateHookSymbolsInitialParams@HookSymbolsSession@?A0x64030c04@@AAEXXZ 100513ec f   mod.obj
 0001:00050420       __unwindfunclet$??R<lambda_1>@?1??GetWindowsVersionForLogging@?A0x64030c04@@YA?AV?$basic_string@_WU?$char_traits@_W@std@@V?$allocator@_W@2@@std@@XZ@QBE@XZ$0 10051420 f   mod.obj
 0001:00050442       __unwindfunclet$??R<lambda_1>@?1??GetWindowsVersionForLogging@?A0x64030c04@@YA?AV?$basic_string@_WU?$char_traits@_W@std@@V?$allocator@_W@2@@std@@XZ@QBE@XZ$1 10051442 f   mod.obj
 0001:0005044d       __unwindfunclet$??R<lambda_1>@?1??GetWindowsVersionForLogging@?A0x64030c04@@YA?AV?$basic_string@_WU?$char_traits@_W@std@@V?$allocator@_W@2@@std@@XZ@QBE@XZ$2 1005144d f   mod.obj
 0001:00050458       __unwindfunclet$??R<lambda_1>@?1??GetWindowsVersionForLogging@?A0x64030c04@@YA?AV?$basic_string@_WU?$char_traits@_W@std@@V?$allocator@_W@2@@std@@XZ@QBE@XZ$3 10051458 f   mod.obj
 0001:00050463       __unwindfunclet$??R<lambda_1>@?1??GetWindowsVersionForLogging@?A0x64030c04@@YA?AV?$basic_string@_WU?$char_traits@_W@std@@V?$allocator@_W@2@@std@@XZ@QBE@XZ$4 10051463 f   mod.obj
 0001:00050473       __ehhandler$??R<lambda_1>@?1??GetWindowsVersionForLogging@?A0x64030c04@@YA?AV?$basic_string@_WU?$char_traits@_W@std@@V?$allocator@_W@2@@std@@XZ@QBE@XZ 10051473 f   mod.obj
 0001:000504a0       __unwindfunclet$??0LoadedMod@@QAE@PB_W00_N11@Z$2 100514a0 f   mod.obj
 0001:000504a8       __unwindfunclet$??0LoadedMod@@QAE@PB_W00_N11@Z$3 100514a8 f   mod.obj
 0001:000504b3       __unwindfunclet$??0LoadedMod@@QAE@PB_W00_N11@Z$4 100514b3 f   mod.obj
 0001:000504be       __unwindfunclet$??0LoadedMod@@QAE@PB_W00_N11@Z$5 100514be f   mod.obj
 0001:000504c9       __unwindfunclet$??0LoadedMod@@QAE@PB_W00_N11@Z$6 100514c9 f   mod.obj
 0001:000504d4       __unwindfunclet$??0LoadedMod@@QAE@PB_W00_N11@Z$7 100514d4 f   mod.obj
 0001:000504df       __unwindfunclet$??0LoadedMod@@QAE@PB_W00_N11@Z$8 100514df f   mod.obj
 0001:000504ea       __unwindfunclet$??0LoadedMod@@QAE@PB_W00_N11@Z$9 100514ea f   mod.obj
 0001:000504f5       __unwindfunclet$??0LoadedMod@@QAE@PB_W00_N11@Z$18 100514f5 f   mod.obj
 0001:000504fd       __unwindfunclet$??0LoadedMod@@QAE@PB_W00_N11@Z$10 100514fd f   mod.obj
 0001:00050505       __unwindfunclet$??0LoadedMod@@QAE@PB_W00_N11@Z$14 10051505 f   mod.obj
 0001:00050516       __ehhandler$??0LoadedMod@@QAE@PB_W00_N11@Z 10051516 f   mod.obj
 0001:00050540       __ehhandler$?Run@MainLoopRunner@CustomizationSession@@QAE?AW4Result@12@PAXPAK@Z 10051540 f   customization_session.obj
 0001:00050540       __ehhandler$??1LoadedMod@@QAE@XZ 10051540 f   mod.obj
 0001:00050570       __unwindfunclet$?Initialize@LoadedMod@@QAE_NXZ$3 10051570 f   mod.obj
 0001:00050578       __unwindfunclet$?Initialize@LoadedMod@@QAE_NXZ$0 10051578 f   mod.obj
 0001:00050580       __unwindfunclet$?Initialize@LoadedMod@@QAE_NXZ$1 10051580 f   mod.obj
 0001:00050588       __unwindfunclet$?Initialize@LoadedMod@@QAE_NXZ$2 10051588 f   mod.obj
 0001:0005059c       __ehhandler$?Initialize@LoadedMod@@QAE_NXZ 1005159c f   mod.obj
 0001:000505d0       __unwindfunclet$?GetIntValue@LoadedMod@@QAEHPB_WH@Z$4 100515d0 f   mod.obj
 0001:000505d8       __unwindfunclet$?GetIntValue@LoadedMod@@QAEHPB_WH@Z$2 100515d8 f   mod.obj
 0001:000505e0       __unwindfunclet$?GetIntValue@LoadedMod@@QAEHPB_WH@Z$3 100515e0 f   mod.obj
 0001:000505ed       __ehhandler$?GetIntValue@LoadedMod@@QAEHPB_WH@Z 100515ed f   mod.obj
 0001:00050620       __unwindfunclet$?SetIntValue@LoadedMod@@QAEHPB_WH@Z$4 10051620 f   mod.obj
 0001:00050628       __unwindfunclet$?SetIntValue@LoadedMod@@QAEHPB_WH@Z$2 10051628 f   mod.obj
 0001:00050630       __unwindfunclet$?SetIntValue@LoadedMod@@QAEHPB_WH@Z$3 10051630 f   mod.obj
 0001:0005063d       __ehhandler$?SetIntValue@LoadedMod@@QAEHPB_WH@Z 1005163d f   mod.obj
 0001:00050670       __unwindfunclet$?GetStringValue@LoadedMod@@QAEIPB_WPA_WI@Z$6 10051670 f   mod.obj
 0001:00050678       __unwindfunclet$?GetStringValue@LoadedMod@@QAEIPB_WPA_WI@Z$2 10051678 f   mod.obj
 0001:00050680       __unwindfunclet$?GetStringValue@LoadedMod@@QAEIPB_WPA_WI@Z$3 10051680 f   mod.obj
 0001:00050688       __unwindfunclet$?GetStringValue@LoadedMod@@QAEIPB_WPA_WI@Z$4 10051688 f   mod.obj
 0001:00050690       __unwindfunclet$?GetStringValue@LoadedMod@@QAEIPB_WPA_WI@Z$5 10051690 f   mod.obj
 0001:0005069d       __ehhandler$?GetStringValue@LoadedMod@@QAEIPB_WPA_WI@Z 1005169d f   mod.obj
 0001:000506d0       __unwindfunclet$?SetStringValue@LoadedMod@@QAEHPB_W0@Z$4 100516d0 f   mod.obj
 0001:000506d8       __unwindfunclet$?SetStringValue@LoadedMod@@QAEHPB_W0@Z$2 100516d8 f   mod.obj
 0001:000506e0       __unwindfunclet$?SetStringValue@LoadedMod@@QAEHPB_W0@Z$3 100516e0 f   mod.obj
 0001:000506ed       __ehhandler$?SetStringValue@LoadedMod@@QAEHPB_W0@Z 100516ed f   mod.obj
 0001:00050720       __unwindfunclet$?GetBinaryValue@LoadedMod@@QAEIPB_WPAXI@Z$7 10051720 f   mod.obj
 0001:00050728       __unwindfunclet$?GetBinaryValue@LoadedMod@@QAEIPB_WPAXI@Z$2 10051728 f   mod.obj
 0001:00050730       __unwindfunclet$?GetBinaryValue@LoadedMod@@QAEIPB_WPAXI@Z$3 10051730 f   mod.obj
 0001:00050738       __unwindfunclet$?GetBinaryValue@LoadedMod@@QAEIPB_WPAXI@Z$6 10051738 f   mod.obj
 0001:00050745       __ehhandler$?GetBinaryValue@LoadedMod@@QAEIPB_WPAXI@Z 10051745 f   mod.obj
 0001:00050770       __unwindfunclet$?SetBinaryValue@LoadedMod@@QAEHPB_WPBXI@Z$4 10051770 f   mod.obj
 0001:00050778       __unwindfunclet$?SetBinaryValue@LoadedMod@@QAEHPB_WPBXI@Z$2 10051778 f   mod.obj
 0001:00050780       __unwindfunclet$?SetBinaryValue@LoadedMod@@QAEHPB_WPBXI@Z$3 10051780 f   mod.obj
 0001:0005078d       __ehhandler$?SetBinaryValue@LoadedMod@@QAEHPB_WPBXI@Z 1005178d f   mod.obj
 0001:000507c0       __unwindfunclet$?DeleteValue@LoadedMod@@QAEHPB_W@Z$4 100517c0 f   mod.obj
 0001:000507c8       __unwindfunclet$?DeleteValue@LoadedMod@@QAEHPB_W@Z$2 100517c8 f   mod.obj
 0001:000507d0       __unwindfunclet$?DeleteValue@LoadedMod@@QAEHPB_W@Z$3 100517d0 f   mod.obj
 0001:000507dd       __ehhandler$?DeleteValue@LoadedMod@@QAEHPB_W@Z 100517dd f   mod.obj
 0001:00050810       __unwindfunclet$?GetModStoragePath@LoadedMod@@QAEIPA_WI@Z$4 10051810 f   mod.obj
 0001:00050818       __unwindfunclet$?GetModStoragePath@LoadedMod@@QAEIPA_WI@Z$2 10051818 f   mod.obj
 0001:00050820       __unwindfunclet$?GetModStoragePath@LoadedMod@@QAEIPA_WI@Z$3 10051820 f   mod.obj
 0001:0005082d       __ehhandler$?GetModStoragePath@LoadedMod@@QAEIPA_WI@Z 1005182d f   mod.obj
 0001:00050860       __unwindfunclet$?GetIntSetting@LoadedMod@@QAEHPB_WPAD@Z$5 10051860 f   mod.obj
 0001:00050868       __unwindfunclet$?GetIntSetting@LoadedMod@@QAEHPB_WPAD@Z$2 10051868 f   mod.obj
 0001:00050870       __unwindfunclet$?GetIntSetting@LoadedMod@@QAEHPB_WPAD@Z$3 10051870 f   mod.obj
 0001:00050878       __unwindfunclet$?GetIntSetting@LoadedMod@@QAEHPB_WPAD@Z$4 10051878 f   mod.obj
 0001:00050885       __ehhandler$?GetIntSetting@LoadedMod@@QAEHPB_WPAD@Z 10051885 f   mod.obj
 0001:000508b0       __unwindfunclet$?GetStringSetting@LoadedMod@@QAEPB_WPB_WPAD@Z$16 100518b0 f   mod.obj
 0001:000508b8       __unwindfunclet$?GetStringSetting@LoadedMod@@QAEPB_WPB_WPAD@Z$2 100518b8 f   mod.obj
 0001:000508c0       __unwindfunclet$?GetStringSetting@LoadedMod@@QAEPB_WPB_WPAD@Z$3 100518c0 f   mod.obj
 0001:000508c8       __unwindfunclet$?GetStringSetting@LoadedMod@@QAEPB_WPB_WPAD@Z$4 100518c8 f   mod.obj
 0001:000508d0       __unwindfunclet$?GetStringSetting@LoadedMod@@QAEPB_WPB_WPAD@Z$5 100518d0 f   mod.obj
 0001:000508d8       __unwindfunclet$?GetStringSetting@LoadedMod@@QAEPB_WPB_WPAD@Z$6 100518d8 f   mod.obj
 0001:000508e0       __unwindfunclet$?GetStringSetting@LoadedMod@@QAEPB_WPB_WPAD@Z$7 100518e0 f   mod.obj
 0001:000508ed       __ehhandler$?GetStringSetting@LoadedMod@@QAEPB_WPB_WPAD@Z 100518ed f   mod.obj
 0001:00050920       __unwindfunclet$?SetFunctionHook@LoadedMod@@QAEHPAX0PAPAX@Z$1 10051920 f   mod.obj
 0001:00050928       __unwindfunclet$?SetFunctionHook@LoadedMod@@QAEHPAX0PAPAX@Z$0 10051928 f   mod.obj
 0001:00050935       __ehhandler$?SetFunctionHook@LoadedMod@@QAEHPAX0PAPAX@Z 10051935 f   mod.obj
 0001:00050960       __unwindfunclet$?BeforeUninit@Mod@@QAEXXZ$1 10051960 f   mod.obj
 0001:00050960       __unwindfunclet$?RemoveFunctionHook@LoadedMod@@QAEHPAX@Z$1 10051960 f   mod.obj
 0001:00050968       __unwindfunclet$?BeforeUninit@Mod@@QAEXXZ$0 10051968 f   mod.obj
 0001:00050968       __unwindfunclet$?RemoveFunctionHook@LoadedMod@@QAEHPAX@Z$0 10051968 f   mod.obj
 0001:00050975       __ehhandler$?BeforeUninit@Mod@@QAEXXZ 10051975 f   mod.obj
 0001:00050975       __ehhandler$?RemoveFunctionHook@LoadedMod@@QAEHPAX@Z 10051975 f   mod.obj
 0001:000509a0       __unwindfunclet$?ApplyHookOperations@LoadedMod@@QAEHXZ$1 100519a0 f   mod.obj
 0001:000509a8       __unwindfunclet$?ApplyHookOperations@LoadedMod@@QAEHXZ$0 100519a8 f   mod.obj
 0001:000509b5       __ehhandler$?ApplyHookOperations@LoadedMod@@QAEHXZ 100519b5 f   mod.obj
 0001:000509e0       __unwindfunclet$?FindFirstSymbol4@LoadedMod@@QAEPAXPAUHINSTANCE__@@PBUtagWH_FIND_SYMBOL_OPTIONS@@PAUtagWH_FIND_SYMBOL@@@Z$24 100519e0 f   mod.obj
 0001:000509eb       __unwindfunclet$?FindFirstSymbol4@LoadedMod@@QAEPAXPAUHINSTANCE__@@PBUtagWH_FIND_SYMBOL_OPTIONS@@PAUtagWH_FIND_SYMBOL@@@Z$4 100519eb f   mod.obj
 0001:000509f6       __unwindfunclet$?FindFirstSymbol4@LoadedMod@@QAEPAXPAUHINSTANCE__@@PBUtagWH_FIND_SYMBOL_OPTIONS@@PAUtagWH_FIND_SYMBOL@@@Z$6 100519f6 f   mod.obj
 0001:00050a01       __unwindfunclet$?FindFirstSymbol4@LoadedMod@@QAEPAXPAUHINSTANCE__@@PBUtagWH_FIND_SYMBOL_OPTIONS@@PAUtagWH_FIND_SYMBOL@@@Z$8 10051a01 f   mod.obj
 0001:00050a0c       __unwindfunclet$?FindFirstSymbol4@LoadedMod@@QAEPAXPAUHINSTANCE__@@PBUtagWH_FIND_SYMBOL_OPTIONS@@PAUtagWH_FIND_SYMBOL@@@Z$9 10051a0c f   mod.obj
 0001:00050a17       __unwindfunclet$?FindFirstSymbol4@LoadedMod@@QAEPAXPAUHINSTANCE__@@PBUtagWH_FIND_SYMBOL_OPTIONS@@PAUtagWH_FIND_SYMBOL@@@Z$10 10051a17 f   mod.obj
 0001:00050a22       __unwindfunclet$?FindFirstSymbol4@LoadedMod@@QAEPAXPAUHINSTANCE__@@PBUtagWH_FIND_SYMBOL_OPTIONS@@PAUtagWH_FIND_SYMBOL@@@Z$11 10051a22 f   mod.obj
 0001:00050a2d       __unwindfunclet$?FindFirstSymbol4@LoadedMod@@QAEPAXPAUHINSTANCE__@@PBUtagWH_FIND_SYMBOL_OPTIONS@@PAUtagWH_FIND_SYMBOL@@@Z$12 10051a2d f   mod.obj
 0001:00050a38       __unwindfunclet$?FindFirstSymbol4@LoadedMod@@QAEPAXPAUHINSTANCE__@@PBUtagWH_FIND_SYMBOL_OPTIONS@@PAUtagWH_FIND_SYMBOL@@@Z$13 10051a38 f   mod.obj
 0001:00050a43       __unwindfunclet$?FindFirstSymbol4@LoadedMod@@QAEPAXPAUHINSTANCE__@@PBUtagWH_FIND_SYMBOL_OPTIONS@@PAUtagWH_FIND_SYMBOL@@@Z$14 10051a43 f   mod.obj
 0001:00050a4e       __unwindfunclet$?FindFirstSymbol4@LoadedMod@@QAEPAXPAUHINSTANCE__@@PBUtagWH_FIND_SYMBOL_OPTIONS@@PAUtagWH_FIND_SYMBOL@@@Z$16 10051a4e f   mod.obj
 0001:00050a59       __unwindfunclet$?FindFirstSymbol4@LoadedMod@@QAEPAXPAUHINSTANCE__@@PBUtagWH_FIND_SYMBOL_OPTIONS@@PAUtagWH_FIND_SYMBOL@@@Z$18 10051a59 f   mod.obj
 0001:00050a64       __unwindfunclet$?FindFirstSymbol4@LoadedMod@@QAEPAXPAUHINSTANCE__@@PBUtagWH_FIND_SYMBOL_OPTIONS@@PAUtagWH_FIND_SYMBOL@@@Z$19 10051a64 f   mod.obj
 0001:00050a6f       __unwindfunclet$?FindFirstSymbol4@LoadedMod@@QAEPAXPAUHINSTANCE__@@PBUtagWH_FIND_SYMBOL_OPTIONS@@PAUtagWH_FIND_SYMBOL@@@Z$20 10051a6f f   mod.obj
 0001:00050a7a       __unwindfunclet$?FindFirstSymbol4@LoadedMod@@QAEPAXPAUHINSTANCE__@@PBUtagWH_FIND_SYMBOL_OPTIONS@@PAUtagWH_FIND_SYMBOL@@@Z$21 10051a7a f   mod.obj
 0001:00050a85       __unwindfunclet$?FindFirstSymbol4@LoadedMod@@QAEPAXPAUHINSTANCE__@@PBUtagWH_FIND_SYMBOL_OPTIONS@@PAUtagWH_FIND_SYMBOL@@@Z$103 10051a85 f   mod.obj
 0001:00050a9c       __ehhandler$?FindFirstSymbol4@LoadedMod@@QAEPAXPAUHINSTANCE__@@PBUtagWH_FIND_SYMBOL_OPTIONS@@PAUtagWH_FIND_SYMBOL@@@Z 10051a9c f   mod.obj
 0001:00050ad0       __ehhandler$??R<lambda_2>@?L@??FindFirstSymbol4@LoadedMod@@QAEPAXPAUHINSTANCE__@@PBUtagWH_FIND_SYMBOL_OPTIONS@@PAUtagWH_FIND_SYMBOL@@@Z@QBE@XZ 10051ad0 f   mod.obj
 0001:00050af0       __unwindfunclet$??R<lambda_3>@?L@??FindFirstSymbol4@LoadedMod@@QAEPAXPAUHINSTANCE__@@PBUtagWH_FIND_SYMBOL_OPTIONS@@PAUtagWH_FIND_SYMBOL@@@Z@QBE@H@Z$2 10051af0 f   mod.obj
 0001:00050afb       __unwindfunclet$??R<lambda_3>@?L@??FindFirstSymbol4@LoadedMod@@QAEPAXPAUHINSTANCE__@@PBUtagWH_FIND_SYMBOL_OPTIONS@@PAUtagWH_FIND_SYMBOL@@@Z@QBE@H@Z$3 10051afb f   mod.obj
 0001:00050b06       __unwindfunclet$??R<lambda_3>@?L@??FindFirstSymbol4@LoadedMod@@QAEPAXPAUHINSTANCE__@@PBUtagWH_FIND_SYMBOL_OPTIONS@@PAUtagWH_FIND_SYMBOL@@@Z@QBE@H@Z$4 10051b06 f   mod.obj
 0001:00050b0e       __unwindfunclet$??R<lambda_3>@?L@??FindFirstSymbol4@LoadedMod@@QAEPAXPAUHINSTANCE__@@PBUtagWH_FIND_SYMBOL_OPTIONS@@PAUtagWH_FIND_SYMBOL@@@Z@QBE@H@Z$5 10051b0e f   mod.obj
 0001:00050b16       __unwindfunclet$??R<lambda_3>@?L@??FindFirstSymbol4@LoadedMod@@QAEPAXPAUHINSTANCE__@@PBUtagWH_FIND_SYMBOL_OPTIONS@@PAUtagWH_FIND_SYMBOL@@@Z@QBE@H@Z$6 10051b16 f   mod.obj
 0001:00050b23       __ehhandler$??R<lambda_3>@?L@??FindFirstSymbol4@LoadedMod@@QAEPAXPAUHINSTANCE__@@PBUtagWH_FIND_SYMBOL_OPTIONS@@PAUtagWH_FIND_SYMBOL@@@Z@QBE@H@Z 10051b23 f   mod.obj
 0001:00050b50       __unwindfunclet$?FindNextSymbol2@LoadedMod@@QAEHPAXPAUtagWH_FIND_SYMBOL@@@Z$3 10051b50 f   mod.obj
 0001:00050b58       __unwindfunclet$?FindNextSymbol2@LoadedMod@@QAEHPAXPAUtagWH_FIND_SYMBOL@@@Z$2 10051b58 f   mod.obj
 0001:00050b65       __ehhandler$?FindNextSymbol2@LoadedMod@@QAEHPAXPAUtagWH_FIND_SYMBOL@@@Z 10051b65 f   mod.obj
 0001:00050b90       __ehhandler$??1SymbolEnum@@QAE@XZ 10051b90 f   mod.obj
 0001:00050bb0       __ehhandler$??1?$lambda_call@V<lambda_1>@?1??Load@Mod@@QAE_N_N@Z@@details@wil@@QAE@XZ 10051bb0 f   mod.obj
 0001:00050bb0       __ehhandler$??1?$lambda_call@V<lambda_2>@?BO@??HookSymbols@LoadedMod@@QAEHPAUHINSTANCE__@@PBUtagWH_SYMBOL_HOOK@@IPBUtagWH_HOOK_SYMBOLS_OPTIONS@@@Z@@details@wil@@QAE@XZ 10051bb0 f   mod.obj
 0001:00050bb0       __ehhandler$??1?$lambda_call@V<lambda_2>@?BP@??GetUrlContent@LoadedMod@@QAEPBUtagWH_URL_CONTENT@@PB_WPBUtagWH_GET_URL_CONTENT_OPTIONS@@@Z@@details@wil@@QAE@XZ 10051bb0 f   mod.obj
 0001:00050bb0       __ehhandler$??1?$lambda_call@V<lambda_3>@?BP@??GetUrlContent@LoadedMod@@QAEPBUtagWH_URL_CONTENT@@PB_WPBUtagWH_GET_URL_CONTENT_OPTIONS@@@Z@@details@wil@@QAE@XZ 10051bb0 f   mod.obj
 0001:00050bb0       __ehhandler$??1?$lambda_call@V<lambda_4>@?BP@??GetUrlContent@LoadedMod@@QAEPBUtagWH_URL_CONTENT@@PB_WPBUtagWH_GET_URL_CONTENT_OPTIONS@@@Z@@details@wil@@QAE@XZ 10051bb0 f   mod.obj
 0001:00050bb0       __ehhandler$??1?$unique_any_t@V?$unique_storage@U?$resource_policy@PA_WP6AXPA_W@Z$1?MySysFreeString@@YAX0@ZU?$integral_constant@I$0A@@wistd@@PA_WPA_W$0A@$$T@details@wil@@@details@wil@@@wil@@QAE@XZ 10051bb0 f   mod.obj
 0001:00050bb0       __ehhandler$??1?$lambda_call@V<lambda_1>@?1???0SymbolEnum@@QAE@PB_WPAUHINSTANCE__@@0W4UndecorateMode@2@UCallbacks@2@@Z@@details@wil@@QAE@XZ 10051bb0 f   symbol_enum.obj
 0001:00050bd0       __unwindfunclet$?HookSymbols@LoadedMod@@QAEHPAUHINSTANCE__@@PBUtagWH_SYMBOL_HOOK@@IPBUtagWH_HOOK_SYMBOLS_OPTIONS@@@Z$16 10051bd0 f   mod.obj
 0001:00050bd8       __unwindfunclet$?HookSymbols@LoadedMod@@QAEHPAUHINSTANCE__@@PBUtagWH_SYMBOL_HOOK@@IPBUtagWH_HOOK_SYMBOLS_OPTIONS@@@Z$2 10051bd8 f   mod.obj
 0001:00050be0       __unwindfunclet$?HookSymbols@LoadedMod@@QAEHPAUHINSTANCE__@@PBUtagWH_SYMBOL_HOOK@@IPBUtagWH_HOOK_SYMBOLS_OPTIONS@@@Z$3 10051be0 f   mod.obj
 0001:00050be8       __unwindfunclet$?HookSymbols@LoadedMod@@QAEHPAUHINSTANCE__@@PBUtagWH_SYMBOL_HOOK@@IPBUtagWH_HOOK_SYMBOLS_OPTIONS@@@Z$4 10051be8 f   mod.obj
 0001:00050bf3       __unwindfunclet$?HookSymbols@LoadedMod@@QAEHPAUHINSTANCE__@@PBUtagWH_SYMBOL_HOOK@@IPBUtagWH_HOOK_SYMBOLS_OPTIONS@@@Z$5 10051bf3 f   mod.obj
 0001:00050bfb       __unwindfunclet$?HookSymbols@LoadedMod@@QAEHPAUHINSTANCE__@@PBUtagWH_SYMBOL_HOOK@@IPBUtagWH_HOOK_SYMBOLS_OPTIONS@@@Z$6 10051bfb f   mod.obj
 0001:00050c06       __unwindfunclet$?HookSymbols@LoadedMod@@QAEHPAUHINSTANCE__@@PBUtagWH_SYMBOL_HOOK@@IPBUtagWH_HOOK_SYMBOLS_OPTIONS@@@Z$7 10051c06 f   mod.obj
 0001:00050c11       __unwindfunclet$?HookSymbols@LoadedMod@@QAEHPAUHINSTANCE__@@PBUtagWH_SYMBOL_HOOK@@IPBUtagWH_HOOK_SYMBOLS_OPTIONS@@@Z$8 10051c11 f   mod.obj
 0001:00050c1c       __unwindfunclet$?HookSymbols@LoadedMod@@QAEHPAUHINSTANCE__@@PBUtagWH_SYMBOL_HOOK@@IPBUtagWH_HOOK_SYMBOLS_OPTIONS@@@Z$9 10051c1c f   mod.obj
 0001:00050c27       __unwindfunclet$?HookSymbols@LoadedMod@@QAEHPAUHINSTANCE__@@PBUtagWH_SYMBOL_HOOK@@IPBUtagWH_HOOK_SYMBOLS_OPTIONS@@@Z$10 10051c27 f   mod.obj
 0001:00050c32       __unwindfunclet$?HookSymbols@LoadedMod@@QAEHPAUHINSTANCE__@@PBUtagWH_SYMBOL_HOOK@@IPBUtagWH_HOOK_SYMBOLS_OPTIONS@@@Z$11 10051c32 f   mod.obj
 0001:00050c3d       __unwindfunclet$?HookSymbols@LoadedMod@@QAEHPAUHINSTANCE__@@PBUtagWH_SYMBOL_HOOK@@IPBUtagWH_HOOK_SYMBOLS_OPTIONS@@@Z$12 10051c3d f   mod.obj
 0001:00050c48       __unwindfunclet$?HookSymbols@LoadedMod@@QAEHPAUHINSTANCE__@@PBUtagWH_SYMBOL_HOOK@@IPBUtagWH_HOOK_SYMBOLS_OPTIONS@@@Z$13 10051c48 f   mod.obj
 0001:00050c53       __unwindfunclet$?HookSymbols@LoadedMod@@QAEHPAUHINSTANCE__@@PBUtagWH_SYMBOL_HOOK@@IPBUtagWH_HOOK_SYMBOLS_OPTIONS@@@Z$14 10051c53 f   mod.obj
 0001:00050c5e       __unwindfunclet$?HookSymbols@LoadedMod@@QAEHPAUHINSTANCE__@@PBUtagWH_SYMBOL_HOOK@@IPBUtagWH_HOOK_SYMBOLS_OPTIONS@@@Z$182 10051c5e f   mod.obj
 0001:00050c66       __unwindfunclet$?HookSymbols@LoadedMod@@QAEHPAUHINSTANCE__@@PBUtagWH_SYMBOL_HOOK@@IPBUtagWH_HOOK_SYMBOLS_OPTIONS@@@Z$15 10051c66 f   mod.obj
 0001:00050c73       __ehhandler$?HookSymbols@LoadedMod@@QAEHPAUHINSTANCE__@@PBUtagWH_SYMBOL_HOOK@@IPBUtagWH_HOOK_SYMBOLS_OPTIONS@@@Z 10051c73 f   mod.obj
 0001:00050ca0       __unwindfunclet$?GetUrlContent@LoadedMod@@QAEPBUtagWH_URL_CONTENT@@PB_WPBUtagWH_GET_URL_CONTENT_OPTIONS@@@Z$32 10051ca0 f   mod.obj
 0001:00050ca8       __unwindfunclet$?GetUrlContent@LoadedMod@@QAEPBUtagWH_URL_CONTENT@@PB_WPBUtagWH_GET_URL_CONTENT_OPTIONS@@@Z$2 10051ca8 f   mod.obj
 0001:00050cb0       __unwindfunclet$?GetUrlContent@LoadedMod@@QAEPBUtagWH_URL_CONTENT@@PB_WPBUtagWH_GET_URL_CONTENT_OPTIONS@@@Z$13 10051cb0 f   mod.obj
 0001:00050cbb       __unwindfunclet$?GetUrlContent@LoadedMod@@QAEPBUtagWH_URL_CONTENT@@PB_WPBUtagWH_GET_URL_CONTENT_OPTIONS@@@Z$3 10051cbb f   mod.obj
 0001:00050cc3       __unwindfunclet$?GetUrlContent@LoadedMod@@QAEPBUtagWH_URL_CONTENT@@PB_WPBUtagWH_GET_URL_CONTENT_OPTIONS@@@Z$4 10051cc3 f   mod.obj
 0001:00050cce       __unwindfunclet$?GetUrlContent@LoadedMod@@QAEPBUtagWH_URL_CONTENT@@PB_WPBUtagWH_GET_URL_CONTENT_OPTIONS@@@Z$5 10051cce f   mod.obj
 0001:00050cd6       __unwindfunclet$?GetUrlContent@LoadedMod@@QAEPBUtagWH_URL_CONTENT@@PB_WPBUtagWH_GET_URL_CONTENT_OPTIONS@@@Z$6 10051cd6 f   mod.obj
 0001:00050ce1       __unwindfunclet$?GetUrlContent@LoadedMod@@QAEPBUtagWH_URL_CONTENT@@PB_WPBUtagWH_GET_URL_CONTENT_OPTIONS@@@Z$7 10051ce1 f   mod.obj
 0001:00050cec       __unwindfunclet$?GetUrlContent@LoadedMod@@QAEPBUtagWH_URL_CONTENT@@PB_WPBUtagWH_GET_URL_CONTENT_OPTIONS@@@Z$8 10051cec f   mod.obj
 0001:00050cf4       __unwindfunclet$?GetUrlContent@LoadedMod@@QAEPBUtagWH_URL_CONTENT@@PB_WPBUtagWH_GET_URL_CONTENT_OPTIONS@@@Z$9 10051cf4 f   mod.obj
 0001:00050cff       __unwindfunclet$?GetUrlContent@LoadedMod@@QAEPBUtagWH_URL_CONTENT@@PB_WPBUtagWH_GET_URL_CONTENT_OPTIONS@@@Z$10 10051cff f   mod.obj
 0001:00050d07       __unwindfunclet$?GetUrlContent@LoadedMod@@QAEPBUtagWH_URL_CONTENT@@PB_WPBUtagWH_GET_URL_CONTENT_OPTIONS@@@Z$11 10051d07 f   mod.obj
 0001:00050d14       __ehhandler$?GetUrlContent@LoadedMod@@QAEPBUtagWH_URL_CONTENT@@PB_WPBUtagWH_GET_URL_CONTENT_OPTIONS@@@Z 10051d14 f   mod.obj
 0001:00050d40       __unwindfunclet$??0WinHttpFunctions@?1??GetUrlContent@LoadedMod@@QAEPBUtagWH_URL_CONTENT@@PB_WPBUtagWH_GET_URL_CONTENT_OPTIONS@@@Z@QAE@XZ$0 10051d40 f   mod.obj
 0001:00050d48       __unwindfunclet$??0WinHttpFunctions@?1??GetUrlContent@LoadedMod@@QAEPBUtagWH_URL_CONTENT@@PB_WPBUtagWH_GET_URL_CONTENT_OPTIONS@@@Z@QAE@XZ$1 10051d48 f   mod.obj
 0001:00050d55       __ehhandler$??0WinHttpFunctions@?1??GetUrlContent@LoadedMod@@QAEPBUtagWH_URL_CONTENT@@PB_WPBUtagWH_GET_URL_CONTENT_OPTIONS@@@Z@QAE@XZ 10051d55 f   mod.obj
 0001:00050d80       __unwindfunclet$?HookSymbolsGetOnlineCache@LoadedMod@@AAE?AV?$optional@V?$basic_string@_WU?$char_traits@_W@std@@V?$allocator@_W@2@@std@@@std@@PB_WV?$basic_string_view@_WU?$char_traits@_W@std@@@3@@Z$0 10051d80 f   mod.obj
 0001:00050d88       __unwindfunclet$?HookSymbolsGetOnlineCache@LoadedMod@@AAE?AV?$optional@V?$basic_string@_WU?$char_traits@_W@std@@V?$allocator@_W@2@@std@@@std@@PB_WV?$basic_string_view@_WU?$char_traits@_W@std@@@3@@Z$3 10051d88 f   mod.obj
 0001:00050d95       __ehhandler$?HookSymbolsGetOnlineCache@LoadedMod@@AAE?AV?$optional@V?$basic_string@_WU?$char_traits@_W@std@@V?$allocator@_W@2@@std@@@std@@PB_WV?$basic_string_view@_WU?$char_traits@_W@std@@@3@@Z 10051d95 f   mod.obj
 0001:00050dc0       __ehhandler$?SetTask@LoadedMod@@AAEXPB_W@Z 10051dc0 f   mod.obj
 0001:00050de0       __unwindfunclet$??0Mod@@QAE@PB_W@Z$0 10051de0 f   mod.obj
 0001:00050de8       __unwindfunclet$??0Mod@@QAE@PB_W@Z$1 10051de8 f   mod.obj
 0001:00050df3       __unwindfunclet$??0Mod@@QAE@PB_W@Z$2 10051df3 f   mod.obj
 0001:00050dfe       __unwindfunclet$??0Mod@@QAE@PB_W@Z$3 10051dfe f   mod.obj
 0001:00050e09       __unwindfunclet$??0Mod@@QAE@PB_W@Z$4 10051e09 f   mod.obj
 0001:00050e19       __ehhandler$??0Mod@@QAE@PB_W@Z 10051e19 f   mod.obj
 0001:00050e40       __unwindfunclet$?Load@Mod@@QAE_N_N@Z$0 10051e40 f   mod.obj
 0001:00050e48       __unwindfunclet$?Load@Mod@@QAE_N_N@Z$1 10051e48 f   mod.obj
 0001:00050e50       __unwindfunclet$?Load@Mod@@QAE_N_N@Z$2 10051e50 f   mod.obj
 0001:00050e5b       __unwindfunclet$?Load@Mod@@QAE_N_N@Z$4 10051e5b f   mod.obj
 0001:00050e63       __unwindfunclet$?Load@Mod@@QAE_N_N@Z$22 10051e63 f   mod.obj
 0001:00050e6e       __unwindfunclet$?Load@Mod@@QAE_N_N@Z$23 10051e6e f   mod.obj
 0001:00050e76       __unwindfunclet$?Load@Mod@@QAE_N_N@Z$24 10051e76 f   mod.obj
 0001:00050e81       __unwindfunclet$?Load@Mod@@QAE_N_N@Z$5 10051e81 f   mod.obj
 0001:00050e8c       __unwindfunclet$?Load@Mod@@QAE_N_N@Z$6 10051e8c f   mod.obj
 0001:00050e94       __unwindfunclet$?Load@Mod@@QAE_N_N@Z$46 10051e94 f   mod.obj
 0001:00050ea8       __ehhandler$?Load@Mod@@QAE_N_N@Z 10051ea8 f   mod.obj
 0001:00050ee0       __unwindfunclet$?ApplyChangedSettings@Mod@@QAE_NPA_N@Z$0 10051ee0 f   mod.obj
 0001:00050ee8       __unwindfunclet$?ApplyChangedSettings@Mod@@QAE_NPA_N@Z$1 10051ee8 f   mod.obj
 0001:00050ef0       __unwindfunclet$?ApplyChangedSettings@Mod@@QAE_NPA_N@Z$12 10051ef0 f   mod.obj
 0001:00050ef8       __unwindfunclet$?ApplyChangedSettings@Mod@@QAE_NPA_N@Z$11 10051ef8 f   mod.obj
 0001:00050f05       __ehhandler$?ApplyChangedSettings@Mod@@QAE_NPA_N@Z 10051f05 f   mod.obj
 0001:00050f30       __unwindfunclet$?ShouldLoadInRunningProcess@Mod@@SA_NPB_W@Z$0 10051f30 f   mod.obj
 0001:00050f38       __unwindfunclet$?ShouldLoadInRunningProcess@Mod@@SA_NPB_W@Z$1 10051f38 f   mod.obj
 0001:00050f40       __unwindfunclet$?ShouldLoadInRunningProcess@Mod@@SA_NPB_W@Z$2 10051f40 f   mod.obj
 0001:00050f48       __unwindfunclet$?ShouldLoadInRunningProcess@Mod@@SA_NPB_W@Z$3 10051f48 f   mod.obj
 0001:00050f50       __unwindfunclet$?ShouldLoadInRunningProcess@Mod@@SA_NPB_W@Z$4 10051f50 f   mod.obj
 0001:00050f6c       __unwindfunclet$?ShouldLoadInRunningProcess@Mod@@SA_NPB_W@Z$5 10051f6c f   mod.obj
 0001:00050f85       __unwindfunclet$?ShouldLoadInRunningProcess@Mod@@SA_NPB_W@Z$6 10051f85 f   mod.obj
 0001:00050fa1       __unwindfunclet$?ShouldLoadInRunningProcess@Mod@@SA_NPB_W@Z$7 10051fa1 f   mod.obj
 0001:00050fbd       __unwindfunclet$?ShouldLoadInRunningProcess@Mod@@SA_NPB_W@Z$8 10051fbd f   mod.obj
 0001:00050fd9       __unwindfunclet$?ShouldLoadInRunningProcess@Mod@@SA_NPB_W@Z$9 10051fd9 f   mod.obj
 0001:00050ff5       __unwindfunclet$?ShouldLoadInRunningProcess@Mod@@SA_NPB_W@Z$10 10051ff5 f   mod.obj
 0001:00051011       __unwindfunclet$?ShouldLoadInRunningProcess@Mod@@SA_NPB_W@Z$11 10052011 f   mod.obj
 0001:00051034       __ehhandler$?ShouldLoadInRunningProcess@Mod@@SA_NPB_W@Z 10052034 f   mod.obj
 0001:00051060       __ehhandler$?SetStatus@Mod@@AAEXPB_W@Z 10052060 f   mod.obj
 0001:00051080       __unwindfunclet$??$QueryFullProcessImageNameW@V?$basic_string@_WU?$char_traits@_W@std@@V?$allocator@_W@2@@std@@$0BAA@@wil@@YA?AV?$basic_string@_WU?$char_traits@_W@std@@V?$allocator@_W@2@@std@@PAXK@Z$0 10052080 f   mod.obj
 0001:0005109e       __ehhandler$??$QueryFullProcessImageNameW@V?$basic_string@_WU?$char_traits@_W@std@@V?$allocator@_W@2@@std@@$0BAA@@wil@@YA?AV?$basic_string@_WU?$char_traits@_W@std@@V?$allocator@_W@2@@std@@PAXK@Z 1005209e f   mod.obj
 0001:000510c0       __unwindfunclet$??$make_unique@VSymbolEnum@@PB_WAAPAUHINSTANCE__@@AAY00$$CB_WAAW4UndecorateMode@1@$0A@@std@@YA?AV?$unique_ptr@VSymbolEnum@@U?$default_delete@VSymbolEnum@@@std@@@0@$$QAPB_WAAPAUHINSTANCE__@@AAY00$$CB_WAAW4UndecorateMode@SymbolEnum@@@Z$0 100520c0 f   mod.obj
 0001:000510cf       __unwindfunclet$??$make_unique@VSymbolEnum@@PB_WAAPAUHINSTANCE__@@AAY00$$CB_WAAW4UndecorateMode@1@$0A@@std@@YA?AV?$unique_ptr@VSymbolEnum@@U?$default_delete@VSymbolEnum@@@std@@@0@$$QAPB_WAAPAUHINSTANCE__@@AAY00$$CB_WAAW4UndecorateMode@SymbolEnum@@@Z$3 100520cf f   mod.obj
 0001:000510ed       __ehhandler$??$make_unique@VSymbolEnum@@PB_WAAPAUHINSTANCE__@@AAY00$$CB_WAAW4UndecorateMode@1@$0A@@std@@YA?AV?$unique_ptr@VSymbolEnum@@U?$default_delete@VSymbolEnum@@@std@@@0@$$QAPB_WAAPAUHINSTANCE__@@AAY00$$CB_WAAW4UndecorateMode@SymbolEnum@@@Z 100520ed f   mod.obj
 0001:00051110       __ehhandler$??1?$lambda_call@V<lambda_1>@?BG@??HookSymbolsGetOnlineCache@LoadedMod@@AAE?AV?$optional@V?$basic_string@_WU?$char_traits@_W@std@@V?$allocator@_W@2@@std@@@std@@PB_WV?$basic_string_view@_WU?$char_traits@_W@std@@@5@@Z@@details@wil@@QAE@XZ 10052110 f   mod.obj
 0001:00051110       __ehhandler$??1?$lambda_call@V<lambda_4>@?BO@??HookSymbols@LoadedMod@@QAEHPAUHINSTANCE__@@PBUtagWH_SYMBOL_HOOK@@IPBUtagWH_HOOK_SYMBOLS_OPTIONS@@@Z@@details@wil@@QAE@XZ 10052110 f   mod.obj
 0001:00051140       __ehhandler$??1?$lambda_call@V<lambda_1>@?BO@??HookSymbols@LoadedMod@@QAEHPAUHINSTANCE__@@PBUtagWH_SYMBOL_HOOK@@IPBUtagWH_HOOK_SYMBOLS_OPTIONS@@@Z@@details@wil@@QAE@XZ 10052140 f   mod.obj
 0001:00051140       __ehhandler$??1?$lambda_call@V<lambda_1>@?L@??FindFirstSymbol4@LoadedMod@@QAEPAXPAUHINSTANCE__@@PBUtagWH_FIND_SYMBOL_OPTIONS@@PAUtagWH_FIND_SYMBOL@@@Z@@details@wil@@QAE@XZ 10052140 f   mod.obj
 0001:00051160       __ehhandler$??_GModDebugLoggingScope@?A0x64030c04@@QAEPAXI@Z 10052160 f   mod.obj
 0001:00051180       __unwindfunclet$??0ModsManager@@QAE@XZ$5 10052180 f   mods_manager.obj
 0001:0005118b       __unwindfunclet$??0ModsManager@@QAE@XZ$6 1005218b f   mods_manager.obj
 0001:00051196       __unwindfunclet$??0ModsManager@@QAE@XZ$2 10052196 f   mods_manager.obj
 0001:000511a3       __ehhandler$??0ModsManager@@QAE@XZ 100521a3 f   mods_manager.obj
 0001:000511c0       __ehhandler$??R<lambda_1>@?1???0ModsManager@@QAE@XZ@QBE@PB_W@Z 100521c0 f   mods_manager.obj
 0001:000511f0       __unwindfunclet$??1ModsManager@@QAE@XZ$2 100521f0 f   mods_manager.obj
 0001:000511f8       __unwindfunclet$??1ModsManager@@QAE@XZ$3 100521f8 f   mods_manager.obj
 0001:00051200       __unwindfunclet$??1ModsManager@@QAE@XZ$5 10052200 f   mods_manager.obj
 0001:00051208       __unwindfunclet$??1ModsManager@@QAE@XZ$4 10052208 f   mods_manager.obj
 0001:00051215       __ehhandler$??1ModsManager@@QAE@XZ 10052215 f   mods_manager.obj
 0001:00051240       __unwindfunclet$?AfterInit@ModsManager@@QAEXXZ$3 10052240 f   mods_manager.obj
 0001:00051248       __unwindfunclet$?AfterInit@ModsManager@@QAEXXZ$2 10052248 f   mods_manager.obj
 0001:00051255       __ehhandler$?AfterInit@ModsManager@@QAEXXZ 10052255 f   mods_manager.obj
 0001:00051280       __ehhandler$?BeforeUninit@ModsManager@@QAEXXZ 10052280 f   mods_manager.obj
 0001:000512a0       __unwindfunclet$?ReloadModsAndSettings@ModsManager@@QAEXXZ$49 100522a0 f   mods_manager.obj
 0001:000512a8       __unwindfunclet$?ReloadModsAndSettings@ModsManager@@QAEXXZ$50 100522a8 f   mods_manager.obj
 0001:000512b0       __unwindfunclet$?ReloadModsAndSettings@ModsManager@@QAEXXZ$10 100522b0 f   mods_manager.obj
 0001:000512b8       __unwindfunclet$?ReloadModsAndSettings@ModsManager@@QAEXXZ$52 100522b8 f   mods_manager.obj
 0001:000512c0       __unwindfunclet$?ReloadModsAndSettings@ModsManager@@QAEXXZ$53 100522c0 f   mods_manager.obj
 0001:000512c8       __unwindfunclet$?ReloadModsAndSettings@ModsManager@@QAEXXZ$11 100522c8 f   mods_manager.obj
 0001:000512d0       __unwindfunclet$?ReloadModsAndSettings@ModsManager@@QAEXXZ$12 100522d0 f   mods_manager.obj
 0001:000512d8       __unwindfunclet$?ReloadModsAndSettings@ModsManager@@QAEXXZ$14 100522d8 f   mods_manager.obj
 0001:000512e0       __unwindfunclet$?ReloadModsAndSettings@ModsManager@@QAEXXZ$34 100522e0 f   mods_manager.obj
 0001:000512e8       __unwindfunclet$?ReloadModsAndSettings@ModsManager@@QAEXXZ$33 100522e8 f   mods_manager.obj
 0001:000512f0       __unwindfunclet$?ReloadModsAndSettings@ModsManager@@QAEXXZ$15 100522f0 f   mods_manager.obj
 0001:000512f8       __unwindfunclet$?ReloadModsAndSettings@ModsManager@@QAEXXZ$19 100522f8 f   mods_manager.obj
 0001:00051300       __unwindfunclet$?ReloadModsAndSettings@ModsManager@@QAEXXZ$18 10052300 f   mods_manager.obj
 0001:0005130d       __ehhandler$?ReloadModsAndSettings@ModsManager@@QAEXXZ 1005230d f   mods_manager.obj
 0001:00051340       __ehhandler$??R<lambda_1>@?1??ReloadModsAndSettings@ModsManager@@QAEXXZ@QBE@PB_W@Z 10052340 f   mods_manager.obj
 0001:00051370       __unwindfunclet$??$emplace@AAPB_WAAPB_W@?$_Hash@V?$_Umap_traits@V?$basic_string@_WU?$char_traits@_W@std@@V?$allocator@_W@2@@std@@VMod@@V?$_Uhash_compare@V?$basic_string@_WU?$char_traits@_W@std@@V?$allocator@_W@2@@std@@U?$hash@V?$basic_string@_WU?$char_traits@_W@std@@V?$allocator@_W@2@@std@@@2@U?$equal_to@V?$basic_string@_WU?$char_traits@_W@std@@V?$allocator@_W@2@@std@@@2@@2@V?$allocator@U?$pair@$$CBV?$basic_string@_WU?$char_traits@_W@std@@V?$allocator@_W@2@@std@@VMod@@@std@@@2@$0A@@std@@@std@@QAE?AU?$pair@V?$_List_iterator@V?$_List_val@U?$_List_simple_types@U?$pair@$$CBV?$basic_string@_WU?$char_traits@_W@std@@V?$allocator@_W@2@@std@@VMod@@@std@@@std@@@std@@@std@@_N@1@AAPB_W0@Z$1 10052370 f   mods_manager.obj
 0001:00051378       __unwindfunclet$??$emplace@AAPB_WAAPB_W@?$_Hash@V?$_Umap_traits@V?$basic_string@_WU?$char_traits@_W@std@@V?$allocator@_W@2@@std@@VMod@@V?$_Uhash_compare@V?$basic_string@_WU?$char_traits@_W@std@@V?$allocator@_W@2@@std@@U?$hash@V?$basic_string@_WU?$char_traits@_W@std@@V?$allocator@_W@2@@std@@@2@U?$equal_to@V?$basic_string@_WU?$char_traits@_W@std@@V?$allocator@_W@2@@std@@@2@@2@V?$allocator@U?$pair@$$CBV?$basic_string@_WU?$char_traits@_W@std@@V?$allocator@_W@2@@std@@VMod@@@std@@@2@$0A@@std@@@std@@QAE?AU?$pair@V?$_List_iterator@V?$_List_val@U?$_List_simple_types@U?$pair@$$CBV?$basic_string@_WU?$char_traits@_W@std@@V?$allocator@_W@2@@std@@VMod@@@std@@@std@@@std@@@std@@_N@1@AAPB_W0@Z$2 10052378 f   mods_manager.obj
 0001:00051380       __unwindfunclet$??$emplace@AAPB_WAAPB_W@?$_Hash@V?$_Umap_traits@V?$basic_string@_WU?$char_traits@_W@std@@V?$allocator@_W@2@@std@@VMod@@V?$_Uhash_compare@V?$basic_string@_WU?$char_traits@_W@std@@V?$allocator@_W@2@@std@@U?$hash@V?$basic_string@_WU?$char_traits@_W@std@@V?$allocator@_W@2@@std@@@2@U?$equal_to@V?$basic_string@_WU?$char_traits@_W@std@@V?$allocator@_W@2@@std@@@2@@2@V?$allocator@U?$pair@$$CBV?$basic_string@_WU?$char_traits@_W@std@@V?$allocator@_W@2@@std@@VMod@@@std@@@2@$0A@@std@@@std@@QAE?AU?$pair@V?$_List_iterator@V?$_List_val@U?$_List_simple_types@U?$pair@$$CBV?$basic_string@_WU?$char_traits@_W@std@@V?$allocator@_W@2@@std@@VMod@@@std@@@std@@@std@@@std@@_N@1@AAPB_W0@Z$0 10052380 f   mods_manager.obj
 0001:0005138d       __ehhandler$??$emplace@AAPB_WAAPB_W@?$_Hash@V?$_Umap_traits@V?$basic_string@_WU?$char_traits@_W@std@@V?$allocator@_W@2@@std@@VMod@@V?$_Uhash_compare@V?$basic_string@_WU?$char_traits@_W@std@@V?$allocator@_W@2@@std@@U?$hash@V?$basic_string@_WU?$char_traits@_W@std@@V?$allocator@_W@2@@std@@@2@U?$equal_to@V?$basic_string@_WU?$char_traits@_W@std@@V?$allocator@_W@2@@std@@@2@@2@V?$allocator@U?$pair@$$CBV?$basic_string@_WU?$char_traits@_W@std@@V?$allocator@_W@2@@std@@VMod@@@std@@@2@$0A@@std@@@std@@QAE?AU?$pair@V?$_List_iterator@V?$_List_val@U?$_List_simple_types@U?$pair@$$CBV?$basic_string@_WU?$char_traits@_W@std@@V?$allocator@_W@2@@std@@VMod@@@std@@@std@@@std@@@std@@_N@1@AAPB_W0@Z 1005238d f   mods_manager.obj
 0001:000513b0       __unwindfunclet$??$emplace@AAPB_W@?$_Hash@V?$_Uset_traits@V?$basic_string@_WU?$char_traits@_W@std@@V?$allocator@_W@2@@std@@V?$_Uhash_compare@V?$basic_string@_WU?$char_traits@_W@std@@V?$allocator@_W@2@@std@@U?$hash@V?$basic_string@_WU?$char_traits@_W@std@@V?$allocator@_W@2@@std@@@2@U?$equal_to@V?$basic_string@_WU?$char_traits@_W@std@@V?$allocator@_W@2@@std@@@2@@2@V?$allocator@V?$basic_string@_WU?$char_traits@_W@std@@V?$allocator@_W@2@@std@@@2@$0A@@std@@@std@@QAE?AU?$pair@V?$_List_const_iterator@V?$_List_val@U?$_List_simple_types@V?$basic_string@_WU?$char_traits@_W@std@@V?$allocator@_W@2@@std@@@std@@@std@@@std@@_N@1@AAPB_W@Z$1 100523b0 f   mods_manager.obj
 0001:000513b8       __unwindfunclet$??$emplace@AAPB_W@?$_Hash@V?$_Uset_traits@V?$basic_string@_WU?$char_traits@_W@std@@V?$allocator@_W@2@@std@@V?$_Uhash_compare@V?$basic_string@_WU?$char_traits@_W@std@@V?$allocator@_W@2@@std@@U?$hash@V?$basic_string@_WU?$char_traits@_W@std@@V?$allocator@_W@2@@std@@@2@U?$equal_to@V?$basic_string@_WU?$char_traits@_W@std@@V?$allocator@_W@2@@std@@@2@@2@V?$allocator@V?$basic_string@_WU?$char_traits@_W@std@@V?$allocator@_W@2@@std@@@2@$0A@@std@@@std@@QAE?AU?$pair@V?$_List_const_iterator@V?$_List_val@U?$_List_simple_types@V?$basic_string@_WU?$char_traits@_W@std@@V?$allocator@_W@2@@std@@@std@@@std@@@std@@_N@1@AAPB_W@Z$0 100523b8 f   mods_manager.obj
 0001:000513c5       __ehhandler$??$emplace@AAPB_W@?$_Hash@V?$_Uset_traits@V?$basic_string@_WU?$char_traits@_W@std@@V?$allocator@_W@2@@std@@V?$_Uhash_compare@V?$basic_string@_WU?$char_traits@_W@std@@V?$allocator@_W@2@@std@@U?$hash@V?$basic_string@_WU?$char_traits@_W@std@@V?$allocator@_W@2@@std@@@2@U?$equal_to@V?$basic_string@_WU?$char_traits@_W@std@@V?$allocator@_W@2@@std@@@2@@2@V?$allocator@V?$basic_string@_WU?$char_traits@_W@std@@V?$allocator@_W@2@@std@@@2@$0A@@std@@@std@@QAE?AU?$pair@V?$_List_const_iterator@V?$_List_val@U?$_List_simple_types@V?$basic_string@_WU?$char_traits@_W@std@@V?$allocator@_W@2@@std@@@std@@@std@@@std@@_N@1@AAPB_W@Z 100523c5 f   mods_manager.obj
 0001:000513f0       __unwindfunclet$??$emplace@ABV?$basic_string@_WU?$char_traits@_W@std@@V?$allocator@_W@2@@std@@PB_W@?$_Hash@V?$_Umap_traits@V?$basic_string@_WU?$char_traits@_W@std@@V?$allocator@_W@2@@std@@VMod@@V?$_Uhash_compare@V?$basic_string@_WU?$char_traits@_W@std@@V?$allocator@_W@2@@std@@U?$hash@V?$basic_string@_WU?$char_traits@_W@std@@V?$allocator@_W@2@@std@@@2@U?$equal_to@V?$basic_string@_WU?$char_traits@_W@std@@V?$allocator@_W@2@@std@@@2@@2@V?$allocator@U?$pair@$$CBV?$basic_string@_WU?$char_traits@_W@std@@V?$allocator@_W@2@@std@@VMod@@@std@@@2@$0A@@std@@@std@@QAE?AU?$pair@V?$_List_iterator@V?$_List_val@U?$_List_simple_types@U?$pair@$$CBV?$basic_string@_WU?$char_traits@_W@std@@V?$allocator@_W@2@@std@@VMod@@@std@@@std@@@std@@@std@@_N@1@ABV?$basic_string@_WU?$char_traits@_W@std@@V?$allocator@_W@2@@1@$$QAPB_W@Z$1 100523f0 f   mods_manager.obj
 0001:000513f8       __unwindfunclet$??$emplace@ABV?$basic_string@_WU?$char_traits@_W@std@@V?$allocator@_W@2@@std@@PB_W@?$_Hash@V?$_Umap_traits@V?$basic_string@_WU?$char_traits@_W@std@@V?$allocator@_W@2@@std@@VMod@@V?$_Uhash_compare@V?$basic_string@_WU?$char_traits@_W@std@@V?$allocator@_W@2@@std@@U?$hash@V?$basic_string@_WU?$char_traits@_W@std@@V?$allocator@_W@2@@std@@@2@U?$equal_to@V?$basic_string@_WU?$char_traits@_W@std@@V?$allocator@_W@2@@std@@@2@@2@V?$allocator@U?$pair@$$CBV?$basic_string@_WU?$char_traits@_W@std@@V?$allocator@_W@2@@std@@VMod@@@std@@@2@$0A@@std@@@std@@QAE?AU?$pair@V?$_List_iterator@V?$_List_val@U?$_List_simple_types@U?$pair@$$CBV?$basic_string@_WU?$char_traits@_W@std@@V?$allocator@_W@2@@std@@VMod@@@std@@@std@@@std@@@std@@_N@1@ABV?$basic_string@_WU?$char_traits@_W@std@@V?$allocator@_W@2@@1@$$QAPB_W@Z$2 100523f8 f   mods_manager.obj
 0001:00051400       __unwindfunclet$??$emplace@ABV?$basic_string@_WU?$char_traits@_W@std@@V?$allocator@_W@2@@std@@PB_W@?$_Hash@V?$_Umap_traits@V?$basic_string@_WU?$char_traits@_W@std@@V?$allocator@_W@2@@std@@VMod@@V?$_Uhash_compare@V?$basic_string@_WU?$char_traits@_W@std@@V?$allocator@_W@2@@std@@U?$hash@V?$basic_string@_WU?$char_traits@_W@std@@V?$allocator@_W@2@@std@@@2@U?$equal_to@V?$basic_string@_WU?$char_traits@_W@std@@V?$allocator@_W@2@@std@@@2@@2@V?$allocator@U?$pair@$$CBV?$basic_string@_WU?$char_traits@_W@std@@V?$allocator@_W@2@@std@@VMod@@@std@@@2@$0A@@std@@@std@@QAE?AU?$pair@V?$_List_iterator@V?$_List_val@U?$_List_simple_types@U?$pair@$$CBV?$basic_string@_WU?$char_traits@_W@std@@V?$allocator@_W@2@@std@@VMod@@@std@@@std@@@std@@@std@@_N@1@ABV?$basic_string@_WU?$char_traits@_W@std@@V?$allocator@_W@2@@1@$$QAPB_W@Z$0 10052400 f   mods_manager.obj
 0001:0005140d       __ehhandler$??$emplace@ABV?$basic_string@_WU?$char_traits@_W@std@@V?$allocator@_W@2@@std@@PB_W@?$_Hash@V?$_Umap_traits@V?$basic_string@_WU?$char_traits@_W@std@@V?$allocator@_W@2@@std@@VMod@@V?$_Uhash_compare@V?$basic_string@_WU?$char_traits@_W@std@@V?$allocator@_W@2@@std@@U?$hash@V?$basic_string@_WU?$char_traits@_W@std@@V?$allocator@_W@2@@std@@@2@U?$equal_to@V?$basic_string@_WU?$char_traits@_W@std@@V?$allocator@_W@2@@std@@@2@@2@V?$allocator@U?$pair@$$CBV?$basic_string@_WU?$char_traits@_W@std@@V?$allocator@_W@2@@std@@VMod@@@std@@@2@$0A@@std@@@std@@QAE?AU?$pair@V?$_List_iterator@V?$_List_val@U?$_List_simple_types@U?$pair@$$CBV?$basic_string@_WU?$char_traits@_W@std@@V?$allocator@_W@2@@std@@VMod@@@std@@@std@@@std@@@std@@_N@1@ABV?$basic_string@_WU?$char_traits@_W@std@@V?$allocator@_W@2@@1@$$QAPB_W@Z 1005240d f   mods_manager.obj
 0001:00051430       __unwindfunclet$??$_Emplace_reallocate@AAPB_W@?$vector@V?$basic_string@_WU?$char_traits@_W@std@@V?$allocator@_W@2@@std@@V?$allocator@V?$basic_string@_WU?$char_traits@_W@std@@V?$allocator@_W@2@@std@@@2@@std@@AAEPAV?$basic_string@_WU?$char_traits@_W@std@@V?$allocator@_W@2@@1@QAV21@AAPB_W@Z$0 10052430 f   mods_manager.obj
 0001:0005143d       __ehhandler$??$_Emplace_reallocate@AAPB_W@?$vector@V?$basic_string@_WU?$char_traits@_W@std@@V?$allocator@_W@2@@std@@V?$allocator@V?$basic_string@_WU?$char_traits@_W@std@@V?$allocator@_W@2@@std@@@2@@std@@AAEPAV?$basic_string@_WU?$char_traits@_W@std@@V?$allocator@_W@2@@1@QAV21@AAPB_W@Z 1005243d f   mods_manager.obj
 0001:00051460       __unwindfunclet$??0NewProcessInjector@@QAE@PAX@Z$0 10052460 f   new_process_injector.obj
 0001:0005146b       __unwindfunclet$??0NewProcessInjector@@QAE@PAX@Z$1 1005246b f   new_process_injector.obj
 0001:00051476       __unwindfunclet$??0NewProcessInjector@@QAE@PAX@Z$2 10052476 f   new_process_injector.obj
 0001:00051481       __unwindfunclet$??0NewProcessInjector@@QAE@PAX@Z$3 10052481 f   new_process_injector.obj
 0001:00051489       __unwindfunclet$??0NewProcessInjector@@QAE@PAX@Z$4 10052489 f   new_process_injector.obj
 0001:00051491       __unwindfunclet$??0NewProcessInjector@@QAE@PAX@Z$6 10052491 f   new_process_injector.obj
 0001:00051499       __unwindfunclet$??0NewProcessInjector@@QAE@PAX@Z$8 10052499 f   new_process_injector.obj
 0001:000514a6       __ehhandler$??0NewProcessInjector@@QAE@PAX@Z 100524a6 f   new_process_injector.obj
 0001:000514d0       __unwindfunclet$?HandleCreatedProcess@NewProcessInjector@@AAEXPAU_PROCESS_INFORMATION@@@Z$2 100524d0 f   new_process_injector.obj
 0001:000514db       __unwindfunclet$?HandleCreatedProcess@NewProcessInjector@@AAEXPAU_PROCESS_INFORMATION@@@Z$6 100524db f   new_process_injector.obj
 0001:000514e6       __unwindfunclet$?HandleCreatedProcess@NewProcessInjector@@AAEXPAU_PROCESS_INFORMATION@@@Z$7 100524e6 f   new_process_injector.obj
 0001:000514f1       __unwindfunclet$?HandleCreatedProcess@NewProcessInjector@@AAEXPAU_PROCESS_INFORMATION@@@Z$3 100524f1 f   new_process_injector.obj
 0001:000514fc       __unwindfunclet$?HandleCreatedProcess@NewProcessInjector@@AAEXPAU_PROCESS_INFORMATION@@@Z$21 100524fc f   new_process_injector.obj
 0001:00051507       __unwindfunclet$?HandleCreatedProcess@NewProcessInjector@@AAEXPAU_PROCESS_INFORMATION@@@Z$4 10052507 f   new_process_injector.obj
 0001:00051517       __ehhandler$?HandleCreatedProcess@NewProcessInjector@@AAEXPAU_PROCESS_INFORMATION@@@Z 10052517 f   new_process_injector.obj
 0001:00051550       __unwindfunclet$??R<lambda_1>@?BE@??HandleCreatedProcess@NewProcessInjector@@AAEXPAU_PROCESS_INFORMATION@@@Z@QBE@XZ$2 10052550 f   new_process_injector.obj
 0001:00051558       __unwindfunclet$??R<lambda_1>@?BE@??HandleCreatedProcess@NewProcessInjector@@AAEXPAU_PROCESS_INFORMATION@@@Z@QBE@XZ$3 10052558 f   new_process_injector.obj
 0001:00051560       __unwindfunclet$??R<lambda_1>@?BE@??HandleCreatedProcess@NewProcessInjector@@AAEXPAU_PROCESS_INFORMATION@@@Z@QBE@XZ$4 10052560 f   new_process_injector.obj
 0001:00051568       __unwindfunclet$??R<lambda_1>@?BE@??HandleCreatedProcess@NewProcessInjector@@AAEXPAU_PROCESS_INFORMATION@@@Z@QBE@XZ$5 10052568 f   new_process_injector.obj
 0001:00051575       __ehhandler$??R<lambda_1>@?BE@??HandleCreatedProcess@NewProcessInjector@@AAEXPAU_PROCESS_INFORMATION@@@Z@QBE@XZ 10052575 f   new_process_injector.obj
 0001:000515a0       __ehhandler$?LazyInitialize@@YA_NXZ 100525a0 f   main.obj
 0001:000515c0       __unwindfunclet$?InjectInit@@YAHPBULOAD_LIBRARY_REMOTE_DATA@DllInject@@@Z$2 100525c0 f   main.obj
 0001:000515c8       __unwindfunclet$?InjectInit@@YAHPBULOAD_LIBRARY_REMOTE_DATA@DllInject@@@Z$3 100525c8 f   main.obj
 0001:000515d5       __ehhandler$?InjectInit@@YAHPBULOAD_LIBRARY_REMOTE_DATA@DllInject@@@Z 100525d5 f   main.obj
 0001:00051600       __unwindfunclet$?GlobalHookSessionStart@@YAPAXXZ$2 10052600 f   main.obj
 0001:00051614       __ehhandler$?GlobalHookSessionStart@@YAPAXXZ 10052614 f   main.obj
 0001:00051640       __unwindfunclet$?Start@CustomizationSession@@SAX_N0V?$unique_any_t@V?$unique_storage@U?$handle_null_only_resource_policy@P6GHPAX@Z$1?CloseHandle@@YGH0@Z@details@wil@@@details@wil@@@wil@@V?$unique_any_t@V?$mutex_t@V?$unique_storage@U?$resource_policy@PAXP6GXPAX@_E$1?CloseHandle@details@wil@@YGX0@ZU?$integral_constant@I$0A@@wistd@@PAXPAX$0A@$$T@details@wil@@@details@wil@@Uerr_returncode_policy@3@@wil@@@3@@Z$0 10052640 f   customization_session.obj
 0001:00051648       __unwindfunclet$?Start@CustomizationSession@@SAX_N0V?$unique_any_t@V?$unique_storage@U?$handle_null_only_resource_policy@P6GHPAX@Z$1?CloseHandle@@YGH0@Z@details@wil@@@details@wil@@@wil@@V?$unique_any_t@V?$mutex_t@V?$unique_storage@U?$resource_policy@PAXP6GXPAX@_E$1?CloseHandle@details@wil@@YGX0@ZU?$integral_constant@I$0A@@wistd@@PAXPAX$0A@$$T@details@wil@@@details@wil@@Uerr_returncode_policy@3@@wil@@@3@@Z$1 10052648 f   customization_session.obj
 0001:00051650       __unwindfunclet$?Start@CustomizationSession@@SAX_N0V?$unique_any_t@V?$unique_storage@U?$handle_null_only_resource_policy@P6GHPAX@Z$1?CloseHandle@@YGH0@Z@details@wil@@@details@wil@@@wil@@V?$unique_any_t@V?$mutex_t@V?$unique_storage@U?$resource_policy@PAXP6GXPAX@_E$1?CloseHandle@details@wil@@YGX0@ZU?$integral_constant@I$0A@@wistd@@PAXPAX$0A@$$T@details@wil@@@details@wil@@Uerr_returncode_policy@3@@wil@@@3@@Z$2 10052650 f   customization_session.obj
 0001:00051658       __unwindfunclet$?Start@CustomizationSession@@SAX_N0V?$unique_any_t@V?$unique_storage@U?$handle_null_only_resource_policy@P6GHPAX@Z$1?CloseHandle@@YGH0@Z@details@wil@@@details@wil@@@wil@@V?$unique_any_t@V?$mutex_t@V?$unique_storage@U?$resource_policy@PAXP6GXPAX@_E$1?CloseHandle@details@wil@@YGX0@ZU?$integral_constant@I$0A@@wistd@@PAXPAX$0A@$$T@details@wil@@@details@wil@@Uerr_returncode_policy@3@@wil@@@3@@Z$3 10052658 f   customization_session.obj
 0001:00051660       __unwindfunclet$?Start@CustomizationSession@@SAX_N0V?$unique_any_t@V?$unique_storage@U?$handle_null_only_resource_policy@P6GHPAX@Z$1?CloseHandle@@YGH0@Z@details@wil@@@details@wil@@@wil@@V?$unique_any_t@V?$mutex_t@V?$unique_storage@U?$resource_policy@PAXP6GXPAX@_E$1?CloseHandle@details@wil@@YGX0@ZU?$integral_constant@I$0A@@wistd@@PAXPAX$0A@$$T@details@wil@@@details@wil@@Uerr_returncode_policy@3@@wil@@@3@@Z$12 10052660 f   customization_session.obj
 0001:00051668       __unwindfunclet$?Start@CustomizationSession@@SAX_N0V?$unique_any_t@V?$unique_storage@U?$handle_null_only_resource_policy@P6GHPAX@Z$1?CloseHandle@@YGH0@Z@details@wil@@@details@wil@@@wil@@V?$unique_any_t@V?$mutex_t@V?$unique_storage@U?$resource_policy@PAXP6GXPAX@_E$1?CloseHandle@details@wil@@YGX0@ZU?$integral_constant@I$0A@@wistd@@PAXPAX$0A@$$T@details@wil@@@details@wil@@Uerr_returncode_policy@3@@wil@@@3@@Z$4 10052668 f   customization_session.obj
 0001:00051670       __unwindfunclet$?Start@CustomizationSession@@SAX_N0V?$unique_any_t@V?$unique_storage@U?$handle_null_only_resource_policy@P6GHPAX@Z$1?CloseHandle@@YGH0@Z@details@wil@@@details@wil@@@wil@@V?$unique_any_t@V?$mutex_t@V?$unique_storage@U?$resource_policy@PAXP6GXPAX@_E$1?CloseHandle@details@wil@@YGX0@ZU?$integral_constant@I$0A@@wistd@@PAXPAX$0A@$$T@details@wil@@@details@wil@@Uerr_returncode_policy@3@@wil@@@3@@Z$5 10052670 f   customization_session.obj
 0001:0005167d       __ehhandler$?Start@CustomizationSession@@SAX_N0V?$unique_any_t@V?$unique_storage@U?$handle_null_only_resource_policy@P6GHPAX@Z$1?CloseHandle@@YGH0@Z@details@wil@@@details@wil@@@wil@@V?$unique_any_t@V?$mutex_t@V?$unique_storage@U?$resource_policy@PAXP6GXPAX@_E$1?CloseHandle@details@wil@@YGX0@ZU?$integral_constant@I$0A@@wistd@@PAXPAX$0A@$$T@details@wil@@@details@wil@@Uerr_returncode_policy@3@@wil@@@3@@Z 1005267d f   customization_session.obj
 0001:000516b0       __unwindfunclet$??0CustomizationSession@@QAE@UConstructorSecret@0@_N1V?$unique_any_t@V?$unique_storage@U?$handle_null_only_resource_policy@P6GHPAX@Z$1?CloseHandle@@YGH0@Z@details@wil@@@details@wil@@@wil@@V?$unique_any_t@V?$mutex_t@V?$unique_storage@U?$resource_policy@PAXP6GXPAX@_E$1?CloseHandle@details@wil@@YGX0@ZU?$integral_constant@I$0A@@wistd@@PAXPAX$0A@$$T@details@wil@@@details@wil@@Uerr_returncode_policy@3@@wil@@@3@@Z$2 100526b0 f   customization_session.obj
 0001:000516b8       __unwindfunclet$??0CustomizationSession@@QAE@UConstructorSecret@0@_N1V?$unique_any_t@V?$unique_storage@U?$handle_null_only_resource_policy@P6GHPAX@Z$1?CloseHandle@@YGH0@Z@details@wil@@@details@wil@@@wil@@V?$unique_any_t@V?$mutex_t@V?$unique_storage@U?$resource_policy@PAXP6GXPAX@_E$1?CloseHandle@details@wil@@YGX0@ZU?$integral_constant@I$0A@@wistd@@PAXPAX$0A@$$T@details@wil@@@details@wil@@Uerr_returncode_policy@3@@wil@@@3@@Z$3 100526b8 f   customization_session.obj
 0001:000516c0       __unwindfunclet$??0CustomizationSession@@QAE@UConstructorSecret@0@_N1V?$unique_any_t@V?$unique_storage@U?$handle_null_only_resource_policy@P6GHPAX@Z$1?CloseHandle@@YGH0@Z@details@wil@@@details@wil@@@wil@@V?$unique_any_t@V?$mutex_t@V?$unique_storage@U?$resource_policy@PAXP6GXPAX@_E$1?CloseHandle@details@wil@@YGX0@ZU?$integral_constant@I$0A@@wistd@@PAXPAX$0A@$$T@details@wil@@@details@wil@@Uerr_returncode_policy@3@@wil@@@3@@Z$5 100526c0 f   customization_session.obj
 0001:000516cb       __unwindfunclet$??0CustomizationSession@@QAE@UConstructorSecret@0@_N1V?$unique_any_t@V?$unique_storage@U?$handle_null_only_resource_policy@P6GHPAX@Z$1?CloseHandle@@YGH0@Z@details@wil@@@details@wil@@@wil@@V?$unique_any_t@V?$mutex_t@V?$unique_storage@U?$resource_policy@PAXP6GXPAX@_E$1?CloseHandle@details@wil@@YGX0@ZU?$integral_constant@I$0A@@wistd@@PAXPAX$0A@$$T@details@wil@@@details@wil@@Uerr_returncode_policy@3@@wil@@@3@@Z$6 100526cb f   customization_session.obj
 0001:000516d6       __unwindfunclet$??0CustomizationSession@@QAE@UConstructorSecret@0@_N1V?$unique_any_t@V?$unique_storage@U?$handle_null_only_resource_policy@P6GHPAX@Z$1?CloseHandle@@YGH0@Z@details@wil@@@details@wil@@@wil@@V?$unique_any_t@V?$mutex_t@V?$unique_storage@U?$resource_policy@PAXP6GXPAX@_E$1?CloseHandle@details@wil@@YGX0@ZU?$integral_constant@I$0A@@wistd@@PAXPAX$0A@$$T@details@wil@@@details@wil@@Uerr_returncode_policy@3@@wil@@@3@@Z$25 100526d6 f   customization_session.obj
 0001:000516ef       __unwindfunclet$??0CustomizationSession@@QAE@UConstructorSecret@0@_N1V?$unique_any_t@V?$unique_storage@U?$handle_null_only_resource_policy@P6GHPAX@Z$1?CloseHandle@@YGH0@Z@details@wil@@@details@wil@@@wil@@V?$unique_any_t@V?$mutex_t@V?$unique_storage@U?$resource_policy@PAXP6GXPAX@_E$1?CloseHandle@details@wil@@YGX0@ZU?$integral_constant@I$0A@@wistd@@PAXPAX$0A@$$T@details@wil@@@details@wil@@Uerr_returncode_policy@3@@wil@@@3@@Z$24 100526ef f   customization_session.obj
 0001:000516f7       __unwindfunclet$??0CustomizationSession@@QAE@UConstructorSecret@0@_N1V?$unique_any_t@V?$unique_storage@U?$handle_null_only_resource_policy@P6GHPAX@Z$1?CloseHandle@@YGH0@Z@details@wil@@@details@wil@@@wil@@V?$unique_any_t@V?$mutex_t@V?$unique_storage@U?$resource_policy@PAXP6GXPAX@_E$1?CloseHandle@details@wil@@YGX0@ZU?$integral_constant@I$0A@@wistd@@PAXPAX$0A@$$T@details@wil@@@details@wil@@Uerr_returncode_policy@3@@wil@@@3@@Z$7 100526f7 f   customization_session.obj
 0001:00051702       __unwindfunclet$??0CustomizationSession@@QAE@UConstructorSecret@0@_N1V?$unique_any_t@V?$unique_storage@U?$handle_null_only_resource_policy@P6GHPAX@Z$1?CloseHandle@@YGH0@Z@details@wil@@@details@wil@@@wil@@V?$unique_any_t@V?$mutex_t@V?$unique_storage@U?$resource_policy@PAXP6GXPAX@_E$1?CloseHandle@details@wil@@YGX0@ZU?$integral_constant@I$0A@@wistd@@PAXPAX$0A@$$T@details@wil@@@details@wil@@Uerr_returncode_policy@3@@wil@@@3@@Z$8 10052702 f   customization_session.obj
 0001:0005170d       __unwindfunclet$??0CustomizationSession@@QAE@UConstructorSecret@0@_N1V?$unique_any_t@V?$unique_storage@U?$handle_null_only_resource_policy@P6GHPAX@Z$1?CloseHandle@@YGH0@Z@details@wil@@@details@wil@@@wil@@V?$unique_any_t@V?$mutex_t@V?$unique_storage@U?$resource_policy@PAXP6GXPAX@_E$1?CloseHandle@details@wil@@YGX0@ZU?$integral_constant@I$0A@@wistd@@PAXPAX$0A@$$T@details@wil@@@details@wil@@Uerr_returncode_policy@3@@wil@@@3@@Z$9 1005270d f   customization_session.obj
 0001:00051718       __unwindfunclet$??0CustomizationSession@@QAE@UConstructorSecret@0@_N1V?$unique_any_t@V?$unique_storage@U?$handle_null_only_resource_policy@P6GHPAX@Z$1?CloseHandle@@YGH0@Z@details@wil@@@details@wil@@@wil@@V?$unique_any_t@V?$mutex_t@V?$unique_storage@U?$resource_policy@PAXP6GXPAX@_E$1?CloseHandle@details@wil@@YGX0@ZU?$integral_constant@I$0A@@wistd@@PAXPAX$0A@$$T@details@wil@@@details@wil@@Uerr_returncode_policy@3@@wil@@@3@@Z$10 10052718 f   customization_session.obj
 0001:00051723       __unwindfunclet$??0CustomizationSession@@QAE@UConstructorSecret@0@_N1V?$unique_any_t@V?$unique_storage@U?$handle_null_only_resource_policy@P6GHPAX@Z$1?CloseHandle@@YGH0@Z@details@wil@@@details@wil@@@wil@@V?$unique_any_t@V?$mutex_t@V?$unique_storage@U?$resource_policy@PAXP6GXPAX@_E$1?CloseHandle@details@wil@@YGX0@ZU?$integral_constant@I$0A@@wistd@@PAXPAX$0A@$$T@details@wil@@@details@wil@@Uerr_returncode_policy@3@@wil@@@3@@Z$11 10052723 f   customization_session.obj
 0001:00051731       __unwindfunclet$??0CustomizationSession@@QAE@UConstructorSecret@0@_N1V?$unique_any_t@V?$unique_storage@U?$handle_null_only_resource_policy@P6GHPAX@Z$1?CloseHandle@@YGH0@Z@details@wil@@@details@wil@@@wil@@V?$unique_any_t@V?$mutex_t@V?$unique_storage@U?$resource_policy@PAXP6GXPAX@_E$1?CloseHandle@details@wil@@YGX0@ZU?$integral_constant@I$0A@@wistd@@PAXPAX$0A@$$T@details@wil@@@details@wil@@Uerr_returncode_policy@3@@wil@@@3@@Z$12 10052731 f   customization_session.obj
 0001:0005173f       __unwindfunclet$??0CustomizationSession@@QAE@UConstructorSecret@0@_N1V?$unique_any_t@V?$unique_storage@U?$handle_null_only_resource_policy@P6GHPAX@Z$1?CloseHandle@@YGH0@Z@details@wil@@@details@wil@@@wil@@V?$unique_any_t@V?$mutex_t@V?$unique_storage@U?$resource_policy@PAXP6GXPAX@_E$1?CloseHandle@details@wil@@YGX0@ZU?$integral_constant@I$0A@@wistd@@PAXPAX$0A@$$T@details@wil@@@details@wil@@Uerr_returncode_policy@3@@wil@@@3@@Z$13 1005273f f   customization_session.obj
 0001:0005174d       __unwindfunclet$??0CustomizationSession@@QAE@UConstructorSecret@0@_N1V?$unique_any_t@V?$unique_storage@U?$handle_null_only_resource_policy@P6GHPAX@Z$1?CloseHandle@@YGH0@Z@details@wil@@@details@wil@@@wil@@V?$unique_any_t@V?$mutex_t@V?$unique_storage@U?$resource_policy@PAXP6GXPAX@_E$1?CloseHandle@details@wil@@YGX0@ZU?$integral_constant@I$0A@@wistd@@PAXPAX$0A@$$T@details@wil@@@details@wil@@Uerr_returncode_policy@3@@wil@@@3@@Z$14 1005274d f   customization_session.obj
 0001:00051760       __ehhandler$??0CustomizationSession@@QAE@UConstructorSecret@0@_N1V?$unique_any_t@V?$unique_storage@U?$handle_null_only_resource_policy@P6GHPAX@Z$1?CloseHandle@@YGH0@Z@details@wil@@@details@wil@@@wil@@V?$unique_any_t@V?$mutex_t@V?$unique_storage@U?$resource_policy@PAXP6GXPAX@_E$1?CloseHandle@details@wil@@YGX0@ZU?$integral_constant@I$0A@@wistd@@PAXPAX$0A@$$T@details@wil@@@details@wil@@Uerr_returncode_policy@3@@wil@@@3@@Z 10052760 f   customization_session.obj
 0001:00051790       __unwindfunclet$??1CustomizationSession@@QAE@XZ$2 10052790 f   customization_session.obj
 0001:0005179b       __unwindfunclet$??1CustomizationSession@@QAE@XZ$3 1005279b f   customization_session.obj
 0001:000517a6       __unwindfunclet$??1CustomizationSession@@QAE@XZ$4 100527a6 f   customization_session.obj
 0001:000517b1       __unwindfunclet$??1CustomizationSession@@QAE@XZ$5 100527b1 f   customization_session.obj
 0001:000517bc       __unwindfunclet$??1CustomizationSession@@QAE@XZ$6 100527bc f   customization_session.obj
 0001:000517c7       __unwindfunclet$??1CustomizationSession@@QAE@XZ$7 100527c7 f   customization_session.obj
 0001:000517d2       __unwindfunclet$??1CustomizationSession@@QAE@XZ$8 100527d2 f   customization_session.obj
 0001:000517e0       __unwindfunclet$??1CustomizationSession@@QAE@XZ$9 100527e0 f   customization_session.obj
 0001:000517ee       __unwindfunclet$??1CustomizationSession@@QAE@XZ$10 100527ee f   customization_session.obj
 0001:000517fc       __unwindfunclet$??1CustomizationSession@@QAE@XZ$11 100527fc f   customization_session.obj
 0001:0005180f       __ehhandler$??1CustomizationSession@@QAE@XZ 1005280f f   customization_session.obj
 0001:00051830       __unwindfunclet$??0MainLoopRunner@CustomizationSession@@QAE@XZ$2 10052830 f   customization_session.obj
 0001:0005183d       __ehhandler$??0MainLoopRunner@CustomizationSession@@QAE@XZ 1005283d f   customization_session.obj
 0001:00051860       __ehhandler$?ContinueMonitoring@MainLoopRunner@CustomizationSession@@QAE_NXZ 10052860 f   customization_session.obj
 0001:00051880       __ehhandler$?RunMainLoopAndDeleteThisWithThreadRecreate@CustomizationSession@@AAEXXZ 10052880 f   customization_session.obj
 0001:00051880       __ehhandler$?StartInitialized@CustomizationSession@@AAEXV?$unique_any_t@V?$semaphore_t@V?$unique_storage@U?$resource_policy@PAXP6GXPAX@_E$1?CloseHandle@details@wil@@YGX0@ZU?$integral_constant@I$0A@@wistd@@PAXPAX$0A@$$T@details@wil@@@details@wil@@Uerr_exception_policy@3@@wil@@@wil@@V?$unique_any_t@V?$unique_storage@U?$resource_policy@PAXP6GXPAX@_E$1?ReleaseSemaphore@details@wil@@YGX0@ZU?$integral_constant@I$01@wistd@@PAXPAX$0A@$$T@details@wil@@@details@wil@@@3@_N@Z 10052880 f   customization_session.obj
 0001:000518b0       __unwindfunclet$??R<lambda_1>@?7??RunMainLoopAndDeleteThisWithThreadRecreate@CustomizationSession@@AAEXXZ@QBEKPAX@Z$2 100528b0 f   customization_session.obj
 0001:000518bd       __ehhandler$??R<lambda_1>@?7??RunMainLoopAndDeleteThisWithThreadRecreate@CustomizationSession@@AAEXXZ@QBEKPAX@Z 100528bd f   customization_session.obj
 0001:000518f0       __unwindfunclet$?RunMainLoop@CustomizationSession@@AAEXXZ$2 100528f0 f   customization_session.obj
 0001:000518fd       __ehhandler$?RunMainLoop@CustomizationSession@@AAEXXZ 100528fd f   customization_session.obj
 0001:00051920       __unwindfunclet$?BuildBoundaryDescriptor@?A0x17396ab2@@YA?AV?$unique_any_t@V?$unique_storage@U?$handle_null_only_resource_policy@P6GXPAX@Z$1?DeleteBoundaryDescriptor@@YGX0@Z@details@wil@@@details@wil@@@wil@@PB_W@Z$0 10052920 f   session_private_namespace.obj
 0001:00051939       __unwindfunclet$?BuildBoundaryDescriptor@?A0x17396ab2@@YA?AV?$unique_any_t@V?$unique_storage@U?$handle_null_only_resource_policy@P6GXPAX@Z$1?DeleteBoundaryDescriptor@@YGX0@Z@details@wil@@@details@wil@@@wil@@PB_W@Z$1 10052939 f   session_private_namespace.obj
 0001:00051941       __unwindfunclet$?BuildBoundaryDescriptor@?A0x17396ab2@@YA?AV?$unique_any_t@V?$unique_storage@U?$handle_null_only_resource_policy@P6GXPAX@Z$1?DeleteBoundaryDescriptor@@YGX0@Z@details@wil@@@details@wil@@@wil@@PB_W@Z$2 10052941 f   session_private_namespace.obj
 0001:0005194e       __ehhandler$?BuildBoundaryDescriptor@?A0x17396ab2@@YA?AV?$unique_any_t@V?$unique_storage@U?$handle_null_only_resource_policy@P6GXPAX@Z$1?DeleteBoundaryDescriptor@@YGX0@Z@details@wil@@@details@wil@@@wil@@PB_W@Z 1005294e f   session_private_namespace.obj
 0001:00051980       __unwindfunclet$?PathFromStorage@?A0x7539b29f@@YA?AVpath@filesystem@std@@ABVPortableSettings@@PB_WABV234@@Z$0 10052980 f   storage_manager.obj
 0001:0005198b       __unwindfunclet$?PathFromStorage@?A0x7539b29f@@YA?AVpath@filesystem@std@@ABVPortableSettings@@PB_WABV234@@Z$1 1005298b f   storage_manager.obj
 0001:00051993       __unwindfunclet$?PathFromStorage@?A0x7539b29f@@YA?AVpath@filesystem@std@@ABVPortableSettings@@PB_WABV234@@Z$3 10052993 f   storage_manager.obj
 0001:0005199b       __unwindfunclet$?PathFromStorage@?A0x7539b29f@@YA?AVpath@filesystem@std@@ABVPortableSettings@@PB_WABV234@@Z$5 1005299b f   storage_manager.obj
 0001:000519a3       __unwindfunclet$?PathFromStorage@?A0x7539b29f@@YA?AVpath@filesystem@std@@ABVPortableSettings@@PB_WABV234@@Z$6 100529a3 f   storage_manager.obj
 0001:000519ae       __unwindfunclet$?PathFromStorage@?A0x7539b29f@@YA?AVpath@filesystem@std@@ABVPortableSettings@@PB_WABV234@@Z$9 100529ae f   storage_manager.obj
 0001:000519b9       __unwindfunclet$?PathFromStorage@?A0x7539b29f@@YA?AVpath@filesystem@std@@ABVPortableSettings@@PB_WABV234@@Z$10 100529b9 f   storage_manager.obj
 0001:000519c9       __ehhandler$?PathFromStorage@?A0x7539b29f@@YA?AVpath@filesystem@std@@ABVPortableSettings@@PB_WABV234@@Z 100529c9 f   storage_manager.obj
 0001:00051a00       __unwindfunclet$?GetInstance@StorageManager@@SAAAV1@XZ$0 10052a00 f   storage_manager.obj
 0001:00051a0d       __ehhandler$?GetInstance@StorageManager@@SAAAV1@XZ 10052a0d f   storage_manager.obj
 0001:00051a40       __unwindfunclet$?GetAppConfig@StorageManager@@QAE?AV?$unique_ptr@VPortableSettings@@U?$default_delete@VPortableSettings@@@std@@@std@@PB_W@Z$5 10052a40 f   storage_manager.obj
 0001:00051a4f       __unwindfunclet$?GetAppConfig@StorageManager@@QAE?AV?$unique_ptr@VPortableSettings@@U?$default_delete@VPortableSettings@@@std@@@std@@PB_W@Z$2 10052a4f f   storage_manager.obj
 0001:00051a57       __unwindfunclet$?GetAppConfig@StorageManager@@QAE?AV?$unique_ptr@VPortableSettings@@U?$default_delete@VPortableSettings@@@std@@@std@@PB_W@Z$3 10052a57 f   storage_manager.obj
 0001:00051a5f       __unwindfunclet$?GetAppConfig@StorageManager@@QAE?AV?$unique_ptr@VPortableSettings@@U?$default_delete@VPortableSettings@@@std@@@std@@PB_W@Z$13 10052a5f f   storage_manager.obj
 0001:00051a73       __ehhandler$?GetAppConfig@StorageManager@@QAE?AV?$unique_ptr@VPortableSettings@@U?$default_delete@VPortableSettings@@@std@@@std@@PB_W@Z 10052a73 f   storage_manager.obj
 0001:00051aa0       __unwindfunclet$?GetModConfig@StorageManager@@QAE?AV?$unique_ptr@VPortableSettings@@U?$default_delete@VPortableSettings@@@std@@@std@@PB_W0@Z$0 10052aa0 f   storage_manager.obj
 0001:00051aa8       __unwindfunclet$?GetModConfig@StorageManager@@QAE?AV?$unique_ptr@VPortableSettings@@U?$default_delete@VPortableSettings@@@std@@@std@@PB_W0@Z$1 10052aa8 f   storage_manager.obj
 0001:00051ab0       __unwindfunclet$?GetModConfig@StorageManager@@QAE?AV?$unique_ptr@VPortableSettings@@U?$default_delete@VPortableSettings@@@std@@@std@@PB_W0@Z$2 10052ab0 f   storage_manager.obj
 0001:00051ab8       __unwindfunclet$?GetModConfig@StorageManager@@QAE?AV?$unique_ptr@VPortableSettings@@U?$default_delete@VPortableSettings@@@std@@@std@@PB_W0@Z$3 10052ab8 f   storage_manager.obj
 0001:00051ac3       __unwindfunclet$?GetModConfig@StorageManager@@QAE?AV?$unique_ptr@VPortableSettings@@U?$default_delete@VPortableSettings@@@std@@@std@@PB_W0@Z$4 10052ac3 f   storage_manager.obj
 0001:00051acb       __unwindfunclet$?GetModConfig@StorageManager@@QAE?AV?$unique_ptr@VPortableSettings@@U?$default_delete@VPortableSettings@@@std@@@std@@PB_W0@Z$28 10052acb f   storage_manager.obj
 0001:00051ada       __unwindfunclet$?GetModConfig@StorageManager@@QAE?AV?$unique_ptr@VPortableSettings@@U?$default_delete@VPortableSettings@@@std@@@std@@PB_W0@Z$7 10052ada f   storage_manager.obj
 0001:00051ae2       __unwindfunclet$?GetModConfig@StorageManager@@QAE?AV?$unique_ptr@VPortableSettings@@U?$default_delete@VPortableSettings@@@std@@@std@@PB_W0@Z$8 10052ae2 f   storage_manager.obj
 0001:00051aea       __unwindfunclet$?GetModConfig@StorageManager@@QAE?AV?$unique_ptr@VPortableSettings@@U?$default_delete@VPortableSettings@@@std@@@std@@PB_W0@Z$39 10052aea f   storage_manager.obj
 0001:00051afe       __ehhandler$?GetModConfig@StorageManager@@QAE?AV?$unique_ptr@VPortableSettings@@U?$default_delete@VPortableSettings@@@std@@@std@@PB_W0@Z 10052afe f   storage_manager.obj
 0001:00051b30       __unwindfunclet$?GetModWritableConfig@StorageManager@@QAE?AV?$unique_ptr@VPortableSettings@@U?$default_delete@VPortableSettings@@@std@@@std@@PB_W0_N@Z$0 10052b30 f   storage_manager.obj
 0001:00051b3b       __unwindfunclet$?GetModWritableConfig@StorageManager@@QAE?AV?$unique_ptr@VPortableSettings@@U?$default_delete@VPortableSettings@@@std@@@std@@PB_W0_N@Z$1 10052b3b f   storage_manager.obj
 0001:00051b43       __unwindfunclet$?GetModWritableConfig@StorageManager@@QAE?AV?$unique_ptr@VPortableSettings@@U?$default_delete@VPortableSettings@@@std@@@std@@PB_W0_N@Z$2 10052b43 f   storage_manager.obj
 0001:00051b4b       __unwindfunclet$?GetModWritableConfig@StorageManager@@QAE?AV?$unique_ptr@VPortableSettings@@U?$default_delete@VPortableSettings@@@std@@@std@@PB_W0_N@Z$3 10052b4b f   storage_manager.obj
 0001:00051b56       __unwindfunclet$?GetModWritableConfig@StorageManager@@QAE?AV?$unique_ptr@VPortableSettings@@U?$default_delete@VPortableSettings@@@std@@@std@@PB_W0_N@Z$4 10052b56 f   storage_manager.obj
 0001:00051b5e       __unwindfunclet$?GetModWritableConfig@StorageManager@@QAE?AV?$unique_ptr@VPortableSettings@@U?$default_delete@VPortableSettings@@@std@@@std@@PB_W0_N@Z$26 10052b5e f   storage_manager.obj
 0001:00051b6d       __unwindfunclet$?GetModWritableConfig@StorageManager@@QAE?AV?$unique_ptr@VPortableSettings@@U?$default_delete@VPortableSettings@@@std@@@std@@PB_W0_N@Z$7 10052b6d f   storage_manager.obj
 0001:00051b78       __unwindfunclet$?GetModWritableConfig@StorageManager@@QAE?AV?$unique_ptr@VPortableSettings@@U?$default_delete@VPortableSettings@@@std@@@std@@PB_W0_N@Z$8 10052b78 f   storage_manager.obj
 0001:00051b80       __unwindfunclet$?GetModWritableConfig@StorageManager@@QAE?AV?$unique_ptr@VPortableSettings@@U?$default_delete@VPortableSettings@@@std@@@std@@PB_W0_N@Z$39 10052b80 f   storage_manager.obj
 0001:00051b94       __ehhandler$?GetModWritableConfig@StorageManager@@QAE?AV?$unique_ptr@VPortableSettings@@U?$default_delete@VPortableSettings@@@std@@@std@@PB_W0_N@Z 10052b94 f   storage_manager.obj
 0001:00051bc0       __unwindfunclet$?EnumMods@StorageManager@@QAEXV?$function@$$A6AXPB_W@Z@std@@@Z$0 10052bc0 f   storage_manager.obj
 0001:00051bcd       __ehhandler$?EnumMods@StorageManager@@QAEXV?$function@$$A6AXPB_W@Z@std@@@Z 10052bcd f   storage_manager.obj
 0001:00051bf0       __unwindfunclet$?GetModStoragePath@StorageManager@@QAE?AVpath@filesystem@std@@PB_W@Z$0 10052bf0 f   storage_manager.obj
 0001:00051bf8       __unwindfunclet$?GetModStoragePath@StorageManager@@QAE?AVpath@filesystem@std@@PB_W@Z$1 10052bf8 f   storage_manager.obj
 0001:00051c00       __unwindfunclet$?GetModStoragePath@StorageManager@@QAE?AVpath@filesystem@std@@PB_W@Z$2 10052c00 f   storage_manager.obj
 0001:00051c08       __unwindfunclet$?GetModStoragePath@StorageManager@@QAE?AVpath@filesystem@std@@PB_W@Z$3 10052c08 f   storage_manager.obj
 0001:00051c13       __unwindfunclet$?GetModStoragePath@StorageManager@@QAE?AVpath@filesystem@std@@PB_W@Z$4 10052c13 f   storage_manager.obj
 0001:00051c1e       __unwindfunclet$?GetModStoragePath@StorageManager@@QAE?AVpath@filesystem@std@@PB_W@Z$5 10052c1e f   storage_manager.obj
 0001:00051c3c       __ehhandler$?GetModStoragePath@StorageManager@@QAE?AVpath@filesystem@std@@PB_W@Z 10052c3c f   storage_manager.obj
 0001:00051c70       __unwindfunclet$?CreateModMetadataFile@StorageManager@@QAE?AV?$unique_any_t@V?$unique_storage@U?$handle_invalid_resource_policy@P6GHPAX@Z$1?CloseHandle@@YGH0@Z@details@wil@@@details@wil@@@wil@@PB_W0@Z$4 10052c70 f   storage_manager.obj
 0001:00051c78       __unwindfunclet$?CreateModMetadataFile@StorageManager@@QAE?AV?$unique_any_t@V?$unique_storage@U?$handle_invalid_resource_policy@P6GHPAX@Z$1?CloseHandle@@YGH0@Z@details@wil@@@details@wil@@@wil@@PB_W0@Z$5 10052c78 f   storage_manager.obj
 0001:00051c83       __unwindfunclet$?CreateModMetadataFile@StorageManager@@QAE?AV?$unique_any_t@V?$unique_storage@U?$handle_invalid_resource_policy@P6GHPAX@Z$1?CloseHandle@@YGH0@Z@details@wil@@@details@wil@@@wil@@PB_W0@Z$6 10052c83 f   storage_manager.obj
 0001:00051c8e       __unwindfunclet$?CreateModMetadataFile@StorageManager@@QAE?AV?$unique_any_t@V?$unique_storage@U?$handle_invalid_resource_policy@P6GHPAX@Z$1?CloseHandle@@YGH0@Z@details@wil@@@details@wil@@@wil@@PB_W0@Z$0 10052c8e f   storage_manager.obj
 0001:00051c96       __unwindfunclet$?CreateModMetadataFile@StorageManager@@QAE?AV?$unique_any_t@V?$unique_storage@U?$handle_invalid_resource_policy@P6GHPAX@Z$1?CloseHandle@@YGH0@Z@details@wil@@@details@wil@@@wil@@PB_W0@Z$1 10052c96 f   storage_manager.obj
 0001:00051c9e       __unwindfunclet$?CreateModMetadataFile@StorageManager@@QAE?AV?$unique_any_t@V?$unique_storage@U?$handle_invalid_resource_policy@P6GHPAX@Z$1?CloseHandle@@YGH0@Z@details@wil@@@details@wil@@@wil@@PB_W0@Z$2 10052c9e f   storage_manager.obj
 0001:00051ca6       __unwindfunclet$?CreateModMetadataFile@StorageManager@@QAE?AV?$unique_any_t@V?$unique_storage@U?$handle_invalid_resource_policy@P6GHPAX@Z$1?CloseHandle@@YGH0@Z@details@wil@@@details@wil@@@wil@@PB_W0@Z$3 10052ca6 f   storage_manager.obj
 0001:00051cc4       __ehhandler$?CreateModMetadataFile@StorageManager@@QAE?AV?$unique_any_t@V?$unique_storage@U?$handle_invalid_resource_policy@P6GHPAX@Z$1?CloseHandle@@YGH0@Z@details@wil@@@details@wil@@@wil@@PB_W0@Z 10052cc4 f   storage_manager.obj
 0001:00051cf0       __unwindfunclet$?GetEnginePath@StorageManager@@QAE?AVpath@filesystem@std@@G@Z$1 10052cf0 f   storage_manager.obj
 0001:00051cf8       __unwindfunclet$?GetEnginePath@StorageManager@@QAE?AVpath@filesystem@std@@G@Z$2 10052cf8 f   storage_manager.obj
 0001:00051d00       __unwindfunclet$?GetEnginePath@StorageManager@@QAE?AVpath@filesystem@std@@G@Z$3 10052d00 f   storage_manager.obj
 0001:00051d08       __unwindfunclet$?GetEnginePath@StorageManager@@QAE?AVpath@filesystem@std@@G@Z$4 10052d08 f   storage_manager.obj
 0001:00051d18       __ehhandler$?GetEnginePath@StorageManager@@QAE?AVpath@filesystem@std@@G@Z 10052d18 f   storage_manager.obj
 0001:00051d50       __unwindfunclet$??0StorageManager@@AAE@XZ$0 10052d50 f   storage_manager.obj
 0001:00051d5e       __unwindfunclet$??0StorageManager@@AAE@XZ$1 10052d5e f   storage_manager.obj
 0001:00051d6c       __unwindfunclet$??0StorageManager@@AAE@XZ$3 10052d6c f   storage_manager.obj
 0001:00051d74       __unwindfunclet$??0StorageManager@@AAE@XZ$4 10052d74 f   storage_manager.obj
 0001:00051d7c       __unwindfunclet$??0StorageManager@@AAE@XZ$5 10052d7c f   storage_manager.obj
 0001:00051d87       __unwindfunclet$??0StorageManager@@AAE@XZ$6 10052d87 f   storage_manager.obj
 0001:00051d8f       __unwindfunclet$??0StorageManager@@AAE@XZ$7 10052d8f f   storage_manager.obj
 0001:00051d9a       __unwindfunclet$??0StorageManager@@AAE@XZ$8 10052d9a f   storage_manager.obj
 0001:00051da5       __unwindfunclet$??0StorageManager@@AAE@XZ$46 10052da5 f   storage_manager.obj
 0001:00051db0       __unwindfunclet$??0StorageManager@@AAE@XZ$10 10052db0 f   storage_manager.obj
 0001:00051db8       __unwindfunclet$??0StorageManager@@AAE@XZ$11 10052db8 f   storage_manager.obj
 0001:00051dc0       __unwindfunclet$??0StorageManager@@AAE@XZ$14 10052dc0 f   storage_manager.obj
 0001:00051dc8       __unwindfunclet$??0StorageManager@@AAE@XZ$15 10052dc8 f   storage_manager.obj
 0001:00051dd0       __unwindfunclet$??0StorageManager@@AAE@XZ$16 10052dd0 f   storage_manager.obj
 0001:00051ddd       __ehhandler$??0StorageManager@@AAE@XZ 10052ddd f   storage_manager.obj
 0001:00051e10       __unwindfunclet$?RegistryEnumMods@StorageManager@@AAEXV?$function@$$A6AXPB_W@Z@std@@@Z$0 10052e10 f   storage_manager.obj
 0001:00051e18       __unwindfunclet$?RegistryEnumMods@StorageManager@@AAEXV?$function@$$A6AXPB_W@Z@std@@@Z$1 10052e18 f   storage_manager.obj
 0001:00051e20       __unwindfunclet$?RegistryEnumMods@StorageManager@@AAEXV?$function@$$A6AXPB_W@Z@std@@@Z$2 10052e20 f   storage_manager.obj
 0001:00051e28       __unwindfunclet$?RegistryEnumMods@StorageManager@@AAEXV?$function@$$A6AXPB_W@Z@std@@@Z$3 10052e28 f   storage_manager.obj
 0001:00051e35       __ehhandler$?RegistryEnumMods@StorageManager@@AAEXV?$function@$$A6AXPB_W@Z@std@@@Z 10052e35 f   storage_manager.obj
 0001:00051e60       __unwindfunclet$?IniFilesEnumMods@StorageManager@@AAEXV?$function@$$A6AXPB_W@Z@std@@@Z$0 10052e60 f   storage_manager.obj
 0001:00051e68       __unwindfunclet$?IniFilesEnumMods@StorageManager@@AAEXV?$function@$$A6AXPB_W@Z@std@@@Z$1 10052e68 f   storage_manager.obj
 0001:00051e73       __unwindfunclet$?IniFilesEnumMods@StorageManager@@AAEXV?$function@$$A6AXPB_W@Z@std@@@Z$2 10052e73 f   storage_manager.obj
 0001:00051e7b       __unwindfunclet$?IniFilesEnumMods@StorageManager@@AAEXV?$function@$$A6AXPB_W@Z@std@@@Z$50 10052e7b f   storage_manager.obj
 0001:00051e86       __unwindfunclet$?IniFilesEnumMods@StorageManager@@AAEXV?$function@$$A6AXPB_W@Z@std@@@Z$51 10052e86 f   storage_manager.obj
 0001:00051e91       __unwindfunclet$?IniFilesEnumMods@StorageManager@@AAEXV?$function@$$A6AXPB_W@Z@std@@@Z$53 10052e91 f   storage_manager.obj
 0001:00051ea3       __unwindfunclet$?IniFilesEnumMods@StorageManager@@AAEXV?$function@$$A6AXPB_W@Z@std@@@Z$3 10052ea3 f   storage_manager.obj
 0001:00051eae       __unwindfunclet$?IniFilesEnumMods@StorageManager@@AAEXV?$function@$$A6AXPB_W@Z@std@@@Z$5 10052eae f   storage_manager.obj
 0001:00051eb9       __unwindfunclet$?IniFilesEnumMods@StorageManager@@AAEXV?$function@$$A6AXPB_W@Z@std@@@Z$7 10052eb9 f   storage_manager.obj
 0001:00051ec4       __unwindfunclet$?IniFilesEnumMods@StorageManager@@AAEXV?$function@$$A6AXPB_W@Z@std@@@Z$8 10052ec4 f   storage_manager.obj
 0001:00051ecf       __unwindfunclet$?IniFilesEnumMods@StorageManager@@AAEXV?$function@$$A6AXPB_W@Z@std@@@Z$10 10052ecf f   storage_manager.obj
 0001:00051edf       __ehhandler$?IniFilesEnumMods@StorageManager@@AAEXV?$function@$$A6AXPB_W@Z@std@@@Z 10052edf f   storage_manager.obj
 0001:00051f10       __unwindfunclet$??0ModConfigChangeNotification@StorageManager@@QAE@XZ$0 10052f10 f   storage_manager.obj
 0001:00051f18       __unwindfunclet$??0ModConfigChangeNotification@StorageManager@@QAE@XZ$1 10052f18 f   storage_manager.obj
 0001:00051f20       __unwindfunclet$??0ModConfigChangeNotification@StorageManager@@QAE@XZ$2 10052f20 f   storage_manager.obj
 0001:00051f28       __unwindfunclet$??0ModConfigChangeNotification@StorageManager@@QAE@XZ$3 10052f28 f   storage_manager.obj
 0001:00051f30       __unwindfunclet$??0ModConfigChangeNotification@StorageManager@@QAE@XZ$6 10052f30 f   storage_manager.obj
 0001:00051f38       __unwindfunclet$??0ModConfigChangeNotification@StorageManager@@QAE@XZ$7 10052f38 f   storage_manager.obj
 0001:00051f40       __unwindfunclet$??0ModConfigChangeNotification@StorageManager@@QAE@XZ$8 10052f40 f   storage_manager.obj
 0001:00051f4d       __ehhandler$??0ModConfigChangeNotification@StorageManager@@QAE@XZ 10052f4d f   storage_manager.obj
 0001:00051f80       __ehhandler$?GetLastErrorFailHr@details@wil@@YAJXZ 10052f80 f   storage_manager.obj
 0001:00051fa0       __unwindfunclet$??0filesystem_error@filesystem@std@@QAE@ABV?$basic_string@DU?$char_traits@D@std@@V?$allocator@D@2@@2@Verror_code@2@@Z$0 10052fa0 f   storage_manager.obj
 0001:00051fa8       __unwindfunclet$??0filesystem_error@filesystem@std@@QAE@ABV?$basic_string@DU?$char_traits@D@std@@V?$allocator@D@2@@2@Verror_code@2@@Z$1 10052fa8 f   storage_manager.obj
 0001:00051fb3       __unwindfunclet$??0filesystem_error@filesystem@std@@QAE@ABV?$basic_string@DU?$char_traits@D@std@@V?$allocator@D@2@@2@Verror_code@2@@Z$2 10052fb3 f   storage_manager.obj
 0001:00051fc3       __ehhandler$??0filesystem_error@filesystem@std@@QAE@ABV?$basic_string@DU?$char_traits@D@std@@V?$allocator@D@2@@2@Verror_code@2@@Z 10052fc3 f   storage_manager.obj
 0001:00051fe0       __unwindfunclet$?_Throw_fs_error@filesystem@std@@YAXPBDW4__std_win_error@@@Z$0 10052fe0 f   storage_manager.obj
 0001:00051fed       __ehhandler$?_Throw_fs_error@filesystem@std@@YAXPBDW4__std_win_error@@@Z 10052fed f   storage_manager.obj
 0001:00052010       __unwindfunclet$??0_Creator@_Dir_enum_impl@filesystem@std@@QAE@ABVpath@23@W4directory_options@23@@Z$0 10053010 f   storage_manager.obj
 0001:00052018       __unwindfunclet$??0_Creator@_Dir_enum_impl@filesystem@std@@QAE@ABVpath@23@W4directory_options@23@@Z$1 10053018 f   storage_manager.obj
 0001:00052023       __unwindfunclet$??0_Creator@_Dir_enum_impl@filesystem@std@@QAE@ABVpath@23@W4directory_options@23@@Z$3 10053023 f   storage_manager.obj
 0001:0005202b       __unwindfunclet$??0_Creator@_Dir_enum_impl@filesystem@std@@QAE@ABVpath@23@W4directory_options@23@@Z$5 1005302b f   storage_manager.obj
 0001:00052038       __ehhandler$??0_Creator@_Dir_enum_impl@filesystem@std@@QAE@ABVpath@23@W4directory_options@23@@Z 10053038 f   storage_manager.obj
 0001:00052060       __unwindfunclet$?_Refresh@_Dir_enum_impl@filesystem@std@@QAEXABU__std_fs_find_data@@@Z$0 10053060 f   storage_manager.obj
 0001:0005206d       __ehhandler$?_Refresh@_Dir_enum_impl@filesystem@std@@QAEXABU__std_fs_find_data@@@Z 1005306d f   storage_manager.obj
 0001:00052090       __unwindfunclet$??0_Dir_enum_impl@filesystem@std@@QAE@$$QAU_Creator@012@W4directory_options@12@@Z$0 10053090 f   storage_manager.obj
 0001:00052098       __unwindfunclet$??0_Dir_enum_impl@filesystem@std@@QAE@$$QAU_Creator@012@W4directory_options@12@@Z$1 10053098 f   storage_manager.obj
 0001:000520a8       __ehhandler$??0_Dir_enum_impl@filesystem@std@@QAE@$$QAU_Creator@012@W4directory_options@12@@Z 100530a8 f   storage_manager.obj
 0001:000520d0       __unwindfunclet$?_Throw_fs_error@filesystem@std@@YAXPBDABVerror_code@2@ABVpath@12@@Z$0 100530d0 f   storage_manager.obj
 0001:000520dd       __ehhandler$?_Throw_fs_error@filesystem@std@@YAXPBDABVerror_code@2@ABVpath@12@@Z 100530dd f   storage_manager.obj
 0001:00052100       __unwindfunclet$??$_Convert_wide_to_narrow_replace_chars@U?$char_traits@D@std@@V?$allocator@D@2@@filesystem@std@@YA?AV?$basic_string@DU?$char_traits@D@std@@V?$allocator@D@2@@1@W4__std_code_page@@V?$basic_string_view@_WU?$char_traits@_W@std@@@1@ABV?$allocator@D@1@@Z$0 10053100 f   storage_manager.obj
 0001:0005211e       __ehhandler$??$_Convert_wide_to_narrow_replace_chars@U?$char_traits@D@std@@V?$allocator@D@2@@filesystem@std@@YA?AV?$basic_string@DU?$char_traits@D@std@@V?$allocator@D@2@@1@W4__std_code_page@@V?$basic_string_view@_WU?$char_traits@_W@std@@@1@ABV?$allocator@D@1@@Z 1005311e f   storage_manager.obj
 0001:00052150       __unwindfunclet$?_Pretty_message@filesystem_error@filesystem@std@@CA?AV?$basic_string@DU?$char_traits@D@std@@V?$allocator@D@2@@3@V?$basic_string_view@DU?$char_traits@D@std@@@3@ABVpath@23@1@Z$0 10053150 f   storage_manager.obj
 0001:00052169       __unwindfunclet$?_Pretty_message@filesystem_error@filesystem@std@@CA?AV?$basic_string@DU?$char_traits@D@std@@V?$allocator@D@2@@3@V?$basic_string_view@DU?$char_traits@D@std@@@3@ABVpath@23@1@Z$1 10053169 f   storage_manager.obj
 0001:00052171       __unwindfunclet$?_Pretty_message@filesystem_error@filesystem@std@@CA?AV?$basic_string@DU?$char_traits@D@std@@V?$allocator@D@2@@3@V?$basic_string_view@DU?$char_traits@D@std@@@3@ABVpath@23@1@Z$2 10053171 f   storage_manager.obj
 0001:0005217e       __ehhandler$?_Pretty_message@filesystem_error@filesystem@std@@CA?AV?$basic_string@DU?$char_traits@D@std@@V?$allocator@D@2@@3@V?$basic_string_view@DU?$char_traits@D@std@@@3@ABVpath@23@1@Z 1005317e f   storage_manager.obj
 0001:000521b0       __unwindfunclet$??0filesystem_error@filesystem@std@@QAE@ABV?$basic_string@DU?$char_traits@D@std@@V?$allocator@D@2@@2@ABVpath@12@Verror_code@2@@Z$0 100531b0 f   storage_manager.obj
 0001:000521b8       __unwindfunclet$??0filesystem_error@filesystem@std@@QAE@ABV?$basic_string@DU?$char_traits@D@std@@V?$allocator@D@2@@2@ABVpath@12@Verror_code@2@@Z$1 100531b8 f   storage_manager.obj
 0001:000521c3       __unwindfunclet$??0filesystem_error@filesystem@std@@QAE@ABV?$basic_string@DU?$char_traits@D@std@@V?$allocator@D@2@@2@ABVpath@12@Verror_code@2@@Z$2 100531c3 f   storage_manager.obj
 0001:000521ce       __unwindfunclet$??0filesystem_error@filesystem@std@@QAE@ABV?$basic_string@DU?$char_traits@D@std@@V?$allocator@D@2@@2@ABVpath@12@Verror_code@2@@Z$3 100531ce f   storage_manager.obj
 0001:000521db       __ehhandler$??0filesystem_error@filesystem@std@@QAE@ABV?$basic_string@DU?$char_traits@D@std@@V?$allocator@D@2@@2@ABVpath@12@Verror_code@2@@Z 100531db f   storage_manager.obj
 0001:00052200       __unwindfunclet$??0filesystem_error@filesystem@std@@QAE@ABV012@@Z$0 10053200 f   storage_manager.obj
 0001:00052208       __unwindfunclet$??0filesystem_error@filesystem@std@@QAE@ABV012@@Z$1 10053208 f   storage_manager.obj
 0001:00052213       __unwindfunclet$??0filesystem_error@filesystem@std@@QAE@ABV012@@Z$2 10053213 f   storage_manager.obj
 0001:00052223       __ehhandler$??0filesystem_error@filesystem@std@@QAE@ABV012@@Z 10053223 f   storage_manager.obj
 0001:00052240       __unwindfunclet$?_Throw_fs_error@filesystem@std@@YAXPBDW4__std_win_error@@ABVpath@12@@Z$0 10053240 f   storage_manager.obj
 0001:0005224d       __ehhandler$?_Throw_fs_error@filesystem@std@@YAXPBDW4__std_win_error@@ABVpath@12@@Z 1005324d f   storage_manager.obj
 0001:00052270       __unwindfunclet$?lexically_normal@path@filesystem@std@@QBE?AV123@XZ$1 10053270 f   storage_manager.obj
 0001:00052278       __unwindfunclet$?lexically_normal@path@filesystem@std@@QBE?AV123@XZ$2 10053278 f   storage_manager.obj
 0001:00052285       __ehhandler$?lexically_normal@path@filesystem@std@@QBE?AV123@XZ 10053285 f   storage_manager.obj
 0001:000522b0       __ehhandler$?ProcessHeapAlloc@details@wil@@YAPAXKI@Z 100532b0 f   stdafx.obj
 0001:000522b0       __ehhandler$?type_case_s_compute_narrow_string_length@?$output_processor@_WV?$string_output_adapter@_W@__crt_stdio_output@@V?$format_validation_base@_WV?$string_output_adapter@_W@__crt_stdio_output@@@2@@__crt_stdio_output@@AAEHH_W@Z 100532b0 f   libucrt:output.obj
 0001:000522b0       __ehhandler$?type_case_s_compute_narrow_string_length@?$output_processor@_WV?$string_output_adapter@_W@__crt_stdio_output@@V?$standard_base@_WV?$string_output_adapter@_W@__crt_stdio_output@@@2@@__crt_stdio_output@@AAEHH_W@Z 100532b0 f   libucrt:output.obj
 0001:000522d0       __ehhandler$?GetThreadLocalDataCache@details_abi@wil@@YAPAUThreadLocalData@12@_N@Z 100532d0 f   stdafx.obj
 0001:000522f0       __ehhandler$?GetContextAndNotifyFailure@details@wil@@YGXPAUFailureInfo@2@PADI@Z 100532f0 f   stdafx.obj
 0001:00052310       __ehhandler$??__Fg_processLocalData@details@wil@@YAXXZ 10053310 f   stdafx.obj
 0001:00052330       __ehhandler$?MakeAndInitialize@?$ProcessLocalStorageData@UProcessLocalData@details_abi@wil@@@details_abi@wil@@CAJPB_W$$QAV?$unique_any_t@V?$mutex_t@V?$unique_storage@U?$resource_policy@PAXP6GXPAX@_E$1?CloseHandle@details@wil@@YGX0@ZU?$integral_constant@I$0A@@wistd@@PAXPAX$0A@$$T@details@wil@@@details@wil@@Uerr_returncode_policy@3@@wil@@@3@PAPAV123@@Z 10053330 f   stdafx.obj
 0001:00052350       __unwindfunclet$??__Eg_symbolServerCallbacks@?A0x0a5fb974@@YAXXZ$3 10053350 f   symbol_enum.obj
 0001:00052358       __unwindfunclet$??__Eg_symbolServerCallbacks@?A0x0a5fb974@@YAXXZ$4 10053358 f   symbol_enum.obj
 0001:00052360       __unwindfunclet$??__Eg_symbolServerCallbacks@?A0x0a5fb974@@YAXXZ$7 10053360 f   symbol_enum.obj
 0001:00052368       __unwindfunclet$??__Eg_symbolServerCallbacks@?A0x0a5fb974@@YAXXZ$5 10053368 f   symbol_enum.obj
 0001:00052372       __unwindfunclet$??__Eg_symbolServerCallbacks@?A0x0a5fb974@@YAXXZ$8 10053372 f   symbol_enum.obj
 0001:0005237a       __unwindfunclet$??__Eg_symbolServerCallbacks@?A0x0a5fb974@@YAXXZ$6 1005337a f   symbol_enum.obj
 0001:00052389       __ehhandler$??__Eg_symbolServerCallbacks@?A0x0a5fb974@@YAXXZ 10053389 f   symbol_enum.obj
 0001:000523b0       __unwindfunclet$?GetSymbolsSearchPath@?A0x0a5fb974@@YA?AV?$basic_string@_WU?$char_traits@_W@std@@V?$allocator@_W@2@@std@@PB_W@Z$0 100533b0 f   symbol_enum.obj
 0001:000523c9       __unwindfunclet$?GetSymbolsSearchPath@?A0x0a5fb974@@YA?AV?$basic_string@_WU?$char_traits@_W@std@@V?$allocator@_W@2@@std@@PB_W@Z$5 100533c9 f   symbol_enum.obj
 0001:000523d1       __unwindfunclet$?GetSymbolsSearchPath@?A0x0a5fb974@@YA?AV?$basic_string@_WU?$char_traits@_W@std@@V?$allocator@_W@2@@std@@PB_W@Z$1 100533d1 f   symbol_enum.obj
 0001:000523d9       __unwindfunclet$?GetSymbolsSearchPath@?A0x0a5fb974@@YA?AV?$basic_string@_WU?$char_traits@_W@std@@V?$allocator@_W@2@@std@@PB_W@Z$2 100533d9 f   symbol_enum.obj
 0001:000523e6       __ehhandler$?GetSymbolsSearchPath@?A0x0a5fb974@@YA?AV?$basic_string@_WU?$char_traits@_W@std@@V?$allocator@_W@2@@std@@PB_W@Z 100533e6 f   symbol_enum.obj
 0001:00052410       __unwindfunclet$?MsdiaLoadLibraryExWHook@?A0x0a5fb974@@YGPAUHINSTANCE__@@PB_WPAXK@Z$2 10053410 f   symbol_enum.obj
 0001:00052418       __unwindfunclet$?MsdiaLoadLibraryExWHook@?A0x0a5fb974@@YGPAUHINSTANCE__@@PB_WPAXK@Z$3 10053418 f   symbol_enum.obj
 0001:00052420       __unwindfunclet$?MsdiaLoadLibraryExWHook@?A0x0a5fb974@@YGPAUHINSTANCE__@@PB_WPAXK@Z$4 10053420 f   symbol_enum.obj
 0001:0005242d       __ehhandler$?MsdiaLoadLibraryExWHook@?A0x0a5fb974@@YGPAUHINSTANCE__@@PB_WPAXK@Z 1005342d f   symbol_enum.obj
 0001:00052460       __unwindfunclet$??0SymbolEnum@@QAE@PB_WPAUHINSTANCE__@@0W4UndecorateMode@0@UCallbacks@0@@Z$0 10053460 f   symbol_enum.obj
 0001:00052468       __unwindfunclet$??0SymbolEnum@@QAE@PB_WPAUHINSTANCE__@@0W4UndecorateMode@0@UCallbacks@0@@Z$1 10053468 f   symbol_enum.obj
 0001:00052473       __unwindfunclet$??0SymbolEnum@@QAE@PB_WPAUHINSTANCE__@@0W4UndecorateMode@0@UCallbacks@0@@Z$2 10053473 f   symbol_enum.obj
 0001:0005247e       __unwindfunclet$??0SymbolEnum@@QAE@PB_WPAUHINSTANCE__@@0W4UndecorateMode@0@UCallbacks@0@@Z$3 1005347e f   symbol_enum.obj
 0001:00052489       __unwindfunclet$??0SymbolEnum@@QAE@PB_WPAUHINSTANCE__@@0W4UndecorateMode@0@UCallbacks@0@@Z$4 10053489 f   symbol_enum.obj
 0001:00052494       __unwindfunclet$??0SymbolEnum@@QAE@PB_WPAUHINSTANCE__@@0W4UndecorateMode@0@UCallbacks@0@@Z$5 10053494 f   symbol_enum.obj
 0001:0005249f       __unwindfunclet$??0SymbolEnum@@QAE@PB_WPAUHINSTANCE__@@0W4UndecorateMode@0@UCallbacks@0@@Z$6 1005349f f   symbol_enum.obj
 0001:000524aa       __unwindfunclet$??0SymbolEnum@@QAE@PB_WPAUHINSTANCE__@@0W4UndecorateMode@0@UCallbacks@0@@Z$7 100534aa f   symbol_enum.obj
 0001:000524b5       __unwindfunclet$??0SymbolEnum@@QAE@PB_WPAUHINSTANCE__@@0W4UndecorateMode@0@UCallbacks@0@@Z$8 100534b5 f   symbol_enum.obj
 0001:000524bd       __unwindfunclet$??0SymbolEnum@@QAE@PB_WPAUHINSTANCE__@@0W4UndecorateMode@0@UCallbacks@0@@Z$9 100534bd f   symbol_enum.obj
 0001:000524c5       __unwindfunclet$??0SymbolEnum@@QAE@PB_WPAUHINSTANCE__@@0W4UndecorateMode@0@UCallbacks@0@@Z$10 100534c5 f   symbol_enum.obj
 0001:000524cd       __unwindfunclet$??0SymbolEnum@@QAE@PB_WPAUHINSTANCE__@@0W4UndecorateMode@0@UCallbacks@0@@Z$11 100534cd f   symbol_enum.obj
 0001:000524da       __ehhandler$??0SymbolEnum@@QAE@PB_WPAUHINSTANCE__@@0W4UndecorateMode@0@UCallbacks@0@@Z 100534da f   symbol_enum.obj
 0001:00052510       __unwindfunclet$?GetNextSymbol@SymbolEnum@@QAE?AV?$optional@USymbol@SymbolEnum@@@std@@XZ$0 10053510 f   symbol_enum.obj
 0001:0005251d       __ehhandler$?GetNextSymbol@SymbolEnum@@QAE?AV?$optional@USymbol@SymbolEnum@@@std@@XZ 1005351d f   symbol_enum.obj
 0001:00052550       __unwindfunclet$?LoadMsdia@SymbolEnum@@AAE?AV?$com_ptr_t@UIDiaDataSource@@Uerr_exception_policy@wil@@@wil@@XZ$0 10053550 f   symbol_enum.obj
 0001:00052558       __unwindfunclet$?LoadMsdia@SymbolEnum@@AAE?AV?$com_ptr_t@UIDiaDataSource@@Uerr_exception_policy@wil@@@wil@@XZ$1 10053558 f   symbol_enum.obj
 0001:00052560       __unwindfunclet$?LoadMsdia@SymbolEnum@@AAE?AV?$com_ptr_t@UIDiaDataSource@@Uerr_exception_policy@wil@@@wil@@XZ$2 10053560 f   symbol_enum.obj
 0001:00052568       __unwindfunclet$?LoadMsdia@SymbolEnum@@AAE?AV?$com_ptr_t@UIDiaDataSource@@Uerr_exception_policy@wil@@@wil@@XZ$3 10053568 f   symbol_enum.obj
 0001:00052586       __ehhandler$?LoadMsdia@SymbolEnum@@AAE?AV?$com_ptr_t@UIDiaDataSource@@Uerr_exception_policy@wil@@@wil@@XZ 10053586 f   symbol_enum.obj
 0001:000525ad       __ehhandler$?CallUnexpected@@YAXPBU_s_ESTypeList@@@Z 100535ad f   libvcruntime:frame.obj
 0001:000525ca       __ehhandler$?state_case_type@?$output_processor@_WV?$string_output_adapter@_W@__crt_stdio_output@@V?$format_validation_base@_WV?$string_output_adapter@_W@__crt_stdio_output@@@2@@__crt_stdio_output@@AAE_NXZ 100535ca f   libucrt:output.obj
 0001:000525ca       __ehhandler$?state_case_type@?$output_processor@_WV?$string_output_adapter@_W@__crt_stdio_output@@V?$standard_base@_WV?$string_output_adapter@_W@__crt_stdio_output@@@2@@__crt_stdio_output@@AAE_NXZ 100535ca f   libucrt:output.obj
 0001:000525f1       __ehhandler$?common_exit@@YAXHW4_crt_exit_cleanup_mode@@W4_crt_exit_return_mode@@@Z 100535f1 f   libucrt:exit.obj
 0001:0005260e       __ehhandler$___dcrt_uninitialize_environments_nolock 1005360e f   libucrt:environment_initialization.obj
 0001:0005260e       __ehhandler$___acrt_getptd_noexit 1005360e f   libucrt:per_thread_data.obj
 0001:0005262b       __ehhandler$__execute_onexit_table 1005362b f   libucrt:onexit.obj
 0001:00052648       __ehhandler$___acrt_freeptd 10053648 f   libucrt:per_thread_data.obj
 0001:00052648       __ehhandler$___acrt_getptd_head 10053648 f   libucrt:per_thread_data.obj
 0001:00052648       __ehhandler$___acrt_getptd_noexit_explicit 10053648 f   libucrt:per_thread_data.obj
 0001:00052665       __ehhandler$?write_double_translated_ansi_nolock@@YA?AUwrite_result@?A0x17268360@@HQBDIAAV__crt_cached_ptd_host@@@Z 10053665 f   libucrt:write.obj
 0001:00052690       ??__Fg_hooks@?A0x8e05aadc@HwbpHook@@YAXXZ 10053690 f   hwbp_hook.obj
 0001:00052710       ??__Fg_MonitoredRegions@InjectionMonitor@@YAXXZ 10053710 f   injection_monitor.obj
 0001:00052760       ??__Fresult@?1??GetWindowsVersionForLogging@?A0x64030c04@@YA?AV?$basic_string@_WU?$char_traits@_W@std@@V?$allocator@_W@2@@std@@XZ@YAXXZ 10053760 f   mod.obj
 0001:00052770       ??__Fg_processLocalData@details@wil@@YAXXZ 10053770 f   stdafx.obj
 0001:000527c0       ??__Fg_threadFailureCallbacks@details@wil@@YAXXZ 100537c0 f   stdafx.obj
 0001:00052820       ??__Fg_symbolServerCallbacks@?A0x0a5fb974@@YAXXZ 10053820 f   symbol_enum.obj
 0002:00000000       ?wow64_system_service_ex@detail@wow64pp@@3U<unnamed-type-wow64_system_service_ex>@12@A 10054000     all_processes_injector.obj
 0002:00000458       ?wow64_system_service_ex@detail@wow64pp@@3U<unnamed-type-wow64_system_service_ex>@12@A 10054458     dll_inject.obj
 0002:000008b0       ?wow64_system_service_ex@detail@wow64pp@@3U<unnamed-type-wow64_system_service_ex>@12@A 100548b0     stdafx.obj
 0003:00000310       ?g_hooks$initializer$@?A0x8e05aadc@HwbpHook@@3P6AXXZA 10055310     hwbp_hook.obj
 0003:00000314       ?g_MonitoredRegions$initializer$@InjectionMonitor@@3P6AXXZA 10055314     injection_monitor.obj
 0003:00000318       ?g_header_init_WilInitialize_ResultMacros_DesktopOrSystem_SuppressPrivateApiUse$initializer$@details@wil@@3P6AXXZA 10055318     stdafx.obj
 0003:0000031c       ?g_header_init_InitializeResultExceptions$initializer$@details@wil@@3P6AXXZA 1005531c     stdafx.obj
 0003:00000320       ?g_processLocalData$initializer$@details@wil@@3P6AXXZA 10055320     stdafx.obj
 0003:00000324       ?g_threadFailureCallbacks$initializer$@details@wil@@3P6AXXZA 10055324     stdafx.obj
 0003:00000328       ?g_header_init_InitializeResultHeader$initializer$@details@wil@@3P6AXXZA 10055328     stdafx.obj
 0003:0000032c       ?g_symbolServerCallbacks$initializer$@?A0x0a5fb974@@3P6AXXZA 1005532c     symbol_enum.obj
 0003:00000338       ?pinit@@3P6AHXZA           10055338     libcpmt:winapisupp.obj
 0003:00000380       ?GuidMap@@3QBEB            10055380     diaguids:guidstr.obj
 0003:00000394       ?wchDigits@@3QB_WB         10055394     diaguids:guidstr.obj
 0003:00000480       ?_Remove_tables_1_sse@?A0x8417fefe@@3U?$_Remove_tables@$0BAA@$07@1@B 10055480     libcpmt:vector_algorithms.obj
 0003:00000d80       ?_Remove_tables_2_sse@?A0x8417fefe@@3U?$_Remove_tables@$0BAA@$0BA@@1@B 10055d80     libcpmt:vector_algorithms.obj
 0003:00001e80       ?_Remove_tables_4_sse@?A0x8417fefe@@3U?$_Remove_tables@$0BA@$0BA@@1@B 10056e80     libcpmt:vector_algorithms.obj
 0003:00001f90       ?_Remove_tables_4_avx@?A0x8417fefe@@3U?$_Remove_tables@$0BAA@$07@1@B 10056f90     libcpmt:vector_algorithms.obj
 0003:00002890       ?_Remove_tables_8_sse@?A0x8417fefe@@3U?$_Remove_tables@$03$0BA@@1@B 10057890     libcpmt:vector_algorithms.obj
 0003:000028d8       ?_Remove_tables_8_avx@?A0x8417fefe@@3U?$_Remove_tables@$0BA@$07@1@B 100578d8     libcpmt:vector_algorithms.obj
 0003:00002968       ?_Tail_masks@?1??_Avx2_tail_mask_32@?A0x8417fefe@@YA?AT__m256i@@I@Z@4QBIB 10057968     libcpmt:vector_algorithms.obj
 0003:00002a00       ?_Win_errtab@?A0xdad2e229@@3QBU_Win_errtab_t@1@B 10057a00     libcpmt:syserror.obj
 0003:00002ca0       ?_Sys_errtab@?A0xdad2e229@@3QBU_Sys_errtab_t@1@B 10057ca0     libcpmt:syserror.obj
 0003:00003558       ?_Whitespace_bitmap@?A0xfa98056f@@3U_Whitespace_bitmap_t@1@B 10058558     libcpmt:syserror_import_lib.obj
 0003:00003684       ?msgs@std@@3QBQBDB         10058684     libcpmt:thread0.obj
 0003:000036a0       ?codes@std@@3QBW4errc@1@B  100586a0     libcpmt:thread0.obj
 0003:0000372c       _GS_ExceptionPointers      1005872c     LIBCMT:gs_report.obj
 0003:00003780       ?tokenTable@@3QBUStringLiteral@@B 10058780     libvcruntime:undname.obj
 0003:00003808       ?nameTable@@3QBUStringLiteral@@B 10058808     libvcruntime:undname.obj
 0003:00003aa0       ?rttiTable@@3QBUStringLiteral@@B 10058aa0     libvcruntime:undname.obj
 0003:00003ac8       ?IndirectionName@@3QBUStringLiteral@@B 10058ac8     libvcruntime:undname.obj
 0003:00003af8       ?PrefixName@@3QBUStringLiteral@@B 10058af8     libvcruntime:undname.obj
 0003:00004124       ?module_names@?A0x14174aea@@3QBQB_WB 10059124     libvcruntime:winapi_downlevel.obj
 0003:000041cc       ?candidate_modules@?1??try_get_FlsAlloc@@YAP6GKP6GXPAX@Z@ZXZ@4QBW4module_id@?A0x14174aea@@B 100591cc     libvcruntime:winapi_downlevel.obj
 0003:000041e0       ?candidate_modules@?1??try_get_FlsFree@@YAP6GHK@ZXZ@4QBW4module_id@?A0x14174aea@@B 100591e0     libvcruntime:winapi_downlevel.obj
 0003:000041f0       ?candidate_modules@?1??try_get_FlsGetValue@@YAP6GPAXK@ZXZ@4QBW4module_id@?A0x14174aea@@B 100591f0     libvcruntime:winapi_downlevel.obj
 0003:00004204       ?candidate_modules@?1??try_get_FlsSetValue@@YAP6GHKPAX@ZXZ@4QBW4module_id@?A0x14174aea@@B 10059204     libvcruntime:winapi_downlevel.obj
 0003:00004218       ?candidate_modules@?1??try_get_InitializeCriticalSectionEx@@YAP6GHPAU_RTL_CRITICAL_SECTION@@KK@ZXZ@4QBW4module_id@?A0x14174aea@@B 10059218     libvcruntime:winapi_downlevel.obj
 0003:00004458       ?errtable@@3QBUerrentry@?A0x31fdb9ec@@B 10059458     libucrt:errno.obj
 0003:00004688       ___acrt_initializers       10059688     libucrt:initialization.obj
 0003:00004708       ?strings@?1??fp_format_nan_or_infinity@@YAHW4__acrt_fp_class@@_NPADI1@Z@4QAY03QBDA 10059708     libucrt:cvt.obj
 0003:00005458       ?module_names@?A0x391cf84c@@3QBQB_WB 1005a458     libucrt:winapi_thunks.obj
 0003:000059a8       ?candidate_modules@?1??try_get_AreFileApisANSI@@YAP6GHXZXZ@4QBW4module_id@?A0x391cf84c@@B 1005a9a8     libucrt:winapi_thunks.obj
 0003:000059bc       ?candidate_modules@?1??try_get_FlsGetValue2@@YAP6GPAXK@ZXZ@4QBW4module_id@?A0x391cf84c@@B 1005a9bc     libucrt:winapi_thunks.obj
 0003:000059d4       ?candidate_modules@?1??try_get_LCMapStringEx@@YAP6GHPB_WK0HPA_WHPAU_nlsversioninfo@@PAXJ@ZXZ@4QBW4module_id@?A0x391cf84c@@B 1005a9d4     libucrt:winapi_thunks.obj
 0003:000059ec       ?candidate_modules@?1??try_get_LocaleNameToLCID@@YAP6GKPB_WK@ZXZ@4QBW4module_id@?A0x391cf84c@@B 1005a9ec     libucrt:winapi_thunks.obj
 0003:00005a08       ?candidate_modules@?1??try_get_RoInitialize@@YAP6GJW4RO_INIT_TYPE@@@ZXZ@4QBW4module_id@?A0x391cf84c@@B 1005aa08     libucrt:winapi_thunks.obj
 0003:00005a1c       ?candidate_modules@?1??try_get_RoUninitialize@@YAP6GXXZXZ@4QBW4module_id@?A0x391cf84c@@B 1005aa1c     libucrt:winapi_thunks.obj
 0003:00005a30       ?candidate_modules@?1??try_get_AppPolicyGetProcessTerminationMethod@@YAP6GJPAXPAW4AppPolicyProcessTerminationMethod@@@ZXZ@4QBW4module_id@?A0x391cf84c@@B 1005aa30     libucrt:winapi_thunks.obj
 0003:00005a5c       ?candidate_modules@?1??try_get_AppPolicyGetThreadInitializationType@@YAP6GJPAXPAW4AppPolicyThreadInitializationType@@@ZXZ@4QBW4module_id@?A0x391cf84c@@B 1005aa5c     libucrt:winapi_thunks.obj
 0003:00005a88       ?_mb_locale_names@@3QBQB_WB 1005aa88     libucrt:mbctype.obj
 0003:000064b8       ?LcidToLocaleNameTable@?A0x881e4c05@@3QBULcidToLocaleName@1@B 1005b4b8     libucrt:lcidtoname_downlevel.obj
 0003:000075d8       ?LocaleNameToIndexTable@?A0x881e4c05@@3QBULocaleNameIndex@1@B 1005c5d8     libucrt:lcidtoname_downlevel.obj
 0003:00008530       emask                      1005d530     libucrt:log10_sse2_precise.obj
 0003:00008540       CC                         1005d540     libucrt:log10_sse2_precise.obj
 0003:00008550       Magic                      1005d550     libucrt:log10_sse2_precise.obj
 0003:00008560       hi_mask                    1005d560     libucrt:log10_sse2_precise.obj
 0003:00008570       LOG10_2                    1005d570     libucrt:log10_sse2_precise.obj
 0003:00008580       place_L                    1005d580     libucrt:log10_sse2_precise.obj
 0003:000085a0       One                        1005d5a0     libucrt:log10_sse2_precise.obj
 0003:000085b0       Zero                       1005d5b0     libucrt:log10_sse2_precise.obj
 0003:000085c0       Two52                      1005d5c0     libucrt:log10_sse2_precise.obj
 0003:000085d0       Infs                       1005d5d0     libucrt:log10_sse2_precise.obj
 0003:000085e0       NaN                        1005d5e0     libucrt:log10_sse2_precise.obj
 0003:000085f0       coeff                      1005d5f0     libucrt:log10_sse2_precise.obj
 0003:00008630       _One                       1005d630     libucrt:ceil_pentium4.obj
 0003:00008640       _Bns                       1005d640     libucrt:ceil_pentium4.obj
 0003:00008650       _Zero                      1005d650     libucrt:ceil_pentium4.obj
 0003:00008660       _S                         1005d660     libucrt:ceil_pentium4.obj
 0003:00008670       _NegZero                   1005d670     libucrt:ceil_pentium4.obj
 0003:000086b0       LOG_name                   1005d6b0     libucrt:log10_impl.obj
 0003:00008ef0       _over                      1005def0     libucrt:fpctrl.obj
 0003:00008efc       _under                     1005defc     libucrt:fpctrl.obj
 0003:00008f10       emask                      1005df10     libucrt:log10_pentium4.obj
 0003:00008f20       CC                         1005df20     libucrt:log10_pentium4.obj
 0003:00008f30       Magic                      1005df30     libucrt:log10_pentium4.obj
 0003:00008f40       hi_mask                    1005df40     libucrt:log10_pentium4.obj
 0003:00008f50       LOG10_2                    1005df50     libucrt:log10_pentium4.obj
 0003:00008f60       place_L                    1005df60     libucrt:log10_pentium4.obj
 0003:00008f80       One                        1005df80     libucrt:log10_pentium4.obj
 0003:00008f90       Zero                       1005df90     libucrt:log10_pentium4.obj
 0003:00008fa0       Two52                      1005dfa0     libucrt:log10_pentium4.obj
 0003:00008fb0       Infs                       1005dfb0     libucrt:log10_pentium4.obj
 0003:00008fc0       NaN                        1005dfc0     libucrt:log10_pentium4.obj
 0003:00008fd0       coeff                      1005dfd0     libucrt:log10_pentium4.obj
 0003:0000902e       _log2max                   1005e02e     libucrt:87tran.obj
 0003:00009038       _smallarg                  1005e038     libucrt:87tran.obj
 0003:00009042       _half                      1005e042     libucrt:87tran.obj
 0003:0000908e       One                        1005e08e     libucrt:87disp.obj
 0003:00009096       Three                      1005e096     libucrt:87disp.obj
 0003:0000909e       XAMtoTagTab                1005e09e     libucrt:87disp.obj
 0003:000090b0       One                        1005e0b0     libucrt:common.obj
 0003:000090c4       DblMax                     1005e0c4     libucrt:common.obj
 0003:000090cc       DblMin                     1005e0cc     libucrt:common.obj
 0003:000090d4       IeeeAdjO                   1005e0d4     libucrt:common.obj
 0003:000090dc       IeeeAdjU                   1005e0dc     libucrt:common.obj
 0003:000090e4       _infinity                  1005e0e4     libucrt:common.obj
 0003:000090ec       _zero                      1005e0ec     libucrt:common.obj
 0003:000090f8       ?_names@?1??_get_fname@@9@4QBU<unnamed-type-_names>@?1??1@YAPADI@Z@B 1005e0f8     libucrt:fpexcept.obj
 0003:000093d8       ?hexDigits@?1??SetBinary@IniFileSettings@@UAEXPB_WPBEI@Z@4QB_WB 1005e3d8     portable_settings.obj
 0003:0000be80       ?arm64Shellcode@?A0x5857acc8@@3QBEB 10060e80     dll_inject.obj
 0003:0000c850       ?x64Shellcode@?A0x5857acc8@@3QBEB 10061850     dll_inject.obj
 0003:0000d368       ?x32Shellcode@?A0x5857acc8@@3QBEB 10062368     dll_inject.obj
 0003:0000ddd0       ?emptySettingStringValue@?A0x64030c04@@3QB_WB 10062dd0     mod.obj
 0003:0000ddd8       _g_rceCopyMap              10062dd8     Disassembler.obj
 0003:0000df40       _g_rbModRm                 10062f40     Disassembler.obj
 0003:0000e040       _g_rceCopyTable            10063040     Disassembler.obj
 0003:0000e140       _g_rceCopyTable0F          10063140     Disassembler.obj
 0003:0000e240       _g_MmMoveImages            10063240     Memory.obj
 0003:0000e248       _g_MmMoveImagesKey         10063248     Memory.obj
 0003:0000e260       _g_MmKeyPath               10063260     Memory.obj
 0003:0000e268       ?lookup@?6??ZydisGetCompDispScaleMvex@@9@9 10063268     Zydis.obj
 0003:0000e280       ?broadcasts@?M@??ZydisSetAVXInformation@@9@9 10063280     Zydis.obj
 0003:0000e2b0       _STR_SIZE_8_ATT            100632b0     Zydis.obj
 0003:0000e2b8       _STR_INVALID_REG           100632b8     Zydis.obj
 0003:0000e2c0       _TOK_DATA_ADDR_RELATIVE    100632c0     Zydis.obj
 0003:00027658       _TOK_DATA_DECO_FLOAT16     1007c658     Zydis.obj
 0003:00027670       _TOK_DECO_8TO16            1007c670     Zydis.obj
 0003:00027674       _TOK_DATA_DECO_SAE         1007c674     Zydis.obj
 0003:00027688       _STR_PREF_REX_4C           1007c688     Zydis.obj
 0003:00027690       ?lookup@?1??ZydisGetAszFromHint@@9@9 1007c690     Zydis.obj
 0003:00027698       _FORMATTER_INTEL           1007c698     Zydis.obj
 0003:000277f0       _TOK_DECO_RZ               1007c7f0     Zydis.obj
 0003:000277f4       _STR_NEAR                  1007c7f4     Zydis.obj
 0003:000277fc       _STR_PREF_REX_48           1007c7fc     Zydis.obj
 0003:00027804       _STR_PREF_REX_45           1007c804     Zydis.obj
 0003:0002780c       _TOK_PREF_SEG_FS           1007c80c     Zydis.obj
 0003:00027810       ?scales@?9??ZydisGetCompDispScaleEvex@@9@9 1007c810     Zydis.obj
 0003:00027814       ?lookup@?CD@??ZydisSetAVXInformation@@9@9 1007c814     Zydis.obj
 0003:0002782c       _STR_DECO_CCCC             1007c82c     Zydis.obj
 0003:00029280       _TOK_PREF_LOCK             1007e280     Zydis.obj
 0003:00029284       _TOK_DATA_SIZE_512_INTEL   1007e284     Zydis.obj
 0003:00029298       _TOK_DATA_PREF_SEG_GS      1007e298     Zydis.obj
 0003:000292a4       _STR_DECO_UINT16           1007e2a4     Zydis.obj
 0003:000292ac       _TOK_DECO_1TO2             1007e2ac     Zydis.obj
 0003:000292b0       _STR_SIZE_80               1007e2b0     Zydis.obj
 0003:000292b8       ?decoder_modes@?1??ZydisDecoderInit@@9@9 1007e2b8     Zydis.obj
 0003:000292bc       _TOK_DATA_PREF_REX_46      1007e2bc     Zydis.obj
 0003:000292cc       _TOK_DATA_MEMORY_BEGIN_ATT 1007e2cc     Zydis.obj
 0003:000292d4       _TOK_DECO_1TO16            1007e2d4     Zydis.obj
 0003:0003c3e4       ?encoding_lookup@?1??ZydisGetEncodableEncoding@@9@9 100913e4     Zydis.obj
 0003:0003c3fc       _TOK_DATA_PREF_REX_42      100913fc     Zydis.obj
 0003:0003c40c       _TOK_DECO_1TO64            1009140c     Zydis.obj
 0003:0003c410       _TOK_DATA_PREF_REP         10091410     Zydis.obj
 0003:0003c420       _STR_REGISTERS             10091420     Zydis.obj
 0003:0003c954       _STR_SIZE_8_INTEL          10091954     Zydis.obj
 0003:0003c95c       ?scales@?N@??ZydisSetAVXInformation@@9@9 1009195c     Zydis.obj
 0003:0003c960       _STR_DECO_UINT8            10091960     Zydis.obj
 0003:0003c968       _TOK_DATA_DECO_1TO8        10091968     Zydis.obj
 0003:0003c980       _TOK_DATA_DECO_1TO16       10091980     Zydis.obj
 0003:0003c998       _TOK_DATA_DECO_RD          10091998     Zydis.obj
 0003:0003c9ac       _TOK_PREF_SEG_DS           100919ac     Zydis.obj
 0003:0003c9b0       _TOK_DATA_PREF_REX_4B      100919b0     Zydis.obj
 0003:0003c9c0       _TOK_PREF_REP              100919c0     Zydis.obj
 0003:0003c9c4       _TOK_DELIM_MEMORY          100919c4     Zydis.obj
 0003:0003c9c8       _TOK_DATA_PREF_XACQUIRE    100919c8     Zydis.obj
 0003:0003c9e4       _DECIMAL_LOOKUP            100919e4     Zydis.obj
 0003:0003c9e8       ?scales@?8??ZydisGetCompDispScaleEvex@@9@9 100919e8     Zydis.obj
 0003:0003ca04       ?lookup@?7??ZydisGetCompDispScaleMvex@@9@9 10091a04     Zydis.obj
 0003:0003ca10       ?lookup@?8??ZydisGetCompDispScaleMvex@@9@9 10091a10     Zydis.obj
 0003:0003ca20       _TOK_DATA_IMMEDIATE        10091a20     Zydis.obj
 0003:0003d580       _STR_PREF_REP              10092580     Zydis.obj
 0003:0003d588       _STR_PREF_SEG_GS           10092588     Zydis.obj
 0003:0003dc90       _STR_PREF_REX              10092c90     Zydis.obj
 0003:0003dcd0       _TOK_DECO_UINT16           10092cd0     Zydis.obj
 0003:0003dcd8       _INSTR_ENCODINGS           10092cd8     Zydis.obj
 0003:0003ddf0       _TOK_DATA_DECO_RU          10092df0     Zydis.obj
 0003:0003de10       _STR_DECO_RN_SAE           10092e10     Zydis.obj
 0003:0003de18       _STR_PREF_REX_47           10092e18     Zydis.obj
 0003:0003de20       _STR_PREF_BND              10092e20     Zydis.obj
 0003:0003de28       ?scales@?BG@??ZydisSetAVXInformation@@9@9 10092e28     Zydis.obj
 0003:0003de2c       ?lookup@?6??ZydisSetAVXInformation@@9@9 10092e2c     Zydis.obj
 0003:0003de34       _TOK_DECO_RU               10092e34     Zydis.obj
 0003:0003de38       _TOK_INVALID_REG           10092e38     Zydis.obj
 0003:0003de3c       _STR_DECO_1TO2             10092e3c     Zydis.obj
 0003:0003de50       ?asz_priority@?L@??ZydisEncoderEncodeInstructionAbsolute@@9@9 10092e50     Zydis.obj
 0003:0003de5c       ?available_regs@?1??ZydisPopulateRegisterIds@@9@9 10092e5c     Zydis.obj
 0003:0003de74       _TOK_DECO_BEGIN            10092e74     Zydis.obj
 0003:0003de78       _STR_PREF_XACQUIRE         10092e78     Zydis.obj
 0003:0003de80       _STR_WHITESPACE            10092e80     Zydis.obj
 0003:0003de88       _TOK_DATA_PREF_REX_47      10092e88     Zydis.obj
 0003:0003de98       _TOK_DATA_DELIM_SEGMENT    10092e98     Zydis.obj
 0003:0003dea0       _TOK_DATA_DECO_DACB        10092ea0     Zydis.obj
 0003:0003deb8       _TOK_MEMORY_END_INTEL      10092eb8     Zydis.obj
 0003:0003debc       _STR_MEMORY_BEGIN_ATT      10092ebc     Zydis.obj
 0003:0003dec4       _TOK_DECO_SINT16           10092ec4     Zydis.obj
 0003:0003dec8       ?broadcasts@?BJ@??ZydisSetAVXInformation@@9@9 10092ec8     Zydis.obj
 0003:0003defc       _STR_PREF_REX_46           10092efc     Zydis.obj
 0003:0003df04       _TOK_DATA_PREF_REX_4A      10092f04     Zydis.obj
 0003:0003df14       _TOK_DATA_DECO_ZERO        10092f14     Zydis.obj
 0003:0004df60       _TOK_SIZE_512_INTEL        100a2f60     Zydis.obj
 0003:0004df64       _STR_PREF_REX_4A           100a2f64     Zydis.obj
 0003:0004df6c       _TOK_DECO_SINT8            100a2f6c     Zydis.obj
 0003:0004df70       _STR_DECO_RD_SAE           100a2f70     Zydis.obj
 0003:0004df78       _STR_SIZE_48               100a2f78     Zydis.obj
 0003:0004df80       ?broadcasts@?5??ZydisSetAVXInformation@@9@9 100a2f80     Zydis.obj
 0003:0004df9c       _TOK_PREF_XRELEASE         100a2f9c     Zydis.obj
 0003:0004dfa0       _STR_DECO_1TO16            100a2fa0     Zydis.obj
 0003:0004dfa8       _STR_PREF_SEG_CS           100a2fa8     Zydis.obj
 0003:0004dfb0       _STR_PREF_REPNE            100a2fb0     Zydis.obj
 0003:0004dfb8       _TOK_SIZE_8_INTEL          100a2fb8     Zydis.obj
 0003:0004dfbc       _TOK_DECO_DDDD             100a2fbc     Zydis.obj
 0003:0004dfc0       _TOK_DATA_PREF_XRELEASE    100a2fc0     Zydis.obj
 0003:0004dfd4       _STR_DECO_CDAB             100a2fd4     Zydis.obj
 0003:0004dfdc       _STR_ADD                   100a2fdc     Zydis.obj
 0003:0004dfe4       _TOK_DATA_PREF_REX_41      100a2fe4     Zydis.obj
 0003:0004dff4       _STR_DECO_RZ               100a2ff4     Zydis.obj
 0003:0004dffc       _STR_INVALID_MNEMONIC      100a2ffc     Zydis.obj
 0003:0004e004       _STR_DECO_SINT16           100a3004     Zydis.obj
 0003:0004e00c       _TOK_DATA_MEMORY_END_ATT   100a300c     Zydis.obj
 0003:0004e014       ?scales@?L@??ZydisGetCompDispScaleEvex@@9@9 100a3014     Zydis.obj
 0003:0004e018       _STR_DECO_RZ_SAE           100a3018     Zydis.obj
 0003:0004e020       ?cr_lookup@?DD@??ZydisIsRegisterOperandCompatible@@9@9 100a3020     Zydis.obj
 0003:0004e030       _STR_MUL                   100a3030     Zydis.obj
 0003:0004e038       _STR_DECO_RU               100a3038     Zydis.obj
 0003:0004e040       _STR_DECO_BADC             100a3040     Zydis.obj
 0003:0004e048       _TOK_IMMEDIATE             100a3048     Zydis.obj
 0003:0004e050       ?lookup@?1??ZydisGetElementInfo@@9@9 100a3050     Zydis.obj
 0003:0004e138       _STR_SIZE_512_ATT          100a3138     Zydis.obj
 0003:0004e140       ?address_size_map@?1??ZydisSetEffectiveAddressWidth@@9@9 100a3140     Zydis.obj
 0003:0004e158       _TOK_DATA_PREF_REX_40      100a3158     Zydis.obj
 0003:0004e168       ?mapping@?2??ZydisSetAttributes@@9@9 100a3168     Zydis.obj
 0003:0004e188       ?lookup@?8??ZydisPopulateRegisterIds@@9@9 100a3188     Zydis.obj
 0003:0004e198       _TOK_DATA_PREF_REX_44      100a3198     Zydis.obj
 0003:0004e1a8       _TOK_DECO_UINT8            100a31a8     Zydis.obj
 0003:0004e1ac       ?scales@?6??ZydisGetCompDispScaleEvex@@9@9 100a31ac     Zydis.obj
 0003:0004e1b4       _TOK_DATA_DECO_1TO2        100a31b4     Zydis.obj
 0003:0004e1cc       _TOK_PREF_NOTRACK          100a31cc     Zydis.obj
 0003:0004e1d0       ?lookup@?3??ZydisSetAVXInformation@@9@9 100a31d0     Zydis.obj
 0003:0004e1d4       _STR_DELIM_MNEMONIC        100a31d4     Zydis.obj
 0003:0004e1dc       ?lookup@?1??ZydisGetOszFromHint@@9@9 100a31dc     Zydis.obj
 0003:0004e1e4       _TOK_PREF_REPE             100a31e4     Zydis.obj
 0003:0004e1e8       _STR_IMMEDIATE             100a31e8     Zydis.obj
 0003:0004e1f0       _STR_PREF_REX_49           100a31f0     Zydis.obj
 0003:0004e1f8       _STR_DECO_BEGIN            100a31f8     Zydis.obj
 0003:0004e200       ?lookup@?1??ZydisGetMachineModeWidth@@9@9 100a3200     Zydis.obj
 0003:0004e208       _TOK_DATA_PREF_SEG_ES      100a3208     Zydis.obj
 0003:0004e214       _TOK_DECO_1TO8             100a3214     Zydis.obj
 0003:0004e218       _STR_PREF_SEG_ES           100a3218     Zydis.obj
 0003:0004e42c       ?scales@?P@??ZydisSetAVXInformation@@9@9 100a342c     Zydis.obj
 0003:0004e434       _TOK_DELIM_SEGMENT         100a3434     Zydis.obj
 0003:0004e438       _TOK_DATA_DECO_EH          100a3438     Zydis.obj
 0003:0004e44c       ?lookup@?4??ZydisSetAVXInformation@@9@9 100a344c     Zydis.obj
 0003:00051c6c       _TOK_DATA_PREF_SEG_DS      100a6c6c     Zydis.obj
 0003:00051c78       ?lookup@?5??ZydisGetCompDispScaleMvex@@9@9 100a6c78     Zydis.obj
 0003:00051c90       ?osz_priority@?L@??ZydisEncoderEncodeInstructionAbsolute@@9@9 100a6c90     Zydis.obj
 0003:00051c9c       _TOK_DECO_AAAA             100a6c9c     Zydis.obj
 0003:00051ca0       ?scales@?7??ZydisGetCompDispScaleEvex@@9@9 100a6ca0     Zydis.obj
 0003:00051ca4       _TOK_DATA_DECO_RD_SAE      100a6ca4     Zydis.obj
 0003:00051cbc       _STR_SHORT                 100a6cbc     Zydis.obj
 0003:00051cc4       _TOK_INVALID_MNEMONIC      100a6cc4     Zydis.obj
 0003:000586a8       _STR_SIZE_128_ATT          100ad6a8     Zydis.obj
 0003:000586d8       _STR_PREF_REX_4D           100ad6d8     Zydis.obj
 0003:000586e0       _STR_PREF_REX_43           100ad6e0     Zydis.obj
 0003:000586e8       ?broadcasts@?L@??ZydisSetAVXInformation@@9@9 100ad6e8     Zydis.obj
 0003:00058730       _TOK_DECO_BBBB             100ad730     Zydis.obj
 0003:00058734       _TOK_SIZE_64_INTEL         100ad734     Zydis.obj
 0003:00058738       _STR_DECO_ZERO             100ad738     Zydis.obj
 0003:00058740       _TOK_PREF_SEG_CS           100ad740     Zydis.obj
 0003:00058744       _STR_DECO_1TO32            100ad744     Zydis.obj
 0003:000587c8       _TOK_DATA_PREF_REX_45      100ad7c8     Zydis.obj
 0003:000587d8       ?info_lookup@?1??ZydisGetRelInfo@@9@9 100ad7d8     Zydis.obj
 0003:0005df08       ?size_indexes@?1??ZydisGetCompDispScaleEvex@@9@9 100b2f08     Zydis.obj
 0003:0005df10       _TOK_PREF_BND              100b2f10     Zydis.obj
 0003:0005f8a4       _TOK_MEMORY_BEGIN_INTEL    100b48a4     Zydis.obj
 0003:0005f8a8       _STR_SIZE_64_INTEL         100b48a8     Zydis.obj
 0003:0005f8b0       _TOK_DECO_CCCC             100b48b0     Zydis.obj
 0003:0005f8b4       _TOK_DATA_SIZE_48          100b48b4     Zydis.obj
 0003:0005f8c8       _TOK_DECO_RU_SAE           100b48c8     Zydis.obj
 0003:0005f8d0       _FORMATTER_INTEL_MASM      100b48d0     Zydis.obj
 0003:0005fa28       _TOK_DATA_DELIM_MEMORY     100b4a28     Zydis.obj
 0003:0005fa30       _STR_DECO_1TO8             100b4a30     Zydis.obj
 0003:0005fa38       ?scales@?BH@??ZydisSetAVXInformation@@9@9 100b4a38     Zydis.obj
 0003:0005fa40       ?simm32_32_64_sizes@?4??ZydisGetEffectiveImmSize@@9@9 100b4a40     Zydis.obj
 0003:0005fa48       ?lookup@?CE@??ZydisSetAVXInformation@@9@9 100b4a48     Zydis.obj
 0003:0005fa54       _TOK_PREF_SEG_ES           100b4a54     Zydis.obj
 0003:0005fa58       _TOK_DATA_DECO_RZ          100b4a58     Zydis.obj
 0003:0005fa6c       _TOK_DECO_RN               100b4a6c     Zydis.obj
 0003:0005fa70       ?jimm16_32_32_sizes@?BB@??ZydisGetEffectiveImmSize@@9@9 100b4a70     Zydis.obj
 0003:0005fb74       _TOK_DECO_EH               100b4b74     Zydis.obj
 0003:0005fb78       _REG_LOOKUP                100b4b78     Zydis.obj
 0003:000607f0       _STR_MNEMONIC              100b57f0     Zydis.obj
 0003:00062af8       ?scales@?BE@??ZydisSetAVXInformation@@9@9 100b7af8     Zydis.obj
 0003:00062afc       _TOK_DATA_SIZE_128_INTEL   100b7afc     Zydis.obj
 0003:00062b10       _STR_PREF_REX_40           100b7b10     Zydis.obj
 0003:00062b18       ?lookup@?CG@??ZydisSetAVXInformation@@9@9 100b7b18     Zydis.obj
 0003:00062b1c       ?scales@?M@??ZydisSetAVXInformation@@9@9 100b7b1c     Zydis.obj
 0003:00062b28       ?scales@?L@??ZydisSetAVXInformation@@9@9 100b7b28     Zydis.obj
 0003:00062b48       _TOK_PREF_XACQUIRE         100b7b48     Zydis.obj
 0003:00062b4c       _STR_DECO_4TO16            100b7b4c     Zydis.obj
 0003:00062b54       ?lookup@?CC@??ZydisSetAVXInformation@@9@9 100b7b54     Zydis.obj
 0003:00062b6c       _TOK_SIZE_80               100b7b6c     Zydis.obj
 0003:00062b70       _STR_DELIM_SEGMENT         100b7b70     Zydis.obj
 0003:00062b80       _TOK_DATA_DECO_AAAA        100b7b80     Zydis.obj
 0003:00062b98       _STR_PREF_SEG_FS           100b7b98     Zydis.obj
 0003:00062ba0       _STR_FAR_ATT               100b7ba0     Zydis.obj
 0003:00062ba8       _TOK_DECO_FLOAT16          100b7ba8     Zydis.obj
 0003:00062bac       _TOK_DATA_DECO_4TO16       100b7bac     Zydis.obj
 0003:00062bc4       _TOK_DATA_MEMORY_END_INTEL 100b7bc4     Zydis.obj
 0003:00062bcc       _STR_DECO_1TO64            100b7bcc     Zydis.obj
 0003:00062bd8       _ACCESSED_FLAGS            100b7bd8     Zydis.obj
 0003:00063740       _TOK_DATA_REGISTER         100b8740     Zydis.obj
 0003:00063748       _TOK_DATA_DECO_RZ_SAE      100b8748     Zydis.obj
 0003:00063760       _STR_DECO_END              100b8760     Zydis.obj
 0003:00063768       _TOK_DATA_DECO_SINT8       100b8768     Zydis.obj
 0003:00063780       _TOK_PREF_SEG_GS           100b8780     Zydis.obj
 0003:00063a28       _TOK_DATA_SIZE_256_INTEL   100b8a28     Zydis.obj
 0003:00063a3c       _TOK_MUL                   100b8a3c     Zydis.obj
 0003:00063a40       _TOK_DATA_SIZE_32_INTEL    100b8a40     Zydis.obj
 0003:00063a54       _TOK_DATA_DECO_BBBB        100b8a54     Zydis.obj
 0003:00063a6c       _STR_DECO_AAAA             100b8a6c     Zydis.obj
 0003:00063a74       _TOK_DATA_PREF_REX_4E      100b8a74     Zydis.obj
 0003:00063a84       _TOK_DECO_ZERO             100b8a84     Zydis.obj
 0003:00063a88       _TOK_DATA_DECO_CCCC        100b8a88     Zydis.obj
 0003:00063aa0       _TOK_SIZE_32_INTEL         100b8aa0     Zydis.obj
 0003:00063aa4       _STR_SIZE_32_INTEL         100b8aa4     Zydis.obj
 0003:00063aac       ?scales@?BF@??ZydisSetAVXInformation@@9@9 100b8aac     Zydis.obj
 0003:00063ab0       ?indices@?3??ZydisDecodeOperandMemory@@9@9 100b8ab0     Zydis.obj
 0003:00063ad0       _STR_DECO_DACB             100b8ad0     Zydis.obj
 0003:00063ad8       _STR_SIZE_256_ATT          100b8ad8     Zydis.obj
 0003:00063ae4       _TOK_DATA_DECO_UINT16      100b8ae4     Zydis.obj
 0003:00063afc       _STR_PREF_REX_42           100b8afc     Zydis.obj
 0003:00063b04       _TOK_REGISTER              100b8b04     Zydis.obj
 0003:00063b08       _TOK_DATA_ADD              100b8b08     Zydis.obj
 0003:00063b10       _TOK_ADD                   100b8b10     Zydis.obj
 0003:00063b14       _STR_SIZE_128_INTEL        100b8b14     Zydis.obj
 0003:00063b1c       ?lookup@?1??ZydisDecodeOperandImplicitMemory@@9@9 100b8b1c     Zydis.obj
 0003:00063b28       ?bases@?3??ZydisDecodeOperandMemory@@9@9 100b8b28     Zydis.obj
 0003:00063b48       _STR_SIZE_64_ATT           100b8b48     Zydis.obj
 0003:00063b50       _STR_SIZE_16_INTEL         100b8b50     Zydis.obj
 0003:00063b58       _TOK_DECO_RD               100b8b58     Zydis.obj
 0003:00063b5c       _FORMATTER_PRESETS         100b8b5c     Zydis.obj
 0003:00063b68       ?lookup@?N@??ZydisCheckErrorConditions@@9@9 100b8b68     Zydis.obj
 0003:00063c38       _TOK_DATA_PREF_REX_49      100b8c38     Zydis.obj
 0003:00063c48       ?branch_lookup@?1??ZydisEncoderCheckRequestSanity@@9@9 100b8c48     Zydis.obj
 0003:00063c5c       _TOK_DECO_DACB             100b8c5c     Zydis.obj
 0003:00063c60       ?operand_size_map@?1??ZydisSetEffectiveOperandWidth@@9@9 100b8c60     Zydis.obj
 0003:00063ca0       ?eosz_priority_lookup@?7??ZydisGetOperandSizeFromElementSize@@9@9 100b8ca0     Zydis.obj
 0003:00063cac       _TOK_DECO_END              100b8cac     Zydis.obj
 0003:00063cb0       _STR_DECO_4TO8             100b8cb0     Zydis.obj
 0003:00063cb8       _STR_REGISTER              100b8cb8     Zydis.obj
 0003:00063cc0       _TOK_DATA_INVALID_MNEMONIC 100b8cc0     Zydis.obj
 0003:00064720       _TOK_PREF_REPNE            100b9720     Zydis.obj
 0003:00064724       _TOK_ADDR_RELATIVE         100b9724     Zydis.obj
 0003:00064730       _TOK_DELIM_MNEMONIC        100b9730     Zydis.obj
 0003:00064734       _TOK_DATA_DECO_4TO8        100b9734     Zydis.obj
 0003:0006474c       ?scales@?BD@??ZydisSetAVXInformation@@9@9 100b974c     Zydis.obj
 0003:00064750       _STR_DECO_RN               100b9750     Zydis.obj
 0003:00064758       ?mapping@?3??ZydisSetAttributes@@9@9 100b9758     Zydis.obj
 0003:00064778       _STR_DECO_1TO4             100b9778     Zydis.obj
 0003:00064780       _TOK_DATA_PREF_NOTRACK     100b9780     Zydis.obj
 0003:00064790       ?scales@?M@??ZydisGetCompDispScaleEvex@@9@9 100b9790     Zydis.obj
 0003:00064798       ?nops@?1??ZydisEncoderNopFill@@9@9 100b9798     Zydis.obj
 0003:00064818       _FORMATTER_ATT             100b9818     Zydis.obj
 0003:00064970       _TOK_DATA_PREF_SEG_FS      100b9970     Zydis.obj
 0003:0006497c       _TOK_DATA_SIZE_64_INTEL    100b997c     Zydis.obj
 0003:00064990       _TOK_DATA_DECO_RN          100b9990     Zydis.obj
 0003:000649a4       ?scales@?4??ZydisGetCompDispScaleEvex@@9@9 100b99a4     Zydis.obj
 0003:000649b0       _TOK_DATA_PREF_REX_48      100b99b0     Zydis.obj
 0003:000649c0       _STR_DECO_FLOAT16          100b99c0     Zydis.obj
 0003:000649c8       _STR_PREF_SEG_SS           100b99c8     Zydis.obj
 0003:000649d0       _TOK_MEMORY_BEGIN_ATT      100b99d0     Zydis.obj
 0003:000649d4       _TOK_DATA_DECO_8TO16       100b99d4     Zydis.obj
 0003:000649ec       _TOK_DATA_DECO_UINT8       100b99ec     Zydis.obj
 0003:00064a04       _STR_DELIM_OPERAND         100b9a04     Zydis.obj
 0003:00064a0c       ?simm16_32_32_sizes@?5??ZydisGetEffectiveImmSize@@9@9 100b9a0c     Zydis.obj
 0003:00064a14       ?broadcasts@?BH@??ZydisSetAVXInformation@@9@9 100b9a14     Zydis.obj
 0003:00064a2c       _STR_DECO_DDDD             100b9a2c     Zydis.obj
 0003:00064a34       _STR_PREF_REPE             100b9a34     Zydis.obj
 0003:00064a44       _TOK_DATA_PREF_REX_4C      100b9a44     Zydis.obj
 0003:00064a54       _STR_SIZE_32_ATT           100b9a54     Zydis.obj
 0003:00064a5c       ?element_sizes@?BD@??ZydisIsMemoryOperandCompatible@@9@9 100b9a5c     Zydis.obj
 0003:00064a68       _TOK_PREF_REX              100b9a68     Zydis.obj
 0003:00064aa8       _STR_PREF_REX_41           100b9aa8     Zydis.obj
 0003:00064ab0       _TOK_DELIM_OPERAND         100b9ab0     Zydis.obj
 0003:00064ab4       _STR_ADDR_RELATIVE         100b9ab4     Zydis.obj
 0003:00064abc       _TOK_DECO_BADC             100b9abc     Zydis.obj
 0003:00064ac0       _STR_PREF_SEG_DS           100b9ac0     Zydis.obj
 0003:00064ac8       _STR_SUB                   100b9ac8     Zydis.obj
 0003:00064ad0       _STR_DECO_RD               100b9ad0     Zydis.obj
 0003:00064ad8       _TOK_DATA_PREF_REX_43      100b9ad8     Zydis.obj
 0003:00064ae8       _TOK_DECO_4TO16            100b9ae8     Zydis.obj
 0003:00064dbc       _TOK_DECO_RD_SAE           100b9dbc     Zydis.obj
 0003:00064dc0       _STR_MEMORY_BEGIN_INTEL    100b9dc0     Zydis.obj
 0003:00064dc8       _TOK_DATA_PREF_REX_4F      100b9dc8     Zydis.obj
 0003:00064ddc       _TOK_DATA_PREF_BND         100b9ddc     Zydis.obj
 0003:00064de8       _TOK_DATA_SUB              100b9de8     Zydis.obj
 0003:00064df0       _STR_DECO_SAE              100b9df0     Zydis.obj
 0003:00064df8       _TOK_DATA_DECO_BEGIN       100b9df8     Zydis.obj
 0003:00064e04       _STR_PREF_XRELEASE         100b9e04     Zydis.obj
 0003:00064e0c       ?simm16_32_64_sizes@?3??ZydisGetEffectiveImmSize@@9@9 100b9e0c     Zydis.obj
 0003:00064e14       _TOK_DATA_SIZE_16_INTEL    100b9e14     Zydis.obj
 0003:00064e28       ?mask_reg@?2??ZydisPopulateRegisterIds@@9@9 100b9e28     Zydis.obj
 0003:00064e34       _TOK_DATA_PREF_REPE        100b9e34     Zydis.obj
 0003:00064e44       ?mask_rm@?2??ZydisPopulateRegisterIds@@9@9 100b9e44     Zydis.obj
 0003:00064e50       _TOK_DATA_DELIM_OPERAND    100b9e50     Zydis.obj
 0003:00064e5c       _STR_MEMORY_END_ATT        100b9e5c     Zydis.obj
 0003:00064e68       _REG_CLASS_LOOKUP          100b9e68     Zydis.obj
 0003:00065618       ?element_sizes@?8??ZydisSetAVXInformation@@9@9 100ba618     Zydis.obj
 0003:00065620       _TOK_DECO_RZ_SAE           100ba620     Zydis.obj
 0003:00065624       ?scales@?N@??ZydisGetCompDispScaleEvex@@9@9 100ba624     Zydis.obj
 0003:0006562c       _TOK_SIZE_128_INTEL        100ba62c     Zydis.obj
 0003:00065630       _STR_DECO_8TO16            100ba630     Zydis.obj
 0003:00065638       _TOK_DATA_DECO_RN_SAE      100ba638     Zydis.obj
 0003:00065650       _TOK_DATA_DECO_DDDD        100ba650     Zydis.obj
 0003:00065668       _TOK_DATA_DECO_END         100ba668     Zydis.obj
 0003:00065670       _TOK_DECO_4TO8             100ba670     Zydis.obj
 0003:00065674       _TOK_DECO_SAE              100ba674     Zydis.obj
 0003:0006e078       _TOK_DATA_PREF_SEG_CS      100c3078     Zydis.obj
 0003:0006e084       _TOK_DECO_RN_SAE           100c3084     Zydis.obj
 0003:0006e088       _TOK_SIZE_48               100c3088     Zydis.obj
 0003:0006e08c       _TOK_DATA_DELIM_MNEMONIC   100c308c     Zydis.obj
 0003:0006e094       _STR_SIZE_512_INTEL        100c3094     Zydis.obj
 0003:0006e09c       _STR_MEMORY_END_INTEL      100c309c     Zydis.obj
 0003:0006e0a4       _STR_PREF_LOCK             100c30a4     Zydis.obj
 0003:0006e0ac       _STR_DECO_SINT8            100c30ac     Zydis.obj
 0003:0006e0b4       _TOK_DATA_DECO_RU_SAE      100c30b4     Zydis.obj
 0003:0006e0cc       _STR_DECO_EH               100c30cc     Zydis.obj
 0003:0006e0d4       _TOK_DATA_MUL              100c30d4     Zydis.obj
 0003:0006e0dc       ?scales@?5??ZydisGetCompDispScaleEvex@@9@9 100c30dc     Zydis.obj
 0003:0006e0e0       ?scales@?3??ZydisGetCompDispScaleEvex@@9@9 100c30e0     Zydis.obj
 0003:0006e0f4       _TOK_DATA_DECO_1TO4        100c30f4     Zydis.obj
 0003:0006e10c       _TOK_DATA_PREF_REPNE       100c310c     Zydis.obj
 0003:0006e128       _TOK_DECO_1TO32            100c3128     Zydis.obj
 0003:0006e12c       _TOK_DATA_DECO_1TO32       100c312c     Zydis.obj
 0003:0006e144       _TOK_MEMORY_END_ATT        100c3144     Zydis.obj
 0003:0006e148       _TOK_DATA_DECO_SINT16      100c3148     Zydis.obj
 0003:0006e160       _TOK_DATA_DECO_CDAB        100c3160     Zydis.obj
 0003:0006e178       _TOK_PREF_SEG_SS           100c3178     Zydis.obj
 0003:0006e17c       _STR_PREF_REX_4F           100c317c     Zydis.obj
 0003:0006e184       _TOK_DATA_PREF_REX_4D      100c3184     Zydis.obj
 0003:0006e194       ?lookup@?3??ZydisDecodeOperandImplicitRegister@@9@9 100c3194     Zydis.obj
 0003:0006e1a0       _TOK_DATA_PREF_SEG_SS      100c31a0     Zydis.obj
 0003:0006e1ac       _STR_PREF_REX_4E           100c31ac     Zydis.obj
 0003:0006e1c0       _STR_PREF_REX_44           100c31c0     Zydis.obj
 0003:00076f14       _STR_PREF_REX_4B           100cbf14     Zydis.obj
 0003:00076f20       ?modrm16_lookup@?1??ZydisGetRm16@@9@9 100cbf20     Zydis.obj
 0003:00076f60       _TOK_SUB                   100cbf60     Zydis.obj
 0003:00076f64       _STR_FAR                   100cbf64     Zydis.obj
 0003:00076f6c       ?reg8_lookup@?4??ZydisBuildRegisterOperand@@9@9 100cbf6c     Zydis.obj
 0003:000770f4       _TOK_DATA_PREF_LOCK        100cc0f4     Zydis.obj
 0003:00077104       _STR_SIZE_16_ATT           100cc104     Zydis.obj
 0003:0007710c       _TOK_SIZE_16_INTEL         100cc10c     Zydis.obj
 0003:00077110       _TOK_DATA_SIZE_80          100cc110     Zydis.obj
 0003:00077144       _TOK_DATA_SIZE_8_INTEL     100cc144     Zydis.obj
 0003:00077158       _TOK_DATA_DECO_1TO64       100cc158     Zydis.obj
 0003:00077170       _STR_DECO_RU_SAE           100cc170     Zydis.obj
 0003:00077178       ?scales@?BA@??ZydisSetAVXInformation@@9@9 100cc178     Zydis.obj
 0003:0007717c       _STR_SIZE_256_INTEL        100cc17c     Zydis.obj
 0003:00077188       ?mapping@?4??ZydisSetAttributes@@9@9 100cc188     Zydis.obj
 0003:000771a8       _TOK_DATA_INVALID_REG      100cc1a8     Zydis.obj
 0003:000771b4       _TOK_DATA_DECO_BADC        100cc1b4     Zydis.obj
 0003:000771cc       _STR_DELIM_MEMORY          100cc1cc     Zydis.obj
 0003:000771d4       _TOK_SIZE_256_INTEL        100cc1d4     Zydis.obj
 0003:000771d8       _STR_DECO_BBBB             100cc1d8     Zydis.obj
 0003:000771e0       ?lookup@?CF@??ZydisSetAVXInformation@@9@9 100cc1e0     Zydis.obj
 0003:000771f0       _TOK_DATA_MEMORY_BEGIN_INTEL 100cc1f0     Zydis.obj
 0003:000771f8       _TOK_DECO_1TO4             100cc1f8     Zydis.obj
 0003:000771fc       _STR_PREF_NOTRACK          100cc1fc     Zydis.obj
 0003:00077204       _TOK_DECO_CDAB             100cc204     Zydis.obj
 0003:0007a87c       ??_7?$_Func_impl_no_alloc@V<lambda_3>@?L@??FindFirstSymbol4@LoadedMod@@QAEPAXPAUHINSTANCE__@@PBUtagWH_FIND_SYMBOL_OPTIONS@@PAUtagWH_FIND_SYMBOL@@@Z@XH@std@@6B@ 100cf87c     mod.obj
 0003:0007a898       ??_7?$_Func_impl_no_alloc@V<lambda_2>@?L@??FindFirstSymbol4@LoadedMod@@QAEPAXPAUHINSTANCE__@@PBUtagWH_FIND_SYMBOL_OPTIONS@@PAUtagWH_FIND_SYMBOL@@@Z@_N$$V@std@@6B@ 100cf898     mod.obj
 0003:0007a8b0       ?kErrorCacheVer@HookSymbolsSession@?A0x64030c04@@0_WB 100cf8b0     mod.obj
 0003:0007a8b4       ?kErrorCachePrefix@HookSymbolsSession@?A0x64030c04@@0V?$basic_string_view@_WU?$char_traits@_W@std@@@std@@B 100cf8b4     mod.obj
 0003:0007a8bc       ?kCacheVer@HookSymbolsSession@?A0x64030c04@@0_WB 100cf8bc     mod.obj
 0003:0007ae4c       ??_7?$_Func_impl_no_alloc@V<lambda_1>@?1??ReloadModsAndSettings@ModsManager@@QAEXXZ@XPB_W@std@@6B@ 100cfe4c     mods_manager.obj
 0003:0007ae68       ??_7?$_Func_impl_no_alloc@V<lambda_1>@?1???0ModsManager@@QAE@XZ@XPB_W@std@@6B@ 100cfe68     mods_manager.obj
 0003:0007d000       ??_7DiaLoadCallback@?A0x0a5fb974@@6B@ 100d2000     symbol_enum.obj
 0003:00082380       _bias_low                  100d7380     LIBCMT:ftol3.obj
 0003:00082390       _bias_high                 100d7390     LIBCMT:ftol3.obj
 0003:000823a0       _DP2to32                   100d73a0     LIBCMT:ftol3.obj
 0003:000823a8       _NaN                       100d73a8     LIBCMT:ftol3.obj
 0003:000823ac       _onept5                    100d73ac     LIBCMT:ftol3.obj
 0003:00082f8c       ??_R2?$_Func_impl_no_alloc@V<lambda_3>@?L@??FindFirstSymbol4@LoadedMod@@QAEPAXPAUHINSTANCE__@@PBUtagWH_FIND_SYMBOL_OPTIONS@@PAUtagWH_FIND_SYMBOL@@@Z@XH@std@@8 100d7f8c     mod.obj
 0003:00082f98       ??_R2?$_Func_impl_no_alloc@V<lambda_2>@?L@??FindFirstSymbol4@LoadedMod@@QAEPAXPAUHINSTANCE__@@PBUtagWH_FIND_SYMBOL_OPTIONS@@PAUtagWH_FIND_SYMBOL@@@Z@_N$$V@std@@8 100d7f98     mod.obj
 0003:00082fb4       ??_R1A@?0A@EA@?$_Func_impl_no_alloc@V<lambda_3>@?L@??FindFirstSymbol4@LoadedMod@@QAEPAXPAUHINSTANCE__@@PBUtagWH_FIND_SYMBOL_OPTIONS@@PAUtagWH_FIND_SYMBOL@@@Z@XH@std@@8 100d7fb4     mod.obj
 0003:00082fd0       ??_R1A@?0A@EA@?$_Func_impl_no_alloc@V<lambda_2>@?L@??FindFirstSymbol4@LoadedMod@@QAEPAXPAUHINSTANCE__@@PBUtagWH_FIND_SYMBOL_OPTIONS@@PAUtagWH_FIND_SYMBOL@@@Z@_N$$V@std@@8 100d7fd0     mod.obj
 0003:00083024       ??_R3?$_Func_impl_no_alloc@V<lambda_3>@?L@??FindFirstSymbol4@LoadedMod@@QAEPAXPAUHINSTANCE__@@PBUtagWH_FIND_SYMBOL_OPTIONS@@PAUtagWH_FIND_SYMBOL@@@Z@XH@std@@8 100d8024     mod.obj
 0003:00083034       ??_R3?$_Func_impl_no_alloc@V<lambda_2>@?L@??FindFirstSymbol4@LoadedMod@@QAEPAXPAUHINSTANCE__@@PBUtagWH_FIND_SYMBOL_OPTIONS@@PAUtagWH_FIND_SYMBOL@@@Z@_N$$V@std@@8 100d8034     mod.obj
 0003:00083064       ??_R4?$_Func_impl_no_alloc@V<lambda_3>@?L@??FindFirstSymbol4@LoadedMod@@QAEPAXPAUHINSTANCE__@@PBUtagWH_FIND_SYMBOL_OPTIONS@@PAUtagWH_FIND_SYMBOL@@@Z@XH@std@@6B@ 100d8064     mod.obj
 0003:00083078       ??_R4?$_Func_impl_no_alloc@V<lambda_2>@?L@??FindFirstSymbol4@LoadedMod@@QAEPAXPAUHINSTANCE__@@PBUtagWH_FIND_SYMBOL_OPTIONS@@PAUtagWH_FIND_SYMBOL@@@Z@_N$$V@std@@6B@ 100d8078     mod.obj
 0003:0008308c       ??_R2?$_Func_impl_no_alloc@V<lambda_1>@?1??ReloadModsAndSettings@ModsManager@@QAEXXZ@XPB_W@std@@8 100d808c     mods_manager.obj
 0003:00083098       ??_R2?$_Func_impl_no_alloc@V<lambda_1>@?1???0ModsManager@@QAE@XZ@XPB_W@std@@8 100d8098     mods_manager.obj
 0003:000830ac       ??_R1A@?0A@EA@?$_Func_impl_no_alloc@V<lambda_1>@?1??ReloadModsAndSettings@ModsManager@@QAEXXZ@XPB_W@std@@8 100d80ac     mods_manager.obj
 0003:000830c8       ??_R1A@?0A@EA@?$_Func_impl_no_alloc@V<lambda_1>@?1???0ModsManager@@QAE@XZ@XPB_W@std@@8 100d80c8     mods_manager.obj
 0003:00083100       ??_R3?$_Func_impl_no_alloc@V<lambda_1>@?1??ReloadModsAndSettings@ModsManager@@QAEXXZ@XPB_W@std@@8 100d8100     mods_manager.obj
 0003:00083110       ??_R3?$_Func_impl_no_alloc@V<lambda_1>@?1???0ModsManager@@QAE@XZ@XPB_W@std@@8 100d8110     mods_manager.obj
 0003:00083130       ??_R4?$_Func_impl_no_alloc@V<lambda_1>@?1??ReloadModsAndSettings@ModsManager@@QAEXXZ@XPB_W@std@@6B@ 100d8130     mods_manager.obj
 0003:00083144       ??_R4?$_Func_impl_no_alloc@V<lambda_1>@?1???0ModsManager@@QAE@XZ@XPB_W@std@@6B@ 100d8144     mods_manager.obj
 0003:00083378       ??_R2DiaLoadCallback@?A0x0a5fb974@@8 100d8378     symbol_enum.obj
 0003:000833f8       ??_R1A@?0A@EA@DiaLoadCallback@?A0x0a5fb974@@8 100d83f8     symbol_enum.obj
 0003:000834c0       ??_R3DiaLoadCallback@?A0x0a5fb974@@8 100d84c0     symbol_enum.obj
 0003:00083548       ??_R4DiaLoadCallback@?A0x0a5fb974@@6B@ 100d8548     symbol_enum.obj
 0003:00083d30       __ehfuncinfo$?RawItemToInt@RegistrySettingsHelperFunctions@?A0x1960b386@@YAHV?$basic_string@_WU?$char_traits@_W@std@@V?$allocator@_W@2@@std@@KK@Z 100d8d30     portable_settings.obj
 0003:00083d54       __unwindtable$?RawItemToInt@RegistrySettingsHelperFunctions@?A0x1960b386@@YAHV?$basic_string@_WU?$char_traits@_W@std@@V?$allocator@_W@2@@std@@KK@Z 100d8d54     portable_settings.obj
 0003:00083d5c       __ehfuncinfo$?RawItemToString@RegistrySettingsHelperFunctions@?A0x1960b386@@YA?AV?$basic_string@_WU?$char_traits@_W@std@@V?$allocator@_W@2@@std@@V34@KK@Z 100d8d5c     portable_settings.obj
 0003:00083d80       __unwindtable$?RawItemToString@RegistrySettingsHelperFunctions@?A0x1960b386@@YA?AV?$basic_string@_WU?$char_traits@_W@std@@V?$allocator@_W@2@@std@@V34@KK@Z 100d8d80     portable_settings.obj
 0003:00083d90       __ehfuncinfo$?next@EnumIteratorRegistryInt@@UAEXXZ 100d8d90     portable_settings.obj
 0003:00083db4       __unwindtable$?next@EnumIteratorRegistryInt@@UAEXXZ 100d8db4     portable_settings.obj
 0003:00083dbc       __ehfuncinfo$?clone@EnumIteratorRegistryInt@@UBE?AV?$unique_ptr@V?$EnumIteratorImpl@H@@U?$default_delete@V?$EnumIteratorImpl@H@@@std@@@std@@XZ 100d8dbc     portable_settings.obj
 0003:00083de0       __unwindtable$?clone@EnumIteratorRegistryInt@@UBE?AV?$unique_ptr@V?$EnumIteratorImpl@H@@U?$default_delete@V?$EnumIteratorImpl@H@@@std@@@std@@XZ 100d8de0     portable_settings.obj
 0003:00083de8       __ehfuncinfo$?next@EnumIteratorRegistryString@@UAEXXZ 100d8de8     portable_settings.obj
 0003:00083e0c       __unwindtable$?next@EnumIteratorRegistryString@@UAEXXZ 100d8e0c     portable_settings.obj
 0003:00083e14       __ehfuncinfo$?clone@EnumIteratorRegistryString@@UBE?AV?$unique_ptr@V?$EnumIteratorImpl@V?$basic_string@_WU?$char_traits@_W@std@@V?$allocator@_W@2@@std@@@@U?$default_delete@V?$EnumIteratorImpl@V?$basic_string@_WU?$char_traits@_W@std@@V?$allocator@_W@2@@std@@@@@std@@@std@@XZ 100d8e14     portable_settings.obj
 0003:00083e38       __unwindtable$?clone@EnumIteratorRegistryString@@UBE?AV?$unique_ptr@V?$EnumIteratorImpl@V?$basic_string@_WU?$char_traits@_W@std@@V?$allocator@_W@2@@std@@@@U?$default_delete@V?$EnumIteratorImpl@V?$basic_string@_WU?$char_traits@_W@std@@V?$allocator@_W@2@@std@@@@@std@@@std@@XZ 100d8e38     portable_settings.obj
 0003:00083e48       __ehfuncinfo$??0RegistrySettings@@QAE@PAUHKEY__@@PB_W_N@Z 100d8e48     portable_settings.obj
 0003:00083e6c       __unwindtable$??0RegistrySettings@@QAE@PAUHKEY__@@PB_W_N@Z 100d8e6c     portable_settings.obj
 0003:00083e74       __ehfuncinfo$?GetString@RegistrySettings@@UBE?AV?$optional@V?$basic_string@_WU?$char_traits@_W@std@@V?$allocator@_W@2@@std@@@std@@PB_W@Z 100d8e74     portable_settings.obj
 0003:00083e98       __unwindtable$?GetString@RegistrySettings@@UBE?AV?$optional@V?$basic_string@_WU?$char_traits@_W@std@@V?$allocator@_W@2@@std@@@std@@PB_W@Z 100d8e98     portable_settings.obj
 0003:00083ea0       __ehfuncinfo$?GetInt@RegistrySettings@@UBE?AV?$optional@H@std@@PB_W@Z 100d8ea0     portable_settings.obj
 0003:00083ec4       __unwindtable$?GetInt@RegistrySettings@@UBE?AV?$optional@H@std@@PB_W@Z 100d8ec4     portable_settings.obj
 0003:00083ecc       __ehfuncinfo$?GetBinary@RegistrySettings@@UBE?AV?$optional@V?$vector@EV?$allocator@E@std@@@std@@@std@@PB_W@Z 100d8ecc     portable_settings.obj
 0003:00083ef0       __unwindtable$?GetBinary@RegistrySettings@@UBE?AV?$optional@V?$vector@EV?$allocator@E@std@@@std@@@std@@PB_W@Z 100d8ef0     portable_settings.obj
 0003:00083f08       __ehfuncinfo$?EnumIntValues@RegistrySettings@@UBE?AV?$EnumIterator@H@PortableSettings@@XZ 100d8f08     portable_settings.obj
 0003:00083f2c       __unwindtable$?EnumIntValues@RegistrySettings@@UBE?AV?$EnumIterator@H@PortableSettings@@XZ 100d8f2c     portable_settings.obj
 0003:00083f44       __ehfuncinfo$?EnumStringValues@RegistrySettings@@UBE?AV?$EnumIterator@V?$basic_string@_WU?$char_traits@_W@std@@V?$allocator@_W@2@@std@@@PortableSettings@@XZ 100d8f44     portable_settings.obj
 0003:00083f68       __unwindtable$?EnumStringValues@RegistrySettings@@UBE?AV?$EnumIterator@V?$basic_string@_WU?$char_traits@_W@std@@V?$allocator@_W@2@@std@@@PortableSettings@@XZ 100d8f68     portable_settings.obj
 0003:00083f80       __ehfuncinfo$?GetRaw@RegistrySettings@@ABE?AV?$optional@URawData@RegistrySettings@@@std@@PB_W@Z 100d8f80     portable_settings.obj
 0003:00083fa4       __unwindtable$?GetRaw@RegistrySettings@@ABE?AV?$optional@URawData@RegistrySettings@@@std@@PB_W@Z 100d8fa4     portable_settings.obj
 0003:00083fac       __ehfuncinfo$?next@EnumIteratorIniFileInt@@UAEXXZ 100d8fac     portable_settings.obj
 0003:00083fd0       __unwindtable$?next@EnumIteratorIniFileInt@@UAEXXZ 100d8fd0     portable_settings.obj
 0003:00083fe0       __ehfuncinfo$?clone@EnumIteratorIniFileInt@@UBE?AV?$unique_ptr@V?$EnumIteratorImpl@H@@U?$default_delete@V?$EnumIteratorImpl@H@@@std@@@std@@XZ 100d8fe0     portable_settings.obj
 0003:00084004       __unwindtable$?clone@EnumIteratorIniFileInt@@UBE?AV?$unique_ptr@V?$EnumIteratorImpl@H@@U?$default_delete@V?$EnumIteratorImpl@H@@@std@@@std@@XZ 100d9004     portable_settings.obj
 0003:00084014       __ehfuncinfo$?next@EnumIteratorIniFileString@@UAEXXZ 100d9014     portable_settings.obj
 0003:00084038       __unwindtable$?next@EnumIteratorIniFileString@@UAEXXZ 100d9038     portable_settings.obj
 0003:00084048       __ehfuncinfo$?clone@EnumIteratorIniFileString@@UBE?AV?$unique_ptr@V?$EnumIteratorImpl@V?$basic_string@_WU?$char_traits@_W@std@@V?$allocator@_W@2@@std@@@@U?$default_delete@V?$EnumIteratorImpl@V?$basic_string@_WU?$char_traits@_W@std@@V?$allocator@_W@2@@std@@@@@std@@@std@@XZ 100d9048     portable_settings.obj
 0003:0008406c       __unwindtable$?clone@EnumIteratorIniFileString@@UBE?AV?$unique_ptr@V?$EnumIteratorImpl@V?$basic_string@_WU?$char_traits@_W@std@@V?$allocator@_W@2@@std@@@@U?$default_delete@V?$EnumIteratorImpl@V?$basic_string@_WU?$char_traits@_W@std@@V?$allocator@_W@2@@std@@@@@std@@@std@@XZ 100d906c     portable_settings.obj
 0003:00084084       __ehfuncinfo$??0IniFileSettings@@QAE@PB_W0_N@Z 100d9084     portable_settings.obj
 0003:000840a8       __unwindtable$??0IniFileSettings@@QAE@PB_W0_N@Z 100d90a8     portable_settings.obj
 0003:000840b0       __ehfuncinfo$?GetString@IniFileSettings@@UBE?AV?$optional@V?$basic_string@_WU?$char_traits@_W@std@@V?$allocator@_W@2@@std@@@std@@PB_W@Z 100d90b0     portable_settings.obj
 0003:000840b0       __ehfuncinfo$?create_directories@filesystem@std@@YA_NABVpath@12@AAVerror_code@2@@Z 100d90b0     storage_manager.obj
 0003:000840d4       __unwindtable$?GetString@IniFileSettings@@UBE?AV?$optional@V?$basic_string@_WU?$char_traits@_W@std@@V?$allocator@_W@2@@std@@@std@@PB_W@Z 100d90d4     portable_settings.obj
 0003:000840d4       __unwindtable$?create_directories@filesystem@std@@YA_NABVpath@12@AAVerror_code@2@@Z 100d90d4     storage_manager.obj
 0003:000840dc       __ehfuncinfo$?SetString@IniFileSettings@@UAEXPB_W0@Z 100d90dc     portable_settings.obj
 0003:00084100       __unwindtable$?SetString@IniFileSettings@@UAEXPB_W0@Z 100d9100     portable_settings.obj
 0003:00084108       __ehfuncinfo$?GetInt@IniFileSettings@@UBE?AV?$optional@H@std@@PB_W@Z 100d9108     portable_settings.obj
 0003:0008412c       __unwindtable$?GetInt@IniFileSettings@@UBE?AV?$optional@H@std@@PB_W@Z 100d912c     portable_settings.obj
 0003:00084134       __ehfuncinfo$?SetInt@IniFileSettings@@UAEXPB_WH@Z 100d9134     portable_settings.obj
 0003:00084158       __unwindtable$?SetInt@IniFileSettings@@UAEXPB_WH@Z 100d9158     portable_settings.obj
 0003:00084160       __ehfuncinfo$?GetBinary@IniFileSettings@@UBE?AV?$optional@V?$vector@EV?$allocator@E@std@@@std@@@std@@PB_W@Z 100d9160     portable_settings.obj
 0003:00084184       __unwindtable$?GetBinary@IniFileSettings@@UBE?AV?$optional@V?$vector@EV?$allocator@E@std@@@std@@@std@@PB_W@Z 100d9184     portable_settings.obj
 0003:00084194       __ehfuncinfo$?SetBinary@IniFileSettings@@UAEXPB_WPBEI@Z 100d9194     portable_settings.obj
 0003:000841b8       __unwindtable$?SetBinary@IniFileSettings@@UAEXPB_WPBEI@Z 100d91b8     portable_settings.obj
 0003:000841c0       __ehfuncinfo$?EnumIntValues@IniFileSettings@@UBE?AV?$EnumIterator@H@PortableSettings@@XZ 100d91c0     portable_settings.obj
 0003:000841e4       __unwindtable$?EnumIntValues@IniFileSettings@@UBE?AV?$EnumIterator@H@PortableSettings@@XZ 100d91e4     portable_settings.obj
 0003:000841f4       __ehfuncinfo$?EnumStringValues@IniFileSettings@@UBE?AV?$EnumIterator@V?$basic_string@_WU?$char_traits@_W@std@@V?$allocator@_W@2@@std@@@PortableSettings@@XZ 100d91f4     portable_settings.obj
 0003:00084218       __unwindtable$?EnumStringValues@IniFileSettings@@UBE?AV?$EnumIterator@V?$basic_string@_WU?$char_traits@_W@std@@V?$allocator@_W@2@@std@@@PortableSettings@@XZ 100d9218     portable_settings.obj
 0003:00084228       __ehfuncinfo$??0?$EnumIteratorIniFileBase@V?$basic_string@_WU?$char_traits@_W@std@@V?$allocator@_W@2@@std@@@@QAE@PBVIniFileSettings@@@Z 100d9228     portable_settings.obj
 0003:0008424c       __unwindtable$??0?$EnumIteratorIniFileBase@V?$basic_string@_WU?$char_traits@_W@std@@V?$allocator@_W@2@@std@@@@QAE@PBVIniFileSettings@@@Z 100d924c     portable_settings.obj
 0003:0008425c       __ehfuncinfo$??0?$EnumIteratorIniFileBase@H@@QAE@PBVIniFileSettings@@@Z 100d925c     portable_settings.obj
 0003:00084280       __unwindtable$??0?$EnumIteratorIniFileBase@H@@QAE@PBVIniFileSettings@@@Z 100d9280     portable_settings.obj
 0003:00084290       __ehfuncinfo$?get_next_item_raw@?$EnumIteratorRegistryBase@H@@IAE?AV?$optional@V?$tuple@V?$basic_string@_WU?$char_traits@_W@std@@V?$allocator@_W@2@@std@@V12@KK@std@@@std@@XZ 100d9290     portable_settings.obj
 0003:00084290       __ehfuncinfo$?get_next_item_raw@?$EnumIteratorRegistryBase@V?$basic_string@_WU?$char_traits@_W@std@@V?$allocator@_W@2@@std@@@@IAE?AV?$optional@V?$tuple@V?$basic_string@_WU?$char_traits@_W@std@@V?$allocator@_W@2@@std@@V12@KK@std@@@std@@XZ 100d9290     portable_settings.obj
 0003:000842b4       __unwindtable$?get_next_item_raw@?$EnumIteratorRegistryBase@H@@IAE?AV?$optional@V?$tuple@V?$basic_string@_WU?$char_traits@_W@std@@V?$allocator@_W@2@@std@@V12@KK@std@@@std@@XZ 100d92b4     portable_settings.obj
 0003:000842b4       __unwindtable$?get_next_item_raw@?$EnumIteratorRegistryBase@V?$basic_string@_WU?$char_traits@_W@std@@V?$allocator@_W@2@@std@@@@IAE?AV?$optional@V?$tuple@V?$basic_string@_WU?$char_traits@_W@std@@V?$allocator@_W@2@@std@@V12@KK@std@@@std@@XZ 100d92b4     portable_settings.obj
 0003:000842c4       __ehfuncinfo$?GetFailureLogString@wil@@YAJPA_WIABUFailureInfo@1@@Z 100d92c4     portable_settings.obj
 0003:000842c4       __ehfuncinfo$?LogFailure@details@wil@@YAXPAXIPBD110W4FailureType@2@ABUResultStatus@12@PB_W_NPA_WIPADIW4FailureFlags@2@PAUFailureInfo@2@@Z 100d92c4     portable_settings.obj
 0003:000842c4       __ehfuncinfo$??$AdaptFixedSizeToAllocatedResult@V?$basic_string@_WU?$char_traits@_W@std@@V?$allocator@_W@2@@std@@$0BAA@@wil@@YAJAAV?$basic_string@_WU?$char_traits@_W@std@@V?$allocator@_W@2@@std@@V?$function@$$A6AJPA_WIPAI@Z@wistd@@@Z 100d92c4     all_processes_injector.obj
 0003:000842c4       __ehfuncinfo$??$AdaptFixedSizeToAllocatedResult@V?$basic_string@_WU?$char_traits@_W@std@@V?$allocator@_W@2@@std@@$0IA@@wil@@YAJAAV?$basic_string@_WU?$char_traits@_W@std@@V?$allocator@_W@2@@std@@V?$function@$$A6AJPA_WIPAI@Z@wistd@@@Z 100d92c4     all_processes_injector.obj
 0003:000842c4       __ehfuncinfo$??$read_memory@$$BY0CA@W4byte@std@@@detail@wow64pp@@YAX_KPAY0CA@W4byte@std@@IAAVerror_code@3@@Z 100d92c4     all_processes_injector.obj
 0003:000842c4       __ehfuncinfo$??$read_memory@I@detail@wow64pp@@YAX_KPAIIAAVerror_code@std@@@Z 100d92c4     all_processes_injector.obj
 0003:000842c4       __ehfuncinfo$?FailFast_Unexpected@in1diag3@details@wil@@YAXPAXIPBD@Z 100d92c4     all_processes_injector.obj
 0003:000842c4       __ehfuncinfo$?GetLastErrorFail@details@wil@@YAKPAXIPBD110@Z 100d92c4     all_processes_injector.obj
 0003:000842c4       __ehfuncinfo$?NtStatusToHr@details@wil@@YAJJ@Z 100d92c4     all_processes_injector.obj
 0003:000842c4       __ehfuncinfo$?Return_GetLastError@in1diag3@details@wil@@YAJPAXIPBD@Z 100d92c4     all_processes_injector.obj
 0003:000842c4       __ehfuncinfo$?Return_Hr@in1diag3@details@wil@@YAXPAXIPBDJ@Z 100d92c4     all_processes_injector.obj
 0003:000842c4       __ehfuncinfo$?_FailFast_GetLastError@in1diag3@details@wil@@YAXPAXIPBD@Z 100d92c4     all_processes_injector.obj
 0003:000842c4       __ehfuncinfo$?default_error_condition@_System_error_category@std@@UBE?AVerror_condition@2@H@Z 100d92c4     all_processes_injector.obj
 0003:000842c4       __ehfuncinfo$?get_native_machine@detail@wow64pp@@YAGAAVerror_code@std@@@Z 100d92c4     all_processes_injector.obj
 0003:000842c4       __ehfuncinfo$??1MinHookScopeApply@CustomizationSession@@QAE@XZ 100d92c4     customization_session.obj
 0003:000842c4       __ehfuncinfo$??1MinHookScopeInit@CustomizationSession@@QAE@XZ 100d92c4     customization_session.obj
 0003:000842c4       __ehfuncinfo$?DeleteThis@CustomizationSession@@AAEXXZ 100d92c4     customization_session.obj
 0003:000842c4       __ehfuncinfo$?Run@MainLoopRunner@CustomizationSession@@QAE?AW4Result@12@PAXPAK@Z 100d92c4     customization_session.obj
 0003:000842c4       __ehfuncinfo$??1ScopedThreadVerbosity@Logger@@QAE@XZ 100d92c4     logger.obj
 0003:000842c4       __ehfuncinfo$??1?$com_ptr_t@UIDiaEnumSymbols@@Uerr_exception_policy@wil@@@wil@@QAE@XZ 100d92c4     mod.obj
 0003:000842c4       __ehfuncinfo$??1?$com_ptr_t@UIDiaSymbol@@Uerr_exception_policy@wil@@@wil@@QAE@XZ 100d92c4     mod.obj
 0003:000842c4       __ehfuncinfo$??1LoadedMod@@QAE@XZ 100d92c4     mod.obj
 0003:000842c4       __ehfuncinfo$??$_Invoke@V?$tuple@V<lambda_1>@?BE@??HandleCreatedProcess@NewProcessInjector@@AAEXPAU_PROCESS_INFORMATION@@@Z@@std@@$0A@@thread@std@@CGIPAX@Z 100d92c4     new_process_injector.obj
 0003:000842c4       __ehfuncinfo$??1NewProcessInjector@@QAE@XZ 100d92c4     new_process_injector.obj
 0003:000842c4       __ehfuncinfo$?ProcessHeapAlloc@details@wil@@YAPAXKI@Z 100d92c4     stdafx.obj
 0003:000842c4       __ehfuncinfo$??1?$com_ptr_t@UIDiaDataSource@@Uerr_exception_policy@wil@@@wil@@QAE@XZ 100d92c4     symbol_enum.obj
 0003:000842c4       __ehfuncinfo$??1?$com_ptr_t@UIDiaSession@@Uerr_exception_policy@wil@@@wil@@QAE@XZ 100d92c4     symbol_enum.obj
 0003:000842c4       __ehfuncinfo$?write_double_translated_ansi_nolock@@YA?AUwrite_result@?A0x17268360@@HQBDIAAV__crt_cached_ptd_host@@@Z 100d92c4     libucrt:write.obj
 0003:000842c4       __ehfuncinfo$?try_cor_exit_process@@YAXI@Z 100d92c4     libucrt:exit.obj
 0003:000842c4       __ehfuncinfo$?type_case_s_compute_narrow_string_length@?$output_processor@_WV?$string_output_adapter@_W@__crt_stdio_output@@V?$format_validation_base@_WV?$string_output_adapter@_W@__crt_stdio_output@@@2@@__crt_stdio_output@@AAEHH_W@Z 100d92c4     libucrt:output.obj
 0003:000842c4       __ehfuncinfo$?type_case_s_compute_narrow_string_length@?$output_processor@_WV?$string_output_adapter@_W@__crt_stdio_output@@V?$standard_base@_WV?$string_output_adapter@_W@__crt_stdio_output@@@2@@__crt_stdio_output@@AAEHH_W@Z 100d92c4     libucrt:output.obj
 0003:000842c4       __ehfuncinfo$___crtGetSystemTimePreciseAsFileTime 100d92c4     libcpmt:winapisupp.obj
 0003:000842c4       __ehfuncinfo$__Cnd_do_broadcast_at_thread_exit 100d92c4     libcpmt:xnotify.obj
 0003:000842e8       __ehfuncinfo$??$ReportFailure_NoReturn@$0A@@details@wil@@YAXPAXIPBD110ABUResultStatus@01@PB_WW4ReportFailureOptions@01@@Z 100d92e8     portable_settings.obj
 0003:000842e8       __ehfuncinfo$??$ReportFailure_GetLastErrorHr@$00@details@wil@@YAJPAXIPBD110@Z 100d92e8     all_processes_injector.obj
 0003:000842e8       __ehfuncinfo$??$ReportFailure_NoReturn@$02@details@wil@@YAXPAXIPBD110ABUResultStatus@01@PB_WW4ReportFailureOptions@01@@Z 100d92e8     all_processes_injector.obj
 0003:000842e8       __ehfuncinfo$??$ReportFailure_Return@$00@details@wil@@YAXPAXIPBD110ABUResultStatus@01@PB_WW4ReportFailureOptions@01@W4FailureFlags@1@@Z 100d92e8     all_processes_injector.obj
 0003:000842e8       __ehfuncinfo$?replace_filename@path@filesystem@std@@QAEAAV123@ABV123@@Z 100d92e8     all_processes_injector.obj
 0003:000842e8       __ehfuncinfo$??__Fg_processLocalData@details@wil@@YAXXZ 100d92e8     stdafx.obj
 0003:000842e8       __ehfuncinfo$?MakeAndInitialize@?$ProcessLocalStorageData@UProcessLocalData@details_abi@wil@@@details_abi@wil@@CAJPB_W$$QAV?$unique_any_t@V?$mutex_t@V?$unique_storage@U?$resource_policy@PAXP6GXPAX@_E$1?CloseHandle@details@wil@@YGX0@ZU?$integral_constant@I$0A@@wistd@@PAXPAX$0A@$$T@details@wil@@@details@wil@@Uerr_returncode_policy@3@@wil@@@3@PAPAV123@@Z 100d92e8     stdafx.obj
 0003:000842e8       __ehfuncinfo$?SetLastError@wil@@YAXABUFailureInfo@1@@Z 100d92e8     stdafx.obj
 0003:0008430c       __unwindtable$??$ReportFailure_NoReturn@$0A@@details@wil@@YAXPAXIPBD110ABUResultStatus@01@PB_WW4ReportFailureOptions@01@@Z 100d930c     portable_settings.obj
 0003:0008430c       __unwindtable$??$ReportFailure_GetLastErrorHr@$00@details@wil@@YAJPAXIPBD110@Z 100d930c     all_processes_injector.obj
 0003:0008430c       __unwindtable$??$ReportFailure_NoReturn@$02@details@wil@@YAXPAXIPBD110ABUResultStatus@01@PB_WW4ReportFailureOptions@01@@Z 100d930c     all_processes_injector.obj
 0003:0008430c       __unwindtable$??$ReportFailure_Return@$00@details@wil@@YAXPAXIPBD110ABUResultStatus@01@PB_WW4ReportFailureOptions@01@W4FailureFlags@1@@Z 100d930c     all_processes_injector.obj
 0003:0008430c       __unwindtable$?replace_filename@path@filesystem@std@@QAEAAV123@ABV123@@Z 100d930c     all_processes_injector.obj
 0003:0008430c       __unwindtable$??__Fg_processLocalData@details@wil@@YAXXZ 100d930c     stdafx.obj
 0003:0008430c       __unwindtable$?MakeAndInitialize@?$ProcessLocalStorageData@UProcessLocalData@details_abi@wil@@@details_abi@wil@@CAJPB_W$$QAV?$unique_any_t@V?$mutex_t@V?$unique_storage@U?$resource_policy@PAXP6GXPAX@_E$1?CloseHandle@details@wil@@YGX0@ZU?$integral_constant@I$0A@@wistd@@PAXPAX$0A@$$T@details@wil@@@details@wil@@Uerr_returncode_policy@3@@wil@@@3@PAPAV123@@Z 100d930c     stdafx.obj
 0003:0008430c       __unwindtable$?SetLastError@wil@@YAXABUFailureInfo@1@@Z 100d930c     stdafx.obj
 0003:00084314       __ehfuncinfo$?GetNativeMachine@?A0x2fc73eb2@@YAGXZ 100d9314     all_processes_injector.obj
 0003:00084314       __ehfuncinfo$?NtCreateThreadEx64@?A0x5857acc8@@YAXPAPAXKPAX1P6GJ1@Z1K_K331@Z 100d9314     dll_inject.obj
 0003:00084338       __unwindtable$?GetNativeMachine@?A0x2fc73eb2@@YAGXZ 100d9338     all_processes_injector.obj
 0003:00084338       __unwindtable$?NtCreateThreadEx64@?A0x5857acc8@@YAXPAPAXKPAX1P6GJ1@Z1K_K331@Z 100d9338     dll_inject.obj
 0003:00084340       __ehfuncinfo$?GetRtlUserThreadStart_x64OnArm64@?A0x2fc73eb2@@YA_KXZ 100d9340     all_processes_injector.obj
 0003:00084364       __unwindtable$?GetRtlUserThreadStart_x64OnArm64@?A0x2fc73eb2@@YA_KXZ 100d9364     all_processes_injector.obj
 0003:0008438c       __ehfuncinfo$?GetThreadContext64@?A0x2fc73eb2@@YAXPAXPAU_CONTEXT@@@Z 100d938c     all_processes_injector.obj
 0003:000843b0       __unwindtable$?GetThreadContext64@?A0x2fc73eb2@@YAXPAXPAU_CONTEXT@@@Z 100d93b0     all_processes_injector.obj
 0003:000843b8       __ehfuncinfo$??0AllProcessesInjector@@QAE@XZ 100d93b8     all_processes_injector.obj
 0003:000843e0       __unwindtable$??0AllProcessesInjector@@QAE@XZ 100d93e0     all_processes_injector.obj
 0003:00084440       __ehfuncinfo$?InjectIntoNewProcesses@AllProcessesInjector@@QAE?AV?$vector@KV?$allocator@K@std@@@std@@XZ 100d9440     all_processes_injector.obj
 0003:00084464       __unwindtable$?InjectIntoNewProcesses@AllProcessesInjector@@QAE?AV?$vector@KV?$allocator@K@std@@@std@@XZ 100d9464     all_processes_injector.obj
 0003:00084484       __tryblocktable$?InjectIntoNewProcesses@AllProcessesInjector@@QAE?AV?$vector@KV?$allocator@K@std@@@std@@XZ 100d9484     all_processes_injector.obj
 0003:00084498       __catchsym$?InjectIntoNewProcesses@AllProcessesInjector@@QAE?AV?$vector@KV?$allocator@K@std@@@std@@XZ$16 100d9498     all_processes_injector.obj
 0003:000844b8       __ehfuncinfo$?InjectIntoNewProcess@AllProcessesInjector@@AAEXPAXK_N@Z 100d94b8     all_processes_injector.obj
 0003:000844e0       __unwindtable$?InjectIntoNewProcess@AllProcessesInjector@@AAEXPAXK_N@Z 100d94e0     all_processes_injector.obj
 0003:00084528       __ehfuncinfo$??$GetModuleFileNameW@V?$basic_string@_WU?$char_traits@_W@std@@V?$allocator@_W@2@@std@@$0IA@@wil@@YA?AV?$basic_string@_WU?$char_traits@_W@std@@V?$allocator@_W@2@@std@@PAUHINSTANCE__@@@Z 100d9528     all_processes_injector.obj
 0003:00084528       __ehfuncinfo$??$ExpandEnvironmentStringsW@V?$basic_string@_WU?$char_traits@_W@std@@V?$allocator@_W@2@@std@@$0BAA@@wil@@YA?AV?$basic_string@_WU?$char_traits@_W@std@@V?$allocator@_W@2@@std@@PB_W@Z 100d9528     functions.obj
 0003:0008454c       __unwindtable$??$GetModuleFileNameW@V?$basic_string@_WU?$char_traits@_W@std@@V?$allocator@_W@2@@std@@$0IA@@wil@@YA?AV?$basic_string@_WU?$char_traits@_W@std@@V?$allocator@_W@2@@std@@PAUHINSTANCE__@@@Z 100d954c     all_processes_injector.obj
 0003:0008454c       __unwindtable$??$ExpandEnvironmentStringsW@V?$basic_string@_WU?$char_traits@_W@std@@V?$allocator@_W@2@@std@@$0BAA@@wil@@YA?AV?$basic_string@_WU?$char_traits@_W@std@@V?$allocator@_W@2@@std@@PB_W@Z 100d954c     functions.obj
 0003:00084554       __ehfuncinfo$??$call_function@_K_K@wow64pp@@YA_KAAVerror_code@std@@_K11@Z 100d9554     all_processes_injector.obj
 0003:00084554       __ehfuncinfo$??$call_function@_K_KH_K@wow64pp@@YA_KAAVerror_code@std@@_K11H1@Z 100d9554     all_processes_injector.obj
 0003:00084554       __ehfuncinfo$?ldr_procedure_address@detail@wow64pp@@YA_KAAVerror_code@std@@@Z 100d9554     all_processes_injector.obj
 0003:00084554       __ehfuncinfo$??$call_function@_KK_K_K_K_KK_K_K_K_K@wow64pp@@YA_KAAVerror_code@std@@_K1K1111K1111@Z 100d9554     dll_inject.obj
 0003:00084554       __ehfuncinfo$??$call_function@_K_K_K_K_K@wow64pp@@YA_KAAVerror_code@std@@_K11111@Z 100d9554     dll_inject.obj
 0003:00084578       __unwindtable$??$call_function@_K_K@wow64pp@@YA_KAAVerror_code@std@@_K11@Z 100d9578     all_processes_injector.obj
 0003:00084578       __unwindtable$??$call_function@_K_KH_K@wow64pp@@YA_KAAVerror_code@std@@_K11H1@Z 100d9578     all_processes_injector.obj
 0003:00084578       __unwindtable$?ldr_procedure_address@detail@wow64pp@@YA_KAAVerror_code@std@@@Z 100d9578     all_processes_injector.obj
 0003:00084578       __unwindtable$??$call_function@_KK_K_K_K_KK_K_K_K_K@wow64pp@@YA_KAAVerror_code@std@@_K1K1111K1111@Z 100d9578     dll_inject.obj
 0003:00084578       __unwindtable$??$call_function@_K_K_K_K_K@wow64pp@@YA_KAAVerror_code@std@@_K11111@Z 100d9578     dll_inject.obj
 0003:00084588       __ehfuncinfo$?make@?$string_maker@V?$basic_string@_WU?$char_traits@_W@std@@V?$allocator@_W@2@@std@@@details@wil@@QAEJPB_WI@Z 100d9588     all_processes_injector.obj
 0003:000845ac       __unwindtable$?make@?$string_maker@V?$basic_string@_WU?$char_traits@_W@std@@V?$allocator@_W@2@@std@@@details@wil@@QAEJPB_WI@Z 100d95ac     all_processes_injector.obj
 0003:000845c4       __tryblocktable$?make@?$string_maker@V?$basic_string@_WU?$char_traits@_W@std@@V?$allocator@_W@2@@std@@@details@wil@@QAEJPB_WI@Z 100d95c4     all_processes_injector.obj
 0003:000845d8       __catchsym$?make@?$string_maker@V?$basic_string@_WU?$char_traits@_W@std@@V?$allocator@_W@2@@std@@@details@wil@@QAEJPB_WI@Z$8 100d95d8     all_processes_injector.obj
 0003:000845e8       __ehfuncinfo$?image_export_dir@detail@wow64pp@@YA?AU_IMAGE_EXPORT_DIRECTORY@@_KAAVerror_code@std@@@Z 100d95e8     all_processes_injector.obj
 0003:000845e8       __ehfuncinfo$?module_handle@wow64pp@@YA_KV?$basic_string_view@DU?$char_traits@D@std@@@std@@AAVerror_code@3@@Z 100d95e8     all_processes_injector.obj
 0003:0008460c       __unwindtable$?image_export_dir@detail@wow64pp@@YA?AU_IMAGE_EXPORT_DIRECTORY@@_KAAVerror_code@std@@@Z 100d960c     all_processes_injector.obj
 0003:0008460c       __unwindtable$?module_handle@wow64pp@@YA_KV?$basic_string_view@DU?$char_traits@D@std@@@std@@AAVerror_code@3@@Z 100d960c     all_processes_injector.obj
 0003:00084624       __ehfuncinfo$??0_System_error@std@@IAE@Verror_code@1@ABV?$basic_string@DU?$char_traits@D@std@@V?$allocator@D@2@@1@@Z 100d9624     all_processes_injector.obj
 0003:00084648       __unwindtable$??0_System_error@std@@IAE@Verror_code@1@ABV?$basic_string@DU?$char_traits@D@std@@V?$allocator@D@2@@1@@Z 100d9648     all_processes_injector.obj
 0003:00084658       __ehfuncinfo$??0system_error@std@@QAE@Verror_code@1@PBD@Z 100d9658     all_processes_injector.obj
 0003:00084658       __ehfuncinfo$??0system_error@std@@QAE@HABVerror_category@1@PBD@Z 100d9658     logger.obj
 0003:0008467c       __unwindtable$??0system_error@std@@QAE@Verror_code@1@PBD@Z 100d967c     all_processes_injector.obj
 0003:0008467c       __unwindtable$??0system_error@std@@QAE@HABVerror_category@1@PBD@Z 100d967c     logger.obj
 0003:00084684       __ehfuncinfo$?message@_System_error_category@std@@UBE?AV?$basic_string@DU?$char_traits@D@std@@V?$allocator@D@2@@2@H@Z 100d9684     all_processes_injector.obj
 0003:000846a8       __unwindtable$?message@_System_error_category@std@@UBE?AV?$basic_string@DU?$char_traits@D@std@@V?$allocator@D@2@@2@H@Z 100d96a8     all_processes_injector.obj
 0003:000846b0       __ehfuncinfo$?module_handle@wow64pp@@YA_KV?$basic_string_view@DU?$char_traits@D@std@@@std@@@Z 100d96b0     all_processes_injector.obj
 0003:000846d4       __unwindtable$?module_handle@wow64pp@@YA_KV?$basic_string_view@DU?$char_traits@D@std@@@std@@@Z 100d96d4     all_processes_injector.obj
 0003:000846ec       __tryblocktable$?module_handle@wow64pp@@YA_KV?$basic_string_view@DU?$char_traits@D@std@@@std@@@Z 100d96ec     all_processes_injector.obj
 0003:00084700       __catchsym$?module_handle@wow64pp@@YA_KV?$basic_string_view@DU?$char_traits@D@std@@@std@@@Z$4 100d9700     all_processes_injector.obj
 0003:00084710       __ehfuncinfo$?MyQueueUserAPC@?A0x5857acc8@@YAXP6GXPAX00@Z00G@Z 100d9710     dll_inject.obj
 0003:00084734       __unwindtable$?MyQueueUserAPC@?A0x5857acc8@@YAXP6GXPAX00@Z00G@Z 100d9734     dll_inject.obj
 0003:00084740       __ehfuncinfo$?DllInject@0@YAXPAX000_N@Z 100d9740     dll_inject.obj
 0003:00084768       __unwindtable$?DllInject@0@YAXPAX000_N@Z 100d9768     dll_inject.obj
 0003:00084800       __ehfuncinfo$??Kfilesystem@std@@YA?AVpath@01@ABV201@0@Z 100d9800     dll_inject.obj
 0003:00084824       __unwindtable$??Kfilesystem@std@@YA?AVpath@01@ABV201@0@Z 100d9824     dll_inject.obj
 0003:00084834       __ehfuncinfo$?ReplaceAll@Functions@@YA?AV?$basic_string@_WU?$char_traits@_W@std@@V?$allocator@_W@2@@std@@V?$basic_string_view@_WU?$char_traits@_W@std@@@3@00_N@Z 100d9834     functions.obj
 0003:00084858       __unwindtable$?ReplaceAll@Functions@@YA?AV?$basic_string@_WU?$char_traits@_W@std@@V?$allocator@_W@2@@std@@V?$basic_string_view@_WU?$char_traits@_W@std@@@3@00_N@Z 100d9858     functions.obj
 0003:00084860       __ehfuncinfo$?DoesPathMatchPattern@Functions@@YA_NV?$basic_string_view@_WU?$char_traits@_W@std@@@std@@0_N@Z 100d9860     functions.obj
 0003:00084884       __unwindtable$?DoesPathMatchPattern@Functions@@YA_NV?$basic_string_view@_WU?$char_traits@_W@std@@@std@@0_N@Z 100d9884     functions.obj
 0003:000848a4       __ehfuncinfo$?GetModuleVersion@Functions@@YA?AV?$basic_string@DU?$char_traits@D@std@@V?$allocator@D@2@@std@@PAUHINSTANCE__@@@Z 100d98a4     functions.obj
 0003:000848c8       __unwindtable$?GetModuleVersion@Functions@@YA?AV?$basic_string@DU?$char_traits@D@std@@V?$allocator@D@2@@std@@PAUHINSTANCE__@@@Z 100d98c8     functions.obj
 0003:000848f0       __ehfuncinfo$?SetHook@HwbpHook@@YA_NPAX0PAPAXK@Z 100d98f0     hwbp_hook.obj
 0003:00084914       __unwindtable$?SetHook@HwbpHook@@YA_NPAX0PAPAXK@Z 100d9914     hwbp_hook.obj
 0003:0008491c       __ehfuncinfo$??__Eg_MonitoredRegions@InjectionMonitor@@YAXXZ 100d991c     injection_monitor.obj
 0003:00084940       __unwindtable$??__Eg_MonitoredRegions@InjectionMonitor@@YAXXZ 100d9940     injection_monitor.obj
 0003:00084950       __ehfuncinfo$?VehHandler@InjectionMonitor@@YGJPAU_EXCEPTION_POINTERS@@@Z 100d9950     injection_monitor.obj
 0003:00084974       __unwindtable$?VehHandler@InjectionMonitor@@YGJPAU_EXCEPTION_POINTERS@@@Z 100d9974     injection_monitor.obj
 0003:0008497c       __ehfuncinfo$?RegisterHookRegion@InjectionMonitor@@YA_NPAXI@Z 100d997c     injection_monitor.obj
 0003:000849a0       __unwindtable$?RegisterHookRegion@InjectionMonitor@@YA_NPAXI@Z 100d99a0     injection_monitor.obj
 0003:000849a8       __ehfuncinfo$??$_Try_emplace@ABQAX$$V@?$_Hash@V?$_Umap_traits@PAXURegionInfo@InjectionMonitor@@V?$_Uhash_compare@PAXU?$hash@PAX@std@@U?$equal_to@PAX@2@@std@@V?$allocator@U?$pair@QAXURegionInfo@InjectionMonitor@@@std@@@4@$0A@@std@@@std@@IAE?AU?$pair@PAU?$_List_node@U?$pair@QAXURegionInfo@InjectionMonitor@@@std@@PAX@std@@_N@1@ABQAX@Z 100d99a8     injection_monitor.obj
 0003:000849cc       __unwindtable$??$_Try_emplace@ABQAX$$V@?$_Hash@V?$_Umap_traits@PAXURegionInfo@InjectionMonitor@@V?$_Uhash_compare@PAXU?$hash@PAX@std@@U?$equal_to@PAX@2@@std@@V?$allocator@U?$pair@QAXURegionInfo@InjectionMonitor@@@std@@@4@$0A@@std@@@std@@IAE?AU?$pair@PAU?$_List_node@U?$pair@QAXURegionInfo@InjectionMonitor@@@std@@PAX@std@@_N@1@ABQAX@Z 100d99cc     injection_monitor.obj
 0003:000849dc       __ehfuncinfo$?GetVerbosityFromConfig@?A0xc8b977ee@@YA?AW4Verbosity@LoggerBase@@XZ 100d99dc     logger.obj
 0003:00084a00       __unwindtable$?GetVerbosityFromConfig@?A0xc8b977ee@@YA?AW4Verbosity@LoggerBase@@XZ 100d9a00     logger.obj
 0003:00084a18       __tryblocktable$?GetVerbosityFromConfig@?A0xc8b977ee@@YA?AW4Verbosity@LoggerBase@@XZ 100d9a18     logger.obj
 0003:00084a2c       __catchsym$?GetVerbosityFromConfig@?A0xc8b977ee@@YA?AW4Verbosity@LoggerBase@@XZ$3 100d9a2c     logger.obj
 0003:00084a3c       __ehfuncinfo$?GetInstance@Logger@@SAAAV1@XZ 100d9a3c     logger.obj
 0003:00084a60       __unwindtable$?GetInstance@Logger@@SAAAV1@XZ 100d9a60     logger.obj
 0003:00084a68       __ehfuncinfo$?GetThreadVerbosity@Logger@@CAAAV?$optional@W4Verbosity@LoggerBase@@@std@@XZ 100d9a68     logger.obj
 0003:00084a8c       __unwindtable$?GetThreadVerbosity@Logger@@CAAAV?$optional@W4Verbosity@LoggerBase@@@std@@XZ 100d9a8c     logger.obj
 0003:00084ac4       __ehfuncinfo$??0ModDebugLoggingScope@?A0x64030c04@@QAE@PBD@Z 100d9ac4     mod.obj
 0003:00084ae8       __unwindtable$??0ModDebugLoggingScope@?A0x64030c04@@QAE@PBD@Z 100d9ae8     mod.obj
 0003:00084af0       __ehfuncinfo$??0CrossModMutex@?A0x64030c04@@QAE@PB_W@Z 100d9af0     mod.obj
 0003:00084b14       __unwindtable$??0CrossModMutex@?A0x64030c04@@QAE@PB_W@Z 100d9b14     mod.obj
 0003:00084b4c       __tryblocktable$??0CrossModMutex@?A0x64030c04@@QAE@PB_W@Z 100d9b4c     mod.obj
 0003:00084b60       __catchsym$??0CrossModMutex@?A0x64030c04@@QAE@PB_W@Z$23 100d9b60     mod.obj
 0003:00084b70       __ehfuncinfo$?GenerateModInstanceId@?A0x64030c04@@YA?AV?$basic_string@_WU?$char_traits@_W@std@@V?$allocator@_W@2@@std@@PB_W@Z 100d9b70     mod.obj
 0003:00084b98       __unwindtable$?GenerateModInstanceId@?A0x64030c04@@YA?AV?$basic_string@_WU?$char_traits@_W@std@@V?$allocator@_W@2@@std@@PB_W@Z 100d9b98     mod.obj
 0003:00084bd8       __ehfuncinfo$?SetModMetadataValue@?A0x64030c04@@YAXAAV?$unique_any_t@V?$unique_storage@U?$handle_invalid_resource_policy@P6GHPAX@Z$1?CloseHandle@@YGH0@Z@details@wil@@@details@wil@@@wil@@PB_W11@Z 100d9bd8     mod.obj
 0003:00084bfc       __unwindtable$?SetModMetadataValue@?A0x64030c04@@YAXAAV?$unique_any_t@V?$unique_storage@U?$handle_invalid_resource_policy@P6GHPAX@Z$1?CloseHandle@@YGH0@Z@details@wil@@@details@wil@@@wil@@PB_W11@Z 100d9bfc     mod.obj
 0003:00084c2c       __ehfuncinfo$?GetModVersion@?A0x64030c04@@YA?AV?$basic_string@_WU?$char_traits@_W@std@@V?$allocator@_W@2@@std@@PB_W@Z 100d9c2c     mod.obj
 0003:00084c50       __unwindtable$?GetModVersion@?A0x64030c04@@YA?AV?$basic_string@_WU?$char_traits@_W@std@@V?$allocator@_W@2@@std@@PB_W@Z 100d9c50     mod.obj
 0003:00084c60       __ehfuncinfo$?ShouldUseCompatDemangling@?A0x64030c04@@YA_NV?$basic_zstring_view@_W@wil@@@Z 100d9c60     mod.obj
 0003:00084c88       __unwindtable$?ShouldUseCompatDemangling@?A0x64030c04@@YA_NV?$basic_zstring_view@_W@wil@@@Z 100d9c88     mod.obj
 0003:00084cc8       __ehfuncinfo$?IsModBanned@?A0x64030c04@@YA_NV?$basic_zstring_view@_W@wil@@@Z 100d9cc8     mod.obj
 0003:00084cec       __unwindtable$?IsModBanned@?A0x64030c04@@YA_NV?$basic_zstring_view@_W@wil@@@Z 100d9cec     mod.obj
 0003:00084d10       __ehfuncinfo$?SetModShimsLibraryIfNeeded@?A0x64030c04@@YA?AV?$unique_any_t@V?$unique_storage@U?$resource_policy@PAUHINSTANCE__@@P6GHPAU1@@Z$1?FreeLibrary@@YGH0@ZU?$integral_constant@I$0A@@wistd@@PAU1@PAU1@$0A@$$T@details@wil@@@details@wil@@@wil@@PAUHINSTANCE__@@@Z 100d9d10     mod.obj
 0003:00084d38       __unwindtable$?SetModShimsLibraryIfNeeded@?A0x64030c04@@YA?AV?$unique_any_t@V?$unique_storage@U?$resource_policy@PAUHINSTANCE__@@P6GHPAU1@@Z$1?FreeLibrary@@YGH0@ZU?$integral_constant@I$0A@@wistd@@PAU1@PAU1@$0A@$$T@details@wil@@@details@wil@@@wil@@PAUHINSTANCE__@@@Z 100d9d38     mod.obj
 0003:00084d80       __ehfuncinfo$??0HookSymbolsSession@?A0x64030c04@@QAE@PAVLoadedMod@@PAUHINSTANCE__@@PBUtagWH_SYMBOL_HOOK@@I@Z 100d9d80     mod.obj
 0003:00084da4       __unwindtable$??0HookSymbolsSession@?A0x64030c04@@QAE@PAVLoadedMod@@PAUHINSTANCE__@@PBUtagWH_SYMBOL_HOOK@@I@Z 100d9da4     mod.obj
 0003:00084ddc       __ehfuncinfo$?OnSymbolResolved@HookSymbolsSession@?A0x64030c04@@QAE_NV?$basic_string_view@_WU?$char_traits@_W@std@@@std@@PAX@Z 100d9ddc     mod.obj
 0003:00084e00       __unwindtable$?OnSymbolResolved@HookSymbolsSession@?A0x64030c04@@QAE_NV?$basic_string_view@_WU?$char_traits@_W@std@@@std@@PAX@Z 100d9e00     mod.obj
 0003:00084e08       __ehfuncinfo$?ResolveSymbolsFromCache@HookSymbolsSession@?A0x64030c04@@QAE?AW4ResolveSymbolsFromCacheResult@12@V?$optional@_K@std@@@Z 100d9e08     mod.obj
 0003:00084e30       __unwindtable$?ResolveSymbolsFromCache@HookSymbolsSession@?A0x64030c04@@QAE?AW4ResolveSymbolsFromCacheResult@12@V?$optional@_K@std@@@Z 100d9e30     mod.obj
 0003:00084e70       __tryblocktable$?ResolveSymbolsFromCache@HookSymbolsSession@?A0x64030c04@@QAE?AW4ResolveSymbolsFromCacheResult@12@V?$optional@_K@std@@@Z 100d9e70     mod.obj
 0003:00084e84       __catchsym$?ResolveSymbolsFromCache@HookSymbolsSession@?A0x64030c04@@QAE?AW4ResolveSymbolsFromCacheResult@12@V?$optional@_K@std@@@Z$37 100d9e84     mod.obj
 0003:00084e94       __ehfuncinfo$?UpdateSymbolsCache@HookSymbolsSession@?A0x64030c04@@QAE_NXZ 100d9e94     mod.obj
 0003:00084eb8       __unwindtable$?UpdateSymbolsCache@HookSymbolsSession@?A0x64030c04@@QAE_NXZ 100d9eb8     mod.obj
 0003:00084ed0       __tryblocktable$?UpdateSymbolsCache@HookSymbolsSession@?A0x64030c04@@QAE_NXZ 100d9ed0     mod.obj
 0003:00084ee4       __catchsym$?UpdateSymbolsCache@HookSymbolsSession@?A0x64030c04@@QAE_NXZ$3 100d9ee4     mod.obj
 0003:00084ef4       __ehfuncinfo$?UpdateSymbolsCacheWithErrorForThrottle@HookSymbolsSession@?A0x64030c04@@QAE_NXZ 100d9ef4     mod.obj
 0003:00084f18       __unwindtable$?UpdateSymbolsCacheWithErrorForThrottle@HookSymbolsSession@?A0x64030c04@@QAE_NXZ 100d9f18     mod.obj
 0003:00084f50       __tryblocktable$?UpdateSymbolsCacheWithErrorForThrottle@HookSymbolsSession@?A0x64030c04@@QAE_NXZ 100d9f50     mod.obj
 0003:00084f64       __catchsym$?UpdateSymbolsCacheWithErrorForThrottle@HookSymbolsSession@?A0x64030c04@@QAE_NXZ$16 100d9f64     mod.obj
 0003:00084f78       __ehfuncinfo$?CalculateHookSymbolsInitialParams@HookSymbolsSession@?A0x64030c04@@AAEXXZ 100d9f78     mod.obj
 0003:00084fa0       __unwindtable$?CalculateHookSymbolsInitialParams@HookSymbolsSession@?A0x64030c04@@AAEXXZ 100d9fa0     mod.obj
 0003:00084fe0       __ehfuncinfo$??R<lambda_1>@?1??GetWindowsVersionForLogging@?A0x64030c04@@YA?AV?$basic_string@_WU?$char_traits@_W@std@@V?$allocator@_W@2@@std@@XZ@QBE@XZ 100d9fe0     mod.obj
 0003:00085004       __unwindtable$??R<lambda_1>@?1??GetWindowsVersionForLogging@?A0x64030c04@@YA?AV?$basic_string@_WU?$char_traits@_W@std@@V?$allocator@_W@2@@std@@XZ@QBE@XZ 100da004     mod.obj
 0003:00085030       __ehfuncinfo$??0LoadedMod@@QAE@PB_W00_N11@Z 100da030     mod.obj
 0003:00085058       __unwindtable$??0LoadedMod@@QAE@PB_W00_N11@Z 100da058     mod.obj
 0003:000850c0       __tryblocktable$??0LoadedMod@@QAE@PB_W00_N11@Z 100da0c0     mod.obj
 0003:000850d4       __catchsym$??0LoadedMod@@QAE@PB_W00_N11@Z$44 100da0d4     mod.obj
 0003:000850e4       __ehfuncinfo$?Initialize@LoadedMod@@QAE_NXZ 100da0e4     mod.obj
 0003:00085108       __unwindtable$?Initialize@LoadedMod@@QAE_NXZ 100da108     mod.obj
 0003:00085128       __ehfuncinfo$?GetIntValue@LoadedMod@@QAEHPB_WH@Z 100da128     mod.obj
 0003:0008514c       __unwindtable$?GetIntValue@LoadedMod@@QAEHPB_WH@Z 100da14c     mod.obj
 0003:00085174       __tryblocktable$?GetIntValue@LoadedMod@@QAEHPB_WH@Z 100da174     mod.obj
 0003:00085188       __catchsym$?GetIntValue@LoadedMod@@QAEHPB_WH@Z$25 100da188     mod.obj
 0003:00085198       __ehfuncinfo$?SetIntValue@LoadedMod@@QAEHPB_WH@Z 100da198     mod.obj
 0003:000851bc       __unwindtable$?SetIntValue@LoadedMod@@QAEHPB_WH@Z 100da1bc     mod.obj
 0003:000851e4       __tryblocktable$?SetIntValue@LoadedMod@@QAEHPB_WH@Z 100da1e4     mod.obj
 0003:000851f8       __catchsym$?SetIntValue@LoadedMod@@QAEHPB_WH@Z$25 100da1f8     mod.obj
 0003:00085208       __ehfuncinfo$?GetStringValue@LoadedMod@@QAEIPB_WPA_WI@Z 100da208     mod.obj
 0003:00085230       __unwindtable$?GetStringValue@LoadedMod@@QAEIPB_WPA_WI@Z 100da230     mod.obj
 0003:00085270       __tryblocktable$?GetStringValue@LoadedMod@@QAEIPB_WPA_WI@Z 100da270     mod.obj
 0003:00085284       __catchsym$?GetStringValue@LoadedMod@@QAEIPB_WPA_WI@Z$43 100da284     mod.obj
 0003:00085294       __ehfuncinfo$?SetStringValue@LoadedMod@@QAEHPB_W0@Z 100da294     mod.obj
 0003:000852b8       __unwindtable$?SetStringValue@LoadedMod@@QAEHPB_W0@Z 100da2b8     mod.obj
 0003:000852e0       __tryblocktable$?SetStringValue@LoadedMod@@QAEHPB_W0@Z 100da2e0     mod.obj
 0003:000852f4       __catchsym$?SetStringValue@LoadedMod@@QAEHPB_W0@Z$25 100da2f4     mod.obj
 0003:00085304       __ehfuncinfo$?GetBinaryValue@LoadedMod@@QAEIPB_WPAXI@Z 100da304     mod.obj
 0003:00085328       __unwindtable$?GetBinaryValue@LoadedMod@@QAEIPB_WPAXI@Z 100da328     mod.obj
 0003:00085358       __tryblocktable$?GetBinaryValue@LoadedMod@@QAEIPB_WPAXI@Z 100da358     mod.obj
 0003:0008536c       __catchsym$?GetBinaryValue@LoadedMod@@QAEIPB_WPAXI@Z$34 100da36c     mod.obj
 0003:0008537c       __ehfuncinfo$?SetBinaryValue@LoadedMod@@QAEHPB_WPBXI@Z 100da37c     mod.obj
 0003:000853a0       __unwindtable$?SetBinaryValue@LoadedMod@@QAEHPB_WPBXI@Z 100da3a0     mod.obj
 0003:000853c8       __tryblocktable$?SetBinaryValue@LoadedMod@@QAEHPB_WPBXI@Z 100da3c8     mod.obj
 0003:000853dc       __catchsym$?SetBinaryValue@LoadedMod@@QAEHPB_WPBXI@Z$25 100da3dc     mod.obj
 0003:000853ec       __ehfuncinfo$?DeleteValue@LoadedMod@@QAEHPB_W@Z 100da3ec     mod.obj
 0003:00085410       __unwindtable$?DeleteValue@LoadedMod@@QAEHPB_W@Z 100da410     mod.obj
 0003:00085438       __tryblocktable$?DeleteValue@LoadedMod@@QAEHPB_W@Z 100da438     mod.obj
 0003:0008544c       __catchsym$?DeleteValue@LoadedMod@@QAEHPB_W@Z$25 100da44c     mod.obj
 0003:0008545c       __ehfuncinfo$?GetModStoragePath@LoadedMod@@QAEIPA_WI@Z 100da45c     mod.obj
 0003:00085480       __unwindtable$?GetModStoragePath@LoadedMod@@QAEIPA_WI@Z 100da480     mod.obj
 0003:000854a8       __tryblocktable$?GetModStoragePath@LoadedMod@@QAEIPA_WI@Z 100da4a8     mod.obj
 0003:000854bc       __catchsym$?GetModStoragePath@LoadedMod@@QAEIPA_WI@Z$67 100da4bc     mod.obj
 0003:000854cc       __ehfuncinfo$?GetIntSetting@LoadedMod@@QAEHPB_WPAD@Z 100da4cc     mod.obj
 0003:000854f0       __unwindtable$?GetIntSetting@LoadedMod@@QAEHPB_WPAD@Z 100da4f0     mod.obj
 0003:00085520       __tryblocktable$?GetIntSetting@LoadedMod@@QAEHPB_WPAD@Z 100da520     mod.obj
 0003:00085534       __catchsym$?GetIntSetting@LoadedMod@@QAEHPB_WPAD@Z$27 100da534     mod.obj
 0003:00085548       __ehfuncinfo$?GetStringSetting@LoadedMod@@QAEPB_WPB_WPAD@Z 100da548     mod.obj
 0003:00085570       __unwindtable$?GetStringSetting@LoadedMod@@QAEPB_WPB_WPAD@Z 100da570     mod.obj
 0003:000855c0       __tryblocktable$?GetStringSetting@LoadedMod@@QAEPB_WPB_WPAD@Z 100da5c0     mod.obj
 0003:000855d4       __catchsym$?GetStringSetting@LoadedMod@@QAEPB_WPB_WPAD@Z$39 100da5d4     mod.obj
 0003:000855e4       __ehfuncinfo$?SetFunctionHook@LoadedMod@@QAEHPAX0PAPAX@Z 100da5e4     mod.obj
 0003:00085608       __unwindtable$?SetFunctionHook@LoadedMod@@QAEHPAX0PAPAX@Z 100da608     mod.obj
 0003:00085618       __ehfuncinfo$?BeforeUninit@Mod@@QAEXXZ 100da618     mod.obj
 0003:00085618       __ehfuncinfo$?RemoveFunctionHook@LoadedMod@@QAEHPAX@Z 100da618     mod.obj
 0003:0008563c       __unwindtable$?BeforeUninit@Mod@@QAEXXZ 100da63c     mod.obj
 0003:0008563c       __unwindtable$?RemoveFunctionHook@LoadedMod@@QAEHPAX@Z 100da63c     mod.obj
 0003:0008564c       __ehfuncinfo$?ApplyHookOperations@LoadedMod@@QAEHXZ 100da64c     mod.obj
 0003:00085670       __unwindtable$?ApplyHookOperations@LoadedMod@@QAEHXZ 100da670     mod.obj
 0003:00085680       __ehfuncinfo$?FindFirstSymbol4@LoadedMod@@QAEPAXPAUHINSTANCE__@@PBUtagWH_FIND_SYMBOL_OPTIONS@@PAUtagWH_FIND_SYMBOL@@@Z 100da680     mod.obj
 0003:000856a8       __unwindtable$?FindFirstSymbol4@LoadedMod@@QAEPAXPAUHINSTANCE__@@PBUtagWH_FIND_SYMBOL_OPTIONS@@PAUtagWH_FIND_SYMBOL@@@Z 100da6a8     mod.obj
 0003:00085768       __tryblocktable$?FindFirstSymbol4@LoadedMod@@QAEPAXPAUHINSTANCE__@@PBUtagWH_FIND_SYMBOL_OPTIONS@@PAUtagWH_FIND_SYMBOL@@@Z 100da768     mod.obj
 0003:00085790       __catchsym$?FindFirstSymbol4@LoadedMod@@QAEPAXPAUHINSTANCE__@@PBUtagWH_FIND_SYMBOL_OPTIONS@@PAUtagWH_FIND_SYMBOL@@@Z$155 100da790     mod.obj
 0003:000857a0       __catchsym$?FindFirstSymbol4@LoadedMod@@QAEPAXPAUHINSTANCE__@@PBUtagWH_FIND_SYMBOL_OPTIONS@@PAUtagWH_FIND_SYMBOL@@@Z$156 100da7a0     mod.obj
 0003:000857b0       __ehfuncinfo$??R<lambda_2>@?L@??FindFirstSymbol4@LoadedMod@@QAEPAXPAUHINSTANCE__@@PBUtagWH_FIND_SYMBOL_OPTIONS@@PAUtagWH_FIND_SYMBOL@@@Z@QBE@XZ 100da7b0     mod.obj
 0003:000857d4       __unwindtable$??R<lambda_2>@?L@??FindFirstSymbol4@LoadedMod@@QAEPAXPAUHINSTANCE__@@PBUtagWH_FIND_SYMBOL_OPTIONS@@PAUtagWH_FIND_SYMBOL@@@Z@QBE@XZ 100da7d4     mod.obj
 0003:000857e4       __tryblocktable$??R<lambda_2>@?L@??FindFirstSymbol4@LoadedMod@@QAEPAXPAUHINSTANCE__@@PBUtagWH_FIND_SYMBOL_OPTIONS@@PAUtagWH_FIND_SYMBOL@@@Z@QBE@XZ 100da7e4     mod.obj
 0003:000857f8       __catchsym$??R<lambda_2>@?L@??FindFirstSymbol4@LoadedMod@@QAEPAXPAUHINSTANCE__@@PBUtagWH_FIND_SYMBOL_OPTIONS@@PAUtagWH_FIND_SYMBOL@@@Z@QBE@XZ$2 100da7f8     mod.obj
 0003:00085808       __ehfuncinfo$??R<lambda_3>@?L@??FindFirstSymbol4@LoadedMod@@QAEPAXPAUHINSTANCE__@@PBUtagWH_FIND_SYMBOL_OPTIONS@@PAUtagWH_FIND_SYMBOL@@@Z@QBE@H@Z 100da808     mod.obj
 0003:00085830       __unwindtable$??R<lambda_3>@?L@??FindFirstSymbol4@LoadedMod@@QAEPAXPAUHINSTANCE__@@PBUtagWH_FIND_SYMBOL_OPTIONS@@PAUtagWH_FIND_SYMBOL@@@Z@QBE@H@Z 100da830     mod.obj
 0003:00085888       __tryblocktable$??R<lambda_3>@?L@??FindFirstSymbol4@LoadedMod@@QAEPAXPAUHINSTANCE__@@PBUtagWH_FIND_SYMBOL_OPTIONS@@PAUtagWH_FIND_SYMBOL@@@Z@QBE@H@Z 100da888     mod.obj
 0003:0008589c       __catchsym$??R<lambda_3>@?L@??FindFirstSymbol4@LoadedMod@@QAEPAXPAUHINSTANCE__@@PBUtagWH_FIND_SYMBOL_OPTIONS@@PAUtagWH_FIND_SYMBOL@@@Z@QBE@H@Z$24 100da89c     mod.obj
 0003:000858ac       __ehfuncinfo$?FindNextSymbol2@LoadedMod@@QAEHPAXPAUtagWH_FIND_SYMBOL@@@Z 100da8ac     mod.obj
 0003:000858d0       __unwindtable$?FindNextSymbol2@LoadedMod@@QAEHPAXPAUtagWH_FIND_SYMBOL@@@Z 100da8d0     mod.obj
 0003:000858f0       __tryblocktable$?FindNextSymbol2@LoadedMod@@QAEHPAXPAUtagWH_FIND_SYMBOL@@@Z 100da8f0     mod.obj
 0003:00085904       __catchsym$?FindNextSymbol2@LoadedMod@@QAEHPAXPAUtagWH_FIND_SYMBOL@@@Z$31 100da904     mod.obj
 0003:00085914       __ehfuncinfo$??1SymbolEnum@@QAE@XZ 100da914     mod.obj
 0003:00085938       __unwindtable$??1SymbolEnum@@QAE@XZ 100da938     mod.obj
 0003:00085958       __ehfuncinfo$?RunMainLoopAndDeleteThisWithThreadRecreate@CustomizationSession@@AAEXXZ 100da958     customization_session.obj
 0003:00085958       __ehfuncinfo$?StartInitialized@CustomizationSession@@AAEXV?$unique_any_t@V?$semaphore_t@V?$unique_storage@U?$resource_policy@PAXP6GXPAX@_E$1?CloseHandle@details@wil@@YGX0@ZU?$integral_constant@I$0A@@wistd@@PAXPAX$0A@$$T@details@wil@@@details@wil@@Uerr_exception_policy@3@@wil@@@wil@@V?$unique_any_t@V?$unique_storage@U?$resource_policy@PAXP6GXPAX@_E$1?ReleaseSemaphore@details@wil@@YGX0@ZU?$integral_constant@I$01@wistd@@PAXPAX$0A@$$T@details@wil@@@details@wil@@@3@_N@Z 100da958     customization_session.obj
 0003:00085958       __ehfuncinfo$??1?$lambda_call@V<lambda_1>@?1??Load@Mod@@QAE_N_N@Z@@details@wil@@QAE@XZ 100da958     mod.obj
 0003:00085958       __ehfuncinfo$??1?$lambda_call@V<lambda_1>@?BG@??HookSymbolsGetOnlineCache@LoadedMod@@AAE?AV?$optional@V?$basic_string@_WU?$char_traits@_W@std@@V?$allocator@_W@2@@std@@@std@@PB_WV?$basic_string_view@_WU?$char_traits@_W@std@@@5@@Z@@details@wil@@QAE@XZ 100da958     mod.obj
 0003:00085958       __ehfuncinfo$??1?$lambda_call@V<lambda_1>@?BO@??HookSymbols@LoadedMod@@QAEHPAUHINSTANCE__@@PBUtagWH_SYMBOL_HOOK@@IPBUtagWH_HOOK_SYMBOLS_OPTIONS@@@Z@@details@wil@@QAE@XZ 100da958     mod.obj
 0003:00085958       __ehfuncinfo$??1?$lambda_call@V<lambda_1>@?L@??FindFirstSymbol4@LoadedMod@@QAEPAXPAUHINSTANCE__@@PBUtagWH_FIND_SYMBOL_OPTIONS@@PAUtagWH_FIND_SYMBOL@@@Z@@details@wil@@QAE@XZ 100da958     mod.obj
 0003:00085958       __ehfuncinfo$??1?$lambda_call@V<lambda_2>@?BO@??HookSymbols@LoadedMod@@QAEHPAUHINSTANCE__@@PBUtagWH_SYMBOL_HOOK@@IPBUtagWH_HOOK_SYMBOLS_OPTIONS@@@Z@@details@wil@@QAE@XZ 100da958     mod.obj
 0003:00085958       __ehfuncinfo$??1?$lambda_call@V<lambda_2>@?BP@??GetUrlContent@LoadedMod@@QAEPBUtagWH_URL_CONTENT@@PB_WPBUtagWH_GET_URL_CONTENT_OPTIONS@@@Z@@details@wil@@QAE@XZ 100da958     mod.obj
 0003:00085958       __ehfuncinfo$??1?$lambda_call@V<lambda_3>@?BP@??GetUrlContent@LoadedMod@@QAEPBUtagWH_URL_CONTENT@@PB_WPBUtagWH_GET_URL_CONTENT_OPTIONS@@@Z@@details@wil@@QAE@XZ 100da958     mod.obj
 0003:00085958       __ehfuncinfo$??1?$lambda_call@V<lambda_4>@?BO@??HookSymbols@LoadedMod@@QAEHPAUHINSTANCE__@@PBUtagWH_SYMBOL_HOOK@@IPBUtagWH_HOOK_SYMBOLS_OPTIONS@@@Z@@details@wil@@QAE@XZ 100da958     mod.obj
 0003:00085958       __ehfuncinfo$??1?$lambda_call@V<lambda_4>@?BP@??GetUrlContent@LoadedMod@@QAEPBUtagWH_URL_CONTENT@@PB_WPBUtagWH_GET_URL_CONTENT_OPTIONS@@@Z@@details@wil@@QAE@XZ 100da958     mod.obj
 0003:00085958       __ehfuncinfo$??1?$unique_any_t@V?$unique_storage@U?$resource_policy@PA_WP6AXPA_W@Z$1?MySysFreeString@@YAX0@ZU?$integral_constant@I$0A@@wistd@@PA_WPA_W$0A@$$T@details@wil@@@details@wil@@@wil@@QAE@XZ 100da958     mod.obj
 0003:00085958       __ehfuncinfo$??_GModDebugLoggingScope@?A0x64030c04@@QAEPAXI@Z 100da958     mod.obj
 0003:00085958       __ehfuncinfo$?GetLastErrorFailHr@details@wil@@YAJXZ 100da958     storage_manager.obj
 0003:00085958       __ehfuncinfo$??1?$lambda_call@V<lambda_1>@?1???0SymbolEnum@@QAE@PB_WPAUHINSTANCE__@@0W4UndecorateMode@2@UCallbacks@2@@Z@@details@wil@@QAE@XZ 100da958     symbol_enum.obj
 0003:0008597c       __unwindtable$?RunMainLoopAndDeleteThisWithThreadRecreate@CustomizationSession@@AAEXXZ 100da97c     customization_session.obj
 0003:0008597c       __unwindtable$?StartInitialized@CustomizationSession@@AAEXV?$unique_any_t@V?$semaphore_t@V?$unique_storage@U?$resource_policy@PAXP6GXPAX@_E$1?CloseHandle@details@wil@@YGX0@ZU?$integral_constant@I$0A@@wistd@@PAXPAX$0A@$$T@details@wil@@@details@wil@@Uerr_exception_policy@3@@wil@@@wil@@V?$unique_any_t@V?$unique_storage@U?$resource_policy@PAXP6GXPAX@_E$1?ReleaseSemaphore@details@wil@@YGX0@ZU?$integral_constant@I$01@wistd@@PAXPAX$0A@$$T@details@wil@@@details@wil@@@3@_N@Z 100da97c     customization_session.obj
 0003:0008597c       __unwindtable$??1?$lambda_call@V<lambda_1>@?1??Load@Mod@@QAE_N_N@Z@@details@wil@@QAE@XZ 100da97c     mod.obj
 0003:0008597c       __unwindtable$??1?$lambda_call@V<lambda_1>@?BG@??HookSymbolsGetOnlineCache@LoadedMod@@AAE?AV?$optional@V?$basic_string@_WU?$char_traits@_W@std@@V?$allocator@_W@2@@std@@@std@@PB_WV?$basic_string_view@_WU?$char_traits@_W@std@@@5@@Z@@details@wil@@QAE@XZ 100da97c     mod.obj
 0003:0008597c       __unwindtable$??1?$lambda_call@V<lambda_1>@?BO@??HookSymbols@LoadedMod@@QAEHPAUHINSTANCE__@@PBUtagWH_SYMBOL_HOOK@@IPBUtagWH_HOOK_SYMBOLS_OPTIONS@@@Z@@details@wil@@QAE@XZ 100da97c     mod.obj
 0003:0008597c       __unwindtable$??1?$lambda_call@V<lambda_1>@?L@??FindFirstSymbol4@LoadedMod@@QAEPAXPAUHINSTANCE__@@PBUtagWH_FIND_SYMBOL_OPTIONS@@PAUtagWH_FIND_SYMBOL@@@Z@@details@wil@@QAE@XZ 100da97c     mod.obj
 0003:0008597c       __unwindtable$??1?$lambda_call@V<lambda_2>@?BO@??HookSymbols@LoadedMod@@QAEHPAUHINSTANCE__@@PBUtagWH_SYMBOL_HOOK@@IPBUtagWH_HOOK_SYMBOLS_OPTIONS@@@Z@@details@wil@@QAE@XZ 100da97c     mod.obj
 0003:0008597c       __unwindtable$??1?$lambda_call@V<lambda_2>@?BP@??GetUrlContent@LoadedMod@@QAEPBUtagWH_URL_CONTENT@@PB_WPBUtagWH_GET_URL_CONTENT_OPTIONS@@@Z@@details@wil@@QAE@XZ 100da97c     mod.obj
 0003:0008597c       __unwindtable$??1?$lambda_call@V<lambda_3>@?BP@??GetUrlContent@LoadedMod@@QAEPBUtagWH_URL_CONTENT@@PB_WPBUtagWH_GET_URL_CONTENT_OPTIONS@@@Z@@details@wil@@QAE@XZ 100da97c     mod.obj
 0003:0008597c       __unwindtable$??1?$lambda_call@V<lambda_4>@?BO@??HookSymbols@LoadedMod@@QAEHPAUHINSTANCE__@@PBUtagWH_SYMBOL_HOOK@@IPBUtagWH_HOOK_SYMBOLS_OPTIONS@@@Z@@details@wil@@QAE@XZ 100da97c     mod.obj
 0003:0008597c       __unwindtable$??1?$lambda_call@V<lambda_4>@?BP@??GetUrlContent@LoadedMod@@QAEPBUtagWH_URL_CONTENT@@PB_WPBUtagWH_GET_URL_CONTENT_OPTIONS@@@Z@@details@wil@@QAE@XZ 100da97c     mod.obj
 0003:0008597c       __unwindtable$??1?$unique_any_t@V?$unique_storage@U?$resource_policy@PA_WP6AXPA_W@Z$1?MySysFreeString@@YAX0@ZU?$integral_constant@I$0A@@wistd@@PA_WPA_W$0A@$$T@details@wil@@@details@wil@@@wil@@QAE@XZ 100da97c     mod.obj
 0003:0008597c       __unwindtable$??_GModDebugLoggingScope@?A0x64030c04@@QAEPAXI@Z 100da97c     mod.obj
 0003:0008597c       __unwindtable$?GetLastErrorFailHr@details@wil@@YAJXZ 100da97c     storage_manager.obj
 0003:0008597c       __unwindtable$??1?$lambda_call@V<lambda_1>@?1???0SymbolEnum@@QAE@PB_WPAUHINSTANCE__@@0W4UndecorateMode@2@UCallbacks@2@@Z@@details@wil@@QAE@XZ 100da97c     symbol_enum.obj
 0003:00085988       __ehfuncinfo$?HookSymbols@LoadedMod@@QAEHPAUHINSTANCE__@@PBUtagWH_SYMBOL_HOOK@@IPBUtagWH_HOOK_SYMBOLS_OPTIONS@@@Z 100da988     mod.obj
 0003:000859b0       __unwindtable$?HookSymbols@LoadedMod@@QAEHPAUHINSTANCE__@@PBUtagWH_SYMBOL_HOOK@@IPBUtagWH_HOOK_SYMBOLS_OPTIONS@@@Z 100da9b0     mod.obj
 0003:00085a98       __tryblocktable$?HookSymbols@LoadedMod@@QAEHPAUHINSTANCE__@@PBUtagWH_SYMBOL_HOOK@@IPBUtagWH_HOOK_SYMBOLS_OPTIONS@@@Z 100daa98     mod.obj
 0003:00085aac       __catchsym$?HookSymbols@LoadedMod@@QAEHPAUHINSTANCE__@@PBUtagWH_SYMBOL_HOOK@@IPBUtagWH_HOOK_SYMBOLS_OPTIONS@@@Z$355 100daaac     mod.obj
 0003:00085ac0       __ehfuncinfo$?GetUrlContent@LoadedMod@@QAEPBUtagWH_URL_CONTENT@@PB_WPBUtagWH_GET_URL_CONTENT_OPTIONS@@@Z 100daac0     mod.obj
 0003:00085ae8       __unwindtable$?GetUrlContent@LoadedMod@@QAEPBUtagWH_URL_CONTENT@@PB_WPBUtagWH_GET_URL_CONTENT_OPTIONS@@@Z 100daae8     mod.obj
 0003:00085b70       __tryblocktable$?GetUrlContent@LoadedMod@@QAEPBUtagWH_URL_CONTENT@@PB_WPBUtagWH_GET_URL_CONTENT_OPTIONS@@@Z 100dab70     mod.obj
 0003:00085b84       __catchsym$?GetUrlContent@LoadedMod@@QAEPBUtagWH_URL_CONTENT@@PB_WPBUtagWH_GET_URL_CONTENT_OPTIONS@@@Z$77 100dab84     mod.obj
 0003:00085b94       __ehfuncinfo$??0WinHttpFunctions@?1??GetUrlContent@LoadedMod@@QAEPBUtagWH_URL_CONTENT@@PB_WPBUtagWH_GET_URL_CONTENT_OPTIONS@@@Z@QAE@XZ 100dab94     mod.obj
 0003:00085bb8       __unwindtable$??0WinHttpFunctions@?1??GetUrlContent@LoadedMod@@QAEPBUtagWH_URL_CONTENT@@PB_WPBUtagWH_GET_URL_CONTENT_OPTIONS@@@Z@QAE@XZ 100dabb8     mod.obj
 0003:00085bc8       __ehfuncinfo$?HookSymbolsGetOnlineCache@LoadedMod@@AAE?AV?$optional@V?$basic_string@_WU?$char_traits@_W@std@@V?$allocator@_W@2@@std@@@std@@PB_WV?$basic_string_view@_WU?$char_traits@_W@std@@@3@@Z 100dabc8     mod.obj
 0003:00085bec       __unwindtable$?HookSymbolsGetOnlineCache@LoadedMod@@AAE?AV?$optional@V?$basic_string@_WU?$char_traits@_W@std@@V?$allocator@_W@2@@std@@@std@@PB_WV?$basic_string_view@_WU?$char_traits@_W@std@@@3@@Z 100dabec     mod.obj
 0003:00085c14       __ehfuncinfo$?SetTask@LoadedMod@@AAEXPB_W@Z 100dac14     mod.obj
 0003:00085c38       __unwindtable$?SetTask@LoadedMod@@AAEXPB_W@Z 100dac38     mod.obj
 0003:00085c48       __tryblocktable$?SetTask@LoadedMod@@AAEXPB_W@Z 100dac48     mod.obj
 0003:00085c5c       __catchsym$?SetTask@LoadedMod@@AAEXPB_W@Z$2 100dac5c     mod.obj
 0003:00085c6c       __ehfuncinfo$??0Mod@@QAE@PB_W@Z 100dac6c     mod.obj
 0003:00085c90       __unwindtable$??0Mod@@QAE@PB_W@Z 100dac90     mod.obj
 0003:00085cb8       __ehfuncinfo$?Load@Mod@@QAE_N_N@Z 100dacb8     mod.obj
 0003:00085ce0       __unwindtable$?Load@Mod@@QAE_N_N@Z 100dace0     mod.obj
 0003:00085d50       __ehfuncinfo$?ApplyChangedSettings@Mod@@QAE_NPA_N@Z 100dad50     mod.obj
 0003:00085d74       __unwindtable$?ApplyChangedSettings@Mod@@QAE_NPA_N@Z 100dad74     mod.obj
 0003:00085d98       __ehfuncinfo$?ShouldLoadInRunningProcess@Mod@@SA_NPB_W@Z 100dad98     mod.obj
 0003:00085dc0       __unwindtable$?ShouldLoadInRunningProcess@Mod@@SA_NPB_W@Z 100dadc0     mod.obj
 0003:00085e28       __ehfuncinfo$?SetStatus@Mod@@AAEXPB_W@Z 100dae28     mod.obj
 0003:00085e4c       __unwindtable$?SetStatus@Mod@@AAEXPB_W@Z 100dae4c     mod.obj
 0003:00085e5c       __tryblocktable$?SetStatus@Mod@@AAEXPB_W@Z 100dae5c     mod.obj
 0003:00085e70       __catchsym$?SetStatus@Mod@@AAEXPB_W@Z$2 100dae70     mod.obj
 0003:00085e80       __ehfuncinfo$??$QueryFullProcessImageNameW@V?$basic_string@_WU?$char_traits@_W@std@@V?$allocator@_W@2@@std@@$0BAA@@wil@@YA?AV?$basic_string@_WU?$char_traits@_W@std@@V?$allocator@_W@2@@std@@PAXK@Z 100dae80     mod.obj
 0003:00085ea4       __unwindtable$??$QueryFullProcessImageNameW@V?$basic_string@_WU?$char_traits@_W@std@@V?$allocator@_W@2@@std@@$0BAA@@wil@@YA?AV?$basic_string@_WU?$char_traits@_W@std@@V?$allocator@_W@2@@std@@PAXK@Z 100daea4     mod.obj
 0003:00085eac       __ehfuncinfo$??$make_unique@VSymbolEnum@@PB_WAAPAUHINSTANCE__@@AAY00$$CB_WAAW4UndecorateMode@1@$0A@@std@@YA?AV?$unique_ptr@VSymbolEnum@@U?$default_delete@VSymbolEnum@@@std@@@0@$$QAPB_WAAPAUHINSTANCE__@@AAY00$$CB_WAAW4UndecorateMode@SymbolEnum@@@Z 100daeac     mod.obj
 0003:00085ed0       __unwindtable$??$make_unique@VSymbolEnum@@PB_WAAPAUHINSTANCE__@@AAY00$$CB_WAAW4UndecorateMode@1@$0A@@std@@YA?AV?$unique_ptr@VSymbolEnum@@U?$default_delete@VSymbolEnum@@@std@@@0@$$QAPB_WAAPAUHINSTANCE__@@AAY00$$CB_WAAW4UndecorateMode@SymbolEnum@@@Z 100daed0     mod.obj
 0003:00085ee8       __ehfuncinfo$??0ModsManager@@QAE@XZ 100daee8     mods_manager.obj
 0003:00085f0c       __unwindtable$??0ModsManager@@QAE@XZ 100daf0c     mods_manager.obj
 0003:00085f34       __tryblocktable$??0ModsManager@@QAE@XZ 100daf34     mods_manager.obj
 0003:00085f48       __catchsym$??0ModsManager@@QAE@XZ$7 100daf48     mods_manager.obj
 0003:00085f58       __ehfuncinfo$??R<lambda_1>@?1???0ModsManager@@QAE@XZ@QBE@PB_W@Z 100daf58     mods_manager.obj
 0003:00085f7c       __unwindtable$??R<lambda_1>@?1???0ModsManager@@QAE@XZ@QBE@PB_W@Z 100daf7c     mods_manager.obj
 0003:00085f8c       __tryblocktable$??R<lambda_1>@?1???0ModsManager@@QAE@XZ@QBE@PB_W@Z 100daf8c     mods_manager.obj
 0003:00085fa0       __catchsym$??R<lambda_1>@?1???0ModsManager@@QAE@XZ@QBE@PB_W@Z$2 100dafa0     mods_manager.obj
 0003:00085fb0       __ehfuncinfo$??1ModsManager@@QAE@XZ 100dafb0     mods_manager.obj
 0003:00085fd4       __unwindtable$??1ModsManager@@QAE@XZ 100dafd4     mods_manager.obj
 0003:00086004       __tryblocktable$??1ModsManager@@QAE@XZ 100db004     mods_manager.obj
 0003:00086018       __catchsym$??1ModsManager@@QAE@XZ$21 100db018     mods_manager.obj
 0003:00086028       __ehfuncinfo$?AfterInit@ModsManager@@QAEXXZ 100db028     mods_manager.obj
 0003:0008604c       __unwindtable$?AfterInit@ModsManager@@QAEXXZ 100db04c     mods_manager.obj
 0003:0008606c       __tryblocktable$?AfterInit@ModsManager@@QAEXXZ 100db06c     mods_manager.obj
 0003:00086080       __catchsym$?AfterInit@ModsManager@@QAEXXZ$17 100db080     mods_manager.obj
 0003:00086090       __ehfuncinfo$?BeforeUninit@ModsManager@@QAEXXZ 100db090     mods_manager.obj
 0003:000860b4       __unwindtable$?BeforeUninit@ModsManager@@QAEXXZ 100db0b4     mods_manager.obj
 0003:000860c4       __tryblocktable$?BeforeUninit@ModsManager@@QAEXXZ 100db0c4     mods_manager.obj
 0003:000860d8       __catchsym$?BeforeUninit@ModsManager@@QAEXXZ$2 100db0d8     mods_manager.obj
 0003:000860e8       __ehfuncinfo$?ReloadModsAndSettings@ModsManager@@QAEXXZ 100db0e8     mods_manager.obj
 0003:00086110       __unwindtable$?ReloadModsAndSettings@ModsManager@@QAEXXZ 100db110     mods_manager.obj
 0003:000861c8       __tryblocktable$?ReloadModsAndSettings@ModsManager@@QAEXXZ 100db1c8     mods_manager.obj
 0003:0008622c       __catchsym$?ReloadModsAndSettings@ModsManager@@QAEXXZ$54 100db22c     mods_manager.obj
 0003:0008623c       __catchsym$?ReloadModsAndSettings@ModsManager@@QAEXXZ$55 100db23c     mods_manager.obj
 0003:0008624c       __catchsym$?ReloadModsAndSettings@ModsManager@@QAEXXZ$56 100db24c     mods_manager.obj
 0003:0008625c       __catchsym$?ReloadModsAndSettings@ModsManager@@QAEXXZ$57 100db25c     mods_manager.obj
 0003:0008626c       __catchsym$?ReloadModsAndSettings@ModsManager@@QAEXXZ$58 100db26c     mods_manager.obj
 0003:0008627c       __ehfuncinfo$??R<lambda_1>@?1??ReloadModsAndSettings@ModsManager@@QAEXXZ@QBE@PB_W@Z 100db27c     mods_manager.obj
 0003:000862a0       __unwindtable$??R<lambda_1>@?1??ReloadModsAndSettings@ModsManager@@QAEXXZ@QBE@PB_W@Z 100db2a0     mods_manager.obj
 0003:000862b0       __tryblocktable$??R<lambda_1>@?1??ReloadModsAndSettings@ModsManager@@QAEXXZ@QBE@PB_W@Z 100db2b0     mods_manager.obj
 0003:000862c4       __catchsym$??R<lambda_1>@?1??ReloadModsAndSettings@ModsManager@@QAEXXZ@QBE@PB_W@Z$6 100db2c4     mods_manager.obj
 0003:000862d4       __ehfuncinfo$??$emplace@AAPB_WAAPB_W@?$_Hash@V?$_Umap_traits@V?$basic_string@_WU?$char_traits@_W@std@@V?$allocator@_W@2@@std@@VMod@@V?$_Uhash_compare@V?$basic_string@_WU?$char_traits@_W@std@@V?$allocator@_W@2@@std@@U?$hash@V?$basic_string@_WU?$char_traits@_W@std@@V?$allocator@_W@2@@std@@@2@U?$equal_to@V?$basic_string@_WU?$char_traits@_W@std@@V?$allocator@_W@2@@std@@@2@@2@V?$allocator@U?$pair@$$CBV?$basic_string@_WU?$char_traits@_W@std@@V?$allocator@_W@2@@std@@VMod@@@std@@@2@$0A@@std@@@std@@QAE?AU?$pair@V?$_List_iterator@V?$_List_val@U?$_List_simple_types@U?$pair@$$CBV?$basic_string@_WU?$char_traits@_W@std@@V?$allocator@_W@2@@std@@VMod@@@std@@@std@@@std@@@std@@_N@1@AAPB_W0@Z 100db2d4     mods_manager.obj
 0003:000862f8       __unwindtable$??$emplace@AAPB_WAAPB_W@?$_Hash@V?$_Umap_traits@V?$basic_string@_WU?$char_traits@_W@std@@V?$allocator@_W@2@@std@@VMod@@V?$_Uhash_compare@V?$basic_string@_WU?$char_traits@_W@std@@V?$allocator@_W@2@@std@@U?$hash@V?$basic_string@_WU?$char_traits@_W@std@@V?$allocator@_W@2@@std@@@2@U?$equal_to@V?$basic_string@_WU?$char_traits@_W@std@@V?$allocator@_W@2@@std@@@2@@2@V?$allocator@U?$pair@$$CBV?$basic_string@_WU?$char_traits@_W@std@@V?$allocator@_W@2@@std@@VMod@@@std@@@2@$0A@@std@@@std@@QAE?AU?$pair@V?$_List_iterator@V?$_List_val@U?$_List_simple_types@U?$pair@$$CBV?$basic_string@_WU?$char_traits@_W@std@@V?$allocator@_W@2@@std@@VMod@@@std@@@std@@@std@@@std@@_N@1@AAPB_W0@Z 100db2f8     mods_manager.obj
 0003:00086310       __ehfuncinfo$??$emplace@AAPB_W@?$_Hash@V?$_Uset_traits@V?$basic_string@_WU?$char_traits@_W@std@@V?$allocator@_W@2@@std@@V?$_Uhash_compare@V?$basic_string@_WU?$char_traits@_W@std@@V?$allocator@_W@2@@std@@U?$hash@V?$basic_string@_WU?$char_traits@_W@std@@V?$allocator@_W@2@@std@@@2@U?$equal_to@V?$basic_string@_WU?$char_traits@_W@std@@V?$allocator@_W@2@@std@@@2@@2@V?$allocator@V?$basic_string@_WU?$char_traits@_W@std@@V?$allocator@_W@2@@std@@@2@$0A@@std@@@std@@QAE?AU?$pair@V?$_List_const_iterator@V?$_List_val@U?$_List_simple_types@V?$basic_string@_WU?$char_traits@_W@std@@V?$allocator@_W@2@@std@@@std@@@std@@@std@@_N@1@AAPB_W@Z 100db310     mods_manager.obj
 0003:00086334       __unwindtable$??$emplace@AAPB_W@?$_Hash@V?$_Uset_traits@V?$basic_string@_WU?$char_traits@_W@std@@V?$allocator@_W@2@@std@@V?$_Uhash_compare@V?$basic_string@_WU?$char_traits@_W@std@@V?$allocator@_W@2@@std@@U?$hash@V?$basic_string@_WU?$char_traits@_W@std@@V?$allocator@_W@2@@std@@@2@U?$equal_to@V?$basic_string@_WU?$char_traits@_W@std@@V?$allocator@_W@2@@std@@@2@@2@V?$allocator@V?$basic_string@_WU?$char_traits@_W@std@@V?$allocator@_W@2@@std@@@2@$0A@@std@@@std@@QAE?AU?$pair@V?$_List_const_iterator@V?$_List_val@U?$_List_simple_types@V?$basic_string@_WU?$char_traits@_W@std@@V?$allocator@_W@2@@std@@@std@@@std@@@std@@_N@1@AAPB_W@Z 100db334     mods_manager.obj
 0003:00086344       __ehfuncinfo$??$emplace@ABV?$basic_string@_WU?$char_traits@_W@std@@V?$allocator@_W@2@@std@@PB_W@?$_Hash@V?$_Umap_traits@V?$basic_string@_WU?$char_traits@_W@std@@V?$allocator@_W@2@@std@@VMod@@V?$_Uhash_compare@V?$basic_string@_WU?$char_traits@_W@std@@V?$allocator@_W@2@@std@@U?$hash@V?$basic_string@_WU?$char_traits@_W@std@@V?$allocator@_W@2@@std@@@2@U?$equal_to@V?$basic_string@_WU?$char_traits@_W@std@@V?$allocator@_W@2@@std@@@2@@2@V?$allocator@U?$pair@$$CBV?$basic_string@_WU?$char_traits@_W@std@@V?$allocator@_W@2@@std@@VMod@@@std@@@2@$0A@@std@@@std@@QAE?AU?$pair@V?$_List_iterator@V?$_List_val@U?$_List_simple_types@U?$pair@$$CBV?$basic_string@_WU?$char_traits@_W@std@@V?$allocator@_W@2@@std@@VMod@@@std@@@std@@@std@@@std@@_N@1@ABV?$basic_string@_WU?$char_traits@_W@std@@V?$allocator@_W@2@@1@$$QAPB_W@Z 100db344     mods_manager.obj
 0003:00086368       __unwindtable$??$emplace@ABV?$basic_string@_WU?$char_traits@_W@std@@V?$allocator@_W@2@@std@@PB_W@?$_Hash@V?$_Umap_traits@V?$basic_string@_WU?$char_traits@_W@std@@V?$allocator@_W@2@@std@@VMod@@V?$_Uhash_compare@V?$basic_string@_WU?$char_traits@_W@std@@V?$allocator@_W@2@@std@@U?$hash@V?$basic_string@_WU?$char_traits@_W@std@@V?$allocator@_W@2@@std@@@2@U?$equal_to@V?$basic_string@_WU?$char_traits@_W@std@@V?$allocator@_W@2@@std@@@2@@2@V?$allocator@U?$pair@$$CBV?$basic_string@_WU?$char_traits@_W@std@@V?$allocator@_W@2@@std@@VMod@@@std@@@2@$0A@@std@@@std@@QAE?AU?$pair@V?$_List_iterator@V?$_List_val@U?$_List_simple_types@U?$pair@$$CBV?$basic_string@_WU?$char_traits@_W@std@@V?$allocator@_W@2@@std@@VMod@@@std@@@std@@@std@@@std@@_N@1@ABV?$basic_string@_WU?$char_traits@_W@std@@V?$allocator@_W@2@@1@$$QAPB_W@Z 100db368     mods_manager.obj
 0003:00086380       __ehfuncinfo$??$_Emplace_reallocate@AAPB_W@?$vector@V?$basic_string@_WU?$char_traits@_W@std@@V?$allocator@_W@2@@std@@V?$allocator@V?$basic_string@_WU?$char_traits@_W@std@@V?$allocator@_W@2@@std@@@2@@std@@AAEPAV?$basic_string@_WU?$char_traits@_W@std@@V?$allocator@_W@2@@1@QAV21@AAPB_W@Z 100db380     mods_manager.obj
 0003:000863a4       __unwindtable$??$_Emplace_reallocate@AAPB_W@?$vector@V?$basic_string@_WU?$char_traits@_W@std@@V?$allocator@_W@2@@std@@V?$allocator@V?$basic_string@_WU?$char_traits@_W@std@@V?$allocator@_W@2@@std@@@2@@std@@AAEPAV?$basic_string@_WU?$char_traits@_W@std@@V?$allocator@_W@2@@1@QAV21@AAPB_W@Z 100db3a4     mods_manager.obj
 0003:000863ac       __ehfuncinfo$??0NewProcessInjector@@QAE@PAX@Z 100db3ac     new_process_injector.obj
 0003:000863d0       __unwindtable$??0NewProcessInjector@@QAE@PAX@Z 100db3d0     new_process_injector.obj
 0003:00086408       __sehtable$?CreateProcessInternalW_Hook@NewProcessInjector@@CGHPAXPB_WPA_WPAU_SECURITY_ATTRIBUTES@@3HK01PAU_STARTUPINFOW@@PAU_PROCESS_INFORMATION@@PAPAX@Z 100db408     new_process_injector.obj
 0003:00086428       __ehfuncinfo$?HandleCreatedProcess@NewProcessInjector@@AAEXPAU_PROCESS_INFORMATION@@@Z 100db428     new_process_injector.obj
 0003:00086450       __unwindtable$?HandleCreatedProcess@NewProcessInjector@@AAEXPAU_PROCESS_INFORMATION@@@Z 100db450     new_process_injector.obj
 0003:00086490       __tryblocktable$?HandleCreatedProcess@NewProcessInjector@@AAEXPAU_PROCESS_INFORMATION@@@Z 100db490     new_process_injector.obj
 0003:000864a4       __catchsym$?HandleCreatedProcess@NewProcessInjector@@AAEXPAU_PROCESS_INFORMATION@@@Z$29 100db4a4     new_process_injector.obj
 0003:000864b4       __ehfuncinfo$??R<lambda_1>@?BE@??HandleCreatedProcess@NewProcessInjector@@AAEXPAU_PROCESS_INFORMATION@@@Z@QBE@XZ 100db4b4     new_process_injector.obj
 0003:000864d8       __unwindtable$??R<lambda_1>@?BE@??HandleCreatedProcess@NewProcessInjector@@AAEXPAU_PROCESS_INFORMATION@@@Z@QBE@XZ 100db4d8     new_process_injector.obj
 0003:00086508       __tryblocktable$??R<lambda_1>@?BE@??HandleCreatedProcess@NewProcessInjector@@AAEXPAU_PROCESS_INFORMATION@@@Z@QBE@XZ 100db508     new_process_injector.obj
 0003:0008651c       __catchsym$??R<lambda_1>@?BE@??HandleCreatedProcess@NewProcessInjector@@AAEXPAU_PROCESS_INFORMATION@@@Z@QBE@XZ$14 100db51c     new_process_injector.obj
 0003:0008652c       __ehfuncinfo$?LazyInitialize@@YA_NXZ 100db52c     main.obj
 0003:00086550       __unwindtable$?LazyInitialize@@YA_NXZ 100db550     main.obj
 0003:00086560       __tryblocktable$?LazyInitialize@@YA_NXZ 100db560     main.obj
 0003:00086574       __catchsym$?LazyInitialize@@YA_NXZ$2 100db574     main.obj
 0003:00086584       __ehfuncinfo$?InjectInit@@YAHPBULOAD_LIBRARY_REMOTE_DATA@DllInject@@@Z 100db584     main.obj
 0003:000865a8       __unwindtable$?InjectInit@@YAHPBULOAD_LIBRARY_REMOTE_DATA@DllInject@@@Z 100db5a8     main.obj
 0003:000865c8       __tryblocktable$?InjectInit@@YAHPBULOAD_LIBRARY_REMOTE_DATA@DllInject@@@Z 100db5c8     main.obj
 0003:000865dc       __catchsym$?InjectInit@@YAHPBULOAD_LIBRARY_REMOTE_DATA@DllInject@@@Z$15 100db5dc     main.obj
 0003:000865ec       __ehfuncinfo$?GlobalHookSessionStart@@YAPAXXZ 100db5ec     main.obj
 0003:00086610       __unwindtable$?GlobalHookSessionStart@@YAPAXXZ 100db610     main.obj
 0003:00086628       __tryblocktable$?GlobalHookSessionStart@@YAPAXXZ 100db628     main.obj
 0003:0008663c       __catchsym$?GlobalHookSessionStart@@YAPAXXZ$3 100db63c     main.obj
 0003:00086650       __ehfuncinfo$?Start@CustomizationSession@@SAX_N0V?$unique_any_t@V?$unique_storage@U?$handle_null_only_resource_policy@P6GHPAX@Z$1?CloseHandle@@YGH0@Z@details@wil@@@details@wil@@@wil@@V?$unique_any_t@V?$mutex_t@V?$unique_storage@U?$resource_policy@PAXP6GXPAX@_E$1?CloseHandle@details@wil@@YGX0@ZU?$integral_constant@I$0A@@wistd@@PAXPAX$0A@$$T@details@wil@@@details@wil@@Uerr_returncode_policy@3@@wil@@@3@@Z 100db650     customization_session.obj
 0003:00086678       __unwindtable$?Start@CustomizationSession@@SAX_N0V?$unique_any_t@V?$unique_storage@U?$handle_null_only_resource_policy@P6GHPAX@Z$1?CloseHandle@@YGH0@Z@details@wil@@@details@wil@@@wil@@V?$unique_any_t@V?$mutex_t@V?$unique_storage@U?$resource_policy@PAXP6GXPAX@_E$1?CloseHandle@details@wil@@YGX0@ZU?$integral_constant@I$0A@@wistd@@PAXPAX$0A@$$T@details@wil@@@details@wil@@Uerr_returncode_policy@3@@wil@@@3@@Z 100db678     customization_session.obj
 0003:000866b8       __ehfuncinfo$??0CustomizationSession@@QAE@UConstructorSecret@0@_N1V?$unique_any_t@V?$unique_storage@U?$handle_null_only_resource_policy@P6GHPAX@Z$1?CloseHandle@@YGH0@Z@details@wil@@@details@wil@@@wil@@V?$unique_any_t@V?$mutex_t@V?$unique_storage@U?$resource_policy@PAXP6GXPAX@_E$1?CloseHandle@details@wil@@YGX0@ZU?$integral_constant@I$0A@@wistd@@PAXPAX$0A@$$T@details@wil@@@details@wil@@Uerr_returncode_policy@3@@wil@@@3@@Z 100db6b8     customization_session.obj
 0003:000866e0       __unwindtable$??0CustomizationSession@@QAE@UConstructorSecret@0@_N1V?$unique_any_t@V?$unique_storage@U?$handle_null_only_resource_policy@P6GHPAX@Z$1?CloseHandle@@YGH0@Z@details@wil@@@details@wil@@@wil@@V?$unique_any_t@V?$mutex_t@V?$unique_storage@U?$resource_policy@PAXP6GXPAX@_E$1?CloseHandle@details@wil@@YGX0@ZU?$integral_constant@I$0A@@wistd@@PAXPAX$0A@$$T@details@wil@@@details@wil@@Uerr_returncode_policy@3@@wil@@@3@@Z 100db6e0     customization_session.obj
 0003:00086760       __tryblocktable$??0CustomizationSession@@QAE@UConstructorSecret@0@_N1V?$unique_any_t@V?$unique_storage@U?$handle_null_only_resource_policy@P6GHPAX@Z$1?CloseHandle@@YGH0@Z@details@wil@@@details@wil@@@wil@@V?$unique_any_t@V?$mutex_t@V?$unique_storage@U?$resource_policy@PAXP6GXPAX@_E$1?CloseHandle@details@wil@@YGX0@ZU?$integral_constant@I$0A@@wistd@@PAXPAX$0A@$$T@details@wil@@@details@wil@@Uerr_returncode_policy@3@@wil@@@3@@Z 100db760     customization_session.obj
 0003:00086774       __catchsym$??0CustomizationSession@@QAE@UConstructorSecret@0@_N1V?$unique_any_t@V?$unique_storage@U?$handle_null_only_resource_policy@P6GHPAX@Z$1?CloseHandle@@YGH0@Z@details@wil@@@details@wil@@@wil@@V?$unique_any_t@V?$mutex_t@V?$unique_storage@U?$resource_policy@PAXP6GXPAX@_E$1?CloseHandle@details@wil@@YGX0@ZU?$integral_constant@I$0A@@wistd@@PAXPAX$0A@$$T@details@wil@@@details@wil@@Uerr_returncode_policy@3@@wil@@@3@@Z$40 100db774     customization_session.obj
 0003:00086788       __ehfuncinfo$??1CustomizationSession@@QAE@XZ 100db788     customization_session.obj
 0003:000867b0       __unwindtable$??1CustomizationSession@@QAE@XZ 100db7b0     customization_session.obj
 0003:00086810       __tryblocktable$??1CustomizationSession@@QAE@XZ 100db810     customization_session.obj
 0003:00086824       __catchsym$??1CustomizationSession@@QAE@XZ$39 100db824     customization_session.obj
 0003:00086834       __ehfuncinfo$??0MainLoopRunner@CustomizationSession@@QAE@XZ 100db834     customization_session.obj
 0003:00086858       __unwindtable$??0MainLoopRunner@CustomizationSession@@QAE@XZ 100db858     customization_session.obj
 0003:00086870       __tryblocktable$??0MainLoopRunner@CustomizationSession@@QAE@XZ 100db870     customization_session.obj
 0003:00086884       __catchsym$??0MainLoopRunner@CustomizationSession@@QAE@XZ$16 100db884     customization_session.obj
 0003:00086894       __ehfuncinfo$?ContinueMonitoring@MainLoopRunner@CustomizationSession@@QAE_NXZ 100db894     customization_session.obj
 0003:000868b8       __unwindtable$?ContinueMonitoring@MainLoopRunner@CustomizationSession@@QAE_NXZ 100db8b8     customization_session.obj
 0003:000868c8       __tryblocktable$?ContinueMonitoring@MainLoopRunner@CustomizationSession@@QAE_NXZ 100db8c8     customization_session.obj
 0003:000868dc       __catchsym$?ContinueMonitoring@MainLoopRunner@CustomizationSession@@QAE_NXZ$9 100db8dc     customization_session.obj
 0003:000868ec       __ehfuncinfo$??R<lambda_1>@?7??RunMainLoopAndDeleteThisWithThreadRecreate@CustomizationSession@@AAEXXZ@QBEKPAX@Z 100db8ec     customization_session.obj
 0003:00086910       __unwindtable$??R<lambda_1>@?7??RunMainLoopAndDeleteThisWithThreadRecreate@CustomizationSession@@AAEXXZ@QBEKPAX@Z 100db910     customization_session.obj
 0003:00086928       __tryblocktable$??R<lambda_1>@?7??RunMainLoopAndDeleteThisWithThreadRecreate@CustomizationSession@@AAEXXZ@QBEKPAX@Z 100db928     customization_session.obj
 0003:0008693c       __catchsym$??R<lambda_1>@?7??RunMainLoopAndDeleteThisWithThreadRecreate@CustomizationSession@@AAEXXZ@QBEKPAX@Z$3 100db93c     customization_session.obj
 0003:0008694c       __ehfuncinfo$?RunMainLoop@CustomizationSession@@AAEXXZ 100db94c     customization_session.obj
 0003:00086970       __unwindtable$?RunMainLoop@CustomizationSession@@AAEXXZ 100db970     customization_session.obj
 0003:00086988       __tryblocktable$?RunMainLoop@CustomizationSession@@AAEXXZ 100db988     customization_session.obj
 0003:0008699c       __catchsym$?RunMainLoop@CustomizationSession@@AAEXXZ$3 100db99c     customization_session.obj
 0003:000869ac       __ehfuncinfo$?BuildBoundaryDescriptor@?A0x17396ab2@@YA?AV?$unique_any_t@V?$unique_storage@U?$handle_null_only_resource_policy@P6GXPAX@Z$1?DeleteBoundaryDescriptor@@YGX0@Z@details@wil@@@details@wil@@@wil@@PB_W@Z 100db9ac     session_private_namespace.obj
 0003:000869d0       __unwindtable$?BuildBoundaryDescriptor@?A0x17396ab2@@YA?AV?$unique_any_t@V?$unique_storage@U?$handle_null_only_resource_policy@P6GXPAX@Z$1?DeleteBoundaryDescriptor@@YGX0@Z@details@wil@@@details@wil@@@wil@@PB_W@Z 100db9d0     session_private_namespace.obj
 0003:000869e8       __ehfuncinfo$?PathFromStorage@?A0x7539b29f@@YA?AVpath@filesystem@std@@ABVPortableSettings@@PB_WABV234@@Z 100db9e8     storage_manager.obj
 0003:00086a10       __unwindtable$?PathFromStorage@?A0x7539b29f@@YA?AVpath@filesystem@std@@ABVPortableSettings@@PB_WABV234@@Z 100dba10     storage_manager.obj
 0003:00086a50       __ehfuncinfo$?GetInstance@StorageManager@@SAAAV1@XZ 100dba50     storage_manager.obj
 0003:00086a74       __unwindtable$?GetInstance@StorageManager@@SAAAV1@XZ 100dba74     storage_manager.obj
 0003:00086a7c       __ehfuncinfo$?GetAppConfig@StorageManager@@QAE?AV?$unique_ptr@VPortableSettings@@U?$default_delete@VPortableSettings@@@std@@@std@@PB_W@Z 100dba7c     storage_manager.obj
 0003:00086aa0       __unwindtable$?GetAppConfig@StorageManager@@QAE?AV?$unique_ptr@VPortableSettings@@U?$default_delete@VPortableSettings@@@std@@@std@@PB_W@Z 100dbaa0     storage_manager.obj
 0003:00086ac8       __ehfuncinfo$?GetModConfig@StorageManager@@QAE?AV?$unique_ptr@VPortableSettings@@U?$default_delete@VPortableSettings@@@std@@@std@@PB_W0@Z 100dbac8     storage_manager.obj
 0003:00086af0       __unwindtable$?GetModConfig@StorageManager@@QAE?AV?$unique_ptr@VPortableSettings@@U?$default_delete@VPortableSettings@@@std@@@std@@PB_W0@Z 100dbaf0     storage_manager.obj
 0003:00086b58       __ehfuncinfo$?GetModWritableConfig@StorageManager@@QAE?AV?$unique_ptr@VPortableSettings@@U?$default_delete@VPortableSettings@@@std@@@std@@PB_W0_N@Z 100dbb58     storage_manager.obj
 0003:00086b80       __unwindtable$?GetModWritableConfig@StorageManager@@QAE?AV?$unique_ptr@VPortableSettings@@U?$default_delete@VPortableSettings@@@std@@@std@@PB_W0_N@Z 100dbb80     storage_manager.obj
 0003:00086be0       __ehfuncinfo$?EnumMods@StorageManager@@QAEXV?$function@$$A6AXPB_W@Z@std@@@Z 100dbbe0     storage_manager.obj
 0003:00086c04       __unwindtable$?EnumMods@StorageManager@@QAEXV?$function@$$A6AXPB_W@Z@std@@@Z 100dbc04     storage_manager.obj
 0003:00086c0c       __ehfuncinfo$?GetModStoragePath@StorageManager@@QAE?AVpath@filesystem@std@@PB_W@Z 100dbc0c     storage_manager.obj
 0003:00086c30       __unwindtable$?GetModStoragePath@StorageManager@@QAE?AVpath@filesystem@std@@PB_W@Z 100dbc30     storage_manager.obj
 0003:00086c60       __ehfuncinfo$?CreateModMetadataFile@StorageManager@@QAE?AV?$unique_any_t@V?$unique_storage@U?$handle_invalid_resource_policy@P6GHPAX@Z$1?CloseHandle@@YGH0@Z@details@wil@@@details@wil@@@wil@@PB_W0@Z 100dbc60     storage_manager.obj
 0003:00086c88       __unwindtable$?CreateModMetadataFile@StorageManager@@QAE?AV?$unique_any_t@V?$unique_storage@U?$handle_invalid_resource_policy@P6GHPAX@Z$1?CloseHandle@@YGH0@Z@details@wil@@@details@wil@@@wil@@PB_W0@Z 100dbc88     storage_manager.obj
 0003:00086cc8       __ehfuncinfo$?GetEnginePath@StorageManager@@QAE?AVpath@filesystem@std@@G@Z 100dbcc8     storage_manager.obj
 0003:00086cec       __unwindtable$?GetEnginePath@StorageManager@@QAE?AVpath@filesystem@std@@G@Z 100dbcec     storage_manager.obj
 0003:00086d10       __ehfuncinfo$??0StorageManager@@AAE@XZ 100dbd10     storage_manager.obj
 0003:00086d38       __unwindtable$??0StorageManager@@AAE@XZ 100dbd38     storage_manager.obj
 0003:00086dc0       __ehfuncinfo$?RegistryEnumMods@StorageManager@@AAEXV?$function@$$A6AXPB_W@Z@std@@@Z 100dbdc0     storage_manager.obj
 0003:00086de4       __unwindtable$?RegistryEnumMods@StorageManager@@AAEXV?$function@$$A6AXPB_W@Z@std@@@Z 100dbde4     storage_manager.obj
 0003:00086e08       __ehfuncinfo$?IniFilesEnumMods@StorageManager@@AAEXV?$function@$$A6AXPB_W@Z@std@@@Z 100dbe08     storage_manager.obj
 0003:00086e30       __unwindtable$?IniFilesEnumMods@StorageManager@@AAEXV?$function@$$A6AXPB_W@Z@std@@@Z 100dbe30     storage_manager.obj
 0003:00086e90       __ehfuncinfo$??0ModConfigChangeNotification@StorageManager@@QAE@XZ 100dbe90     storage_manager.obj
 0003:00086eb8       __unwindtable$??0ModConfigChangeNotification@StorageManager@@QAE@XZ 100dbeb8     storage_manager.obj
 0003:00086ef8       __ehfuncinfo$??0filesystem_error@filesystem@std@@QAE@ABV?$basic_string@DU?$char_traits@D@std@@V?$allocator@D@2@@2@Verror_code@2@@Z 100dbef8     storage_manager.obj
 0003:00086f1c       __unwindtable$??0filesystem_error@filesystem@std@@QAE@ABV?$basic_string@DU?$char_traits@D@std@@V?$allocator@D@2@@2@Verror_code@2@@Z 100dbf1c     storage_manager.obj
 0003:00086f34       __ehfuncinfo$?_Throw_fs_error@filesystem@std@@YAXPBDW4__std_win_error@@@Z 100dbf34     storage_manager.obj
 0003:00086f58       __unwindtable$?_Throw_fs_error@filesystem@std@@YAXPBDW4__std_win_error@@@Z 100dbf58     storage_manager.obj
 0003:00086f60       __ehfuncinfo$??0_Creator@_Dir_enum_impl@filesystem@std@@QAE@ABVpath@23@W4directory_options@23@@Z 100dbf60     storage_manager.obj
 0003:00086f84       __unwindtable$??0_Creator@_Dir_enum_impl@filesystem@std@@QAE@ABVpath@23@W4directory_options@23@@Z 100dbf84     storage_manager.obj
 0003:00086fa4       __ehfuncinfo$?_Refresh@_Dir_enum_impl@filesystem@std@@QAEXABU__std_fs_find_data@@@Z 100dbfa4     storage_manager.obj
 0003:00086fc8       __unwindtable$?_Refresh@_Dir_enum_impl@filesystem@std@@QAEXABU__std_fs_find_data@@@Z 100dbfc8     storage_manager.obj
 0003:00086fd0       __ehfuncinfo$??0_Dir_enum_impl@filesystem@std@@QAE@$$QAU_Creator@012@W4directory_options@12@@Z 100dbfd0     storage_manager.obj
 0003:00086ff4       __unwindtable$??0_Dir_enum_impl@filesystem@std@@QAE@$$QAU_Creator@012@W4directory_options@12@@Z 100dbff4     storage_manager.obj
 0003:00087004       __ehfuncinfo$?_Throw_fs_error@filesystem@std@@YAXPBDABVerror_code@2@ABVpath@12@@Z 100dc004     storage_manager.obj
 0003:00087028       __unwindtable$?_Throw_fs_error@filesystem@std@@YAXPBDABVerror_code@2@ABVpath@12@@Z 100dc028     storage_manager.obj
 0003:00087030       __ehfuncinfo$??$_Convert_wide_to_narrow_replace_chars@U?$char_traits@D@std@@V?$allocator@D@2@@filesystem@std@@YA?AV?$basic_string@DU?$char_traits@D@std@@V?$allocator@D@2@@1@W4__std_code_page@@V?$basic_string_view@_WU?$char_traits@_W@std@@@1@ABV?$allocator@D@1@@Z 100dc030     storage_manager.obj
 0003:00087054       __unwindtable$??$_Convert_wide_to_narrow_replace_chars@U?$char_traits@D@std@@V?$allocator@D@2@@filesystem@std@@YA?AV?$basic_string@DU?$char_traits@D@std@@V?$allocator@D@2@@1@W4__std_code_page@@V?$basic_string_view@_WU?$char_traits@_W@std@@@1@ABV?$allocator@D@1@@Z 100dc054     storage_manager.obj
 0003:0008705c       __ehfuncinfo$?_Pretty_message@filesystem_error@filesystem@std@@CA?AV?$basic_string@DU?$char_traits@D@std@@V?$allocator@D@2@@3@V?$basic_string_view@DU?$char_traits@D@std@@@3@ABVpath@23@1@Z 100dc05c     storage_manager.obj
 0003:00087080       __unwindtable$?_Pretty_message@filesystem_error@filesystem@std@@CA?AV?$basic_string@DU?$char_traits@D@std@@V?$allocator@D@2@@3@V?$basic_string_view@DU?$char_traits@D@std@@@3@ABVpath@23@1@Z 100dc080     storage_manager.obj
 0003:00087098       __ehfuncinfo$??0filesystem_error@filesystem@std@@QAE@ABV?$basic_string@DU?$char_traits@D@std@@V?$allocator@D@2@@2@ABVpath@12@Verror_code@2@@Z 100dc098     storage_manager.obj
 0003:000870bc       __unwindtable$??0filesystem_error@filesystem@std@@QAE@ABV?$basic_string@DU?$char_traits@D@std@@V?$allocator@D@2@@2@ABVpath@12@Verror_code@2@@Z 100dc0bc     storage_manager.obj
 0003:000870dc       __ehfuncinfo$??0filesystem_error@filesystem@std@@QAE@ABV012@@Z 100dc0dc     storage_manager.obj
 0003:00087100       __unwindtable$??0filesystem_error@filesystem@std@@QAE@ABV012@@Z 100dc100     storage_manager.obj
 0003:00087118       __ehfuncinfo$?_Throw_fs_error@filesystem@std@@YAXPBDW4__std_win_error@@ABVpath@12@@Z 100dc118     storage_manager.obj
 0003:0008713c       __unwindtable$?_Throw_fs_error@filesystem@std@@YAXPBDW4__std_win_error@@ABVpath@12@@Z 100dc13c     storage_manager.obj
 0003:00087144       __ehfuncinfo$?lexically_normal@path@filesystem@std@@QBE?AV123@XZ 100dc144     storage_manager.obj
 0003:00087168       __unwindtable$?lexically_normal@path@filesystem@std@@QBE?AV123@XZ 100dc168     storage_manager.obj
 0003:00087178       __ehfuncinfo$?GetThreadLocalDataCache@details_abi@wil@@YAPAUThreadLocalData@12@_N@Z 100dc178     stdafx.obj
 0003:0008719c       __unwindtable$?GetThreadLocalDataCache@details_abi@wil@@YAPAUThreadLocalData@12@_N@Z 100dc19c     stdafx.obj
 0003:000871a4       __ehfuncinfo$?GetContextAndNotifyFailure@details@wil@@YGXPAUFailureInfo@2@PADI@Z 100dc1a4     stdafx.obj
 0003:000871c8       __unwindtable$?GetContextAndNotifyFailure@details@wil@@YGXPAUFailureInfo@2@PADI@Z 100dc1c8     stdafx.obj
 0003:000871d8       __ehfuncinfo$??__Eg_symbolServerCallbacks@?A0x0a5fb974@@YAXXZ 100dc1d8     symbol_enum.obj
 0003:000871fc       __unwindtable$??__Eg_symbolServerCallbacks@?A0x0a5fb974@@YAXXZ 100dc1fc     symbol_enum.obj
 0003:0008722c       __ehfuncinfo$?GetSymbolsSearchPath@?A0x0a5fb974@@YA?AV?$basic_string@_WU?$char_traits@_W@std@@V?$allocator@_W@2@@std@@PB_W@Z 100dc22c     symbol_enum.obj
 0003:00087250       __unwindtable$?GetSymbolsSearchPath@?A0x0a5fb974@@YA?AV?$basic_string@_WU?$char_traits@_W@std@@V?$allocator@_W@2@@std@@PB_W@Z 100dc250     symbol_enum.obj
 0003:00087270       __ehfuncinfo$?MsdiaLoadLibraryExWHook@?A0x0a5fb974@@YGPAUHINSTANCE__@@PB_WPAXK@Z 100dc270     symbol_enum.obj
 0003:00087294       __unwindtable$?MsdiaLoadLibraryExWHook@?A0x0a5fb974@@YGPAUHINSTANCE__@@PB_WPAXK@Z 100dc294     symbol_enum.obj
 0003:000872c4       __tryblocktable$?MsdiaLoadLibraryExWHook@?A0x0a5fb974@@YGPAUHINSTANCE__@@PB_WPAXK@Z 100dc2c4     symbol_enum.obj
 0003:000872d8       __catchsym$?MsdiaLoadLibraryExWHook@?A0x0a5fb974@@YGPAUHINSTANCE__@@PB_WPAXK@Z$20 100dc2d8     symbol_enum.obj
 0003:000872e8       __ehfuncinfo$??0SymbolEnum@@QAE@PB_WPAUHINSTANCE__@@0W4UndecorateMode@0@UCallbacks@0@@Z 100dc2e8     symbol_enum.obj
 0003:00087310       __unwindtable$??0SymbolEnum@@QAE@PB_WPAUHINSTANCE__@@0W4UndecorateMode@0@UCallbacks@0@@Z 100dc310     symbol_enum.obj
 0003:000873a0       __ehfuncinfo$?GetNextSymbol@SymbolEnum@@QAE?AV?$optional@USymbol@SymbolEnum@@@std@@XZ 100dc3a0     symbol_enum.obj
 0003:000873c8       __unwindtable$?GetNextSymbol@SymbolEnum@@QAE?AV?$optional@USymbol@SymbolEnum@@@std@@XZ 100dc3c8     symbol_enum.obj
 0003:00087430       __ehfuncinfo$?LoadMsdia@SymbolEnum@@AAE?AV?$com_ptr_t@UIDiaDataSource@@Uerr_exception_policy@wil@@@wil@@XZ 100dc430     symbol_enum.obj
 0003:00087454       __unwindtable$?LoadMsdia@SymbolEnum@@AAE?AV?$com_ptr_t@UIDiaDataSource@@Uerr_exception_policy@wil@@@wil@@XZ 100dc454     symbol_enum.obj
 0003:00087550       __sehtable$___scrt_is_nonwritable_in_current_image 100dc550     LIBCMT:utility.obj
 0003:00087570       __sehtable$??_M@YGXPAXIIP6EX0@Z@Z 100dc570     LIBCMT:ehvecdtr.obj
 0003:00087590       __sehtable$?__ArrayUnwind@@YGXPAXIIP6EX0@Z@Z 100dc590     LIBCMT:ehvecdtr.obj
 0003:000875b0       __sehtable$?dllmain_crt_process_attach@@YAHQAUHINSTANCE__@@QAX@Z 100dc5b0     LIBCMT:dll_dllmain.obj
 0003:000875d0       __sehtable$?dllmain_crt_process_detach@@YAH_N@Z 100dc5d0     LIBCMT:dll_dllmain.obj
 0003:000875f8       __sehtable$?dllmain_dispatch@@YAHQAUHINSTANCE__@@KQAX@Z 100dc5f8     LIBCMT:dll_dllmain.obj
 0003:00087618       __sehtable$___DestructExceptionObject 100dc618     libvcruntime:ehhelpers.obj
 0003:00087638       __sehtable$?FrameUnwindToState@__FrameHandler3@@SAXPAUEHRegistrationNode@@PAXPBU_s_FuncInfo@@H@Z 100dc638     libvcruntime:frame.obj
 0003:00087660       __sehtable$?CallCatchBlock@@YAPAXPAUEHExceptionRecord@@PAUEHRegistrationNode@@PAU_CONTEXT@@PBU_s_FuncInfo@@PAXHK@Z 100dc660     libvcruntime:frame.obj
 0003:00087688       __catchsym$?CallUnexpected@@YAXPBU_s_ESTypeList@@@Z$2 100dc688     libvcruntime:frame.obj
 0003:00087698       __unwindtable$?CallUnexpected@@YAXPBU_s_ESTypeList@@@Z 100dc698     libvcruntime:frame.obj
 0003:000876a8       __tryblocktable$?CallUnexpected@@YAXPBU_s_ESTypeList@@@Z 100dc6a8     libvcruntime:frame.obj
 0003:000876bc       __ehfuncinfo$?CallUnexpected@@YAXPBU_s_ESTypeList@@@Z 100dc6bc     libvcruntime:frame.obj
 0003:000876e0       __sehtable$??$BuildCatchObjectHelperInternal@V__FrameHandler3@@@@YAHPAUEHExceptionRecord@@PAXPBU_s_HandlerType@@PBU_s_CatchableType@@@Z 100dc6e0     libvcruntime:frame.obj
 0003:00087700       __sehtable$??$BuildCatchObjectInternal@V__FrameHandler3@@@@YAXPAUEHExceptionRecord@@PAXPBU_s_HandlerType@@PBU_s_CatchableType@@@Z 100dc700     libvcruntime:frame.obj
 0003:00087754       __unwindtable$?common_exit@@YAXHW4_crt_exit_cleanup_mode@@W4_crt_exit_return_mode@@@Z 100dc754     libucrt:exit.obj
 0003:00087754       __unwindtable$?state_case_type@?$output_processor@_WV?$string_output_adapter@_W@__crt_stdio_output@@V?$format_validation_base@_WV?$string_output_adapter@_W@__crt_stdio_output@@@2@@__crt_stdio_output@@AAE_NXZ 100dc754     libucrt:output.obj
 0003:00087754       __unwindtable$?state_case_type@?$output_processor@_WV?$string_output_adapter@_W@__crt_stdio_output@@V?$standard_base@_WV?$string_output_adapter@_W@__crt_stdio_output@@@2@@__crt_stdio_output@@AAE_NXZ 100dc754     libucrt:output.obj
 0003:0008775c       __ehfuncinfo$?common_exit@@YAXHW4_crt_exit_cleanup_mode@@W4_crt_exit_return_mode@@@Z 100dc75c     libucrt:exit.obj
 0003:0008775c       __ehfuncinfo$?state_case_type@?$output_processor@_WV?$string_output_adapter@_W@__crt_stdio_output@@V?$format_validation_base@_WV?$string_output_adapter@_W@__crt_stdio_output@@@2@@__crt_stdio_output@@AAE_NXZ 100dc75c     libucrt:output.obj
 0003:0008775c       __ehfuncinfo$?state_case_type@?$output_processor@_WV?$string_output_adapter@_W@__crt_stdio_output@@V?$standard_base@_WV?$string_output_adapter@_W@__crt_stdio_output@@@2@@__crt_stdio_output@@AAE_NXZ 100dc75c     libucrt:output.obj
 0003:00087780       __sehtable$_terminate      100dc780     libucrt:terminate.obj
 0003:000877a0       __sehtable$??$thread_start@P6GIPAX@Z$00@@YGKQAX@Z 100dc7a0     libucrt:thread.obj
 0003:000877c0       __sehtable$__set_new_handler 100dc7c0     libucrt:new_handler.obj
 0003:000877e0       __sehtable$__query_new_handler 100dc7e0     libucrt:new_handler.obj
 0003:00087800       __sehtable$??R<lambda_6e4b09c48022b2350581041d5f6b0c4c>@@QBE@XZ 100dc800     libucrt:exit.obj
 0003:00087820       __sehtable$??$?RV<lambda_03b1d95aef87969028cfba75ccab2455>@@AAV<lambda_6e4b09c48022b2350581041d5f6b0c4c>@@V<lambda_22bdf7517842c4b3e53723af5aa32b9e>@@@?$__crt_seh_guarded_call@X@@QAEX$$QAV<lambda_03b1d95aef87969028cfba75ccab2455>@@AAV<lambda_6e4b09c48022b2350581041d5f6b0c4c>@@$$QAV<lambda_22bdf7517842c4b3e53723af5aa32b9e>@@@Z 100dc820     libucrt:exit.obj
 0003:0008783c       __unwindtable$___dcrt_uninitialize_environments_nolock 100dc83c     libucrt:environment_initialization.obj
 0003:0008783c       __unwindtable$___acrt_getptd_noexit 100dc83c     libucrt:per_thread_data.obj
 0003:0008784c       __ehfuncinfo$___dcrt_uninitialize_environments_nolock 100dc84c     libucrt:environment_initialization.obj
 0003:0008784c       __ehfuncinfo$___acrt_getptd_noexit 100dc84c     libucrt:per_thread_data.obj
 0003:00087870       __unwindtable$___acrt_freeptd 100dc870     libucrt:per_thread_data.obj
 0003:00087870       __unwindtable$___acrt_getptd_head 100dc870     libucrt:per_thread_data.obj
 0003:00087870       __unwindtable$___acrt_getptd_noexit_explicit 100dc870     libucrt:per_thread_data.obj
 0003:00087870       __unwindtable$__execute_onexit_table 100dc870     libucrt:onexit.obj
 0003:00087878       __ehfuncinfo$___acrt_freeptd 100dc878     libucrt:per_thread_data.obj
 0003:00087878       __ehfuncinfo$___acrt_getptd_head 100dc878     libucrt:per_thread_data.obj
 0003:00087878       __ehfuncinfo$___acrt_getptd_noexit_explicit 100dc878     libucrt:per_thread_data.obj
 0003:00087878       __ehfuncinfo$__execute_onexit_table 100dc878     libucrt:onexit.obj
 0003:000878a0       __sehtable$??$?RV<lambda_8e746cf0007f6ed984d6f78af1fec997>@@AAV<lambda_22ebabd17bc4fa466a2aca6d8deb888d>@@V<lambda_18ed0c0b38a6dc0daf1e7ac6d6adf05e>@@@?$__crt_seh_guarded_call@H@@QAEH$$QAV<lambda_8e746cf0007f6ed984d6f78af1fec997>@@AAV<lambda_22ebabd17bc4fa466a2aca6d8deb888d>@@$$QAV<lambda_18ed0c0b38a6dc0daf1e7ac6d6adf05e>@@@Z 100dc8a0     libucrt:onexit.obj
 0003:000878c0       __sehtable$??$?RV<lambda_69a2805e680e0e292e8ba93315fe43a8>@@AAV<lambda_f03950bc5685219e0bcd2087efbe011e>@@V<lambda_03fcd07e894ec930e3f35da366ca99d6>@@@?$__crt_seh_guarded_call@H@@QAEH$$QAV<lambda_69a2805e680e0e292e8ba93315fe43a8>@@AAV<lambda_f03950bc5685219e0bcd2087efbe011e>@@$$QAV<lambda_03fcd07e894ec930e3f35da366ca99d6>@@@Z 100dc8c0     libucrt:onexit.obj
 0003:000878e0       __sehtable$??$?RV<lambda_15ade71b0218206bbe3333a0c9b79046>@@AAV<lambda_da44e0f8b0f19ba52fefafb335991732>@@V<lambda_207f2d024fc103971653565357d6cd41>@@@?$__crt_seh_guarded_call@X@@QAEX$$QAV<lambda_15ade71b0218206bbe3333a0c9b79046>@@AAV<lambda_da44e0f8b0f19ba52fefafb335991732>@@$$QAV<lambda_207f2d024fc103971653565357d6cd41>@@@Z 100dc8e0     libucrt:per_thread_data.obj
 0003:00087900       __sehtable$??$?RV<lambda_a7e850c220f1c8d1e6efeecdedd162c6>@@AAV<lambda_46720907175c18b6c9d2717bc0d2d362>@@V<lambda_9048902d66e8d99359bc9897bbb930a8>@@@?$__crt_seh_guarded_call@X@@QAEX$$QAV<lambda_a7e850c220f1c8d1e6efeecdedd162c6>@@AAV<lambda_46720907175c18b6c9d2717bc0d2d362>@@$$QAV<lambda_9048902d66e8d99359bc9897bbb930a8>@@@Z 100dc900     libucrt:per_thread_data.obj
 0003:00087920       __sehtable$??$?RV<lambda_38edbb1296d33220d7e4dd0ed76b244a>@@AAV<lambda_5ce1d447e08cb34b2473517608e21441>@@V<lambda_fb385d3da700c9147fc39e65dd577a8c>@@@?$__crt_seh_guarded_call@X@@QAEX$$QAV<lambda_38edbb1296d33220d7e4dd0ed76b244a>@@AAV<lambda_5ce1d447e08cb34b2473517608e21441>@@$$QAV<lambda_fb385d3da700c9147fc39e65dd577a8c>@@@Z 100dc920     libucrt:per_thread_data.obj
 0003:00087940       __sehtable$??$?RV<lambda_6affb1475c98b40b75cdec977db92e3c>@@AAV<lambda_b8d4b9c228a6ecc3f80208dbb4b4a104>@@V<lambda_608742c3c92a14382c1684fc64f96c88>@@@?$__crt_seh_guarded_call@X@@QAEX$$QAV<lambda_6affb1475c98b40b75cdec977db92e3c>@@AAV<lambda_b8d4b9c228a6ecc3f80208dbb4b4a104>@@$$QAV<lambda_608742c3c92a14382c1684fc64f96c88>@@@Z 100dc940     libucrt:per_thread_data.obj
 0003:00087960       __sehtable$??$?RV<lambda_e5124f882df8998aaf41531e079ba474>@@AAV<lambda_3e16ef9562a7dcce91392c22ab16ea36>@@V<lambda_e25ca0880e6ef98be67edffd8c599615>@@@?$__crt_seh_guarded_call@X@@QAEX$$QAV<lambda_e5124f882df8998aaf41531e079ba474>@@AAV<lambda_3e16ef9562a7dcce91392c22ab16ea36>@@$$QAV<lambda_e25ca0880e6ef98be67edffd8c599615>@@@Z 100dc960     libucrt:wsetlocale.obj
 0003:00087980       __sehtable$___acrt_initialize_lowio 100dc980     libucrt:ioinit.obj
 0003:000879a0       __sehtable$_raise          100dc9a0     libucrt:signal.obj
 0003:000879c0       __sehtable$??$?RV<lambda_cbab9ec6f41b0180b23cc171c22676b0>@@AAV<lambda_44731a7d0e6d81c3e6aa82d741081786>@@V<lambda_4b292cb8dd18144e164572427af410ab>@@@?$__crt_seh_guarded_call@P6AXH@Z@@QAEP6AXH@Z$$QAV<lambda_cbab9ec6f41b0180b23cc171c22676b0>@@AAV<lambda_44731a7d0e6d81c3e6aa82d741081786>@@$$QAV<lambda_4b292cb8dd18144e164572427af410ab>@@@Z 100dc9c0     libucrt:signal.obj
 0003:000879e0       __sehtable$__fcloseall     100dc9e0     libucrt:closeall.obj
 0003:00087a00       __sehtable$??$?RV<lambda_2866be3712abc81a800a822484c830d8>@@AAV<lambda_39ca0ed439415581b5b15c265174cece>@@V<lambda_2b24c74d71094a6cd0cb82e44167d71b>@@@?$__crt_seh_guarded_call@X@@QAEX$$QAV<lambda_2866be3712abc81a800a822484c830d8>@@AAV<lambda_39ca0ed439415581b5b15c265174cece>@@$$QAV<lambda_2b24c74d71094a6cd0cb82e44167d71b>@@@Z 100dca00     libucrt:fflush.obj
 0003:00087a20       __sehtable$??$?RV<lambda_2cc53f568c5a2bb6f192f930a45d44ea>@@AAV<lambda_ab61a845afdef5b7c387490eaf3616ee>@@V<lambda_c2ffc0b7726aa6be21d5f0026187e748>@@@?$__crt_seh_guarded_call@X@@QAEX$$QAV<lambda_2cc53f568c5a2bb6f192f930a45d44ea>@@AAV<lambda_ab61a845afdef5b7c387490eaf3616ee>@@$$QAV<lambda_c2ffc0b7726aa6be21d5f0026187e748>@@@Z 100dca20     libucrt:fflush.obj
 0003:00087a40       __sehtable$?update_thread_multibyte_data_internal@@YAPAU__crt_multibyte_data@@QAU__acrt_ptd@@QAPAU1@@Z 100dca40     libucrt:mbctype.obj
 0003:00087a60       __sehtable$??$?RV<lambda_ceb1ee4838e85a9d631eb091e2fbe199>@@AAV<lambda_ae742caa10f662c28703da3d2ea5e57e>@@V<lambda_cd08b5d6af4937fe54fc07d0c9bf6b37>@@@?$__crt_seh_guarded_call@X@@QAEX$$QAV<lambda_ceb1ee4838e85a9d631eb091e2fbe199>@@AAV<lambda_ae742caa10f662c28703da3d2ea5e57e>@@$$QAV<lambda_cd08b5d6af4937fe54fc07d0c9bf6b37>@@@Z 100dca60     libucrt:mbctype.obj
 0003:00087a80       __sehtable$___acrt_update_thread_locale_data 100dca80     libucrt:locale_refcounting.obj
 0003:00087aa0       __sehtable$___acrt_lowio_ensure_fh_exists 100dcaa0     libucrt:osfinfo.obj
 0003:00087ac0       __sehtable$?_fclose_internal@@YAHQAU_iobuf@@AAV__crt_cached_ptd_host@@@Z 100dcac0     libucrt:fclose.obj
 0003:00087ae0       __sehtable$??$?RV<lambda_9e9de3de5fa147e2223d7db92bc10aa6>@@AAV<lambda_38ce7e780aa69e748d6df282ebc68efe>@@V<lambda_8ca6da459f0f6780f1cff60fdc3d00e5>@@@?$__crt_seh_guarded_call@H@@QAEH$$QAV<lambda_9e9de3de5fa147e2223d7db92bc10aa6>@@AAV<lambda_38ce7e780aa69e748d6df282ebc68efe>@@$$QAV<lambda_8ca6da459f0f6780f1cff60fdc3d00e5>@@@Z 100dcae0     libucrt:commit.obj
 0003:00087b00       __sehtable$__write_internal 100dcb00     libucrt:write.obj
 0003:00087b20       __sehtable$??$?RV<lambda_d422a76eb4c3bf3ad751449ab71a6ea4>@@AAV<lambda_c9ba49e555ba839a7b07aa3fbecb7617>@@V<lambda_9476263c8ee91a25d21c55370bdb50de>@@@?$__crt_seh_guarded_call@H@@QAEH$$QAV<lambda_d422a76eb4c3bf3ad751449ab71a6ea4>@@AAV<lambda_c9ba49e555ba839a7b07aa3fbecb7617>@@$$QAV<lambda_9476263c8ee91a25d21c55370bdb50de>@@@Z 100dcb20     libucrt:close.obj
 0003:00087b40       __sehtable$___set_fpsr_sse2 100dcb40     libucrt:fpctrl.obj
 0003:00087b60       __sehtable$__IsNonwritableInCurrentImage 100dcb60     LIBCMT:pesect.obj
 0003:00087df0       .edata                     100dcdf0     windhawk.exp
 0003:00087e18       rgpv                       100dce18     windhawk.exp
 0003:00087e94       rgszName                   100dce94     windhawk.exp
 0003:00087f10       rgwOrd                     100dcf10     windhawk.exp
 0003:00087f4e       szName                     100dcf4e     windhawk.exp
 0003:00087f5b       $N00001                    100dcf5b     windhawk.exp
 0003:00087f70       $N00002                    100dcf70     windhawk.exp
 0003:00087f94       $N00003                    100dcf94     windhawk.exp
 0003:00087fab       $N00004                    100dcfab     windhawk.exp
 0003:00087fb6       $N00005                    100dcfb6     windhawk.exp
 0003:00087fd2       $N00006                    100dcfd2     windhawk.exp
 0003:00087fee       $N00007                    100dcfee     windhawk.exp
 0003:00088009       $N00008                    100dd009     windhawk.exp
 0003:00088023       $N00009                    100dd023     windhawk.exp
 0003:00088042       $N00010                    100dd042     windhawk.exp
 0003:00088059       $N00011                    100dd059     windhawk.exp
 0003:0008806b       $N00012                    100dd06b     windhawk.exp
 0003:00088086       $N00013                    100dd086     windhawk.exp
 0003:000880a2       $N00014                    100dd0a2     windhawk.exp
 0003:000880bd       $N00015                    100dd0bd     windhawk.exp
 0003:000880da       $N00016                    100dd0da     windhawk.exp
 0003:000880f4       $N00017                    100dd0f4     windhawk.exp
 0003:0008810e       $N00018                    100dd10e     windhawk.exp
 0003:00088127       $N00019                    100dd127     windhawk.exp
 0003:0008813e       $N00020                    100dd13e     windhawk.exp
 0003:0008815b       $N00021                    100dd15b     windhawk.exp
 0003:00088177       $N00022                    100dd177     windhawk.exp
 0003:00088191       $N00023                    100dd191     windhawk.exp
 0003:000881aa       $N00024                    100dd1aa     windhawk.exp
 0003:000881c1       $N00025                    100dd1c1     windhawk.exp
 0003:000881d9       $N00026                    100dd1d9     windhawk.exp
 0003:000881e8       $N00027                    100dd1e8     windhawk.exp
 0003:00088206       $N00028                    100dd206     windhawk.exp
 0003:00088220       $N00029                    100dd220     windhawk.exp
 0003:0008823b       $N00030                    100dd23b     windhawk.exp
 0003:00088252       $N00031                    100dd252     windhawk.exp
 0003:00088754       .idata$6                   100dd754     ntdll:ntdll.dll
 0003:00088f4c       .idata$6                   100ddf4c     kernel32:KERNEL32.dll
 0003:00089086       .idata$6                   100de086     advapi32:ADVAPI32.dll
 0004:00000000       ?_Thread_exit_data_mutex@?A0x7f1b0160@@3Vmutex@std@@A 100df000     libcpmt:xnotify.obj
 0004:000000a0       ?__vcrt_flsindex@@3KA      100df0a0     libvcruntime:per_thread_data.obj
 0004:000000c0       ?errno_no_memory@@3HA      100df0c0     libucrt:errno.obj
 0004:000000c4       ?doserrno_no_memory@@3KA   100df0c4     libucrt:errno.obj
 0004:00000178       ?__acrt_flsindex@@3KA      100df178     libucrt:per_thread_data.obj
 0004:00000468       __mbctypes                 100df468     libucrt:mbctype.obj
 0004:00000570       __mbcasemaps               100df570     libucrt:mbctype.obj
 0004:00000670       ?__rgctypeflag@@3PADA      100df670     libucrt:mbctype.obj
 0004:00000678       ?__rgcode_page_info@@3PAUcode_page_info@@A 100df678     libucrt:mbctype.obj
 0004:000008d0       ?__dcrt_lowio_console_output_handle@@3PAXA 100df8d0     libucrt:initcon.obj
 0004:000008e0       ?__DAZ_ENABLED@?1??__set_fpsr_sse2@@9@9 100df8e0     libucrt:fpctrl.obj
 0004:00000904       ?g_TlsIndex@EtwStealth@@3KA 100df904     etw_stealth.obj
 0004:00000908       ?g_hooksMutex@?A0x8e05aadc@HwbpHook@@3Vmutex@std@@A 100df908     hwbp_hook.obj
 0004:00000938       ?g_RegionsMutex@InjectionMonitor@@3Vmutex@std@@A 100df938     injection_monitor.obj
 0004:00000968       _g_sbi                     100df968     Memory.obj
 0004:00000c30       ??_R0?AV<lambda_2>@?L@??FindFirstSymbol4@LoadedMod@@QAEPAXPAUHINSTANCE__@@PBUtagWH_FIND_SYMBOL_OPTIONS@@PAUtagWH_FIND_SYMBOL@@@Z@@8 100dfc30     mod.obj
 0004:00000cb8       ??_R0?AV<lambda_3>@?L@??FindFirstSymbol4@LoadedMod@@QAEPAXPAUHINSTANCE__@@PBUtagWH_FIND_SYMBOL_OPTIONS@@PAUtagWH_FIND_SYMBOL@@@Z@@8 100dfcb8     mod.obj
 0004:00000d40       ??_R0?AV<lambda_1>@?1???0ModsManager@@QAE@XZ@@8 100dfd40     mods_manager.obj
 0004:00000d78       ??_R0?AV<lambda_1>@?1??ReloadModsAndSettings@ModsManager@@QAEXXZ@@8 100dfd78     mods_manager.obj
 0004:00001758       ??_R0?AV?$_Func_impl_no_alloc@V<lambda_3>@?L@??FindFirstSymbol4@LoadedMod@@QAEPAXPAUHINSTANCE__@@PBUtagWH_FIND_SYMBOL_OPTIONS@@PAUtagWH_FIND_SYMBOL@@@Z@XH@std@@@8 100e0758     mod.obj
 0004:00001800       ??_R0?AV?$_Func_impl_no_alloc@V<lambda_2>@?L@??FindFirstSymbol4@LoadedMod@@QAEPAXPAUHINSTANCE__@@PBUtagWH_FIND_SYMBOL_OPTIONS@@PAUtagWH_FIND_SYMBOL@@@Z@_N$$V@std@@@8 100e0800     mod.obj
 0004:000018f8       ??_R0?AV?$_Func_impl_no_alloc@V<lambda_1>@?1??ReloadModsAndSettings@ModsManager@@QAEXXZ@XPB_W@std@@@8 100e08f8     mods_manager.obj
 0004:00001960       ??_R0?AV?$_Func_impl_no_alloc@V<lambda_1>@?1???0ModsManager@@QAE@XZ@XPB_W@std@@@8 100e0960     mods_manager.obj
 0004:00001c54       ??_R0?AUDiaLoadCallback@?A0x0a5fb974@@@8 100e0c54     symbol_enum.obj
 0004:00001d60       ?freq_cached@?1??_Query_perf_frequency@@9@4U?$atomic@_J@std@@A 100e0d60     libcpmt:xtime.obj
 0004:00001d68       ?_Thread_exit_data@?A0x7f1b0160@@3U_At_thread_exit_block@1@A 100e0d68     libcpmt:xnotify.obj
 0004:00001f00       ?__KERNEL32Function_GetSystemTimePreciseAsFileTime@?A0x995b63b9@@3P6GXPAU_FILETIME@@@ZA 100e0f00     libcpmt:winapisupp.obj
 0004:00001f04       ?__KERNEL32Function_GetTempPath2W@?A0x995b63b9@@3P6GKKPA_W@ZA 100e0f04     libcpmt:winapisupp.obj
 0004:00001f08       _GS_ExceptionRecord        100e0f08     LIBCMT:gs_report.obj
 0004:00001f58       _GS_ContextRecord          100e0f58     LIBCMT:gs_report.obj
 0004:00002224       ?g_tss_cv@@3U_RTL_CONDITION_VARIABLE@@A 100e1224     LIBCMT:thread_safe_statics.obj
 0004:00002228       ?g_tss_srw@@3U_RTL_SRWLOCK@@A 100e1228     LIBCMT:thread_safe_statics.obj
 0004:00002234       ?is_initialized_as_dll@@3_NA 100e1234     LIBCMT:utility.obj
 0004:00002235       ?module_local_atexit_table_initialized@@3_NA 100e1235     LIBCMT:utility.obj
 0004:00002238       ?module_local_atexit_table@@3U_onexit_table_t@@A 100e1238     LIBCMT:utility.obj
 0004:00002244       ?module_local_at_quick_exit_table@@3U_onexit_table_t@@A 100e1244     LIBCMT:utility.obj
 0004:00002250       ?__proc_attached@@3HA      100e1250     LIBCMT:dll_dllmain.obj
 0004:0000227c       ?__vcrt_startup_thread_ptd@@3U__vcrt_ptd@@A 100e127c     libvcruntime:per_thread_data.obj
 0004:000022a8       ___vcrt_lock_table         100e12a8     libvcruntime:locks.obj
 0004:000022c0       ___vcrt_locks_initialized  100e12c0     libvcruntime:locks.obj
 0004:000022c4       ?module_handles@@3PAPAUHINSTANCE__@@A 100e12c4     libvcruntime:winapi_downlevel.obj
 0004:000022d0       ?function_pointers@@3PAPAXA 100e12d0     libvcruntime:winapi_downlevel.obj
 0004:000022e4       ?__acrt_invalid_parameter_handler@@3V?$dual_state_global@P6AXPB_W00II@Z@__crt_state_management@@A 100e12e4     libucrt:invalid_parameter.obj
 0004:000022f0       ?__acrt_new_handler@@3V?$dual_state_global@P6AHI@Z@__crt_state_management@@A 100e12f0     libucrt:new_handler.obj
 0004:000022f4       ?c_termination_complete@@3JA 100e12f4     libucrt:exit.obj
 0004:000022f8       ?thread_local_exit_callback_func@@3P6GXPAXK0@ZA 100e12f8     libucrt:exit.obj
 0004:000022fc       ?c_exit_complete@?1???R<lambda_6e4b09c48022b2350581041d5f6b0c4c>@@QBE@XZ@4_NA 100e12fc     libucrt:exit.obj
 0004:00002300       ?program_name@?1???$common_configure_argv@D@@YAHW4_crt_argv_mode@@@Z@4PADA 100e1300     libucrt:argv_parsing.obj
 0004:00002430       ?internal_state@?1??_mbtowc_internal@@9@4U_Mbstatet@@A 100e1430     libucrt:mbtowc.obj
 0004:00002438       ?internal_pst@?1??__mbrtoc32_utf8@__crt_mbstring@@YAIPA_UPBDIPAU_Mbstatet@@AAV__crt_cached_ptd_host@@@Z@4U3@A 100e1438     libucrt:mbrtoc32.obj
 0004:00002440       ?enable_percent_n@@3IA     100e1440     libucrt:printf_count_output.obj
 0004:0000265c       ?ctrlc_action@@3V?$dual_state_global@P6AXH@Z@__crt_state_management@@A 100e165c     libucrt:signal.obj
 0004:00002660       ?ctrlbreak_action@@3V?$dual_state_global@P6AXH@Z@__crt_state_management@@A 100e1660     libucrt:signal.obj
 0004:00002664       ?abort_action@@3V?$dual_state_global@P6AXH@Z@__crt_state_management@@A 100e1664     libucrt:signal.obj
 0004:00002668       ?term_action@@3V?$dual_state_global@P6AXH@Z@__crt_state_management@@A 100e1668     libucrt:signal.obj
 0004:00002670       ?module_handles@@3PAPAUHINSTANCE__@@A 100e1670     libucrt:winapi_thunks.obj
 0004:000026cc       ?state_cache@?1???$get_cached_win_policy@Ubegin_thread_init_policy_properties@?1??__acrt_get_begin_thread_init_policy@@YA?AW4begin_thread_init_policy@@XZ@@@YA?AW4begin_thread_init_policy@@W4AppPolicyThreadInitializationType@@@Z@4JA 100e16cc     libucrt:win_policies.obj
 0004:000026d0       ?__acrt_lock_table@@3PAU_RTL_CRITICAL_SECTION@@A 100e16d0     libucrt:locks.obj
 0004:00002838       ?__acrt_locks_initialized@@3IA 100e1838     libucrt:locks.obj
 0004:00002848       ?fSystemSet@@3HA           100e1848     libucrt:mbctype.obj
 0004:0000284c       ?initialized@?1??__acrt_initialize_multibyte@@9@4_NA 100e184c     libucrt:mbctype.obj
 0004:0000286c       ?user_matherr@@3V?$dual_state_global@P6AHPAU_exception@@@Z@__crt_state_management@@A 100e186c     libucrt:matherr.obj
 0004:00002870       ?__acrt_global_new_mode@@3V?$dual_state_global@J@__crt_state_management@@A 100e1870     libucrt:new_mode.obj
 0004:0000287c       ?__acrt_app_type@@3W4_crt_app_type@@A 100e187c     libucrt:report_runtime_error.obj
 0004:00002880       __pmatherr_set             100e1880     libucrt:libm_error.obj
 0004:000028f8       ?static_init_once_flag_@?3??GetThreadContext64@?A0x2fc73eb2@@YAXPAXPAU_CONTEXT@@@Z@4Uonce_flag@std@@A 100e18f8     all_processes_injector.obj
 0004:00002990       ?static_init_once_flag_@?3??GetNativeMachine@?A0x2fc73eb2@@YAGXZ@4Uonce_flag@std@@A 100e1990     all_processes_injector.obj
 0004:00002994       ?get_proc_address_once_flag_@?3??GetProcessArch@?A0x5857acc8@@YAGPAX@Z@4Uonce_flag@std@@A 100e1994     dll_inject.obj
 0004:00002998       ?get_proc_address_once_flag_@?6??MyQueueUserAPC@?A0x5857acc8@@YAXP6GXPAX00@Z00G@Z@4Uonce_flag@std@@A 100e1998     dll_inject.obj
 0004:0000299c       ?static_init_once_flag_@?3??NtCreateThreadEx64@?A0x5857acc8@@YAXPAPAXKPAX1P6GJ1@Z1K_K331@Z@4Uonce_flag@std@@A 100e199c     dll_inject.obj
 0004:000029a0       ?static_init_once_flag_@?3??NtQueueApcThread64@?A0x5857acc8@@YAXPAXP6GX000@Z000@Z@4Uonce_flag@std@@A 100e19a0     dll_inject.obj
 0004:000029a4       ?get_proc_address_once_flag_@?3??SetThreadDescriptionIfAvailable@Functions@@YAJPAXPB_W@Z@4Uonce_flag@std@@A 100e19a4     functions.obj
 0004:000029a8       ?get_proc_address_once_flag_@?3??GetModuleVersion@Functions@@YA?AV?$basic_string@DU?$char_traits@D@std@@V?$allocator@D@2@@std@@PAUHINSTANCE__@@@Z@4Uonce_flag@4@A 100e19a8     functions.obj
 0004:000029ac       ?get_proc_address_once_flag_@?3??GetNtVersionNumbers@Functions@@YAXPAK00@Z@4Uonce_flag@std@@A 100e19ac     functions.obj
 0004:000029b0       ?get_proc_address_once_flag_@?3??MyCreateRemoteThread@Functions@@YAPAXPAXP6GK0@Z0K@Z@4Uonce_flag@std@@A 100e19b0     functions.obj
 0004:000029b4       ?static_init_once_flag_@?3??GetThreadVerbosity@Logger@@CAAAV?$optional@W4Verbosity@LoggerBase@@@std@@XZ@4Uonce_flag@4@A 100e19b4     logger.obj
 0004:000029b8       ?static_init_once_flag_@?3??GetInstance@Logger@@SAAAV2@XZ@4Uonce_flag@std@@A 100e19b8     logger.obj
 0004:000029bc       ?static_init_once_flag_@?BG@??GetUrlContent@LoadedMod@@QAEPBUtagWH_URL_CONTENT@@PB_WPBUtagWH_GET_URL_CONTENT_OPTIONS@@@Z@4Uonce_flag@std@@A 100e19bc     mod.obj
 0004:000029c9       ?g_bIsPatched@EtwStealth@@3_NA 100e19c9     etw_stealth.obj
 0004:000029ca       ?g_initialized@?A0x8e05aadc@HwbpHook@@3_NA 100e19ca     hwbp_hook.obj
 0004:000029cb       ?g_bInitialized@InjectionMonitor@@3_NA 100e19cb     injection_monitor.obj
 0004:000029cc       ?g_pOriginalEtwEventWrite@EtwStealth@@3PAXA 100e19cc     etw_stealth.obj
 0004:000029d0       ?g_symbolServerCallbacks@?A0x0a5fb974@@3V?$ThreadLocal@PAUCallbacks@SymbolEnum@@@@A 100e19d0     symbol_enum.obj
 0004:00002a28       ?g_pTargetEtwEventWrite@EtwStealth@@3PAXA 100e1a28     etw_stealth.obj
 0004:00002a2c       ?g_hooks@?A0x8e05aadc@HwbpHook@@3V?$vector@UHookContext@HwbpHook@@V?$allocator@UHookContext@HwbpHook@@@std@@@std@@A 100e1a2c     hwbp_hook.obj
 0004:00002a38       ?g_MonitoredRegions@InjectionMonitor@@3V?$unordered_map@PAXURegionInfo@InjectionMonitor@@U?$hash@PAX@std@@U?$equal_to@PAX@4@V?$allocator@U?$pair@QAXURegionInfo@InjectionMonitor@@@std@@@4@@std@@A 100e1a38     injection_monitor.obj
 0004:00002a58       ?g_VehHandle@InjectionMonitor@@3PAXA 100e1a58     injection_monitor.obj
 0004:00002a5c       _g_bulkErrorCallback       100e1a5c     MinHook.obj
 0004:00002a60       _g_bulkContinueOnError     100e1a60     MinHook.obj
 0004:00002a64       _g_threadFreezeMethod      100e1a64     MinHook.obj
 0004:00002a68       _g_initialized             100e1a68     MinHook.obj
 0004:00002a6c       _g_criticalSection         100e1a6c     MinHook.obj
 0004:00002a84       _s_ulSystemRegionLowUpperBound 100e1a84     Memory.obj
 0004:00002a88       _s_ulSystemRegionLowLowerBound 100e1a88     Memory.obj
 0004:00002a8c       __detour_memory_heap       100e1a8c     Memory.obj
 0004:00002a90       _g_CurrentThreadSkipped    100e1a90     Thread.obj
 0004:00002a94       _g_PrevThreadHandle        100e1a94     Thread.obj
 0004:00002a98       _s_Handles                 100e1a98     Thread.obj
 0004:00002b18       _s_pRegion                 100e1b18     Trampoline.obj
 0004:00002b1c       _s_pRegions                100e1b1c     Trampoline.obj
 0004:00002b20       _s_nPendingThreadId        100e1b20     Transaction.obj
 0004:00002b24       _s_pPendingOperations      100e1b24     Transaction.obj
 0004:00002b28       _s_ulSuspendedThreadCount  100e1b28     Transaction.obj
 0004:00002b2c       _s_phSuspendedThreads      100e1b2c     Transaction.obj
 0004:00002b30       __threadscan_memory_heap   100e1b30     Memory.obj
 0004:00002b38       _s_Handles                 100e1b38     Thread.obj
 0004:00002bb8       ?static_init_once_flag_@?3??GetInstance@CustomizationSession@@CAAAV?$optional@VCustomizationSession@@@std@@XZ@4Uonce_flag@4@A 100e1bb8     customization_session.obj
 0004:00002bbc       ?get_proc_address_once_flag_@?3??CurrentProcessHasMitigationPolicy@?A0x63da581d@@YA_NXZ@4Uonce_flag@std@@A 100e1bbc     customization_session.obj
 0004:00002bc0       ?get_proc_address_once_flag_@?3??GetFirstThreadOfCurrentProcess@?A0x63da581d@@YA?AV?$optional@PAX@std@@K@Z@4Uonce_flag@4@A 100e1bc0     customization_session.obj
 0004:00002bc8       ?static_init_once_flag_@?3??GetInstance@StorageManager@@SAAAV2@XZ@4Uonce_flag@std@@A 100e1bc8     storage_manager.obj
 0004:00002bcc       ?get_proc_address_once_flag_@?BF@??PathFromStorage@?A0x7539b29f@@YA?AVpath@filesystem@std@@ABVPortableSettings@@PB_WABV345@@Z@4Uonce_flag@5@A 100e1bcc     storage_manager.obj
 0004:00002bd0       ?get_proc_address_once_flag_@?N@??PathFromStorage@?A0x7539b29f@@YA?AVpath@filesystem@std@@ABVPortableSettings@@PB_WABV345@@Z@4Uonce_flag@5@A 100e1bd0     storage_manager.obj
 0004:00002c48       ?get_proc_address_once_flag_@?3??MySysFreeString@@YAXPA_W@Z@4Uonce_flag@std@@A 100e1c48     symbol_enum.obj
 0004:00002c4c       ?nativeMachine@?1??GetNativeMachine@?A0x2fc73eb2@@YAGXZ@4GA 100e1c4c     all_processes_injector.obj
 0004:00002c50       ?pNtGetContextThread@?1??GetThreadContext64@?A0x2fc73eb2@@YAXPAXPAU_CONTEXT@@@Z@4_KA 100e1c50     all_processes_injector.obj
 0004:00002c58       ?pNtQueueApcThread@?1??NtQueueApcThread64@?A0x5857acc8@@YAXPAXP6GX000@Z000@Z@4_KA 100e1c58     dll_inject.obj
 0004:00002c60       ?pNtCreateThreadEx@?1??NtCreateThreadEx64@?A0x5857acc8@@YAXPAPAXKPAX1P6GJ1@Z1K_K331@Z@4_KA 100e1c60     dll_inject.obj
 0004:00002c68       ?pNtQueueApcThread@?1??MyQueueUserAPC@?A0x5857acc8@@YAXP6GXPAX00@Z00G@Z@4P6GJ01000@ZA 100e1c68     dll_inject.obj
 0004:00002c6c       ?pGetProcessInformation@?1??GetProcessArch@?A0x5857acc8@@YAGPAX@Z@4P6GH0W4_PROCESS_INFORMATION_CLASS@@0K@ZA 100e1c6c     dll_inject.obj
 0004:00002c70       ?pNtCreateThreadEx@?1??MyCreateRemoteThread@Functions@@YAPAXPAXP6GK0@Z0K@Z@4P6GJPAPAXK0000KKKK0@ZA 100e1c70     functions.obj
 0004:00002c74       ?pRtlGetNtVersionNumbers@?1??GetNtVersionNumbers@Functions@@YAXPAK00@Z@4P6GX000@ZA 100e1c74     functions.obj
 0004:00002c78       ?get_proc_address_once_module_@?1???R<lambda_1>@?3??GetModuleVersion@Functions@@YA?AV?$basic_string@DU?$char_traits@D@std@@V?$allocator@D@2@@std@@PAUHINSTANCE__@@@Z@QBE@XZ@4PAU6@A 100e1c78     functions.obj
 0004:00002c7c       ?$TSS0@?1???R<lambda_1>@?3??GetModuleVersion@Functions@@YA?AV?$basic_string@DU?$char_traits@D@std@@V?$allocator@D@2@@std@@PAUHINSTANCE__@@@Z@QBE@XZ@4HA 100e1c7c     functions.obj
 0004:00002c80       ?pVerQueryValueW@?1??GetModuleVersion@Functions@@YA?AV?$basic_string@DU?$char_traits@D@std@@V?$allocator@D@2@@std@@PAUHINSTANCE__@@@Z@4P6GHPBXPB_WPAPAXPAI@ZA 100e1c80     functions.obj
 0004:00002c84       ?get_proc_address_once_module_@?1???R<lambda_1>@?3??SetThreadDescriptionIfAvailable@Functions@@YAJPAXPB_W@Z@QBE@XZ@4PAUHINSTANCE__@@A 100e1c84     functions.obj
 0004:00002c88       ?$TSS0@?1???R<lambda_1>@?3??SetThreadDescriptionIfAvailable@Functions@@YAJPAXPB_W@Z@QBE@XZ@4HA 100e1c88     functions.obj
 0004:00002c8c       ?pSetThreadDescription@?1??SetThreadDescriptionIfAvailable@Functions@@YAJPAXPB_W@Z@4P6GJ01@ZA 100e1c8c     functions.obj
 0004:00002c90       ?static_init_once_storage_@?3??GetInstance@Logger@@SAAAV2@XZ@4PADA 100e1c90     logger.obj
 0004:00002cd0       ?static_init_once_storage_@?3??GetThreadVerbosity@Logger@@CAAAV?$optional@W4Verbosity@LoggerBase@@@std@@XZ@4PADA 100e1cd0     logger.obj
 0004:00002d28       ?$TSS0@?1??GetWindowsVersionForLogging@?A0x64030c04@@YA?AV?$basic_string@_WU?$char_traits@_W@std@@V?$allocator@_W@2@@std@@XZ@4HA 100e1d28     mod.obj
 0004:00002d2c       ?result@?1??GetWindowsVersionForLogging@?A0x64030c04@@YA?AV?$basic_string@_WU?$char_traits@_W@std@@V?$allocator@_W@2@@std@@XZ@4V34@B 100e1d2c     mod.obj
 0004:00002d44       ?static_init_once_storage_@?BG@??GetUrlContent@LoadedMod@@QAEPBUtagWH_URL_CONTENT@@PB_WPBUtagWH_GET_URL_CONTENT_OPTIONS@@@Z@4PADA 100e1d44     mod.obj
 0004:00002d70       ?$TSS0@?1??GetSetThreadInformation@?A0xd1b71d35@ModSandbox@@YAP6GHPAXW4_THREAD_INFORMATION_CLASS@@0K@ZXZ@4HA 100e1d70     mod_sandbox.obj
 0004:00002d74       ?setThreadInformation@?1??GetSetThreadInformation@?A0xd1b71d35@ModSandbox@@YAP6GHPAXW4_THREAD_INFORMATION_CLASS@@0K@ZXZ@4P6GH010K@ZA 100e1d74     mod_sandbox.obj
 0004:00002d80       ?pNtGetNextThread@?1??GetFirstThreadOfCurrentProcess@?A0x63da581d@@YA?AV?$optional@PAX@std@@K@Z@4P6GJPAX0KKKPAPAX@ZA 100e1d80     customization_session.obj
 0004:00002d84       ?pGetProcessMitigationPolicy@?1??CurrentProcessHasMitigationPolicy@?A0x63da581d@@YA_NXZ@4P6GHPAXW4_PROCESS_MITIGATION_POLICY@@0K@ZA 100e1d84     customization_session.obj
 0004:00002d88       ?static_init_once_storage_@?3??GetInstance@CustomizationSession@@CAAAV?$optional@VCustomizationSession@@@std@@XZ@4PADA 100e1d88     customization_session.obj
 0004:00002e38       ?get_proc_address_once_module_@?1???R<lambda_1>@?N@??PathFromStorage@?A0x7539b29f@@YA?AVpath@filesystem@std@@ABVPortableSettings@@PB_WABV456@@Z@QBE@XZ@4PAUHINSTANCE__@@A 100e1e38     storage_manager.obj
 0004:00002e3c       ?$TSS0@?1???R<lambda_1>@?N@??PathFromStorage@?A0x7539b29f@@YA?AVpath@filesystem@std@@ABVPortableSettings@@PB_WABV456@@Z@QBE@XZ@4HA 100e1e3c     storage_manager.obj
 0004:00002e40       ?pSHGetKnownFolderPath@?L@??PathFromStorage@?A0x7539b29f@@YA?AVpath@filesystem@std@@ABVPortableSettings@@PB_WABV345@@Z@4P6GJABU_GUID@@KPAXPAPA_W@ZA 100e1e40     storage_manager.obj
 0004:00002e44       ?get_proc_address_once_module_@?1???R<lambda_2>@?BF@??PathFromStorage@?A0x7539b29f@@YA?AVpath@filesystem@std@@ABVPortableSettings@@PB_WABV456@@Z@QBE@XZ@4PAUHINSTANCE__@@A 100e1e44     storage_manager.obj
 0004:00002e48       ?$TSS0@?1???R<lambda_2>@?BF@??PathFromStorage@?A0x7539b29f@@YA?AVpath@filesystem@std@@ABVPortableSettings@@PB_WABV456@@Z@QBE@XZ@4HA 100e1e48     storage_manager.obj
 0004:00002e4c       ?pCoTaskMemFree@?BA@??PathFromStorage@?A0x7539b29f@@YA?AVpath@filesystem@std@@ABVPortableSettings@@PB_WABV345@@Z@4P6GXPAX@ZA 100e1e4c     storage_manager.obj
 0004:00002e50       ?static_init_once_storage_@?3??GetInstance@StorageManager@@SAAAV2@XZ@4PADA 100e1e50     storage_manager.obj
 0004:00002e8c       ?get_proc_address_once_module_@?1???R<lambda_1>@?3??MySysFreeString@@YAXPA_W@Z@QBE@XZ@4PAUHINSTANCE__@@A 100e1e8c     symbol_enum.obj
 0004:00002e90       ?$TSS0@?1???R<lambda_1>@?3??MySysFreeString@@YAXPA_W@Z@QBE@XZ@4HA 100e1e90     symbol_enum.obj
 0004:00002e94       ?pSysFreeString@?1??MySysFreeString@@YAXPA_W@Z@4P6GX0@ZA 100e1e94     symbol_enum.obj
 0005:00000000       ?function_pointers@@3PAPAXA 100e2000     libucrt:winapi_thunks.obj
 0006:00000060       $R000000                   100e3060     rsrc.res
