 windhawk

 Timestamp is 69bae89a (Wed Mar 18 18:02:02 2026)

 Preferred load address is 0000000180000000

 Start         Length     Name                   Class
 0001:00000000 00000270H .text$di                CODE
 0001:00000270 00050f00H .text$mn                CODE
 0001:00051170 00000060H .text$mn$00             CODE
 0001:000511d0 00000d20H .text$mn$21             CODE
 0001:00051ef0 00003ec0H .text$x                 CODE
 0001:00055db0 00000209H .text$yd                CODE
 0002:00000000 00000620H .idata$5                DATA
 0002:00000620 00000038H .00cfg                  DATA
 0002:00000658 00000008H .CRT$XCA                DATA
 0002:00000660 00000040H .CRT$XCU                DATA
 0002:000006a0 00000008H .CRT$XCZ                DATA
 0002:000006a8 00000008H .CRT$XIA                DATA
 0002:000006b0 00000020H .CRT$XIC                DATA
 0002:000006d0 00000008H .CRT$XIZ                DATA
 0002:000006d8 00000008H .CRT$XLA                DATA
 0002:000006e0 00000008H .CRT$XLZ                DATA
 0002:000006e8 00000008H .CRT$XPA                DATA
 0002:000006f0 00000010H .CRT$XPX                DATA
 0002:00000700 00000008H .CRT$XPXA               DATA
 0002:00000708 00000008H .CRT$XPZ                DATA
 0002:00000710 00000008H .CRT$XTA                DATA
 0002:00000718 00000008H .CRT$XTZ                DATA
 0002:00000720 00000000H .gehcont$y              DATA
 0002:00000720 00000000H .gfids$y                DATA
 0002:00000720 00000000H .giats$y                DATA
 0002:00000720 00088400H .rdata                  DATA
 0002:00088b20 00000160H .rdata$00               DATA
 0002:00088c80 00000000H .rdata$CastGuardVftablesA DATA
 0002:00088c80 00000000H .rdata$CastGuardVftablesC DATA
 0002:00088c80 00000028H .rdata$T                DATA
 0002:00088ca8 00001b7cH .rdata$r                DATA
 0002:0008a824 00000144H .rdata$voltmd           DATA
 0002:0008a968 000003f0H .rdata$zzzdbg           DATA
 0002:0008ad58 00000008H .rtc$IAA                DATA
 0002:0008ad60 00000008H .rtc$IZZ                DATA
 0002:0008ad68 00000008H .rtc$TAA                DATA
 0002:0008ad70 00000008H .rtc$TZZ                DATA
 0002:0008ad78 00000004H .tls                    DATA
 0002:0008ad7c 00000004H .tls$                   DATA
 0002:0008ad80 00000008H .tls$ZZZ                DATA
 0002:0008ad88 000071b0H .xdata                  DATA
 0002:00091f38 000005d8H .xdata$x                DATA
 0002:00092510 0000047cH .edata                  DATA
 0002:0009298c 0000003cH .idata$2                DATA
 0002:000929c8 00000018H .idata$3                DATA
 0002:000929e0 00000620H .idata$4                DATA
 0002:00093000 00000f58H .idata$6                DATA
 0003:00000000 00000cc0H .data                   DATA
 0003:00000cc0 00000620H .data$r                 DATA
 0003:000012e0 000010b0H .data$rs                DATA
 0003:00002390 00001d60H .bss                    DATA
 0004:00000000 0000435cH .pdata                  DATA
 0005:00000000 00000100H .fptable                DATA
 0006:00000000 00000060H .rsrc$01                DATA
 0006:00000060 00000238H .rsrc$02                DATA

  Address         Publics by Value              Rva+Base               Lib:Object

 0000:00000000       __AbsoluteZero             0000000000000000     <absolute>
 0000:00000000       ___safe_se_handler_count   0000000000000000     <absolute>
 0000:00000000       ___safe_se_handler_table   0000000000000000     <absolute>
 0000:00000000       __arm64x_extra_rfe_table   0000000000000000     <absolute>
 0000:00000000       __arm64x_extra_rfe_table_size 0000000000000000     <absolute>
 0000:00000000       __arm64x_native_entrypoint 0000000000000000     <absolute>
 0000:00000000       __arm64x_redirection_metadata 0000000000000000     <absolute>
 0000:00000000       __arm64x_redirection_metadata_count 0000000000000000     <absolute>
 0000:00000000       __dynamic_value_reloc_table 0000000000000000     <absolute>
 0000:00000000       __enclave_config           0000000000000000     <absolute>
 0000:00000000       __guard_check_icall_a64n_fptr 0000000000000000     <absolute>
 0000:00000000       __guard_eh_cont_count      0000000000000000     <absolute>
 0000:00000000       __guard_eh_cont_table      0000000000000000     <absolute>
 0000:00000000       __guard_fids_count         0000000000000000     <absolute>
 0000:00000000       __guard_fids_table         0000000000000000     <absolute>
 0000:00000000       __guard_iat_count          0000000000000000     <absolute>
 0000:00000000       __guard_iat_table          0000000000000000     <absolute>
 0000:00000000       __guard_longjmp_count      0000000000000000     <absolute>
 0000:00000000       __guard_longjmp_table      0000000000000000     <absolute>
 0000:00000000       __hybrid_auxiliary_delayload_iat 0000000000000000     <absolute>
 0000:00000000       __hybrid_auxiliary_delayload_iat_copy 0000000000000000     <absolute>
 0000:00000000       __hybrid_auxiliary_iat     0000000000000000     <absolute>
 0000:00000000       __hybrid_auxiliary_iat_copy 0000000000000000     <absolute>
 0000:00000000       __hybrid_code_map          0000000000000000     <absolute>
 0000:00000000       __hybrid_code_map_count    0000000000000000     <absolute>
 0000:00000000       __hybrid_image_info_bitfield 0000000000000000     <absolute>
 0000:00000000       __x64_code_ranges_to_entry_points 0000000000000000     <absolute>
 0000:00000000       __x64_code_ranges_to_entry_points_count 0000000000000000     <absolute>
 0000:00000100       __guard_flags              0000000000000100     <absolute>
 0000:00000000       __ImageBase                0000000180000000     <linker-defined>
 0001:00000270       ?GetVerbosity@LoggerBase@@QEAA?AW4Verbosity@1@XZ 0000000180001270 f   logger_base.obj
 0001:00000280       ?LogLine@LoggerBase@@QEAAXPEB_WZZ 0000000180001280 f   logger_base.obj
 0001:00000370       __local_stdio_printf_options 0000000180001370 f i logger_base.obj
 0001:000005b0       ?next@EnumIteratorRegistryInt@@UEAAXXZ 00000001800015b0 f i portable_settings.obj
 0001:000006a0       ?clone@EnumIteratorRegistryInt@@UEBA?AV?$unique_ptr@V?$EnumIteratorImpl@H@@U?$default_delete@V?$EnumIteratorImpl@H@@@std@@@std@@XZ 00000001800016a0 f i portable_settings.obj
 0001:00000750       ??_E?$EnumIteratorRegistryBase@H@@UEAAPEAXI@Z 0000000180001750 f i * CIL library *:* CIL module *
 0001:00000750       ??_EEnumIteratorRegistryInt@@UEAAPEAXI@Z 0000000180001750 f i * CIL library *:* CIL module *
 0001:00000750       ??_G?$EnumIteratorRegistryBase@H@@UEAAPEAXI@Z 0000000180001750 f i portable_settings.obj
 0001:00000750       ??_GEnumIteratorRegistryInt@@UEAAPEAXI@Z 0000000180001750 f i portable_settings.obj
 0001:00000790       ??1?$EnumIteratorImpl@H@@UEAA@XZ 0000000180001790 f i portable_settings.obj
 0001:00000790       ??1?$EnumIteratorRegistryBase@H@@UEAA@XZ 0000000180001790 f i portable_settings.obj
 0001:000007a0       ??1?$optional@V?$tuple@V?$basic_string@_WU?$char_traits@_W@std@@V?$allocator@_W@2@@std@@V12@KK@std@@@std@@QEAA@XZ 00000001800017a0 f i portable_settings.obj
 0001:000007d0       ?next@EnumIteratorRegistryString@@UEAAXXZ 00000001800017d0 f i portable_settings.obj
 0001:00000900       ?clone@EnumIteratorRegistryString@@UEBA?AV?$unique_ptr@V?$EnumIteratorImpl@V?$basic_string@_WU?$char_traits@_W@std@@V?$allocator@_W@2@@std@@@@U?$default_delete@V?$EnumIteratorImpl@V?$basic_string@_WU?$char_traits@_W@std@@V?$allocator@_W@2@@std@@@@@std@@@std@@XZ 0000000180001900 f i portable_settings.obj
 0001:000009c0       ??_E?$EnumIteratorRegistryBase@V?$basic_string@_WU?$char_traits@_W@std@@V?$allocator@_W@2@@std@@@@UEAAPEAXI@Z 00000001800019c0 f i * CIL library *:* CIL module *
 0001:000009c0       ??_EEnumIteratorRegistryString@@UEAAPEAXI@Z 00000001800019c0 f i * CIL library *:* CIL module *
 0001:000009c0       ??_G?$EnumIteratorRegistryBase@V?$basic_string@_WU?$char_traits@_W@std@@V?$allocator@_W@2@@std@@@@UEAAPEAXI@Z 00000001800019c0 f i portable_settings.obj
 0001:000009c0       ??_GEnumIteratorRegistryString@@UEAAPEAXI@Z 00000001800019c0 f i portable_settings.obj
 0001:00000a10       ??1?$EnumIteratorImpl@V?$basic_string@_WU?$char_traits@_W@std@@V?$allocator@_W@2@@std@@@@UEAA@XZ 0000000180001a10 f i portable_settings.obj
 0001:00000a10       ??1?$EnumIteratorRegistryBase@V?$basic_string@_WU?$char_traits@_W@std@@V?$allocator@_W@2@@std@@@@UEAA@XZ 0000000180001a10 f i portable_settings.obj
 0001:00000a30       ??0RegistrySettings@@QEAA@PEAUHKEY__@@PEB_W_N@Z 0000000180001a30 f   portable_settings.obj
 0001:00000ac0       ??_ERegistrySettings@@UEAAPEAXI@Z 0000000180001ac0 f i * CIL library *:* CIL module *
 0001:00000ac0       ??_GRegistrySettings@@UEAAPEAXI@Z 0000000180001ac0 f i portable_settings.obj
 0001:00000b00       ??1?$unique_any_t@V?$unique_storage@U?$resource_policy@PEAUHKEY__@@P6AJPEAU1@@Z$1?RegCloseKey@@YAJ0@ZU?$integral_constant@_K$0A@@wistd@@PEAU1@PEAU1@$0A@$$T@details@wil@@@details@wil@@@wil@@QEAA@XZ 0000000180001b00 f i portable_settings.obj
 0001:00000b10       ?GetString@RegistrySettings@@UEBA?AV?$optional@V?$basic_string@_WU?$char_traits@_W@std@@V?$allocator@_W@2@@std@@@std@@PEB_W@Z 0000000180001b10 f   portable_settings.obj
 0001:00000c20       ??1?$optional@URawData@RegistrySettings@@@std@@QEAA@XZ 0000000180001c20 f i portable_settings.obj
 0001:00000c30       ??1?$optional@V?$basic_string@_WU?$char_traits@_W@std@@V?$allocator@_W@2@@std@@@std@@QEAA@XZ 0000000180001c30 f i portable_settings.obj
 0001:00000c40       ?SetString@RegistrySettings@@UEAAXPEB_W0@Z 0000000180001c40 f   portable_settings.obj
 0001:00000cd0       ?GetInt@RegistrySettings@@UEBA?AV?$optional@H@std@@PEB_W@Z 0000000180001cd0 f   portable_settings.obj
 0001:00000d70       ?SetInt@RegistrySettings@@UEAAXPEB_WH@Z 0000000180001d70 f   portable_settings.obj
 0001:00000de0       ?GetBinary@RegistrySettings@@UEBA?AV?$optional@V?$vector@EV?$allocator@E@std@@@std@@@std@@PEB_W@Z 0000000180001de0 f   portable_settings.obj
 0001:00000ef0       ?SetBinary@RegistrySettings@@UEAAXPEB_WPEBE_K@Z 0000000180001ef0 f   portable_settings.obj
 0001:00000f60       ?Remove@RegistrySettings@@UEAAXPEB_W@Z 0000000180001f60 f   portable_settings.obj
 0001:00000fa0       ?EnumIntValues@RegistrySettings@@UEBA?AV?$EnumIterator@H@PortableSettings@@XZ 0000000180001fa0 f   portable_settings.obj
 0001:00001110       ?EnumStringValues@RegistrySettings@@UEBA?AV?$EnumIterator@V?$basic_string@_WU?$char_traits@_W@std@@V?$allocator@_W@2@@std@@@PortableSettings@@XZ 0000000180002110 f   portable_settings.obj
 0001:00001160       ?GetRaw@RegistrySettings@@AEBA?AV?$optional@URawData@RegistrySettings@@@std@@PEB_W@Z 0000000180002160 f   portable_settings.obj
 0001:00001300       ??0invalid_argument@std@@QEAA@AEBV01@@Z 0000000180002300 f i portable_settings.obj
 0001:00001340       ??0logic_error@std@@QEAA@AEBV01@@Z 0000000180002340 f i portable_settings.obj
 0001:00001380       ?next@EnumIteratorIniFileInt@@UEAAXXZ 0000000180002380 f i portable_settings.obj
 0001:00001530       ?clone@EnumIteratorIniFileInt@@UEBA?AV?$unique_ptr@V?$EnumIteratorImpl@H@@U?$default_delete@V?$EnumIteratorImpl@H@@@std@@@std@@XZ 0000000180002530 f i portable_settings.obj
 0001:000015e0       ??_E?$EnumIteratorIniFileBase@H@@UEAAPEAXI@Z 00000001800025e0 f i * CIL library *:* CIL module *
 0001:000015e0       ??_EEnumIteratorIniFileInt@@UEAAPEAXI@Z 00000001800025e0 f i * CIL library *:* CIL module *
 0001:000015e0       ??_G?$EnumIteratorIniFileBase@H@@UEAAPEAXI@Z 00000001800025e0 f i portable_settings.obj
 0001:000015e0       ??_GEnumIteratorIniFileInt@@UEAAPEAXI@Z 00000001800025e0 f i portable_settings.obj
 0001:00001630       ??1?$EnumIteratorIniFileBase@H@@UEAA@XZ 0000000180002630 f i portable_settings.obj
 0001:00001650       ?next@EnumIteratorIniFileString@@UEAAXXZ 0000000180002650 f i portable_settings.obj
 0001:00001830       ?clone@EnumIteratorIniFileString@@UEBA?AV?$unique_ptr@V?$EnumIteratorImpl@V?$basic_string@_WU?$char_traits@_W@std@@V?$allocator@_W@2@@std@@@@U?$default_delete@V?$EnumIteratorImpl@V?$basic_string@_WU?$char_traits@_W@std@@V?$allocator@_W@2@@std@@@@@std@@@std@@XZ 0000000180002830 f i portable_settings.obj
 0001:00001900       ??_E?$EnumIteratorIniFileBase@V?$basic_string@_WU?$char_traits@_W@std@@V?$allocator@_W@2@@std@@@@UEAAPEAXI@Z 0000000180002900 f i * CIL library *:* CIL module *
 0001:00001900       ??_EEnumIteratorIniFileString@@UEAAPEAXI@Z 0000000180002900 f i * CIL library *:* CIL module *
 0001:00001900       ??_G?$EnumIteratorIniFileBase@V?$basic_string@_WU?$char_traits@_W@std@@V?$allocator@_W@2@@std@@@@UEAAPEAXI@Z 0000000180002900 f i portable_settings.obj
 0001:00001900       ??_GEnumIteratorIniFileString@@UEAAPEAXI@Z 0000000180002900 f i portable_settings.obj
 0001:00001960       ??1?$EnumIteratorIniFileBase@V?$basic_string@_WU?$char_traits@_W@std@@V?$allocator@_W@2@@std@@@@UEAA@XZ 0000000180002960 f i portable_settings.obj
 0001:00001990       ??0IniFileSettings@@QEAA@PEB_W0_N@Z 0000000180002990 f   portable_settings.obj
 0001:00001ab0       ??_EIniFileSettings@@UEAAPEAXI@Z 0000000180002ab0 f i * CIL library *:* CIL module *
 0001:00001ab0       ??_GIniFileSettings@@UEAAPEAXI@Z 0000000180002ab0 f i portable_settings.obj
 0001:00001b00       ??1IniFileSettings@@UEAA@XZ 0000000180002b00 f i portable_settings.obj
 0001:00001b20       ?GetString@IniFileSettings@@UEBA?AV?$optional@V?$basic_string@_WU?$char_traits@_W@std@@V?$allocator@_W@2@@std@@@std@@PEB_W@Z 0000000180002b20 f   portable_settings.obj
 0001:00001d50       ?SetString@IniFileSettings@@UEAAXPEB_W0@Z 0000000180002d50 f   portable_settings.obj
 0001:00002140       ?GetInt@IniFileSettings@@UEBA?AV?$optional@H@std@@PEB_W@Z 0000000180003140 f   portable_settings.obj
 0001:00002200       ?SetInt@IniFileSettings@@UEAAXPEB_WH@Z 0000000180003200 f   portable_settings.obj
 0001:00002260       ?GetBinary@IniFileSettings@@UEBA?AV?$optional@V?$vector@EV?$allocator@E@std@@@std@@@std@@PEB_W@Z 0000000180003260 f   portable_settings.obj
 0001:000024e0       ?SetBinary@IniFileSettings@@UEAAXPEB_WPEBE_K@Z 00000001800034e0 f   portable_settings.obj
 0001:00002670       ?Remove@IniFileSettings@@UEAAXPEB_W@Z 0000000180003670 f   portable_settings.obj
 0001:000026e0       ?EnumIntValues@IniFileSettings@@UEBA?AV?$EnumIterator@H@PortableSettings@@XZ 00000001800036e0 f   portable_settings.obj
 0001:00002760       ?EnumStringValues@IniFileSettings@@UEBA?AV?$EnumIterator@V?$basic_string@_WU?$char_traits@_W@std@@V?$allocator@_W@2@@std@@@PortableSettings@@XZ 0000000180003760 f   portable_settings.obj
 0001:000027f0       ??$safe_cast@K_K$0A@@wil@@YAK_K@Z 00000001800037f0 f i portable_settings.obj
 0001:00002830       ??$make_unique@VEnumIteratorRegistryString@@PEAUHKEY__@@$0A@@std@@YA?AV?$unique_ptr@VEnumIteratorRegistryString@@U?$default_delete@VEnumIteratorRegistryString@@@std@@@0@$$QEAPEAUHKEY__@@@Z 0000000180003830 f i portable_settings.obj
 0001:00002a00       ??0?$EnumIteratorIniFileBase@V?$basic_string@_WU?$char_traits@_W@std@@V?$allocator@_W@2@@std@@@@QEAA@PEBVIniFileSettings@@@Z 0000000180003a00 f i portable_settings.obj
 0001:00002c10       ??0?$EnumIteratorIniFileBase@H@@QEAA@PEBVIniFileSettings@@@Z 0000000180003c10 f i portable_settings.obj
 0001:00002e00       ?get_next_item_raw@?$EnumIteratorRegistryBase@V?$basic_string@_WU?$char_traits@_W@std@@V?$allocator@_W@2@@std@@@@IEAA?AV?$optional@V?$tuple@V?$basic_string@_WU?$char_traits@_W@std@@V?$allocator@_W@2@@std@@V12@KK@std@@@std@@XZ 0000000180003e00 f i portable_settings.obj
 0001:00003070       ?get_next_item_raw@?$EnumIteratorRegistryBase@H@@IEAA?AV?$optional@V?$tuple@V?$basic_string@_WU?$char_traits@_W@std@@V?$allocator@_W@2@@std@@V12@KK@std@@@std@@XZ 0000000180004070 f i portable_settings.obj
 0001:000032e0       ??1?$vector@EV?$allocator@E@std@@@std@@QEAA@XZ 00000001800042e0 f i portable_settings.obj
 0001:000032f0       ?find_first_of@?$basic_string_view@_WU?$char_traits@_W@std@@@std@@QEBA_KQEB_W_K@Z 00000001800042f0 f i portable_settings.obj
 0001:00003440       ??_E?$EnumIteratorImpl@V?$basic_string@_WU?$char_traits@_W@std@@V?$allocator@_W@2@@std@@@@UEAAPEAXI@Z 0000000180004440 f i * CIL library *:* CIL module *
 0001:00003440       ??_G?$EnumIteratorImpl@V?$basic_string@_WU?$char_traits@_W@std@@V?$allocator@_W@2@@std@@@@UEAAPEAXI@Z 0000000180004440 f i portable_settings.obj
 0001:00003490       ??_E?$EnumIteratorImpl@H@@UEAAPEAXI@Z 0000000180004490 f i * CIL library *:* CIL module *
 0001:00003490       ??_G?$EnumIteratorImpl@H@@UEAAPEAXI@Z 0000000180004490 f i portable_settings.obj
 0001:000034d0       ??$_Assign_counted_range@PEBE@?$vector@EV?$allocator@E@std@@@std@@AEAAXPEBE_K@Z 00000001800044d0 f i portable_settings.obj
 0001:00003620       ?_Xlength@?$vector@EV?$allocator@E@std@@@std@@CAXXZ 0000000180004620 f i portable_settings.obj
 0001:00003620       ?_Xlength@?$vector@PEAXV?$allocator@PEAX@std@@@std@@CAXXZ 0000000180004620 f i mod.obj
 0001:00003620       ?_Xlength@?$vector@PEBUtagWH_SYMBOL_HOOK@@V?$allocator@PEBUtagWH_SYMBOL_HOOK@@@std@@@std@@CAXXZ 0000000180004620 f i mod.obj
 0001:00003620       ?_Xlength@?$vector@UHookContext@HwbpHook@@V?$allocator@UHookContext@HwbpHook@@@std@@@std@@CAXXZ 0000000180004620 f i hwbp_hook.obj
 0001:00003620       ?_Xlength@?$vector@UThreadCallStackRegionInfo@@V?$allocator@UThreadCallStackRegionInfo@@@std@@@std@@CAXXZ 0000000180004620 f i mods_manager.obj
 0001:00003620       ?_Xlength@?$vector@U_IMAGE_CHPE_RANGE_ENTRY@SymbolEnum@@V?$allocator@U_IMAGE_CHPE_RANGE_ENTRY@SymbolEnum@@@std@@@std@@CAXXZ 0000000180004620 f i symbol_enum.obj
 0001:00003620       ?_Xlength@?$vector@V?$basic_string@DU?$char_traits@D@std@@V?$allocator@D@2@@std@@V?$allocator@V?$basic_string@DU?$char_traits@D@std@@V?$allocator@D@2@@std@@@2@@std@@CAXXZ 0000000180004620 f i mod.obj
 0001:00003620       ?_Xlength@?$vector@V?$basic_string@_WU?$char_traits@_W@std@@V?$allocator@_W@2@@std@@V?$allocator@V?$basic_string@_WU?$char_traits@_W@std@@V?$allocator@_W@2@@std@@@2@@std@@CAXXZ 0000000180004620 f i functions.obj
 0001:00003620       ?_Xlength@?$vector@V?$basic_string_view@_WU?$char_traits@_W@std@@@std@@V?$allocator@V?$basic_string_view@_WU?$char_traits@_W@std@@@std@@@2@@std@@CAXXZ 0000000180004620 f i functions.obj
 0001:00003640       ?_Tidy@?$vector@EV?$allocator@E@std@@@std@@AEAAXXZ 0000000180004640 f i portable_settings.obj
 0001:000036b0       ??$_Emplace_reallocate@E@?$vector@EV?$allocator@E@std@@@std@@AEAAPEAEQEAE$$QEAE@Z 00000001800046b0 f i portable_settings.obj
 0001:000037f0       wmemchr                    00000001800047f0 f i portable_settings.obj
 0001:00003990       ??0?$basic_string@_WU?$char_traits@_W@std@@V?$allocator@_W@2@@std@@QEAA@AEBV01@@Z 0000000180004990 f i portable_settings.obj
 0001:00003a80       ??$_Construct@$00PEB_W@?$basic_string@_WU?$char_traits@_W@std@@V?$allocator@_W@2@@std@@AEAAXQEB_W_K@Z 0000000180004a80 f i portable_settings.obj
 0001:00003b60       ?_Xran@?$_String_val@U?$_Simple_types@_W@std@@@std@@SAXXZ 0000000180004b60 f i portable_settings.obj
 0001:00003b80       ??$ReportFailure_Hr@$0A@@details@wil@@YAXPEAXIPEBD110JW4FailureFlags@1@@Z 0000000180004b80 f i portable_settings.obj
 0001:00003be0       ?_Throw_Hr@in1diag3@details@wil@@YAXPEAXIPEBDJ@Z 0000000180004be0 f i portable_settings.obj
 0001:00003c00       ??$_Reallocate_grow_by@V<lambda_1>@?1??append@?$basic_string@_WU?$char_traits@_W@std@@V?$allocator@_W@2@@std@@QEAAAEAV34@QEB_W_K@Z@PEB_W_K@?$basic_string@_WU?$char_traits@_W@std@@V?$allocator@_W@2@@std@@AEAAAEAV01@_KV<lambda_1>@?1??append@01@QEAAAEAV01@QEB_W0@Z@PEB_W_K@Z 0000000180004c00 f i portable_settings.obj
 0001:00003d90       ?append@?$basic_string@_WU?$char_traits@_W@std@@V?$allocator@_W@2@@std@@QEAAAEAV12@QEB_W_K@Z 0000000180004d90 f i portable_settings.obj
 0001:00003e10       ??$_Reallocate_grow_by@V<lambda_1>@?1??push_back@?$basic_string@_WU?$char_traits@_W@std@@V?$allocator@_W@2@@std@@QEAAX_W@Z@_W@?$basic_string@_WU?$char_traits@_W@std@@V?$allocator@_W@2@@std@@AEAAAEAV01@_KV<lambda_1>@?1??push_back@01@QEAAX_W@Z@_W@Z 0000000180004e10 f i portable_settings.obj
 0001:00003f70       ??$_Reallocate_grow_by@V<lambda_1>@?1??reserve@?$basic_string@_WU?$char_traits@_W@std@@V?$allocator@_W@2@@std@@QEAAX_K@Z@$$V@?$basic_string@_WU?$char_traits@_W@std@@V?$allocator@_W@2@@std@@AEAAAEAV01@_KV<lambda_1>@?1??reserve@01@QEAAX0@Z@@Z 0000000180004f70 f i portable_settings.obj
 0001:00003f70       ??$_Reallocate_grow_by@V<lambda_1>@?4???$resize_and_overwrite@V<lambda_1>@?4???Kfilesystem@std@@YA?AVpath@23@AEBV423@0@Z@@?$basic_string@_WU?$char_traits@_W@std@@V?$allocator@_W@2@@std@@QEAAX_KV1?4???Kfilesystem@3@YA?AVpath@43@AEBV543@1@Z@@Z@$$V@?$basic_string@_WU?$char_traits@_W@std@@V?$allocator@_W@2@@std@@AEAAAEAV01@_KV<lambda_1>@?4???$resize_and_overwrite@V<lambda_1>@?4???Kfilesystem@std@@YA?AVpath@23@AEBV423@0@Z@@01@QEAAX0V2?4???Kfilesystem@1@YA?AVpath@31@AEBV431@1@Z@@Z@@Z 0000000180004f70 f i dll_inject.obj
 0001:000040b0       ??1bad_alloc@std@@UEAA@XZ  00000001800050b0 f i portable_settings.obj
 0001:000040b0       ??1bad_array_new_length@std@@UEAA@XZ 00000001800050b0 f i portable_settings.obj
 0001:000040b0       ??1bad_exception@std@@UEAA@XZ 00000001800050b0 f i libvcruntime:frame.obj
 0001:000040b0       ??1bad_function_call@std@@UEAA@XZ 00000001800050b0 f i libcpmt:xthrow.obj
 0001:000040b0       ??1bad_optional_access@std@@UEAA@XZ 00000001800050b0 f i customization_session.obj
 0001:000040b0       ??1bad_variant_access@std@@UEAA@XZ 00000001800050b0 f i storage_manager.obj
 0001:000040b0       ??1invalid_argument@std@@UEAA@XZ 00000001800050b0 f i portable_settings.obj
 0001:000040b0       ??1length_error@std@@UEAA@XZ 00000001800050b0 f i libcpmt:xthrow.obj
 0001:000040b0       ??1logic_error@std@@UEAA@XZ 00000001800050b0 f i portable_settings.obj
 0001:000040b0       ??1out_of_range@std@@UEAA@XZ 00000001800050b0 f i libcpmt:xthrow.obj
 0001:000040b0       ??1runtime_error@std@@UEAA@XZ 00000001800050b0 f i dll_inject.obj
 0001:000040b0       ??1system_error@std@@UEAA@XZ 00000001800050b0 f i logger.obj
 0001:000040d0       ??_Ebad_alloc@std@@UEAAPEAXI@Z 00000001800050d0 f i * CIL library *:* CIL module *
 0001:000040d0       ??_Ebad_array_new_length@std@@UEAAPEAXI@Z 00000001800050d0 f i * CIL library *:* CIL module *
 0001:000040d0       ??_Ebad_exception@std@@UEAAPEAXI@Z 00000001800050d0 f i libvcruntime:frame.obj
 0001:000040d0       ??_Ebad_function_call@std@@UEAAPEAXI@Z 00000001800050d0 f i libcpmt:xthrow.obj
 0001:000040d0       ??_Ebad_optional_access@std@@UEAAPEAXI@Z 00000001800050d0 f i * CIL library *:* CIL module *
 0001:000040d0       ??_Ebad_variant_access@std@@UEAAPEAXI@Z 00000001800050d0 f i * CIL library *:* CIL module *
 0001:000040d0       ??_Eexception@std@@UEAAPEAXI@Z 00000001800050d0 f i * CIL library *:* CIL module *
 0001:000040d0       ??_Einvalid_argument@std@@UEAAPEAXI@Z 00000001800050d0 f i * CIL library *:* CIL module *
 0001:000040d0       ??_Elength_error@std@@UEAAPEAXI@Z 00000001800050d0 f i libcpmt:xthrow.obj
 0001:000040d0       ??_Elogic_error@std@@UEAAPEAXI@Z 00000001800050d0 f i * CIL library *:* CIL module *
 0001:000040d0       ??_Eout_of_range@std@@UEAAPEAXI@Z 00000001800050d0 f i libcpmt:xthrow.obj
 0001:000040d0       ??_Eruntime_error@std@@UEAAPEAXI@Z 00000001800050d0 f i * CIL library *:* CIL module *
 0001:000040d0       ??_Gbad_alloc@std@@UEAAPEAXI@Z 00000001800050d0 f i portable_settings.obj
 0001:000040d0       ??_Gbad_array_new_length@std@@UEAAPEAXI@Z 00000001800050d0 f i portable_settings.obj
 0001:000040d0       ??_Gbad_exception@std@@UEAAPEAXI@Z 00000001800050d0 f i libvcruntime:frame.obj
 0001:000040d0       ??_Gbad_function_call@std@@UEAAPEAXI@Z 00000001800050d0 f i libcpmt:xthrow.obj
 0001:000040d0       ??_Gbad_optional_access@std@@UEAAPEAXI@Z 00000001800050d0 f i customization_session.obj
 0001:000040d0       ??_Gbad_variant_access@std@@UEAAPEAXI@Z 00000001800050d0 f i storage_manager.obj
 0001:000040d0       ??_Gexception@std@@UEAAPEAXI@Z 00000001800050d0 f i portable_settings.obj
 0001:000040d0       ??_Ginvalid_argument@std@@UEAAPEAXI@Z 00000001800050d0 f i portable_settings.obj
 0001:000040d0       ??_Glength_error@std@@UEAAPEAXI@Z 00000001800050d0 f i libcpmt:xthrow.obj
 0001:000040d0       ??_Glogic_error@std@@UEAAPEAXI@Z 00000001800050d0 f i portable_settings.obj
 0001:000040d0       ??_Gout_of_range@std@@UEAAPEAXI@Z 00000001800050d0 f i libcpmt:xthrow.obj
 0001:000040d0       ??_Gruntime_error@std@@UEAAPEAXI@Z 00000001800050d0 f i dll_inject.obj
 0001:00004120       ??0logic_error@std@@QEAA@PEBD@Z 0000000180005120 f i portable_settings.obj
 0001:00004190       ??0invalid_argument@std@@QEAA@PEBD@Z 0000000180005190 f i portable_settings.obj
 0001:00004200       ?RecordException@details@wil@@YAHJ@Z 0000000180005200 f i portable_settings.obj
 0001:00004220       ?RecordReturn@details@wil@@YAHJ@Z 0000000180005220 f i portable_settings.obj
 0001:00004240       ??$ReportFailure_Return@$01@details@wil@@YAXPEAXIPEBD110AEBUResultStatus@01@PEB_WW4ReportFailureOptions@01@W4FailureFlags@1@@Z 0000000180005240 f i portable_settings.obj
 0001:00004320       ??$ReportFailure_Base@$01$0A@@details@wil@@YAXPEAXIPEBD110AEBUResultStatus@01@PEB_WW4ReportFailureOptions@01@W4FailureFlags@1@@Z 0000000180005320 f i portable_settings.obj
 0001:00004330       ??$ReportFailure_Hr@$01@details@wil@@YAXPEAXIPEBD110JW4FailureFlags@1@@Z 0000000180005330 f i portable_settings.obj
 0001:000043a0       ?RecordLog@details@wil@@YAHJ@Z 00000001800053a0 f i portable_settings.obj
 0001:000043c0       ?RecordFailFast@details@wil@@YAHJ@Z 00000001800053c0 f i portable_settings.obj
 0001:000043d0       ?_FailFastImmediate_Unexpected@in1diag3@details@wil@@YAXXZ 00000001800053d0 f i portable_settings.obj
 0001:000043d0       ?__throw_bad_function_call@wistd@@YAXXZ 00000001800053d0 f i functions.obj
 0001:000043e0       ?LogStringPrintf@details@wil@@YAPEA_WPEA_WPEB_W1ZZ 00000001800053e0 f i portable_settings.obj
 0001:000044a0       ?GetFailureLogString@wil@@YAJPEA_W_KAEBUFailureInfo@1@@Z 00000001800054a0 f i portable_settings.obj
 0001:00004760       ?LogFailure@details@wil@@YAXPEAXIPEBD110W4FailureType@2@AEBUResultStatus@12@PEB_W_NPEA_W_KPEAD7W4FailureFlags@2@PEAUFailureInfo@2@@Z 0000000180005760 f i portable_settings.obj
 0001:00004a60       ?ThrowResultException@wil@@YAXAEBUFailureInfo@1@@Z 0000000180005a60 f i portable_settings.obj
 0001:00004a70       ?WilRaiseFailFastException@details@wil@@YAXPEAU_EXCEPTION_RECORD@@PEAU_CONTEXT@@K@Z 0000000180005a70 f i portable_settings.obj
 0001:00004a90       ?WilFailFast@details@wil@@YAXAEBUFailureInfo@2@@Z 0000000180005a90 f i portable_settings.obj
 0001:00004b70       ??$ReportFailure_NoReturn@$0A@@details@wil@@YAXPEAXIPEBD110AEBUResultStatus@01@PEB_WW4ReportFailureOptions@01@@Z 0000000180005b70 f i portable_settings.obj
 0001:00004e00       ??$ReportFailure_Base@$0A@$0A@@details@wil@@YAXPEAXIPEBD110AEBUResultStatus@01@PEB_WW4ReportFailureOptions@01@W4FailureFlags@1@@Z 0000000180005e00 f i portable_settings.obj
 0001:00004e30       ?HrToNtStatus@details@wil@@YAJJ@Z 0000000180005e30 f i portable_settings.obj
 0001:000050d0       ?FromResult@ResultStatus@details@wil@@SA?AU123@J@Z 00000001800060d0 f i portable_settings.obj
 0001:00005100       ??$ReportFailure_Win32@$0A@@details@wil@@YAJPEAXIPEBD110K@Z 0000000180006100 f i portable_settings.obj
 0001:00005170       ?Throw_Win32@in1diag3@details@wil@@YAXPEAXIPEBDK@Z 0000000180006170 f i portable_settings.obj
 0001:00005190       ??$?0PEA_W$0A@@?$basic_string@_WU?$char_traits@_W@std@@V?$allocator@_W@2@@std@@QEAA@PEA_W0AEBV?$allocator@_W@1@@Z 0000000180006190 f i portable_settings.obj
 0001:000052b0       ?to_wstring@std@@YA?AV?$basic_string@_WU?$char_traits@_W@std@@V?$allocator@_W@2@@1@H@Z 00000001800062b0 f i portable_settings.obj
 0001:00005380       ??4?$basic_string@_WU?$char_traits@_W@std@@V?$allocator@_W@2@@std@@QEAAAEAV01@$$QEAV01@@Z 0000000180006380 f i portable_settings.obj
 0001:00005430       ?_Xlen_string@std@@YAXXZ   0000000180006430 f i portable_settings.obj
 0001:00005450       ??$_Allocate@$0BA@U_Default_allocate_traits@std@@@std@@YAPEAX_K@Z 0000000180006450 f i portable_settings.obj
 0001:000054c0       ??0bad_array_new_length@std@@QEAA@XZ 00000001800064c0 f i portable_settings.obj
 0001:000054f0       ??0bad_array_new_length@std@@QEAA@AEBV01@@Z 00000001800064f0 f i portable_settings.obj
 0001:00005530       ??0bad_alloc@std@@QEAA@AEBV01@@Z 0000000180006530 f i portable_settings.obj
 0001:00005570       ??0exception@std@@QEAA@AEBV01@@Z 0000000180006570 f i portable_settings.obj
 0001:000055b0       ?_Throw_bad_array_new_length@std@@YAXXZ 00000001800065b0 f i portable_settings.obj
 0001:000055b0       ?__scrt_throw_std_bad_array_new_length@@YAXXZ 00000001800065b0 f i LIBCMT:throw_bad_alloc.obj
 0001:000055d0       ??$_Reallocate_grow_by@V<lambda_1>@?1??append@?$basic_string@_WU?$char_traits@_W@std@@V?$allocator@_W@2@@std@@QEAAAEAV34@_K_W@Z@_K_W@?$basic_string@_WU?$char_traits@_W@std@@V?$allocator@_W@2@@std@@AEAAAEAV01@_KV<lambda_1>@?1??append@01@QEAAAEAV01@0_W@Z@_K_W@Z 00000001800065d0 f i portable_settings.obj
 0001:00005740       ?resize@?$basic_string@_WU?$char_traits@_W@std@@V?$allocator@_W@2@@std@@QEAAX_K_W@Z 0000000180006740 f i portable_settings.obj
 0001:000057d0       ?_Tidy_deallocate@?$basic_string@_WU?$char_traits@_W@std@@V?$allocator@_W@2@@std@@AEAAXXZ 00000001800067d0 f i portable_settings.obj
 0001:00005850       ??1?$basic_string@_WU?$char_traits@_W@std@@V?$allocator@_W@2@@std@@QEAA@XZ 0000000180006850 f i portable_settings.obj
 0001:00005850       ??1path@filesystem@std@@QEAA@XZ 0000000180006850 f i dll_inject.obj
 0001:00005860       ?what@exception@std@@UEBAPEBDXZ 0000000180006860 f i portable_settings.obj
 0001:00005880       ?DllInject@0@YAXPEAX000_N@Z 0000000180006880 f   dll_inject.obj
 0001:000064c0       ?__autoclassinit2@?$unique_ptr@VPortableSettings@@U?$default_delete@VPortableSettings@@@std@@@std@@QEAAX_K@Z 00000001800074c0 f i dll_inject.obj
 0001:000064d0       ??1?$unique_any_t@V?$unique_storage@U?$handle_null_resource_policy@P6AHPEAX@Z$1?CloseHandle@@YAH0@Z@details@wil@@@details@wil@@@wil@@QEAA@XZ 00000001800074d0 f i dll_inject.obj
 0001:000064f0       ??1?$unique_any_t@V?$unique_storage@U?$handle_null_only_resource_policy@P6AHPEAX@Z$1?CloseHandle@@YAH0@Z@details@wil@@@details@wil@@@wil@@QEAA@XZ 00000001800074f0 f i dll_inject.obj
 0001:00006500       ??$value_or@H@?$optional@H@std@@QEHAAH$$QEAH@Z 0000000180007500 f i dll_inject.obj
 0001:00006510       ??$?HDU?$char_traits@D@std@@V?$allocator@D@1@@std@@YA?AV?$basic_string@DU?$char_traits@D@std@@V?$allocator@D@2@@0@QEBD$$QEAV10@@Z 0000000180007510 f i dll_inject.obj
 0001:00006770       ??C?$unique_ptr@VPortableSettings@@U?$default_delete@VPortableSettings@@@std@@@std@@QEBAPEAVPortableSettings@@XZ 0000000180007770 f i dll_inject.obj
 0001:00006780       ??1?$unique_ptr@VPortableSettings@@U?$default_delete@VPortableSettings@@@std@@@std@@QEAA@XZ 0000000180007780 f i dll_inject.obj
 0001:000067a0       ??$_Reallocate_grow_by@V<lambda_1>@?1??insert@?$basic_string@DU?$char_traits@D@std@@V?$allocator@D@2@@std@@QEAAAEAV34@_KQEBD0@Z@_KPEBD_K@?$basic_string@DU?$char_traits@D@std@@V?$allocator@D@2@@std@@AEAAAEAV01@_KV<lambda_1>@?1??insert@01@QEAAAEAV01@0QEBD0@Z@_KPEBD3@Z 00000001800077a0 f i dll_inject.obj
 0001:000068e0       ??1_Init_once_completer@std@@QEAA@XZ 00000001800078e0 f i dll_inject.obj
 0001:00006910       ??$_Integral_to_string@DH@std@@YA?AV?$basic_string@DU?$char_traits@D@std@@V?$allocator@D@2@@0@H@Z 0000000180007910 f i functions.obj
 0001:00006910       ??$_Integral_to_string@DJ@std@@YA?AV?$basic_string@DU?$char_traits@D@std@@V?$allocator@D@2@@0@J@Z 0000000180007910 f i dll_inject.obj
 0001:00006a90       ??1?$basic_string@DU?$char_traits@D@std@@V?$allocator@D@2@@std@@QEAA@XZ 0000000180007a90 f i dll_inject.obj
 0001:00006b10       ?to_string@std@@YA?AV?$basic_string@DU?$char_traits@D@std@@V?$allocator@D@2@@1@J@Z 0000000180007b10 f i dll_inject.obj
 0001:00006b30       ??0runtime_error@std@@QEAA@AEBV?$basic_string@DU?$char_traits@D@std@@V?$allocator@D@2@@1@@Z 0000000180007b30 f i dll_inject.obj
 0001:00006ba0       ?_Find_root_name_end@filesystem@std@@YAPEB_WQEB_W0@Z 0000000180007ba0 f i dll_inject.obj
 0001:00006cb0       wmemcmp                    0000000180007cb0 f i dll_inject.obj
 0001:00006e60       ?assign@?$basic_string@_WU?$char_traits@_W@std@@V?$allocator@_W@2@@std@@QEAAAEAV12@QEB_W_K@Z 0000000180007e60 f i dll_inject.obj
 0001:00006fb0       ??_0path@filesystem@std@@QEAAAEAV012@AEBV012@@Z 0000000180007fb0 f i dll_inject.obj
 0001:000071f0       ??Kfilesystem@std@@YA?AVpath@01@AEBV201@0@Z 00000001800081f0 f i dll_inject.obj
 0001:00007380       ?GetLastErrorFail@details@wil@@YAKPEAXIPEBD110@Z 0000000180008380 f i dll_inject.obj
 0001:000073f0       ??$ReportFailure_GetLastError@$0A@@details@wil@@YAKPEAXIPEBD110@Z 00000001800083f0 f i dll_inject.obj
 0001:00007470       ?_Throw_GetLastError@in1diag3@details@wil@@YAXPEAXIPEBD@Z 0000000180008470 f i dll_inject.obj
 0001:00007490       ??0runtime_error@std@@QEAA@AEBV01@@Z 0000000180008490 f i dll_inject.obj
 0001:000074d0       ?NtStatusToHr@details@wil@@YAJJ@Z 00000001800084d0 f i dll_inject.obj
 0001:00007530       ?FromStatus@ResultStatus@details@wil@@SA?AU123@J@Z 0000000180008530 f i dll_inject.obj
 0001:00007560       ??$ReportFailure_NtStatus@$0A@@details@wil@@YAJPEAXIPEBD110J@Z 0000000180008560 f i dll_inject.obj
 0001:000075c0       ?_Throw_NtStatus@in1diag3@details@wil@@YAXPEAXIPEBDJ@Z 00000001800085c0 f i dll_inject.obj
 0001:000075e0       ??0runtime_error@std@@QEAA@PEBD@Z 00000001800085e0 f i dll_inject.obj
 0001:000076c0       ?PatchEtwEventWrite@EtwStealth@@YA_NXZ 00000001800086c0 f   etw_stealth.obj
 0001:000078c0       ?SuppressForCurrentThread@EtwStealth@@YAXXZ 00000001800088c0 f   etw_stealth.obj
 0001:000078f0       ?ResumeForCurrentThread@EtwStealth@@YAXXZ 00000001800088f0 f   etw_stealth.obj
 0001:00007930       ?wcsmatch@Functions@@YA_NPEB_W_K01@Z 0000000180008930 f   functions.obj
 0001:000079e0       ?SplitStringToViews@Functions@@YA?AV?$vector@V?$basic_string_view@_WU?$char_traits@_W@std@@@std@@V?$allocator@V?$basic_string_view@_WU?$char_traits@_W@std@@@std@@@2@@std@@V?$basic_string_view@_WU?$char_traits@_W@std@@@3@_W@Z 00000001800089e0 f   functions.obj
 0001:00007d70       ?DoesPathMatchPattern@Functions@@YA_NV?$basic_string_view@_WU?$char_traits@_W@std@@@std@@0_N@Z 0000000180008d70 f   functions.obj
 0001:000080f0       ?MyCreateRemoteThread@Functions@@YAPEAXPEAXP6AK0@Z0K@Z 00000001800090f0 f   functions.obj
 0001:000082d0       ?ModuleGetPDBInfo@Functions@@YA_NPEAXPEAU_GUID@@PEAK@Z 00000001800092d0 f   functions.obj
 0001:00008450       ?GetModuleVersion@Functions@@YA?AV?$basic_string@DU?$char_traits@D@std@@V?$allocator@D@2@@std@@PEAUHINSTANCE__@@@Z 0000000180009450 f   functions.obj
 0001:00008840       ?SetThreadDescriptionIfAvailable@Functions@@YAJPEAXPEB_W@Z 0000000180009840 f   functions.obj
 0001:00008bb0       ??$ExpandEnvironmentStringsW@V?$basic_string@_WU?$char_traits@_W@std@@V?$allocator@_W@2@@std@@$0BAA@@wil@@YA?AV?$basic_string@_WU?$char_traits@_W@std@@V?$allocator@_W@2@@std@@PEB_W@Z 0000000180009bb0 f i functions.obj
 0001:00008c70       ??1?$vector@V?$basic_string@_WU?$char_traits@_W@std@@V?$allocator@_W@2@@std@@V?$allocator@V?$basic_string@_WU?$char_traits@_W@std@@V?$allocator@_W@2@@std@@@2@@std@@QEAA@XZ 0000000180009c70 f i functions.obj
 0001:00008c80       ?_Tidy@?$vector@V?$basic_string@_WU?$char_traits@_W@std@@V?$allocator@_W@2@@std@@V?$allocator@V?$basic_string@_WU?$char_traits@_W@std@@V?$allocator@_W@2@@std@@@2@@std@@AEAAXXZ 0000000180009c80 f i functions.obj
 0001:00008d20       ??$AdaptFixedSizeToAllocatedResult@V?$basic_string@_WU?$char_traits@_W@std@@V?$allocator@_W@2@@std@@$0BAA@@wil@@YAJAEAV?$basic_string@_WU?$char_traits@_W@std@@V?$allocator@_W@2@@std@@V?$function@$$A6AJPEA_W_KPEA_K@Z@wistd@@@Z 0000000180009d20 f i functions.obj
 0001:00009050       ?_Xran@?$basic_string_view@_WU?$char_traits@_W@std@@@std@@CAXXZ 000000018000a050 f i functions.obj
 0001:00009070       ?__clone@?$__func@V<lambda_1>@?1???$ExpandEnvironmentStringsW@V?$basic_string@_WU?$char_traits@_W@std@@V?$allocator@_W@2@@std@@$0BAA@@wil@@YAJPEB_WAEAV?$basic_string@_WU?$char_traits@_W@std@@V?$allocator@_W@2@@std@@@Z@$$A6AJPEA_W_KPEA_K@Z@__function@wistd@@UEBAXPEAV?$__base@$$A6AJPEA_W_KPEA_K@Z@23@@Z 000000018000a070 f i functions.obj
 0001:00009070       ?__move@?$__func@V<lambda_1>@?1???$ExpandEnvironmentStringsW@V?$basic_string@_WU?$char_traits@_W@std@@V?$allocator@_W@2@@std@@$0BAA@@wil@@YAJPEB_WAEAV?$basic_string@_WU?$char_traits@_W@std@@V?$allocator@_W@2@@std@@@Z@$$A6AJPEA_W_KPEA_K@Z@__function@wistd@@UEAAXPEAV?$__base@$$A6AJPEA_W_KPEA_K@Z@23@@Z 000000018000a070 f i functions.obj
 0001:00009090       ?destroy@?$__func@V<lambda_1>@?1???$ExpandEnvironmentStringsW@V?$basic_string@_WU?$char_traits@_W@std@@V?$allocator@_W@2@@std@@$0BAA@@wil@@YAJPEB_WAEAV?$basic_string@_WU?$char_traits@_W@std@@V?$allocator@_W@2@@std@@@Z@$$A6AJPEA_W_KPEA_K@Z@__function@wistd@@UEAAXXZ 000000018000a090 f i functions.obj
 0001:00009090       ?destroy@?$__func@V<lambda_1>@?1???$GetEnvironmentVariableW@V?$basic_string@_WU?$char_traits@_W@std@@V?$allocator@_W@2@@std@@$0IA@@wil@@YAJPEB_WAEAV?$basic_string@_WU?$char_traits@_W@std@@V?$allocator@_W@2@@std@@@Z@$$A6AJPEA_W_KPEA_K@Z@__function@wistd@@UEAAXXZ 000000018000a090 f i storage_manager.obj
 0001:00009090       ?destroy@?$__func@V<lambda_1>@?1???$K32GetModuleFileNameExW@V?$basic_string@_WU?$char_traits@_W@std@@V?$allocator@_W@2@@std@@$0IA@@wil@@YAJPEAXPEAUHINSTANCE__@@AEAV?$basic_string@_WU?$char_traits@_W@std@@V?$allocator@_W@2@@std@@@Z@$$A6AJPEA_W_KPEA_K@Z@__function@wistd@@UEAAXXZ 000000018000a090 f i mod.obj
 0001:00009090       ?destroy@?$__func@V<lambda_1>@?1???$QueryFullProcessImageNameW@V?$basic_string@_WU?$char_traits@_W@std@@V?$allocator@_W@2@@std@@$0BAA@@wil@@YAJPEAXKAEAV?$basic_string@_WU?$char_traits@_W@std@@V?$allocator@_W@2@@std@@@Z@$$A6AJPEA_W_KPEA_K@Z@__function@wistd@@UEAAXXZ 000000018000a090 f i mod.obj
 0001:00009090       _guard_check_icall_nop     000000018000a090 f i LIBCMT:guard_support.obj
 0001:000090a0       ??R?$__func@V<lambda_1>@?1???$ExpandEnvironmentStringsW@V?$basic_string@_WU?$char_traits@_W@std@@V?$allocator@_W@2@@std@@$0BAA@@wil@@YAJPEB_WAEAV?$basic_string@_WU?$char_traits@_W@std@@V?$allocator@_W@2@@std@@@Z@$$A6AJPEA_W_KPEA_K@Z@__function@wistd@@UEAAJ$$QEAPEA_W$$QEA_K$$QEAPEA_K@Z 000000018000a0a0 f i functions.obj
 0001:000090f0       ??_E?$__func@V<lambda_1>@?1???$ExpandEnvironmentStringsW@V?$basic_string@_WU?$char_traits@_W@std@@V?$allocator@_W@2@@std@@$0BAA@@wil@@YAJPEB_WAEAV?$basic_string@_WU?$char_traits@_W@std@@V?$allocator@_W@2@@std@@@Z@$$A6AJPEA_W_KPEA_K@Z@__function@wistd@@UEAAPEAXI@Z 000000018000a0f0 f i * CIL library *:* CIL module *
 0001:000090f0       ??_E?$__func@V<lambda_1>@?1???$GetEnvironmentVariableW@V?$basic_string@_WU?$char_traits@_W@std@@V?$allocator@_W@2@@std@@$0IA@@wil@@YAJPEB_WAEAV?$basic_string@_WU?$char_traits@_W@std@@V?$allocator@_W@2@@std@@@Z@$$A6AJPEA_W_KPEA_K@Z@__function@wistd@@UEAAPEAXI@Z 000000018000a0f0 f i * CIL library *:* CIL module *
 0001:000090f0       ??_G?$__func@V<lambda_1>@?1???$ExpandEnvironmentStringsW@V?$basic_string@_WU?$char_traits@_W@std@@V?$allocator@_W@2@@std@@$0BAA@@wil@@YAJPEB_WAEAV?$basic_string@_WU?$char_traits@_W@std@@V?$allocator@_W@2@@std@@@Z@$$A6AJPEA_W_KPEA_K@Z@__function@wistd@@UEAAPEAXI@Z 000000018000a0f0 f i functions.obj
 0001:000090f0       ??_G?$__func@V<lambda_1>@?1???$GetEnvironmentVariableW@V?$basic_string@_WU?$char_traits@_W@std@@V?$allocator@_W@2@@std@@$0IA@@wil@@YAJPEB_WAEAV?$basic_string@_WU?$char_traits@_W@std@@V?$allocator@_W@2@@std@@@Z@$$A6AJPEA_W_KPEA_K@Z@__function@wistd@@UEAAPEAXI@Z 000000018000a0f0 f i storage_manager.obj
 0001:00009120       ??_E?$__base@$$A6AJPEA_W_KPEA_K@Z@__function@wistd@@UEAAPEAXI@Z 000000018000a120 f i * CIL library *:* CIL module *
 0001:00009120       ??_G?$__base@$$A6AJPEA_W_KPEA_K@Z@__function@wistd@@UEAAPEAXI@Z 000000018000a120 f i functions.obj
 0001:00009150       ??$ReportFailure_Hr@$00@details@wil@@YAXPEAXIPEBD110JW4FailureFlags@1@@Z 000000018000a150 f i functions.obj
 0001:000091b0       ?Return_Hr@in1diag3@details@wil@@YAXPEAXIPEBDJ@Z 000000018000a1b0 f i functions.obj
 0001:000091d0       ??0?$basic_string@_WU?$char_traits@_W@std@@V?$allocator@_W@2@@std@@QEAA@_K_W@Z 000000018000a1d0 f i functions.obj
 0001:000092c0       ?make@?$string_maker@V?$basic_string@_WU?$char_traits@_W@std@@V?$allocator@_W@2@@std@@@details@wil@@QEAAJPEB_W_K@Z 000000018000a2c0 f i functions.obj
 0001:00009360       ??$ReportFailure_Return@$00@details@wil@@YAXPEAXIPEBD110AEBUResultStatus@01@PEB_WW4ReportFailureOptions@01@W4FailureFlags@1@@Z 000000018000a360 f i functions.obj
 0001:000095d0       ??$ReportFailure_Base@$00$0A@@details@wil@@YAXPEAXIPEBD110AEBUResultStatus@01@PEB_WW4ReportFailureOptions@01@W4FailureFlags@1@@Z 000000018000a5d0 f i functions.obj
 0001:000095e0       ??$ReportFailure_GetLastErrorHr@$00@details@wil@@YAJPEAXIPEBD110@Z 000000018000a5e0 f i functions.obj
 0001:000096a0       ?Return_GetLastError@in1diag3@details@wil@@YAJPEAXIPEBD@Z 000000018000a6a0 f i functions.obj
 0001:000096c0       ?push_back@?$basic_string@DU?$char_traits@D@std@@V?$allocator@D@2@@std@@QEAAXD@Z 000000018000a6c0 f i functions.obj
 0001:00009810       ??$_Reallocate_grow_by@V<lambda_1>@?1??append@?$basic_string@DU?$char_traits@D@std@@V?$allocator@D@2@@std@@QEAAAEAV34@QEBD_K@Z@PEBD_K@?$basic_string@DU?$char_traits@D@std@@V?$allocator@D@2@@std@@AEAAAEAV01@_KV<lambda_1>@?1??append@01@QEAAAEAV01@QEBD0@Z@PEBD_K@Z 000000018000a810 f i functions.obj
 0001:00009960       ?append@?$basic_string@DU?$char_traits@D@std@@V?$allocator@D@2@@std@@QEAAAEAV12@QEBD_K@Z 000000018000a960 f i functions.obj
 0001:000099f0       ??1?$vector@UThreadCallStackRegionInfo@@V?$allocator@UThreadCallStackRegionInfo@@@std@@@std@@QEAA@XZ 000000018000a9f0 f i mods_manager.obj
 0001:000099f0       ?_Tidy@?$vector@V?$basic_string_view@_WU?$char_traits@_W@std@@@std@@V?$allocator@V?$basic_string_view@_WU?$char_traits@_W@std@@@std@@@2@@std@@AEAAXXZ 000000018000a9f0 f i functions.obj
 0001:00009a60       ??1?$vector@V?$basic_string_view@_WU?$char_traits@_W@std@@@std@@V?$allocator@V?$basic_string_view@_WU?$char_traits@_W@std@@@std@@@2@@std@@QEAA@XZ 000000018000aa60 f i functions.obj
 0001:00009a70       ?SetHook@HwbpHook@@YA_NPEAX0PEAPEAXK@Z 000000018000aa70 f   hwbp_hook.obj
 0001:00009de0       ?RemoveHookAllThreads@HwbpHook@@YA_NPEAX@Z 000000018000ade0 f   hwbp_hook.obj
 0001:0000a070       ??$_Emplace_reallocate@AEBUHookContext@HwbpHook@@@?$vector@UHookContext@HwbpHook@@V?$allocator@UHookContext@HwbpHook@@@std@@@std@@AEAAPEAUHookContext@HwbpHook@@QEAU23@AEBU23@@Z 000000018000b070 f i hwbp_hook.obj
 0001:0000a200       ??1?$lock_guard@Vmutex@std@@@std@@QEAA@XZ 000000018000b200 f i hwbp_hook.obj
 0001:0000a5d0       ?RegisterHookRegion@InjectionMonitor@@YA_NPEAX_K@Z 000000018000b5d0 f   injection_monitor.obj
 0001:0000a880       ?UnregisterHookRegion@InjectionMonitor@@YA_NPEAX@Z 000000018000b880 f   injection_monitor.obj
 0001:0000ab40       ??1?$_Hash_vec@V?$allocator@V?$_List_unchecked_const_iterator@V?$_List_val@U?$_List_simple_types@V?$basic_string@_WU?$char_traits@_W@std@@V?$allocator@_W@2@@std@@@std@@@std@@U_Iterator_base0@2@@std@@@std@@@std@@QEAA@XZ 000000018000bb40 f i mods_manager.obj
 0001:0000ab40       ??1?$_Hash_vec@V?$allocator@V?$_List_unchecked_iterator@V?$_List_val@U?$_List_simple_types@U?$pair@$$CBV?$basic_string@_WU?$char_traits@_W@std@@V?$allocator@_W@2@@std@@VMod@@@std@@@std@@@std@@@std@@@std@@@std@@QEAA@XZ 000000018000bb40 f i mods_manager.obj
 0001:0000ab40       ??1?$_Hash_vec@V?$allocator@V?$_List_unchecked_iterator@V?$_List_val@U?$_List_simple_types@U?$pair@QEAXURegionInfo@InjectionMonitor@@@std@@@std@@@std@@@std@@@std@@@std@@QEAA@XZ 000000018000bb40 f i injection_monitor.obj
 0001:0000ab40       ??1?$vector@PEAXV?$allocator@PEAX@std@@@std@@QEAA@XZ 000000018000bb40 f i mod.obj
 0001:0000ab40       ??1?$vector@PEBUtagWH_SYMBOL_HOOK@@V?$allocator@PEBUtagWH_SYMBOL_HOOK@@@std@@@std@@QEAA@XZ 000000018000bb40 f i mod.obj
 0001:0000ab40       ??1?$vector@U_IMAGE_CHPE_RANGE_ENTRY@SymbolEnum@@V?$allocator@U_IMAGE_CHPE_RANGE_ENTRY@SymbolEnum@@@std@@@std@@QEAA@XZ 000000018000bb40 f i mod.obj
 0001:0000abb0       ??1?$list@U?$pair@QEAXURegionInfo@InjectionMonitor@@@std@@V?$allocator@U?$pair@QEAXURegionInfo@InjectionMonitor@@@std@@@2@@std@@QEAA@XZ 000000018000bbb0 f i injection_monitor.obj
 0001:0000ac10       ??$_Try_emplace@AEBQEAX$$V@?$_Hash@V?$_Umap_traits@PEAXURegionInfo@InjectionMonitor@@V?$_Uhash_compare@PEAXU?$hash@PEAX@std@@U?$equal_to@PEAX@2@@std@@V?$allocator@U?$pair@QEAXURegionInfo@InjectionMonitor@@@std@@@4@$0A@@std@@@std@@IEAA?AU?$pair@PEAU?$_List_node@U?$pair@QEAXURegionInfo@InjectionMonitor@@@std@@PEAX@std@@_N@1@AEBQEAX@Z 000000018000bc10 f i injection_monitor.obj
 0001:0000af10       ??1?$_Alloc_construct_ptr@V?$allocator@U?$_List_node@U?$pair@QEAXURegionInfo@InjectionMonitor@@@std@@PEAX@std@@@std@@@std@@QEAA@XZ 000000018000bf10 f i injection_monitor.obj
 0001:0000af10       ??1?$_Alloc_construct_ptr@V?$allocator@U?$_List_node@V?$basic_string@_WU?$char_traits@_W@std@@V?$allocator@_W@2@@std@@PEAX@std@@@std@@@std@@QEAA@XZ 000000018000bf10 f i mods_manager.obj
 0001:0000af10       ??1?$_List_node_emplace_op2@V?$allocator@U?$_List_node@U?$pair@QEAXURegionInfo@InjectionMonitor@@@std@@PEAX@std@@@std@@@std@@QEAA@XZ 000000018000bf10 f i injection_monitor.obj
 0001:0000af30       ?_Assign_grow@?$_Hash_vec@V?$allocator@V?$_List_unchecked_const_iterator@V?$_List_val@U?$_List_simple_types@V?$basic_string@_WU?$char_traits@_W@std@@V?$allocator@_W@2@@std@@@std@@@std@@U_Iterator_base0@2@@std@@@std@@@std@@QEAAX_KV?$_List_unchecked_const_iterator@V?$_List_val@U?$_List_simple_types@V?$basic_string@_WU?$char_traits@_W@std@@V?$allocator@_W@2@@std@@@std@@@std@@U_Iterator_base0@2@@2@@Z 000000018000bf30 f i mods_manager.obj
 0001:0000af30       ?_Assign_grow@?$_Hash_vec@V?$allocator@V?$_List_unchecked_iterator@V?$_List_val@U?$_List_simple_types@U?$pair@$$CBV?$basic_string@_WU?$char_traits@_W@std@@V?$allocator@_W@2@@std@@VMod@@@std@@@std@@@std@@@std@@@std@@@std@@QEAAX_KV?$_List_unchecked_iterator@V?$_List_val@U?$_List_simple_types@U?$pair@$$CBV?$basic_string@_WU?$char_traits@_W@std@@V?$allocator@_W@2@@std@@VMod@@@std@@@std@@@std@@@2@@Z 000000018000bf30 f i mods_manager.obj
 0001:0000af30       ?_Assign_grow@?$_Hash_vec@V?$allocator@V?$_List_unchecked_iterator@V?$_List_val@U?$_List_simple_types@U?$pair@QEAXURegionInfo@InjectionMonitor@@@std@@@std@@@std@@@std@@@std@@@std@@QEAAX_KV?$_List_unchecked_iterator@V?$_List_val@U?$_List_simple_types@U?$pair@QEAXURegionInfo@InjectionMonitor@@@std@@@std@@@std@@@2@@Z 000000018000bf30 f i injection_monitor.obj
 0001:0000b040       ?_Forced_rehash@?$_Hash@V?$_Umap_traits@PEAXURegionInfo@InjectionMonitor@@V?$_Uhash_compare@PEAXU?$hash@PEAX@std@@U?$equal_to@PEAX@2@@std@@V?$allocator@U?$pair@QEAXURegionInfo@InjectionMonitor@@@std@@@4@$0A@@std@@@std@@IEAAX_K@Z 000000018000c040 f i injection_monitor.obj
 0001:0000b2f0       ??1ScopedThreadVerbosity@Logger@@QEAA@XZ 000000018000c2f0 f   logger.obj
 0001:0000b370       ?GetInstance@Logger@@SAAEAV1@XZ 000000018000c370 f   logger.obj
 0001:0000b450       ?ShouldLog@Logger@@QEAA_NW4Verbosity@LoggerBase@@@Z 000000018000c450 f   logger.obj
 0001:0000b490       ?GetThreadVerbosity@Logger@@CAAEAV?$optional@W4Verbosity@LoggerBase@@@std@@XZ 000000018000c490 f   logger.obj
 0001:0000b750       ??1?$_Func_class@PEAPEAUCallbacks@SymbolEnum@@$$V@std@@QEAA@XZ 000000018000c750 f i symbol_enum.obj
 0001:0000b750       ??1?$_Func_class@PEAV?$optional@W4Verbosity@LoggerBase@@@std@@$$V@std@@QEAA@XZ 000000018000c750 f i logger.obj
 0001:0000b750       ??1?$_Func_class@XPEAPEAUCallbacks@SymbolEnum@@@std@@QEAA@XZ 000000018000c750 f i symbol_enum.obj
 0001:0000b750       ??1?$_Func_class@XPEAV?$optional@W4Verbosity@LoggerBase@@@std@@@std@@QEAA@XZ 000000018000c750 f i logger.obj
 0001:0000b750       ??1?$function@$$A6APEAPEAUCallbacks@SymbolEnum@@XZ@std@@QEAA@XZ 000000018000c750 f i symbol_enum.obj
 0001:0000b750       ??1?$function@$$A6APEAV?$optional@W4Verbosity@LoggerBase@@@std@@XZ@std@@QEAA@XZ 000000018000c750 f i logger.obj
 0001:0000b750       ??1?$function@$$A6AXH@Z@std@@QEAA@XZ 000000018000c750 f i mod.obj
 0001:0000b750       ??1?$function@$$A6AXPEAPEAUCallbacks@SymbolEnum@@@Z@std@@QEAA@XZ 000000018000c750 f i symbol_enum.obj
 0001:0000b750       ??1?$function@$$A6AXPEAV?$optional@W4Verbosity@LoggerBase@@@std@@@Z@std@@QEAA@XZ 000000018000c750 f i logger.obj
 0001:0000b750       ??1?$function@$$A6AXPEB_W@Z@std@@QEAA@XZ 000000018000c750 f i mods_manager.obj
 0001:0000b750       ??1?$function@$$A6A_NXZ@std@@QEAA@XZ 000000018000c750 f i mod.obj
 0001:0000b780       ?default_exit@?$ThreadLocal@PEAUCallbacks@SymbolEnum@@@@CAXPEAX@Z 000000018000c780 f i symbol_enum.obj
 0001:0000b780       ?default_exit@?$ThreadLocal@V?$optional@W4Verbosity@LoggerBase@@@std@@@@CAXPEAX@Z 000000018000c780 f i logger.obj
 0001:0000b7e0       ?_Delete_this@?$_Func_impl_no_alloc@U?$default_delete@PEAUCallbacks@SymbolEnum@@@std@@XPEAPEAUCallbacks@SymbolEnum@@@std@@EEAAX_N@Z 000000018000c7e0 f i symbol_enum.obj
 0001:0000b7e0       ?_Delete_this@?$_Func_impl_no_alloc@U?$default_delete@V?$optional@W4Verbosity@LoggerBase@@@std@@@std@@XPEAV?$optional@W4Verbosity@LoggerBase@@@2@@std@@EEAAX_N@Z 000000018000c7e0 f i logger.obj
 0001:0000b7e0       ?_Delete_this@?$_Func_impl_no_alloc@V<lambda_5_>@?0???0?$ThreadLocal@PEAUCallbacks@SymbolEnum@@@@QEAA@XZ@PEAPEAUCallbacks@SymbolEnum@@$$V@std@@EEAAX_N@Z 000000018000c7e0 f i symbol_enum.obj
 0001:0000b7e0       ?_Delete_this@?$_Func_impl_no_alloc@V<lambda_5_>@?0???0?$ThreadLocal@V?$optional@W4Verbosity@LoggerBase@@@std@@@@QEAA@XZ@PEAV?$optional@W4Verbosity@LoggerBase@@@std@@$$V@std@@EEAAX_N@Z 000000018000c7e0 f i logger.obj
 0001:0000b7f0       ?_Get@?$_Func_impl_no_alloc@U?$default_delete@PEAUCallbacks@SymbolEnum@@@std@@XPEAPEAUCallbacks@SymbolEnum@@@std@@EEBAPEBXXZ 000000018000c7f0 f i symbol_enum.obj
 0001:0000b7f0       ?_Get@?$_Func_impl_no_alloc@U?$default_delete@V?$optional@W4Verbosity@LoggerBase@@@std@@@std@@XPEAV?$optional@W4Verbosity@LoggerBase@@@2@@std@@EEBAPEBXXZ 000000018000c7f0 f i logger.obj
 0001:0000b7f0       ?_Get@?$_Func_impl_no_alloc@V<lambda_5_>@?0???0?$ThreadLocal@PEAUCallbacks@SymbolEnum@@@@QEAA@XZ@PEAPEAUCallbacks@SymbolEnum@@$$V@std@@EEBAPEBXXZ 000000018000c7f0 f i symbol_enum.obj
 0001:0000b7f0       ?_Get@?$_Func_impl_no_alloc@V<lambda_5_>@?0???0?$ThreadLocal@V?$optional@W4Verbosity@LoggerBase@@@std@@@@QEAA@XZ@PEAV?$optional@W4Verbosity@LoggerBase@@@std@@$$V@std@@EEBAPEBXXZ 000000018000c7f0 f i logger.obj
 0001:0000b800       ?_Target_type@?$_Func_impl_no_alloc@U?$default_delete@V?$optional@W4Verbosity@LoggerBase@@@std@@@std@@XPEAV?$optional@W4Verbosity@LoggerBase@@@2@@std@@EEBAAEBVtype_info@@XZ 000000018000c800 f i logger.obj
 0001:0000b810       ?_Do_call@?$_Func_impl_no_alloc@U?$default_delete@PEAUCallbacks@SymbolEnum@@@std@@XPEAPEAUCallbacks@SymbolEnum@@@std@@EEAAX$$QEAPEAPEAUCallbacks@SymbolEnum@@@Z 000000018000c810 f i symbol_enum.obj
 0001:0000b810       ?_Do_call@?$_Func_impl_no_alloc@U?$default_delete@V?$optional@W4Verbosity@LoggerBase@@@std@@@std@@XPEAV?$optional@W4Verbosity@LoggerBase@@@2@@std@@EEAAX$$QEAPEAV?$optional@W4Verbosity@LoggerBase@@@2@@Z 000000018000c810 f i logger.obj
 0001:0000b820       ?_Copy@?$_Func_impl_no_alloc@U?$default_delete@V?$optional@W4Verbosity@LoggerBase@@@std@@@std@@XPEAV?$optional@W4Verbosity@LoggerBase@@@2@@std@@EEBAPEAV?$_Func_base@XPEAV?$optional@W4Verbosity@LoggerBase@@@std@@@2@PEAX@Z 000000018000c820 f i logger.obj
 0001:0000b820       ?_Move@?$_Func_impl_no_alloc@U?$default_delete@V?$optional@W4Verbosity@LoggerBase@@@std@@@std@@XPEAV?$optional@W4Verbosity@LoggerBase@@@2@@std@@EEAAPEAV?$_Func_base@XPEAV?$optional@W4Verbosity@LoggerBase@@@std@@@2@PEAX@Z 000000018000c820 f i logger.obj
 0001:0000b830       ?_Target_type@?$_Func_impl_no_alloc@V<lambda_5_>@?0???0?$ThreadLocal@V?$optional@W4Verbosity@LoggerBase@@@std@@@@QEAA@XZ@PEAV?$optional@W4Verbosity@LoggerBase@@@std@@$$V@std@@EEBAAEBVtype_info@@XZ 000000018000c830 f i logger.obj
 0001:0000b840       ?_Do_call@?$_Func_impl_no_alloc@V<lambda_5_>@?0???0?$ThreadLocal@V?$optional@W4Verbosity@LoggerBase@@@std@@@@QEAA@XZ@PEAV?$optional@W4Verbosity@LoggerBase@@@std@@$$V@std@@EEAAPEAV?$optional@W4Verbosity@LoggerBase@@@2@XZ 000000018000c840 f i logger.obj
 0001:0000b860       ?_Copy@?$_Func_impl_no_alloc@V<lambda_5_>@?0???0?$ThreadLocal@V?$optional@W4Verbosity@LoggerBase@@@std@@@@QEAA@XZ@PEAV?$optional@W4Verbosity@LoggerBase@@@std@@$$V@std@@EEBAPEAV?$_Func_base@PEAV?$optional@W4Verbosity@LoggerBase@@@std@@$$V@2@PEAX@Z 000000018000c860 f i logger.obj
 0001:0000b860       ?_Move@?$_Func_impl_no_alloc@V<lambda_5_>@?0???0?$ThreadLocal@V?$optional@W4Verbosity@LoggerBase@@@std@@@@QEAA@XZ@PEAV?$optional@W4Verbosity@LoggerBase@@@std@@$$V@std@@EEAAPEAV?$_Func_base@PEAV?$optional@W4Verbosity@LoggerBase@@@std@@$$V@2@PEAX@Z 000000018000c860 f i logger.obj
 0001:0000b870       ??0system_error@std@@QEAA@AEBV01@@Z 000000018000c870 f i logger.obj
 0001:0000b8d0       ??0_System_error@std@@QEAA@AEBV01@@Z 000000018000c8d0 f i logger.obj
 0001:0000b920       ??_E_Generic_error_category@std@@UEAAPEAXI@Z 000000018000c920 f i * CIL library *:* CIL module *
 0001:0000b920       ??_E_System_error_category@std@@UEAAPEAXI@Z 000000018000c920 f i * CIL library *:* CIL module *
 0001:0000b920       ??_G_Generic_error_category@std@@UEAAPEAXI@Z 000000018000c920 f i logger.obj
 0001:0000b920       ??_G_System_error_category@std@@UEAAPEAXI@Z 000000018000c920 f i logger.obj
 0001:0000b950       ?name@_System_error_category@std@@UEBAPEBDXZ 000000018000c950 f i logger.obj
 0001:0000b960       ??1_System_error_message@std@@QEAA@XZ 000000018000c960 f i logger.obj
 0001:0000b970       ?message@_System_error_category@std@@UEBA?AV?$basic_string@DU?$char_traits@D@std@@V?$allocator@D@2@@2@H@Z 000000018000c970 f i logger.obj
 0001:0000ba10       ?name@_Generic_error_category@std@@UEBAPEBDXZ 000000018000ca10 f i logger.obj
 0001:0000ba20       ?message@_Generic_error_category@std@@UEBA?AV?$basic_string@DU?$char_traits@D@std@@V?$allocator@D@2@@2@H@Z 000000018000ca20 f i logger.obj
 0001:0000ba70       ?generic_category@std@@YAAEBVerror_category@1@XZ 000000018000ca70 f i logger.obj
 0001:0000ba80       ?default_error_condition@_System_error_category@std@@UEBA?AVerror_condition@2@H@Z 000000018000ca80 f i logger.obj
 0001:0000bb00       ?equivalent@error_category@std@@UEBA_NAEBVerror_code@2@H@Z 000000018000cb00 f i logger.obj
 0001:0000bb20       ?default_error_condition@error_category@std@@UEBA?AVerror_condition@2@H@Z 000000018000cb20 f i logger.obj
 0001:0000bb30       ?equivalent@error_category@std@@UEBA_NHAEBVerror_condition@2@@Z 000000018000cb30 f i logger.obj
 0001:0000bb70       ?system_category@std@@YAAEBVerror_category@1@XZ 000000018000cb70 f i logger.obj
 0001:0000bb80       ??0?$basic_string@DU?$char_traits@D@std@@V?$allocator@D@2@@std@@QEAA@AEBV01@@Z 000000018000cb80 f i logger.obj
 0001:0000bc40       ??_E_System_error@std@@UEAAPEAXI@Z 000000018000cc40 f i * CIL library *:* CIL module *
 0001:0000bc40       ??_Esystem_error@std@@UEAAPEAXI@Z 000000018000cc40 f i * CIL library *:* CIL module *
 0001:0000bc40       ??_G_System_error@std@@UEAAPEAXI@Z 000000018000cc40 f i logger.obj
 0001:0000bc40       ??_Gsystem_error@std@@UEAAPEAXI@Z 000000018000cc40 f i logger.obj
 0001:0000bc90       ??0_System_error@std@@IEAA@Verror_code@1@AEBV?$basic_string@DU?$char_traits@D@std@@V?$allocator@D@2@@1@@Z 000000018000cc90 f i logger.obj
 0001:0000be40       ??$_Construct@$00PEBD@?$basic_string@DU?$char_traits@D@std@@V?$allocator@D@2@@std@@AEAAXQEBD_K@Z 000000018000ce40 f i logger.obj
 0001:0000bef0       ??0?$basic_string@DU?$char_traits@D@std@@V?$allocator@D@2@@std@@QEAA@QEBD@Z 000000018000cef0 f i logger.obj
 0001:0000bf30       ??0system_error@std@@QEAA@HAEBVerror_category@1@PEBD@Z 000000018000cf30 f i logger.obj
 0001:0000c020       ??1Callbacks@SymbolEnum@@QEAA@XZ 000000018000d020 f i mod.obj
 0001:0000c080       ??0Callbacks@SymbolEnum@@QEAA@$$QEAU01@@Z 000000018000d080 f i mod.obj
 0001:0000c5b0       ??1?$unique_any_t@V?$unique_storage@U?$resource_policy@PEAXP6APEAXPEAX@Z$1?LocalFree@@YAPEAX0@ZU?$integral_constant@_K$0A@@wistd@@PEAXPEAX$0A@$$T@details@wil@@@details@wil@@@wil@@QEAA@XZ 000000018000d5b0 f i mod.obj
 0001:0000cbf0       ??1?$unique_any_t@V?$unique_storage@U?$handle_invalid_resource_policy@P6AHPEAX@Z$1?CloseHandle@@YAH0@Z@details@wil@@@details@wil@@@wil@@QEAA@XZ 000000018000dbf0 f i mod.obj
 0001:0000d7c0       ??1?$unique_any_t@V?$unique_storage@U?$resource_policy@PEAUHINSTANCE__@@P6AHPEAU1@@Z$1?FreeLibrary@@YAH0@ZU?$integral_constant@_K$0A@@wistd@@PEAU1@PEAU1@$0A@$$T@details@wil@@@details@wil@@@wil@@QEAA@XZ 000000018000e7c0 f i mod.obj
 0001:0000fe00       ??0LoadedMod@@QEAA@PEB_W00_N11@Z 0000000180010e00 f   mod.obj
 0001:00010270       ??1LoadedMod@@QEAA@XZ      0000000180011270 f   mod.obj
 0001:00010480       ?Initialize@LoadedMod@@QEAA_NXZ 0000000180011480 f   mod.obj
 0001:00010830       ?BeforeUninit@LoadedMod@@QEAAXXZ 0000000180011830 f   mod.obj
 0001:000109e0       ?GetIntValue@LoadedMod@@QEAAHPEB_WH@Z 00000001800119e0 f   mod.obj
 0001:00010b80       ?SetIntValue@LoadedMod@@QEAAHPEB_WH@Z 0000000180011b80 f   mod.obj
 0001:00010d00       ?GetStringValue@LoadedMod@@QEAA_KPEB_WPEA_W_K@Z 0000000180011d00 f   mod.obj
 0001:00010fe0       ?SetStringValue@LoadedMod@@QEAAHPEB_W0@Z 0000000180011fe0 f   mod.obj
 0001:00011160       ?GetBinaryValue@LoadedMod@@QEAA_KPEB_WPEAX_K@Z 0000000180012160 f   mod.obj
 0001:000113c0       ?SetBinaryValue@LoadedMod@@QEAAHPEB_WPEBX_K@Z 00000001800123c0 f   mod.obj
 0001:00011500       ?DeleteValue@LoadedMod@@QEAAHPEB_W@Z 0000000180012500 f   mod.obj
 0001:00011640       ?GetModStoragePath@LoadedMod@@QEAA_KPEA_W_K@Z 0000000180012640 f   mod.obj
 0001:00011810       ?GetIntSetting@LoadedMod@@QEAAHPEB_WPEAD@Z 0000000180012810 f   mod.obj
 0001:00011a80       ?GetStringSetting@LoadedMod@@QEAAPEB_WPEB_WPEAD@Z 0000000180012a80 f   mod.obj
 0001:00011e00       ?SetFunctionHook@LoadedMod@@QEAAHPEAX0PEAPEAX@Z 0000000180012e00 f   mod.obj
 0001:00012220       ?RemoveFunctionHook@LoadedMod@@QEAAHPEAX@Z 0000000180013220 f   mod.obj
 0001:000124d0       ?ApplyHookOperations@LoadedMod@@QEAAHXZ 00000001800134d0 f   mod.obj
 0001:00012700       ?FindFirstSymbol4@LoadedMod@@QEAAPEAXPEAUHINSTANCE__@@PEBUtagWH_FIND_SYMBOL_OPTIONS@@PEAUtagWH_FIND_SYMBOL@@@Z 0000000180013700 f   mod.obj
 0001:000137b0       ?FindNextSymbol2@LoadedMod@@QEAAHPEAXPEAUtagWH_FIND_SYMBOL@@@Z 00000001800147b0 f   mod.obj
 0001:000138a0       ?FindCloseSymbol@LoadedMod@@QEAAXPEAX@Z 00000001800148a0 f   mod.obj
 0001:00013920       ??1SymbolEnum@@QEAA@XZ     0000000180014920 f i mod.obj
 0001:00013990       ??1ModuleInfo@SymbolEnum@@QEAA@XZ 0000000180014990 f i mod.obj
 0001:000139a0       ??1?$unique_any_t@V?$unique_storage@U?$resource_policy@PEA_WP6AXPEA_W@Z$1?MySysFreeString@@YAX0@ZU?$integral_constant@_K$0A@@wistd@@PEA_WPEA_W$0A@$$T@details@wil@@@details@wil@@@wil@@QEAA@XZ 00000001800149a0 f i mod.obj
 0001:000139c0       ?HookSymbols@LoadedMod@@QEAAHPEAUHINSTANCE__@@PEBUtagWH_SYMBOL_HOOK@@_KPEBUtagWH_HOOK_SYMBOLS_OPTIONS@@@Z 00000001800149c0 f   mod.obj
 0001:00015210       ?GetUrlContent@LoadedMod@@QEAAPEBUtagWH_URL_CONTENT@@PEB_WPEBUtagWH_GET_URL_CONTENT_OPTIONS@@@Z 0000000180016210 f   mod.obj
 0001:00016060       ?FreeUrlContent@LoadedMod@@QEAAXPEBUtagWH_URL_CONTENT@@@Z 0000000180017060 f   mod.obj
 0001:000160e0       ?HookSymbolsGetOnlineCache@LoadedMod@@AEAA?AV?$optional@V?$basic_string@_WU?$char_traits@_W@std@@V?$allocator@_W@2@@std@@@std@@PEB_WV?$basic_string_view@_WU?$char_traits@_W@std@@@3@@Z 00000001800170e0 f   mod.obj
 0001:00016810       ?SetTask@LoadedMod@@AEAAXPEB_W@Z 0000000180017810 f   mod.obj
 0001:00016840       ??0Mod@@QEAA@PEB_W@Z       0000000180017840 f   mod.obj
 0001:000168e0       ?Load@Mod@@QEAA_N_N@Z      00000001800178e0 f   mod.obj
 0001:00016d30       ?ApplyChangedSettings@Mod@@QEAA_NPEA_N@Z 0000000180017d30 f   mod.obj
 0001:00016fc0       ?ShouldLoadInRunningProcess@Mod@@SA_NPEB_W@Z 0000000180017fc0 f   mod.obj
 0001:00017790       ?SetStatus@Mod@@AEAAXPEB_W@Z 0000000180018790 f   mod.obj
 0001:000177c0       ??$?H_WU?$char_traits@_W@std@@V?$allocator@_W@1@@std@@YA?AV?$basic_string@_WU?$char_traits@_W@std@@V?$allocator@_W@2@@0@$$QEAV10@QEB_W@Z 00000001800187c0 f i mod.obj
 0001:00017830       ??$QueryFullProcessImageNameW@V?$basic_string@_WU?$char_traits@_W@std@@V?$allocator@_W@2@@std@@$0BAA@@wil@@YA?AV?$basic_string@_WU?$char_traits@_W@std@@V?$allocator@_W@2@@std@@PEAXK@Z 0000000180018830 f i mod.obj
 0001:000178f0       ??$?H_WU?$char_traits@_W@std@@V?$allocator@_W@1@@std@@YA?AV?$basic_string@_WU?$char_traits@_W@std@@V?$allocator@_W@2@@0@AEBV10@_W@Z 00000001800188f0 f i mod.obj
 0001:00017a00       ??$GetModuleFileNameW@V?$basic_string@_WU?$char_traits@_W@std@@V?$allocator@_W@2@@std@@$0IA@@wil@@YA?AV?$basic_string@_WU?$char_traits@_W@std@@V?$allocator@_W@2@@std@@PEAUHINSTANCE__@@@Z 0000000180018a00 f i mod.obj
 0001:00017ac0       ??$swprintf_s@$0CJ@@@YAHAEAY0CJ@_WPEB_WZZ 0000000180018ac0 f i mod.obj
 0001:00017b20       ??$?H_WU?$char_traits@_W@std@@V?$allocator@_W@1@@std@@YA?AV?$basic_string@_WU?$char_traits@_W@std@@V?$allocator@_W@2@@0@QEB_WAEBV10@@Z 0000000180018b20 f i mod.obj
 0001:00017c60       ??$?H_WU?$char_traits@_W@std@@V?$allocator@_W@1@@std@@YA?AV?$basic_string@_WU?$char_traits@_W@std@@V?$allocator@_W@2@@0@QEB_W$$QEAV10@@Z 0000000180018c60 f i mod.obj
 0001:00017da0       ??$swprintf_s@$0DN@@@YAHAEAY0DN@_WPEB_WZZ 0000000180018da0 f i mod.obj
 0001:00017e60       ??1?$vector@V?$basic_string@DU?$char_traits@D@std@@V?$allocator@D@2@@std@@V?$allocator@V?$basic_string@DU?$char_traits@D@std@@V?$allocator@D@2@@std@@@2@@std@@QEAA@XZ 0000000180018e60 f i mod.obj
 0001:00017f00       ??1?$unique_ptr@UtagWH_URL_CONTENT@@U?$default_delete@UtagWH_URL_CONTENT@@@std@@@std@@QEAA@XZ 0000000180018f00 f i mod.obj
 0001:00017f00       ??1?$unique_ptr@VSandboxObject@ModSandbox@@U?$default_delete@VSandboxObject@ModSandbox@@@std@@@std@@QEAA@XZ 0000000180018f00 f i mod.obj
 0001:00017fc0       ??1?$unique_ptr@VSymbolEnum@@U?$default_delete@VSymbolEnum@@@std@@@std@@QEAA@XZ 0000000180018fc0 f i mod.obj
 0001:00018080       ??1?$com_ptr_t@UIDiaDataSource@@Uerr_exception_policy@wil@@@wil@@QEAA@XZ 0000000180019080 f i symbol_enum.obj
 0001:00018080       ??1?$com_ptr_t@UIDiaEnumSymbols@@Uerr_exception_policy@wil@@@wil@@QEAA@XZ 0000000180019080 f i mod.obj
 0001:00018080       ??1?$com_ptr_t@UIDiaSession@@Uerr_exception_policy@wil@@@wil@@QEAA@XZ 0000000180019080 f i symbol_enum.obj
 0001:00018080       ??1?$com_ptr_t@UIDiaSymbol@@Uerr_exception_policy@wil@@@wil@@QEAA@XZ 0000000180019080 f i mod.obj
 0001:000180a0       ??1?$unique_ptr@VLoadedMod@@U?$default_delete@VLoadedMod@@@std@@@std@@QEAA@XZ 00000001800190a0 f i mod.obj
 0001:000180d0       ??4?$unique_any_t@V?$unique_storage@U?$resource_policy@PEAUHINSTANCE__@@P6AHPEAU1@@Z$1?FreeLibrary@@YAH0@ZU?$integral_constant@_K$0A@@wistd@@PEAU1@PEAU1@$0A@$$T@details@wil@@@details@wil@@@wil@@QEAAAEAV01@$$QEAV01@@Z 00000001800190d0 f i mod.obj
 0001:00018210       ??0?$basic_string@_WU?$char_traits@_W@std@@V?$allocator@_W@2@@std@@QEAA@U_String_constructor_concat_tag@1@AEAV01@1@Z 0000000180019210 f i mod.obj
 0001:00018b20       ??$_Emplace_reallocate@V?$basic_string@DU?$char_traits@D@std@@V?$allocator@D@2@@std@@@?$vector@V?$basic_string@DU?$char_traits@D@std@@V?$allocator@D@2@@std@@V?$allocator@V?$basic_string@DU?$char_traits@D@std@@V?$allocator@D@2@@std@@@2@@std@@AEAAPEAV?$basic_string@DU?$char_traits@D@std@@V?$allocator@D@2@@1@QEAV21@$$QEAV21@@Z 0000000180019b20 f i mod.obj
 0001:00018d90       ??$_Emplace_reallocate@AEBQEAX@?$vector@PEAXV?$allocator@PEAX@std@@@std@@AEAAPEAPEAXQEAPEAXAEBQEAX@Z 0000000180019d90 f i mod.obj
 0001:00018d90       ??$_Emplace_reallocate@PEBUtagWH_SYMBOL_HOOK@@@?$vector@PEBUtagWH_SYMBOL_HOOK@@V?$allocator@PEBUtagWH_SYMBOL_HOOK@@@std@@@std@@AEAAPEAPEBUtagWH_SYMBOL_HOOK@@QEAPEBU2@$$QEAPEBU2@@Z 0000000180019d90 f i mod.obj
 0001:00018f10       ?_Swap@?$_Func_class@XH@std@@IEAAXAEAV12@@Z 0000000180019f10 f i mod.obj
 0001:00018f10       ?_Swap@?$_Func_class@_N$$V@std@@IEAAXAEAV12@@Z 0000000180019f10 f i mod.obj
 0001:00019050       ??$AdaptFixedSizeToAllocatedResult@V?$basic_string@_WU?$char_traits@_W@std@@V?$allocator@_W@2@@std@@$0IA@@wil@@YAJAEAV?$basic_string@_WU?$char_traits@_W@std@@V?$allocator@_W@2@@std@@V?$function@$$A6AJPEA_W_KPEA_K@Z@wistd@@@Z 000000018001a050 f i mod.obj
 0001:00019380       ?__clone@?$__func@V<lambda_1>@?1???$QueryFullProcessImageNameW@V?$basic_string@_WU?$char_traits@_W@std@@V?$allocator@_W@2@@std@@$0BAA@@wil@@YAJPEAXKAEAV?$basic_string@_WU?$char_traits@_W@std@@V?$allocator@_W@2@@std@@@Z@$$A6AJPEA_W_KPEA_K@Z@__function@wistd@@UEBAXPEAV?$__base@$$A6AJPEA_W_KPEA_K@Z@23@@Z 000000018001a380 f i mod.obj
 0001:00019380       ?__move@?$__func@V<lambda_1>@?1???$QueryFullProcessImageNameW@V?$basic_string@_WU?$char_traits@_W@std@@V?$allocator@_W@2@@std@@$0BAA@@wil@@YAJPEAXKAEAV?$basic_string@_WU?$char_traits@_W@std@@V?$allocator@_W@2@@std@@@Z@$$A6AJPEA_W_KPEA_K@Z@__function@wistd@@UEAAXPEAV?$__base@$$A6AJPEA_W_KPEA_K@Z@23@@Z 000000018001a380 f i mod.obj
 0001:000193a0       ??R?$__func@V<lambda_1>@?1???$QueryFullProcessImageNameW@V?$basic_string@_WU?$char_traits@_W@std@@V?$allocator@_W@2@@std@@$0BAA@@wil@@YAJPEAXKAEAV?$basic_string@_WU?$char_traits@_W@std@@V?$allocator@_W@2@@std@@@Z@$$A6AJPEA_W_KPEA_K@Z@__function@wistd@@UEAAJ$$QEAPEA_W$$QEA_K$$QEAPEA_K@Z 000000018001a3a0 f i mod.obj
 0001:00019500       ??_E?$__func@V<lambda_1>@?1???$K32GetModuleFileNameExW@V?$basic_string@_WU?$char_traits@_W@std@@V?$allocator@_W@2@@std@@$0IA@@wil@@YAJPEAXPEAUHINSTANCE__@@AEAV?$basic_string@_WU?$char_traits@_W@std@@V?$allocator@_W@2@@std@@@Z@$$A6AJPEA_W_KPEA_K@Z@__function@wistd@@UEAAPEAXI@Z 000000018001a500 f i * CIL library *:* CIL module *
 0001:00019500       ??_E?$__func@V<lambda_1>@?1???$QueryFullProcessImageNameW@V?$basic_string@_WU?$char_traits@_W@std@@V?$allocator@_W@2@@std@@$0BAA@@wil@@YAJPEAXKAEAV?$basic_string@_WU?$char_traits@_W@std@@V?$allocator@_W@2@@std@@@Z@$$A6AJPEA_W_KPEA_K@Z@__function@wistd@@UEAAPEAXI@Z 000000018001a500 f i * CIL library *:* CIL module *
 0001:00019500       ??_G?$__func@V<lambda_1>@?1???$K32GetModuleFileNameExW@V?$basic_string@_WU?$char_traits@_W@std@@V?$allocator@_W@2@@std@@$0IA@@wil@@YAJPEAXPEAUHINSTANCE__@@AEAV?$basic_string@_WU?$char_traits@_W@std@@V?$allocator@_W@2@@std@@@Z@$$A6AJPEA_W_KPEA_K@Z@__function@wistd@@UEAAPEAXI@Z 000000018001a500 f i mod.obj
 0001:00019500       ??_G?$__func@V<lambda_1>@?1???$QueryFullProcessImageNameW@V?$basic_string@_WU?$char_traits@_W@std@@V?$allocator@_W@2@@std@@$0BAA@@wil@@YAJPEAXKAEAV?$basic_string@_WU?$char_traits@_W@std@@V?$allocator@_W@2@@std@@@Z@$$A6AJPEA_W_KPEA_K@Z@__function@wistd@@UEAAPEAXI@Z 000000018001a500 f i mod.obj
 0001:00019530       ?__clone@?$__func@V<lambda_1>@?1???$K32GetModuleFileNameExW@V?$basic_string@_WU?$char_traits@_W@std@@V?$allocator@_W@2@@std@@$0IA@@wil@@YAJPEAXPEAUHINSTANCE__@@AEAV?$basic_string@_WU?$char_traits@_W@std@@V?$allocator@_W@2@@std@@@Z@$$A6AJPEA_W_KPEA_K@Z@__function@wistd@@UEBAXPEAV?$__base@$$A6AJPEA_W_KPEA_K@Z@23@@Z 000000018001a530 f i mod.obj
 0001:00019530       ?__move@?$__func@V<lambda_1>@?1???$K32GetModuleFileNameExW@V?$basic_string@_WU?$char_traits@_W@std@@V?$allocator@_W@2@@std@@$0IA@@wil@@YAJPEAXPEAUHINSTANCE__@@AEAV?$basic_string@_WU?$char_traits@_W@std@@V?$allocator@_W@2@@std@@@Z@$$A6AJPEA_W_KPEA_K@Z@__function@wistd@@UEAAXPEAV?$__base@$$A6AJPEA_W_KPEA_K@Z@23@@Z 000000018001a530 f i mod.obj
 0001:00019550       ??R?$__func@V<lambda_1>@?1???$K32GetModuleFileNameExW@V?$basic_string@_WU?$char_traits@_W@std@@V?$allocator@_W@2@@std@@$0IA@@wil@@YAJPEAXPEAUHINSTANCE__@@AEAV?$basic_string@_WU?$char_traits@_W@std@@V?$allocator@_W@2@@std@@@Z@$$A6AJPEA_W_KPEA_K@Z@__function@wistd@@UEAAJ$$QEAPEA_W$$QEA_K$$QEAPEA_K@Z 000000018001a550 f i mod.obj
 0001:00019600       ??$_Reallocate_grow_by@V<lambda_1>@?1??insert@?$basic_string@_WU?$char_traits@_W@std@@V?$allocator@_W@2@@std@@QEAAAEAV34@_KQEB_W0@Z@_KPEB_W_K@?$basic_string@_WU?$char_traits@_W@std@@V?$allocator@_W@2@@std@@AEAAAEAV01@_KV<lambda_1>@?1??insert@01@QEAAAEAV01@0QEB_W0@Z@_KPEB_W3@Z 000000018001a600 f i mod.obj
 0001:00019780       ?_Throw_Win32@in1diag3@details@wil@@YAXPEAXIPEBDK@Z 000000018001a780 f i mod.obj
 0001:000197a0       ??$_Reallocate_grow_by@V<lambda_1>@?1??append@?$basic_string@DU?$char_traits@D@std@@V?$allocator@D@2@@std@@QEAAAEAV34@_KD@Z@_KD@?$basic_string@DU?$char_traits@D@std@@V?$allocator@D@2@@std@@AEAAAEAV01@_KV<lambda_1>@?1??append@01@QEAAAEAV01@0D@Z@_KD@Z 000000018001a7a0 f i mod.obj
 0001:000198f0       ??1?$unique_ptr@$$BY0A@_WU?$default_delete@$$BY0A@_W@std@@@std@@QEAA@XZ 000000018001a8f0 f i mod.obj
 0001:00019900       ??$ReportFailure_Hr@$02@details@wil@@YAXPEAXIPEBD110JW4FailureFlags@1@@Z 000000018001a900 f i mod.obj
 0001:00019950       ?FailFast_Unexpected@in1diag3@details@wil@@YAXPEAXIPEBD@Z 000000018001a950 f i mod.obj
 0001:00019970       ??1?$unique_any_t@V?$unique_storage@U?$resource_policy@PEAXP6AXPEAX@_E$1?ReleaseMutex@details@wil@@YAX0@ZU?$integral_constant@_K$01@wistd@@PEAXPEAX$0A@$$T@details@wil@@@details@wil@@@wil@@QEAA@XZ 000000018001a970 f i mod.obj
 0001:000199a0       ??1?$unique_any_t@V?$event_t@V?$unique_storage@U?$resource_policy@PEAXP6AXPEAX@_E$1?CloseHandle@details@wil@@YAX0@ZU?$integral_constant@_K$0A@@wistd@@PEAXPEAX$0A@$$T@details@wil@@@details@wil@@Uerr_returncode_policy@3@@wil@@@wil@@QEAA@XZ 000000018001a9a0 f i customization_session.obj
 0001:000199a0       ??1?$unique_any_t@V?$mutex_t@V?$unique_storage@U?$resource_policy@PEAXP6AXPEAX@_E$1?CloseHandle@details@wil@@YAX0@ZU?$integral_constant@_K$0A@@wistd@@PEAXPEAX$0A@$$T@details@wil@@@details@wil@@Uerr_returncode_policy@3@@wil@@@wil@@QEAA@XZ 000000018001a9a0 f i mod.obj
 0001:000199a0       ??1?$unique_any_t@V?$semaphore_t@V?$unique_storage@U?$resource_policy@PEAXP6AXPEAX@_E$1?CloseHandle@details@wil@@YAX0@ZU?$integral_constant@_K$0A@@wistd@@PEAXPEAX$0A@$$T@details@wil@@@details@wil@@Uerr_exception_policy@3@@wil@@@wil@@QEAA@XZ 000000018001a9a0 f i customization_session.obj
 0001:000199a0       ??1?$unique_storage@U?$resource_policy@PEAXP6AXPEAX@_E$1?CloseHandle@details@wil@@YAX0@ZU?$integral_constant@_K$0A@@wistd@@PEAXPEAX$0A@$$T@details@wil@@@details@wil@@QEAA@XZ 000000018001a9a0 f i mod.obj
 0001:000199d0       ??$ReportFailure_NoReturn@$02@details@wil@@YAXPEAXIPEBD110AEBUResultStatus@01@PEB_WW4ReportFailureOptions@01@@Z 000000018001a9d0 f i mod.obj
 0001:00019c20       ??$ReportFailure_Base@$02$0A@@details@wil@@YAXPEAXIPEBD110AEBUResultStatus@01@PEB_WW4ReportFailureOptions@01@W4FailureFlags@1@@Z 000000018001ac20 f i mod.obj
 0001:00019c50       ??$ReportFailure_GetLastError@$02@details@wil@@YAKPEAXIPEBD110@Z 000000018001ac50 f i mod.obj
 0001:00019cc0       ?_FailFast_GetLastError@in1diag3@details@wil@@YAXPEAXIPEBD@Z 000000018001acc0 f i mod.obj
 0001:00019ce0       ?ApplyThreadLimits@SandboxObject@ModSandbox@@QEAA_NPEAX@Z 000000018001ace0 f   mod_sandbox.obj
 0001:00019f40       InternalWh_IsLogEnabled    000000018001af40 f   mods_api.obj
 0001:00019f60       InternalWh_Log             000000018001af60 f   mods_api.obj
 0001:0001a000       InternalWh_GetIntValue     000000018001b000 f   mods_api.obj
 0001:0001a010       InternalWh_SetIntValue     000000018001b010 f   mods_api.obj
 0001:0001a020       InternalWh_GetStringValue  000000018001b020 f   mods_api.obj
 0001:0001a030       InternalWh_SetStringValue  000000018001b030 f   mods_api.obj
 0001:0001a040       InternalWh_GetBinaryValue  000000018001b040 f   mods_api.obj
 0001:0001a050       InternalWh_SetBinaryValue  000000018001b050 f   mods_api.obj
 0001:0001a060       InternalWh_DeleteValue     000000018001b060 f   mods_api.obj
 0001:0001a070       InternalWh_GetModStoragePath 000000018001b070 f   mods_api.obj
 0001:0001a080       InternalWh_GetIntSetting   000000018001b080 f   mods_api.obj
 0001:0001a090       InternalWh_GetStringSetting 000000018001b090 f   mods_api.obj
 0001:0001a0a0       InternalWh_FreeStringSetting 000000018001b0a0 f   mods_api.obj
 0001:0001a120       InternalWh_SetFunctionHook 000000018001b120 f   mods_api.obj
 0001:0001a130       InternalWh_RemoveFunctionHook 000000018001b130 f   mods_api.obj
 0001:0001a140       InternalWh_ApplyHookOperations 000000018001b140 f   mods_api.obj
 0001:0001a150       ?InternalWh_FindFirstSymbol@@YAPEAXPEAXPEAUHINSTANCE__@@PEB_WPEAE@Z 000000018001b150 f   mods_api.obj
 0001:0001a1d0       ?InternalWh_FindFirstSymbol2@@YAPEAXPEAXPEAUHINSTANCE__@@PEB_WPEAUtagWH_FIND_SYMBOL@@@Z 000000018001b1d0 f   mods_api.obj
 0001:0001a220       ?InternalWh_FindFirstSymbol3@@YAPEAXPEAXPEAUHINSTANCE__@@PEBEPEAUtagWH_FIND_SYMBOL@@@Z 000000018001b220 f   mods_api.obj
 0001:0001a290       InternalWh_FindFirstSymbol4 000000018001b290 f   mods_api.obj
 0001:0001a2a0       ?InternalWh_FindNextSymbol@@YAHPEAX0PEAE@Z 000000018001b2a0 f   mods_api.obj
 0001:0001a2e0       InternalWh_FindNextSymbol2 000000018001b2e0 f   mods_api.obj
 0001:0001a2f0       InternalWh_FindCloseSymbol 000000018001b2f0 f   mods_api.obj
 0001:0001a300       InternalWh_HookSymbols     000000018001b300 f   mods_api.obj
 0001:0001a310       InternalWh_Disasm          000000018001b310 f   mods_api.obj
 0001:0001a3e0       InternalWh_GetUrlContent   000000018001b3e0 f   mods_api.obj
 0001:0001a3f0       InternalWh_FreeUrlContent  000000018001b3f0 f   mods_api.obj
 0001:0001a470       ??0ModsManager@@QEAA@XZ    000000018001b470 f   mods_manager.obj
 0001:0001a5f0       ??1?$unordered_map@V?$basic_string@_WU?$char_traits@_W@std@@V?$allocator@_W@2@@std@@VMod@@U?$hash@V?$basic_string@_WU?$char_traits@_W@std@@V?$allocator@_W@2@@std@@@2@U?$equal_to@V?$basic_string@_WU?$char_traits@_W@std@@V?$allocator@_W@2@@std@@@2@V?$allocator@U?$pair@$$CBV?$basic_string@_WU?$char_traits@_W@std@@V?$allocator@_W@2@@std@@VMod@@@std@@@2@@std@@QEAA@XZ 000000018001b5f0 f i mods_manager.obj
 0001:0001a610       ??1ModsManager@@QEAA@XZ    000000018001b610 f   mods_manager.obj
 0001:0001a810       ?AfterInit@ModsManager@@QEAAXXZ 000000018001b810 f   mods_manager.obj
 0001:0001a8e0       ?BeforeUninit@ModsManager@@QEAAXXZ 000000018001b8e0 f   mods_manager.obj
 0001:0001a940       ?ReloadModsAndSettings@ModsManager@@QEAAXXZ 000000018001b940 f   mods_manager.obj
 0001:0001b6f0       ??1?$unordered_set@V?$basic_string@_WU?$char_traits@_W@std@@V?$allocator@_W@2@@std@@U?$hash@V?$basic_string@_WU?$char_traits@_W@std@@V?$allocator@_W@2@@std@@@2@U?$equal_to@V?$basic_string@_WU?$char_traits@_W@std@@V?$allocator@_W@2@@std@@@2@V?$allocator@V?$basic_string@_WU?$char_traits@_W@std@@V?$allocator@_W@2@@std@@@2@@std@@QEAA@XZ 000000018001c6f0 f i mods_manager.obj
 0001:0001b700       ??1?$_Hash@V?$_Uset_traits@V?$basic_string@_WU?$char_traits@_W@std@@V?$allocator@_W@2@@std@@V?$_Uhash_compare@V?$basic_string@_WU?$char_traits@_W@std@@V?$allocator@_W@2@@std@@U?$hash@V?$basic_string@_WU?$char_traits@_W@std@@V?$allocator@_W@2@@std@@@2@U?$equal_to@V?$basic_string@_WU?$char_traits@_W@std@@V?$allocator@_W@2@@std@@@2@@2@V?$allocator@V?$basic_string@_WU?$char_traits@_W@std@@V?$allocator@_W@2@@std@@@2@$0A@@std@@@std@@QEAA@XZ 000000018001c700 f i mods_manager.obj
 0001:0001b7d0       ??$emplace@AEAPEB_WAEAPEB_W@?$_Hash@V?$_Umap_traits@V?$basic_string@_WU?$char_traits@_W@std@@V?$allocator@_W@2@@std@@VMod@@V?$_Uhash_compare@V?$basic_string@_WU?$char_traits@_W@std@@V?$allocator@_W@2@@std@@U?$hash@V?$basic_string@_WU?$char_traits@_W@std@@V?$allocator@_W@2@@std@@@2@U?$equal_to@V?$basic_string@_WU?$char_traits@_W@std@@V?$allocator@_W@2@@std@@@2@@2@V?$allocator@U?$pair@$$CBV?$basic_string@_WU?$char_traits@_W@std@@V?$allocator@_W@2@@std@@VMod@@@std@@@2@$0A@@std@@@std@@QEAA?AU?$pair@V?$_List_iterator@V?$_List_val@U?$_List_simple_types@U?$pair@$$CBV?$basic_string@_WU?$char_traits@_W@std@@V?$allocator@_W@2@@std@@VMod@@@std@@@std@@@std@@@std@@_N@1@AEAPEB_W0@Z 000000018001c7d0 f i mods_manager.obj
 0001:0001ba60       ??$emplace@AEAPEB_W@?$_Hash@V?$_Uset_traits@V?$basic_string@_WU?$char_traits@_W@std@@V?$allocator@_W@2@@std@@V?$_Uhash_compare@V?$basic_string@_WU?$char_traits@_W@std@@V?$allocator@_W@2@@std@@U?$hash@V?$basic_string@_WU?$char_traits@_W@std@@V?$allocator@_W@2@@std@@@2@U?$equal_to@V?$basic_string@_WU?$char_traits@_W@std@@V?$allocator@_W@2@@std@@@2@@2@V?$allocator@V?$basic_string@_WU?$char_traits@_W@std@@V?$allocator@_W@2@@std@@@2@$0A@@std@@@std@@QEAA?AU?$pair@V?$_List_const_iterator@V?$_List_val@U?$_List_simple_types@V?$basic_string@_WU?$char_traits@_W@std@@V?$allocator@_W@2@@std@@@std@@@std@@@std@@_N@1@AEAPEB_W@Z 000000018001ca60 f i mods_manager.obj
 0001:0001bd60       ??$emplace@AEBV?$basic_string@_WU?$char_traits@_W@std@@V?$allocator@_W@2@@std@@PEB_W@?$_Hash@V?$_Umap_traits@V?$basic_string@_WU?$char_traits@_W@std@@V?$allocator@_W@2@@std@@VMod@@V?$_Uhash_compare@V?$basic_string@_WU?$char_traits@_W@std@@V?$allocator@_W@2@@std@@U?$hash@V?$basic_string@_WU?$char_traits@_W@std@@V?$allocator@_W@2@@std@@@2@U?$equal_to@V?$basic_string@_WU?$char_traits@_W@std@@V?$allocator@_W@2@@std@@@2@@2@V?$allocator@U?$pair@$$CBV?$basic_string@_WU?$char_traits@_W@std@@V?$allocator@_W@2@@std@@VMod@@@std@@@2@$0A@@std@@@std@@QEAA?AU?$pair@V?$_List_iterator@V?$_List_val@U?$_List_simple_types@U?$pair@$$CBV?$basic_string@_WU?$char_traits@_W@std@@V?$allocator@_W@2@@std@@VMod@@@std@@@std@@@std@@@std@@_N@1@AEBV?$basic_string@_WU?$char_traits@_W@std@@V?$allocator@_W@2@@1@$$QEAPEB_W@Z 000000018001cd60 f i mods_manager.obj
 0001:0001bfb0       ??1?$list@V?$basic_string@_WU?$char_traits@_W@std@@V?$allocator@_W@2@@std@@V?$allocator@V?$basic_string@_WU?$char_traits@_W@std@@V?$allocator@_W@2@@std@@@2@@std@@QEAA@XZ 000000018001cfb0 f i mods_manager.obj
 0001:0001c020       ??1?$list@U?$pair@$$CBV?$basic_string@_WU?$char_traits@_W@std@@V?$allocator@_W@2@@std@@VMod@@@std@@V?$allocator@U?$pair@$$CBV?$basic_string@_WU?$char_traits@_W@std@@V?$allocator@_W@2@@std@@VMod@@@std@@@2@@std@@QEAA@XZ 000000018001d020 f i mods_manager.obj
 0001:0001c090       ??$_Find_last@V?$basic_string@_WU?$char_traits@_W@std@@V?$allocator@_W@2@@std@@@?$_Hash@V?$_Umap_traits@V?$basic_string@_WU?$char_traits@_W@std@@V?$allocator@_W@2@@std@@VMod@@V?$_Uhash_compare@V?$basic_string@_WU?$char_traits@_W@std@@V?$allocator@_W@2@@std@@U?$hash@V?$basic_string@_WU?$char_traits@_W@std@@V?$allocator@_W@2@@std@@@2@U?$equal_to@V?$basic_string@_WU?$char_traits@_W@std@@V?$allocator@_W@2@@std@@@2@@2@V?$allocator@U?$pair@$$CBV?$basic_string@_WU?$char_traits@_W@std@@V?$allocator@_W@2@@std@@VMod@@@std@@@2@$0A@@std@@@std@@IEBA?AU?$_Hash_find_last_result@PEAU?$_List_node@U?$pair@$$CBV?$basic_string@_WU?$char_traits@_W@std@@V?$allocator@_W@2@@std@@VMod@@@std@@PEAX@std@@@1@AEBV?$basic_string@_WU?$char_traits@_W@std@@V?$allocator@_W@2@@1@_K@Z 000000018001d090 f i mods_manager.obj
 0001:0001c090       ??$_Find_last@V?$basic_string@_WU?$char_traits@_W@std@@V?$allocator@_W@2@@std@@@?$_Hash@V?$_Uset_traits@V?$basic_string@_WU?$char_traits@_W@std@@V?$allocator@_W@2@@std@@V?$_Uhash_compare@V?$basic_string@_WU?$char_traits@_W@std@@V?$allocator@_W@2@@std@@U?$hash@V?$basic_string@_WU?$char_traits@_W@std@@V?$allocator@_W@2@@std@@@2@U?$equal_to@V?$basic_string@_WU?$char_traits@_W@std@@V?$allocator@_W@2@@std@@@2@@2@V?$allocator@V?$basic_string@_WU?$char_traits@_W@std@@V?$allocator@_W@2@@std@@@2@$0A@@std@@@std@@IEBA?AU?$_Hash_find_last_result@PEAU?$_List_node@V?$basic_string@_WU?$char_traits@_W@std@@V?$allocator@_W@2@@std@@PEAX@std@@@1@AEBV?$basic_string@_WU?$char_traits@_W@std@@V?$allocator@_W@2@@1@_K@Z 000000018001d090 f i mods_manager.obj
 0001:0001c170       ??1?$_List_node_emplace_op2@V?$allocator@U?$_List_node@V?$basic_string@_WU?$char_traits@_W@std@@V?$allocator@_W@2@@std@@PEAX@std@@@std@@@std@@QEAA@XZ 000000018001d170 f i mods_manager.obj
 0001:0001c1b0       ??1?$_List_node_emplace_op2@V?$allocator@U?$_List_node@U?$pair@$$CBV?$basic_string@_WU?$char_traits@_W@std@@V?$allocator@_W@2@@std@@VMod@@@std@@PEAX@std@@@std@@@std@@QEAA@XZ 000000018001d1b0 f i mods_manager.obj
 0001:0001c1f0       ?_Rehash_for_1@?$_Hash@V?$_Umap_traits@V?$basic_string@_WU?$char_traits@_W@std@@V?$allocator@_W@2@@std@@VMod@@V?$_Uhash_compare@V?$basic_string@_WU?$char_traits@_W@std@@V?$allocator@_W@2@@std@@U?$hash@V?$basic_string@_WU?$char_traits@_W@std@@V?$allocator@_W@2@@std@@@2@U?$equal_to@V?$basic_string@_WU?$char_traits@_W@std@@V?$allocator@_W@2@@std@@@2@@2@V?$allocator@U?$pair@$$CBV?$basic_string@_WU?$char_traits@_W@std@@V?$allocator@_W@2@@std@@VMod@@@std@@@2@$0A@@std@@@std@@IEAAXXZ 000000018001d1f0 f i mods_manager.obj
 0001:0001c2b0       ??$_Emplace_reallocate@AEAPEB_W@?$vector@V?$basic_string@_WU?$char_traits@_W@std@@V?$allocator@_W@2@@std@@V?$allocator@V?$basic_string@_WU?$char_traits@_W@std@@V?$allocator@_W@2@@std@@@2@@std@@AEAAPEAV?$basic_string@_WU?$char_traits@_W@std@@V?$allocator@_W@2@@1@QEAV21@AEAPEB_W@Z 000000018001d2b0 f i mods_manager.obj
 0001:0001c530       ??$_Emplace_reallocate@UThreadCallStackRegionInfo@@@?$vector@UThreadCallStackRegionInfo@@V?$allocator@UThreadCallStackRegionInfo@@@std@@@std@@AEAAPEAUThreadCallStackRegionInfo@@QEAU2@$$QEAU2@@Z 000000018001d530 f i mods_manager.obj
 0001:0001c690       ??$destroy@U?$pair@$$CBV?$basic_string@_WU?$char_traits@_W@std@@V?$allocator@_W@2@@std@@VMod@@@std@@@?$_Default_allocator_traits@V?$allocator@U?$_List_node@U?$pair@$$CBV?$basic_string@_WU?$char_traits@_W@std@@V?$allocator@_W@2@@std@@VMod@@@std@@PEAX@std@@@std@@@std@@SAXAEAV?$allocator@U?$_List_node@U?$pair@$$CBV?$basic_string@_WU?$char_traits@_W@std@@V?$allocator@_W@2@@std@@VMod@@@std@@PEAX@std@@@1@QEAU?$pair@$$CBV?$basic_string@_WU?$char_traits@_W@std@@V?$allocator@_W@2@@std@@VMod@@@1@@Z 000000018001d690 f i mods_manager.obj
 0001:0001c7a0       ??1?$_Alloc_construct_ptr@V?$allocator@U?$_List_node@U?$pair@$$CBV?$basic_string@_WU?$char_traits@_W@std@@V?$allocator@_W@2@@std@@VMod@@@std@@PEAX@std@@@std@@@std@@QEAA@XZ 000000018001d7a0 f i mods_manager.obj
 0001:0001c7c0       ?_Forced_rehash@?$_Hash@V?$_Umap_traits@V?$basic_string@_WU?$char_traits@_W@std@@V?$allocator@_W@2@@std@@VMod@@V?$_Uhash_compare@V?$basic_string@_WU?$char_traits@_W@std@@V?$allocator@_W@2@@std@@U?$hash@V?$basic_string@_WU?$char_traits@_W@std@@V?$allocator@_W@2@@std@@@2@U?$equal_to@V?$basic_string@_WU?$char_traits@_W@std@@V?$allocator@_W@2@@std@@@2@@2@V?$allocator@U?$pair@$$CBV?$basic_string@_WU?$char_traits@_W@std@@V?$allocator@_W@2@@std@@VMod@@@std@@@2@$0A@@std@@@std@@IEAAX_K@Z 000000018001d7c0 f i mods_manager.obj
 0001:0001c7c0       ?_Forced_rehash@?$_Hash@V?$_Uset_traits@V?$basic_string@_WU?$char_traits@_W@std@@V?$allocator@_W@2@@std@@V?$_Uhash_compare@V?$basic_string@_WU?$char_traits@_W@std@@V?$allocator@_W@2@@std@@U?$hash@V?$basic_string@_WU?$char_traits@_W@std@@V?$allocator@_W@2@@std@@@2@U?$equal_to@V?$basic_string@_WU?$char_traits@_W@std@@V?$allocator@_W@2@@std@@@2@@2@V?$allocator@V?$basic_string@_WU?$char_traits@_W@std@@V?$allocator@_W@2@@std@@@2@$0A@@std@@@std@@IEAAX_K@Z 000000018001d7c0 f i mods_manager.obj
 0001:0001ca50       ??1_Reallocation_guard@?$vector@V?$basic_string@_WU?$char_traits@_W@std@@V?$allocator@_W@2@@std@@V?$allocator@V?$basic_string@_WU?$char_traits@_W@std@@V?$allocator@_W@2@@std@@@2@@std@@QEAA@XZ 000000018001da50 f i mods_manager.obj
 0001:0001caf0       ?LoadStompTarget@ModuleStomp@@YAPEAXPEAXAEBV?$basic_string@_WU?$char_traits@_W@std@@V?$allocator@_W@2@@std@@@Z 000000018001daf0 f   module_stomp.obj
 0001:0001cd00       ??0NewProcessInjector@@QEAA@PEAX@Z 000000018001dd00 f   new_process_injector.obj
 0001:0001d320       ??1NewProcessInjector@@QEAA@XZ 000000018001e320 f   new_process_injector.obj
 0001:0001d3c0       ?CreateProcessInternalW_Hook@NewProcessInjector@@CAHPEAXPEB_WPEA_WPEAU_SECURITY_ATTRIBUTES@@3HK01PEAU_STARTUPINFOW@@PEAU_PROCESS_INFORMATION@@PEAPEAX@Z 000000018001e3c0 f   new_process_injector.obj
 0001:0001d520       ?HandleCreatedProcess@NewProcessInjector@@AEAAXPEAU_PROCESS_INFORMATION@@@Z 000000018001e520 f   new_process_injector.obj
 0001:0001df90       ?now@steady_clock@chrono@std@@SA?AV?$time_point@Usteady_clock@chrono@std@@V?$duration@_JU?$ratio@$00$0DLJKMKAA@@std@@@23@@23@XZ 000000018001ef90 f i new_process_injector.obj
 0001:0001e070       ??1thread@std@@QEAA@XZ     000000018001f070 f i new_process_injector.obj
 0001:0001e090       swprintf_s                 000000018001f090 f i new_process_injector.obj
 0001:0001e0f0       DllMain                    000000018001f0f0 f   main.obj
 0001:0001e120       ?LazyInitialize@@YA_NXZ    000000018001f120 f   main.obj
 0001:0001e140       ?InjectInit@@YAHPEBULOAD_LIBRARY_REMOTE_DATA@DllInject@@@Z 000000018001f140 f   main.obj
 0001:0001e250       ?GlobalHookSessionEnd@@YAHPEAX@Z 000000018001f250 f   main.obj
 0001:0001e250       ?GlobalHookSessionHandleNewProcesses@@YAHPEAX@Z 000000018001f250 f   main.obj
 0001:0001e250       ?GlobalHookSessionStart@@YAPEAXXZ 000000018001f250 f   main.obj
 0001:0001e250       ?_Get_deleter@_Ref_count_base@std@@UEBAPEAXAEBVtype_info@@@Z 000000018001f250 f   storage_manager.obj
 0001:0001e260       ??1ScopedStaticSessionManagerProcess@CustomizationSession@@QEAA@XZ 000000018001f260 f i customization_session.obj
 0001:0001e290       ?GetInstance@ScopedStaticSessionManagerProcess@CustomizationSession@@SAAEAV?$optional@V?$unique_any_t@V?$unique_storage@U?$handle_null_only_resource_policy@P6AHPEAX@Z$1?CloseHandle@@YAH0@Z@details@wil@@@details@wil@@@wil@@@std@@XZ 000000018001f290 f i customization_session.obj
 0001:0001e320       ?<lambda_invoker_cdecl>@<lambda_1>@?2???R1?3??GetInstance@ScopedStaticSessionManagerProcess@CustomizationSession@@SAAEAV?$optional@V?$unique_any_t@V?$unique_storage@U?$handle_null_only_resource_policy@P6AHPEAX@Z$1?CloseHandle@@YAH0@Z@details@wil@@@details@wil@@@wil@@@std@@XZ@QEBA@XZ@SA@XZ 000000018001f320 f i customization_session.obj
 0001:0001e760       ?Start@CustomizationSession@@SAX_N0V?$unique_any_t@V?$unique_storage@U?$handle_null_only_resource_policy@P6AHPEAX@Z$1?CloseHandle@@YAH0@Z@details@wil@@@details@wil@@@wil@@V?$unique_any_t@V?$mutex_t@V?$unique_storage@U?$resource_policy@PEAXP6AXPEAX@_E$1?CloseHandle@details@wil@@YAX0@ZU?$integral_constant@_K$0A@@wistd@@PEAXPEAX$0A@$$T@details@wil@@@details@wil@@Uerr_returncode_policy@3@@wil@@@3@@Z 000000018001f760 f   customization_session.obj
 0001:0001e9c0       ?GetSessionManagerProcessCreationTime@CustomizationSession@@SA?AU_FILETIME@@XZ 000000018001f9c0 f   customization_session.obj
 0001:0001ea40       ??0CustomizationSession@@QEAA@UConstructorSecret@0@_N1V?$unique_any_t@V?$unique_storage@U?$handle_null_only_resource_policy@P6AHPEAX@Z$1?CloseHandle@@YAH0@Z@details@wil@@@details@wil@@@wil@@V?$unique_any_t@V?$mutex_t@V?$unique_storage@U?$resource_policy@PEAXP6AXPEAX@_E$1?CloseHandle@details@wil@@YAX0@ZU?$integral_constant@_K$0A@@wistd@@PEAXPEAX$0A@$$T@details@wil@@@details@wil@@Uerr_returncode_policy@3@@wil@@@3@@Z 000000018001fa40 f   customization_session.obj
 0001:0001ee10       ??1?$unique_any_t@V?$unique_storage@U?$handle_null_only_resource_policy@P6AXPEAX@_E$1??$ClosePrivateNamespaceHelper@$0A@@details@wil@@YAX0@Z@details@wil@@@details@wil@@@wil@@QEAA@XZ 000000018001fe10 f i customization_session.obj
 0001:0001ee30       ??1?$optional@VMainLoopRunner@CustomizationSession@@@std@@QEAA@XZ 000000018001fe30 f i customization_session.obj
 0001:0001ee50       ??1CustomizationSession@@QEAA@XZ 000000018001fe50 f   customization_session.obj
 0001:0001eff0       ??1MinHookScopeInit@CustomizationSession@@QEAA@XZ 000000018001fff0 f   customization_session.obj
 0001:0001f060       ??1MinHookScopeApply@CustomizationSession@@QEAA@XZ 0000000180020060 f   customization_session.obj
 0001:0001f0d0       ??0MainLoopRunner@CustomizationSession@@QEAA@XZ 00000001800200d0 f   customization_session.obj
 0001:0001f110       ??1?$optional@VModConfigChangeNotification@StorageManager@@@std@@QEAA@XZ 0000000180020110 f i customization_session.obj
 0001:0001f120       ?Run@MainLoopRunner@CustomizationSession@@QEAA?AW4Result@12@PEAXPEAK@Z 0000000180020120 f   customization_session.obj
 0001:0001f350       ?ContinueMonitoring@MainLoopRunner@CustomizationSession@@QEAA_NXZ 0000000180020350 f   customization_session.obj
 0001:0001f400       ?GetInstance@CustomizationSession@@CAAEAV?$optional@VCustomizationSession@@@std@@XZ 0000000180020400 f   customization_session.obj
 0001:0001f4b0       ?StartInitialized@CustomizationSession@@AEAAXV?$unique_any_t@V?$semaphore_t@V?$unique_storage@U?$resource_policy@PEAXP6AXPEAX@_E$1?CloseHandle@details@wil@@YAX0@ZU?$integral_constant@_K$0A@@wistd@@PEAXPEAX$0A@$$T@details@wil@@@details@wil@@Uerr_exception_policy@3@@wil@@@wil@@V?$unique_any_t@V?$unique_storage@U?$resource_policy@PEAXP6AXPEAX@_E$1?ReleaseSemaphore@details@wil@@YAX0@ZU?$integral_constant@_K$01@wistd@@PEAXPEAX$0A@$$T@details@wil@@@details@wil@@@3@_N@Z 00000001800204b0 f   customization_session.obj
 0001:0001f870       ?RunMainLoopAndDeleteThisWithThreadRecreate@CustomizationSession@@AEAAXXZ 0000000180020870 f   customization_session.obj
 0001:0001fbc0       ?RunMainLoop@CustomizationSession@@AEAAXXZ 0000000180020bc0 f   customization_session.obj
 0001:0001fda0       ?DeleteThis@CustomizationSession@@AEAAXXZ 0000000180020da0 f   customization_session.obj
 0001:0001fed0       ??$emplace@$$V@?$optional@VMainLoopRunner@CustomizationSession@@@std@@QEAAAEAVMainLoopRunner@CustomizationSession@@XZ 0000000180020ed0 f i customization_session.obj
 0001:0001ff10       ??B?$optional@VMainLoopRunner@CustomizationSession@@@std@@QEBA_NXZ 0000000180020f10 f i customization_session.obj
 0001:0001ff20       ??C?$optional@VMainLoopRunner@CustomizationSession@@@std@@QEAAPEAVMainLoopRunner@CustomizationSession@@XZ 0000000180020f20 f i customization_session.obj
 0001:0001ff30       ??1?$variant@Umonostate@std@@URegistryState@ModConfigChangeNotification@StorageManager@@UIniFileState@45@@std@@QEAA@XZ 0000000180020f30 f i customization_session.obj
 0001:0001ff40       ?replace@?$unique_storage@U?$resource_policy@PEAXP6AXPEAX@_E$1?CloseHandle@details@wil@@YAX0@ZU?$integral_constant@_K$0A@@wistd@@PEAXPEAX$0A@$$T@details@wil@@@details@wil@@IEAAX$$QEAV123@@Z 0000000180020f40 f i customization_session.obj
 0001:0001ffc0       ?_Destroy@?$_Variant_base@Umonostate@std@@URegistryState@ModConfigChangeNotification@StorageManager@@UIniFileState@45@@std@@QEAAXXZ 0000000180020fc0 f i customization_session.obj
 0001:00020040       ??1?$unique_any_t@V?$unique_storage@U?$handle_invalid_resource_policy@P6AHPEAX@Z$1?FindCloseChangeNotification@@YAH0@Z@details@wil@@@details@wil@@@wil@@QEAA@XZ 0000000180021040 f i customization_session.obj
 0001:00020060       ?Throw_GetLastError@in1diag3@details@wil@@YAXPEAXIPEBD@Z 0000000180021060 f i customization_session.obj
 0001:00020080       ??0bad_optional_access@std@@QEAA@XZ 0000000180021080 f i customization_session.obj
 0001:000200a0       ?what@bad_optional_access@std@@UEBAPEBDXZ 00000001800210a0 f i customization_session.obj
 0001:000200b0       ??0bad_optional_access@std@@QEAA@AEBV01@@Z 00000001800210b0 f i customization_session.obj
 0001:000200f0       ?_Throw_bad_optional_access@std@@YAXXZ 00000001800210f0 f i customization_session.obj
 0001:00020120       ??1?$unique_any_t@V?$unique_storage@U?$resource_policy@PEAXP6AXPEAX@_E$1?ReleaseSemaphore@details@wil@@YAX0@ZU?$integral_constant@_K$01@wistd@@PEAXPEAX$0A@$$T@details@wil@@@details@wil@@@wil@@QEAA@XZ 0000000180021120 f i customization_session.obj
 0001:00020330       ??1?$unique_any_t@V?$unique_storage@U?$handle_null_only_resource_policy@P6AXPEAX@Z$1?DeleteBoundaryDescriptor@@YAX0@Z@details@wil@@@details@wil@@@wil@@QEAA@XZ 0000000180021330 f i session_private_namespace.obj
 0001:00020340       ??1?$unique_any_t@V?$unique_storage@U?$resource_policy@PEAXP6APEAXPEAX@Z$1?FreeSid@@YAPEAX0@ZU?$integral_constant@_K$0A@@wistd@@PEAXPEAX$0A@$$T@details@wil@@@details@wil@@@wil@@QEAA@XZ 0000000180021340 f i session_private_namespace.obj
 0001:00020ec0       ?GetInstance@StorageManager@@SAAEAV1@XZ 0000000180021ec0 f   storage_manager.obj
 0001:00020fc0       ?GetAppConfig@StorageManager@@QEAA?AV?$unique_ptr@VPortableSettings@@U?$default_delete@VPortableSettings@@@std@@@std@@PEB_W@Z 0000000180021fc0 f   storage_manager.obj
 0001:00021120       ?GetModConfig@StorageManager@@QEAA?AV?$unique_ptr@VPortableSettings@@U?$default_delete@VPortableSettings@@@std@@@std@@PEB_W0@Z 0000000180022120 f   storage_manager.obj
 0001:000213b0       ?GetModWritableConfig@StorageManager@@QEAA?AV?$unique_ptr@VPortableSettings@@U?$default_delete@VPortableSettings@@@std@@@std@@PEB_W0_N@Z 00000001800223b0 f   storage_manager.obj
 0001:000216c0       ?EnumMods@StorageManager@@QEAAXV?$function@$$A6AXPEB_W@Z@std@@@Z 00000001800226c0 f   storage_manager.obj
 0001:000217e0       ?GetModStoragePath@StorageManager@@QEAA?AVpath@filesystem@std@@PEB_W@Z 00000001800227e0 f   storage_manager.obj
 0001:00021980       ?CreateModMetadataFile@StorageManager@@QEAA?AV?$unique_any_t@V?$unique_storage@U?$handle_invalid_resource_policy@P6AHPEAX@Z$1?CloseHandle@@YAH0@Z@details@wil@@@details@wil@@@wil@@PEB_W0@Z 0000000180022980 f   storage_manager.obj
 0001:00021be0       ?GetEnginePath@StorageManager@@QEAA?AVpath@filesystem@std@@G@Z 0000000180022be0 f   storage_manager.obj
 0001:00021ec0       ??0StorageManager@@AEAA@XZ 0000000180022ec0 f   storage_manager.obj
 0001:000227a0       ??1?$variant@Umonostate@std@@URegistryPath@StorageManager@@UIniFilePath@4@@std@@QEAA@XZ 00000001800237a0 f i storage_manager.obj
 0001:000227d0       ?RegistryEnumMods@StorageManager@@AEAAXV?$function@$$A6AXPEB_W@Z@std@@@Z 00000001800237d0 f   storage_manager.obj
 0001:00022aa0       ?IniFilesEnumMods@StorageManager@@AEAAXV?$function@$$A6AXPEB_W@Z@std@@@Z 0000000180023aa0 f   storage_manager.obj
 0001:00023070       ??0ModConfigChangeNotification@StorageManager@@QEAA@XZ 0000000180024070 f   storage_manager.obj
 0001:00023550       ??$?H_WU?$char_traits@_W@std@@V?$allocator@_W@1@@std@@YA?AV?$basic_string@_WU?$char_traits@_W@std@@V?$allocator@_W@2@@0@AEBV10@QEB_W@Z 0000000180024550 f i storage_manager.obj
 0001:00023690       ?__clone@?$__func@V<lambda_1>@?1???$GetEnvironmentVariableW@V?$basic_string@_WU?$char_traits@_W@std@@V?$allocator@_W@2@@std@@$0IA@@wil@@YAJPEB_WAEAV?$basic_string@_WU?$char_traits@_W@std@@V?$allocator@_W@2@@std@@@Z@$$A6AJPEA_W_KPEA_K@Z@__function@wistd@@UEBAXPEAV?$__base@$$A6AJPEA_W_KPEA_K@Z@23@@Z 0000000180024690 f i storage_manager.obj
 0001:00023690       ?__move@?$__func@V<lambda_1>@?1???$GetEnvironmentVariableW@V?$basic_string@_WU?$char_traits@_W@std@@V?$allocator@_W@2@@std@@$0IA@@wil@@YAJPEB_WAEAV?$basic_string@_WU?$char_traits@_W@std@@V?$allocator@_W@2@@std@@@Z@$$A6AJPEA_W_KPEA_K@Z@__function@wistd@@UEAAXPEAV?$__base@$$A6AJPEA_W_KPEA_K@Z@23@@Z 0000000180024690 f i storage_manager.obj
 0001:000236b0       ??R?$__func@V<lambda_1>@?1???$GetEnvironmentVariableW@V?$basic_string@_WU?$char_traits@_W@std@@V?$allocator@_W@2@@std@@$0IA@@wil@@YAJPEB_WAEAV?$basic_string@_WU?$char_traits@_W@std@@V?$allocator@_W@2@@std@@@Z@$$A6AJPEA_W_KPEA_K@Z@__function@wistd@@UEAAJ$$QEAPEA_W$$QEA_K$$QEAPEA_K@Z 00000001800246b0 f i storage_manager.obj
 0001:00023730       ?GetLastErrorFailHr@details@wil@@YAJXZ 0000000180024730 f i storage_manager.obj
 0001:00023790       ?compare@path@filesystem@std@@QEBAHV?$basic_string_view@_WU?$char_traits@_W@std@@@3@@Z 0000000180024790 f i storage_manager.obj
 0001:00023980       ?_Get_any_status@directory_entry@filesystem@std@@AEBA?AU_File_status_and_error@23@W4__std_fs_stats_flags@@@Z 0000000180024980 f i storage_manager.obj
 0001:00023af0       ??0filesystem_error@filesystem@std@@QEAA@AEBV?$basic_string@DU?$char_traits@D@std@@V?$allocator@D@2@@2@Verror_code@2@@Z 0000000180024af0 f i storage_manager.obj
 0001:00023b90       ?_Throw_fs_error@filesystem@std@@YAXPEBDW4__std_win_error@@@Z 0000000180024b90 f i storage_manager.obj
 0001:00023bf0       ??1?$shared_ptr@U_Dir_enum_impl@filesystem@std@@@std@@QEAA@XZ 0000000180024bf0 f i storage_manager.obj
 0001:00023bf0       ??1directory_iterator@filesystem@std@@QEAA@XZ 0000000180024bf0 f i storage_manager.obj
 0001:00023c40       ?_Open_dir@_Dir_enum_impl@filesystem@std@@SA?AW4__std_win_error@@AEAVpath@23@W4directory_options@23@AEAU_Find_file_handle@23@AEAU__std_fs_find_data@@@Z 0000000180024c40 f i storage_manager.obj
 0001:00023dd0       ??1_Creator@_Dir_enum_impl@filesystem@std@@QEAA@XZ 0000000180024dd0 f i storage_manager.obj
 0001:00023df0       ?_Destroy@?$_Ref_count_obj2@U_Dir_enum_impl@filesystem@std@@@std@@EEAAXXZ 0000000180024df0 f i storage_manager.obj
 0001:00023e10       ??_E?$_Ref_count_obj2@U_Dir_enum_impl@filesystem@std@@@std@@UEAAPEAXI@Z 0000000180024e10 f i * CIL library *:* CIL module *
 0001:00023e10       ??_G?$_Ref_count_obj2@U_Dir_enum_impl@filesystem@std@@@std@@UEAAPEAXI@Z 0000000180024e10 f i storage_manager.obj
 0001:00023e40       ?_Delete_this@?$_Ref_count_obj2@U_Dir_enum_impl@filesystem@std@@@std@@EEAAXXZ 0000000180024e40 f i storage_manager.obj
 0001:00023e60       ??1directory_entry@filesystem@std@@QEAA@XZ 0000000180024e60 f i storage_manager.obj
 0001:00023e70       ??1_Find_file_handle@filesystem@std@@QEAA@XZ 0000000180024e70 f i storage_manager.obj
 0001:00023e80       ?_Refresh@_Dir_enum_impl@filesystem@std@@QEAAXAEBU__std_fs_find_data@@@Z 0000000180024e80 f i storage_manager.obj
 0001:00023fe0       ??$_Initialize_dir_enum@U_Dir_enum_impl@filesystem@std@@@_Dir_enum_impl@filesystem@std@@SA?AW4__std_win_error@@AEAV?$shared_ptr@U_Dir_enum_impl@filesystem@std@@@2@AEBVpath@12@W4directory_options@12@@Z 0000000180024fe0 f i storage_manager.obj
 0001:00024180       ?_Throw_fs_error@filesystem@std@@YAXPEBDAEBVerror_code@2@AEBVpath@12@@Z 0000000180025180 f i storage_manager.obj
 0001:000241e0       ?parent_path@path@filesystem@std@@QEBA?AV123@XZ 00000001800251e0 f i storage_manager.obj
 0001:000242d0       ?create_directories@filesystem@std@@YA_NAEBVpath@12@AEAVerror_code@2@@Z 00000001800252d0 f i storage_manager.obj
 0001:00024510       ?_Get_any_status@filesystem@std@@YA?AU_File_status_and_error@12@AEBVpath@12@W4__std_fs_stats_flags@@@Z 0000000180025510 f i storage_manager.obj
 0001:00024600       ?make_error_code@std@@YA?AVerror_code@1@W4errc@1@@Z 0000000180025600 f i storage_manager.obj
 0001:00024620       ?_Throw_system_error@std@@YAXW4errc@1@@Z 0000000180025620 f i storage_manager.obj
 0001:00024660       ??0system_error@std@@QEAA@Verror_code@1@@Z 0000000180025660 f i storage_manager.obj
 0001:00024710       ?_Throw_system_error_from_std_win_error@std@@YAXW4__std_win_error@@@Z 0000000180025710 f i storage_manager.obj
 0001:00024750       ??$_Convert_wide_to_narrow_replace_chars@U?$char_traits@D@std@@V?$allocator@D@2@@filesystem@std@@YA?AV?$basic_string@DU?$char_traits@D@std@@V?$allocator@D@2@@1@W4__std_code_page@@V?$basic_string_view@_WU?$char_traits@_W@std@@@1@AEBV?$allocator@D@1@@Z 0000000180025750 f i storage_manager.obj
 0001:000248b0       ?_Pretty_message@filesystem_error@filesystem@std@@CA?AV?$basic_string@DU?$char_traits@D@std@@V?$allocator@D@2@@3@V?$basic_string_view@DU?$char_traits@D@std@@@3@AEBVpath@23@1@Z 00000001800258b0 f i storage_manager.obj
 0001:00024bd0       ??0filesystem_error@filesystem@std@@QEAA@AEBV?$basic_string@DU?$char_traits@D@std@@V?$allocator@D@2@@2@AEBVpath@12@Verror_code@2@@Z 0000000180025bd0 f i storage_manager.obj
 0001:00024cb0       ?_Make_ec@std@@YA?AVerror_code@1@W4__std_win_error@@@Z 0000000180025cb0 f i storage_manager.obj
 0001:00024cd0       ??1filesystem_error@filesystem@std@@UEAA@XZ 0000000180025cd0 f i storage_manager.obj
 0001:00024d10       ??_Efilesystem_error@filesystem@std@@UEAAPEAXI@Z 0000000180025d10 f i * CIL library *:* CIL module *
 0001:00024d10       ??_Gfilesystem_error@filesystem@std@@UEAAPEAXI@Z 0000000180025d10 f i storage_manager.obj
 0001:00024d70       ?what@filesystem_error@filesystem@std@@UEBAPEBDXZ 0000000180025d70 f i storage_manager.obj
 0001:00024d80       ??0filesystem_error@filesystem@std@@QEAA@AEBV012@@Z 0000000180025d80 f i storage_manager.obj
 0001:00024e10       ?_Throw_fs_error@filesystem@std@@YAXPEBDW4__std_win_error@@AEBVpath@12@@Z 0000000180025e10 f i storage_manager.obj
 0001:00024e80       ??0bad_variant_access@std@@QEAA@XZ 0000000180025e80 f i storage_manager.obj
 0001:00024ea0       ?what@bad_variant_access@std@@UEBAPEBDXZ 0000000180025ea0 f i storage_manager.obj
 0001:00024eb0       ??0bad_variant_access@std@@QEAA@AEBV01@@Z 0000000180025eb0 f i storage_manager.obj
 0001:00024ef0       ?_Throw_bad_variant_access@std@@YAXXZ 0000000180025ef0 f i storage_manager.obj
 0001:00024f20       ??$_Emplace_reallocate@$$V@?$vector@V?$basic_string_view@_WU?$char_traits@_W@std@@@std@@V?$allocator@V?$basic_string_view@_WU?$char_traits@_W@std@@@std@@@2@@std@@AEAAPEAV?$basic_string_view@_WU?$char_traits@_W@std@@@1@QEAV21@@Z 0000000180025f20 f i storage_manager.obj
 0001:00025080       ??$_Emplace_reallocate@AEAPEB_W_K@?$vector@V?$basic_string_view@_WU?$char_traits@_W@std@@@std@@V?$allocator@V?$basic_string_view@_WU?$char_traits@_W@std@@@std@@@2@@std@@AEAAPEAV?$basic_string_view@_WU?$char_traits@_W@std@@@1@QEAV21@AEAPEB_W$$QEA_K@Z 0000000180026080 f i storage_manager.obj
 0001:00025200       ?lexically_normal@path@filesystem@std@@QEBA?AV123@XZ 0000000180026200 f i storage_manager.obj
 0001:00025770       ?StringCchPrintfW@@YAJPEA_W_KPEB_WZZ 0000000180026770 f i stdafx.obj
 0001:00025830       ?ProcessHeapAlloc@details@wil@@YAPEAXK_K@Z 0000000180026830 f i stdafx.obj
 0001:000258d0       ?create@shared_buffer@details@wil@@QEAA_N_K@Z 00000001800268d0 f i stdafx.obj
 0001:000259c0       ?GetModuleInformation@details@wil@@YA_NPEAXPEAIPEAD_K@Z 00000001800269c0 f i stdafx.obj
 0001:00025b00       ?GetCurrentModuleName@details@wil@@YAPEBDXZ 0000000180026b00 f i stdafx.obj
 0001:00025b50       ?DebugBreak@details@wil@@YAXXZ 0000000180026b50 f i stdafx.obj
 0001:00025b60       ?WilDynamicLoadRaiseFailFastException@details@wil@@YAXPEAU_EXCEPTION_RECORD@@PEAU_CONTEXT@@K@Z 0000000180026b60 f i stdafx.obj
 0001:00025bc0       ?SetFailureInfo@StoredFailureInfo@wil@@QEAAXAEBUFailureInfo@2@@Z 0000000180026bc0 f i stdafx.obj
 0001:000263a0       ??0ResultException@wil@@QEAA@AEBUFailureInfo@1@@Z 00000001800273a0 f i stdafx.obj
 0001:00026400       ?what@ResultException@wil@@UEBAPEBDXZ 0000000180027400 f i stdafx.obj
 0001:00026510       ??_EResultException@wil@@UEAAPEAXI@Z 0000000180027510 f i * CIL library *:* CIL module *
 0001:00026510       ??_GResultException@wil@@UEAAPEAXI@Z 0000000180027510 f i stdafx.obj
 0001:00026600       ??1ResultException@wil@@UEAA@XZ 0000000180027600 f i stdafx.obj
 0001:000266d0       ?Rethrow@details@wil@@YAXXZ 00000001800276d0 f i stdafx.obj
 0001:000266e0       ?ThrowResultExceptionInternal@details@wil@@YAXAEBUFailureInfo@2@@Z 00000001800276e0 f i stdafx.obj
 0001:00026710       ??0ResultException@wil@@QEAA@AEBV01@@Z 0000000180027710 f i stdafx.obj
 0001:00026820       ?CreateFromValueInternal@SemaphoreValue@details_abi@wil@@AEAAJPEB_W_N_K@Z 0000000180027820 f i stdafx.obj
 0001:00026b60       ?GetValueFromSemaphore@SemaphoreValue@details_abi@wil@@CAJPEAXPEAJ@Z 0000000180027b60 f i stdafx.obj
 0001:00026d10       ?TryGetValueInternal@SemaphoreValue@details_abi@wil@@CAJPEB_W_NPEA_KPEA_N@Z 0000000180027d10 f i stdafx.obj
 0001:00027010       ?Set@ThreadLocalFailureInfo@details_abi@wil@@QEAAXAEBUFailureInfo@3@I@Z 0000000180028010 f i stdafx.obj
 0001:000272e0       ??1ThreadLocalData@details_abi@wil@@QEAA@XZ 00000001800282e0 f i stdafx.obj
 0001:00027380       ?GetThreadLocalDataCache@details_abi@wil@@YAPEAUThreadLocalData@12@_N@Z 0000000180028380 f i stdafx.obj
 0001:00027450       ?GetThreadContext@ThreadFailureCallbackHolder@details@wil@@SA_NPEAUFailureInfo@3@PEAV123@PEAD_K@Z 0000000180028450 f i stdafx.obj
 0001:000275a0       ?GetContextAndNotifyFailure@details@wil@@YAXPEAUFailureInfo@2@PEAD_K@Z 00000001800285a0 f i stdafx.obj
 0001:000277a0       ?Acquire@?$ProcessLocalStorageData@UProcessLocalData@details_abi@wil@@@details_abi@wil@@SAJPEBDPEAPEAV123@@Z 00000001800287a0 f i stdafx.obj
 0001:000279a0       ?Release@?$ProcessLocalStorageData@UProcessLocalData@details_abi@wil@@@details_abi@wil@@QEAAXXZ 00000001800289a0 f i stdafx.obj
 0001:00027bc0       ?MakeAndInitialize@?$ProcessLocalStorageData@UProcessLocalData@details_abi@wil@@@details_abi@wil@@CAJPEB_W$$QEAV?$unique_any_t@V?$mutex_t@V?$unique_storage@U?$resource_policy@PEAXP6AXPEAX@_E$1?CloseHandle@details@wil@@YAX0@ZU?$integral_constant@_K$0A@@wistd@@PEAXPEAX$0A@$$T@details@wil@@@details@wil@@Uerr_returncode_policy@3@@wil@@@3@PEAPEAV123@@Z 0000000180028bc0 f i stdafx.obj
 0001:00027d50       ??1?$ThreadLocalStorage@UThreadLocalData@details_abi@wil@@@details_abi@wil@@QEAA@XZ 0000000180028d50 f i stdafx.obj
 0001:00027dd0       ?MySysFreeString@@YAXPEA_W@Z 0000000180028dd0 f   symbol_enum.obj
 0001:00028420       _get_startup_argv_mode     0000000180029420 f   LIBCMT:argv_mode.obj
 0001:000287a0       ??0SymbolEnum@@QEAA@PEB_WPEAUHINSTANCE__@@0W4UndecorateMode@0@UCallbacks@0@@Z 00000001800297a0 f   symbol_enum.obj
 0001:00028a40       ?GetNextSymbol@SymbolEnum@@QEAA?AV?$optional@USymbol@SymbolEnum@@@std@@XZ 0000000180029a40 f   symbol_enum.obj
 0001:00028f20       ?InitModuleInfo@SymbolEnum@@AEAAXPEAUHINSTANCE__@@@Z 0000000180029f20 f   symbol_enum.obj
 0001:00029040       ?LoadMsdia@SymbolEnum@@AEAA?AV?$com_ptr_t@UIDiaDataSource@@Uerr_exception_policy@wil@@@wil@@XZ 000000018002a040 f   symbol_enum.obj
 0001:00029330       ??$_Assign_counted_range@PEBU_IMAGE_CHPE_RANGE_ENTRY@SymbolEnum@@@?$vector@U_IMAGE_CHPE_RANGE_ENTRY@SymbolEnum@@V?$allocator@U_IMAGE_CHPE_RANGE_ENTRY@SymbolEnum@@@std@@@std@@AEAAXPEBU_IMAGE_CHPE_RANGE_ENTRY@SymbolEnum@@_K@Z 000000018002a330 f i symbol_enum.obj
 0001:000294a0       ?get@?$ThreadLocal@PEAUCallbacks@SymbolEnum@@@@AEBAPEAPEAUCallbacks@SymbolEnum@@XZ 000000018002a4a0 f i symbol_enum.obj
 0001:00029520       ?_Target_type@?$_Func_impl_no_alloc@U?$default_delete@PEAUCallbacks@SymbolEnum@@@std@@XPEAPEAUCallbacks@SymbolEnum@@@std@@EEBAAEBVtype_info@@XZ 000000018002a520 f i symbol_enum.obj
 0001:00029530       ?_Copy@?$_Func_impl_no_alloc@U?$default_delete@PEAUCallbacks@SymbolEnum@@@std@@XPEAPEAUCallbacks@SymbolEnum@@@std@@EEBAPEAV?$_Func_base@XPEAPEAUCallbacks@SymbolEnum@@@2@PEAX@Z 000000018002a530 f i symbol_enum.obj
 0001:00029530       ?_Move@?$_Func_impl_no_alloc@U?$default_delete@PEAUCallbacks@SymbolEnum@@@std@@XPEAPEAUCallbacks@SymbolEnum@@@std@@EEAAPEAV?$_Func_base@XPEAPEAUCallbacks@SymbolEnum@@@2@PEAX@Z 000000018002a530 f i symbol_enum.obj
 0001:00029540       ?_Target_type@?$_Func_impl_no_alloc@V<lambda_5_>@?0???0?$ThreadLocal@PEAUCallbacks@SymbolEnum@@@@QEAA@XZ@PEAPEAUCallbacks@SymbolEnum@@$$V@std@@EEBAAEBVtype_info@@XZ 000000018002a540 f i symbol_enum.obj
 0001:00029550       ?_Do_call@?$_Func_impl_no_alloc@V<lambda_5_>@?0???0?$ThreadLocal@PEAUCallbacks@SymbolEnum@@@@QEAA@XZ@PEAPEAUCallbacks@SymbolEnum@@$$V@std@@EEAAPEAPEAUCallbacks@SymbolEnum@@XZ 000000018002a550 f i symbol_enum.obj
 0001:00029570       ?_Copy@?$_Func_impl_no_alloc@V<lambda_5_>@?0???0?$ThreadLocal@PEAUCallbacks@SymbolEnum@@@@QEAA@XZ@PEAPEAUCallbacks@SymbolEnum@@$$V@std@@EEBAPEAV?$_Func_base@PEAPEAUCallbacks@SymbolEnum@@$$V@2@PEAX@Z 000000018002a570 f i symbol_enum.obj
 0001:00029570       ?_Move@?$_Func_impl_no_alloc@V<lambda_5_>@?0???0?$ThreadLocal@PEAUCallbacks@SymbolEnum@@@@QEAA@XZ@PEAPEAUCallbacks@SymbolEnum@@$$V@std@@EEAAPEAV?$_Func_base@PEAPEAUCallbacks@SymbolEnum@@$$V@2@PEAX@Z 000000018002a570 f i symbol_enum.obj
 0001:00029580       ?FindAlertableThread@ThreadPoolInject@@YAPEAXPEAX@Z 000000018002a580 f   thread_pool_inject.obj
 0001:0002a420       MH_Uninitialize            000000018002b420 f   MinHook.obj
 0001:0002a860       MH_RemoveHookEx            000000018002b860 f   MinHook.obj
 0001:0002abc0       MH_DisableHookEx           000000018002bbc0 f   MinHook.obj
 0001:0002b7a0       detour_skip_jmp            000000018002c7a0 f   Instruction.obj
 0001:0002b860       detour_is_code_filler      000000018002c860 f   Instruction.obj
 0001:0002ba40       detour_memory_init         000000018002ca40 f   Memory.obj
 0001:0002bc60       detour_thread_suspend      000000018002cc60 f   Thread.obj
 0001:0002bef0       detour_thread_resume       000000018002cef0 f   Thread.obj
 0001:0002bf80       detour_thread_update       000000018002cf80 f   Thread.obj
 0001:0002c100       detour_writable_trampoline_regions 000000018002d100 f   Trampoline.obj
 0001:0002c180       detour_runnable_trampoline_regions 000000018002d180 f   Trampoline.obj
 0001:0002c4f0       detour_alloc_trampoline    000000018002d4f0 f   Trampoline.obj
 0001:0002c790       detour_free_unused_trampoline_regions 000000018002d790 f   Trampoline.obj
 0001:0002c880       detour_free_trampoline_region_if_unused 000000018002d880 f   Trampoline.obj
 0001:0002c970       SlimDetoursTransactionAbort 000000018002d970 f   Transaction.obj
 0001:0002cad0       SlimDetoursTransactionCommit 000000018002dad0 f   Transaction.obj
 0001:0002cf70       SlimDetoursAttach          000000018002df70 f   Transaction.obj
 0001:0002d350       SlimDetoursDetachEx        000000018002e350 f   Transaction.obj
 0001:0002d4b0       threadscan_thread_suspend  000000018002e4b0 f   Thread.obj
 0001:0002dc50       ThreadsCallStackWaitForRegions 000000018002ec50 f   ThreadsCallStackWaitForRegions.obj
 0001:00031f80       ZydisDecoderDecodeInstruction 0000000180032f80 f   Zydis.obj
 0001:00032080       ZydisDecoderTreeGetChildNode 0000000180033080 f   Zydis.obj
 0001:00032870       ZydisStringAppend          0000000180033870 f i Zydis.obj
 0001:000328f0       ZydisStringAppendShortCase 00000001800338f0 f i Zydis.obj
 0001:000329e0       ZydisStringAppendDecS      00000001800339e0 f i Zydis.obj
 0001:00032b00       ZydisStringAppendHexS      0000000180033b00 f i Zydis.obj
 0001:00032c80       ZydisFormatterBufferAppendPredefined 0000000180033c80 f i Zydis.obj
 0001:00032d20       ZydisFormatterATTFormatInstruction 0000000180033d20 f   Zydis.obj
 0001:00033140       ZydisFormatterATTFormatOperandMEM 0000000180034140 f   Zydis.obj
 0001:000335a0       ZydisFormatterATTPrintMnemonic 00000001800345a0 f   Zydis.obj
 0001:000338d0       ZydisFormatterATTPrintRegister 00000001800348d0 f   Zydis.obj
 0001:00033990       ZydisFormatterATTPrintAddressABS 0000000180034990 f   Zydis.obj
 0001:00033a30       ZydisFormatterATTPrintDISP 0000000180034a30 f   Zydis.obj
 0001:00033c20       ZydisFormatterATTPrintIMM  0000000180034c20 f   Zydis.obj
 0001:00033cb0       ZydisFormatterHelperGetExplicitSize 0000000180034cb0 f   Zydis.obj
 0001:00033d50       ZydisFormatterBaseFormatOperandREG 0000000180034d50 f   Zydis.obj
 0001:00033d70       ZydisFormatterBaseFormatOperandPTR 0000000180034d70 f   Zydis.obj
 0001:000340b0       ZydisFormatterBaseFormatOperandIMM 00000001800350b0 f   Zydis.obj
 0001:000340f0       ZydisFormatterBasePrintAddressABS 00000001800350f0 f   Zydis.obj
 0001:00034370       ZydisFormatterBasePrintAddressREL 0000000180035370 f   Zydis.obj
 0001:000346c0       ZydisFormatterBasePrintIMM 00000001800356c0 f   Zydis.obj
 0001:00034930       ZydisFormatterBasePrintSegment 0000000180035930 f   Zydis.obj
 0001:00034a90       ZydisFormatterBasePrintPrefixes 0000000180035a90 f   Zydis.obj
 0001:00035900       ZydisFormatterBasePrintDecorator 0000000180036900 f   Zydis.obj
 0001:00036740       ZydisFormatterIntelFormatInstruction 0000000180037740 f   Zydis.obj
 0001:00036b90       ZydisFormatterIntelFormatOperandMEM 0000000180037b90 f   Zydis.obj
 0001:00036f80       ZydisFormatterIntelPrintMnemonic 0000000180037f80 f   Zydis.obj
 0001:00037190       ZydisFormatterIntelPrintRegister 0000000180038190 f   Zydis.obj
 0001:000372d0       ZydisFormatterIntelPrintDISP 00000001800382d0 f   Zydis.obj
 0001:00037630       ZydisFormatterIntelPrintTypecast 0000000180038630 f   Zydis.obj
 0001:00037b50       ZydisFormatterIntelFormatInstructionMASM 0000000180038b50 f   Zydis.obj
 0001:00037b60       ZydisFormatterIntelPrintAddressMASM 0000000180038b60 f   Zydis.obj
 0001:00037de0       ZydisGetInstructionDefinition 0000000180038de0 f   Zydis.obj
 0001:00038060       ZydisStringAppendDecU      0000000180039060 f   Zydis.obj
 0001:00038240       ZydisStringAppendHexU      0000000180039240 f   Zydis.obj
 0001:00038360       ?NoRegCoCreate@@YAJPEB_WAEBU_GUID@@1PEAPEAX@Z 0000000180039360 f   diaguids:guidstr.obj
 0001:0003840c       ??0bad_alloc@std@@QEAA@XZ  000000018003940c f i libcpmt:xthrow.obj
 0001:00038430       ??0bad_function_call@std@@QEAA@AEBV01@@Z 0000000180039430 f i libcpmt:xthrow.obj
 0001:0003846c       ??0bad_function_call@std@@QEAA@XZ 000000018003946c f i libcpmt:xthrow.obj
 0001:00038484       ??0length_error@std@@QEAA@AEBV01@@Z 0000000180039484 f i libcpmt:xthrow.obj
 0001:000384c0       ??0length_error@std@@QEAA@PEBD@Z 00000001800394c0 f i libcpmt:xthrow.obj
 0001:00038508       ??0out_of_range@std@@QEAA@AEBV01@@Z 0000000180039508 f i libcpmt:xthrow.obj
 0001:00038544       ??0out_of_range@std@@QEAA@PEBD@Z 0000000180039544 f i libcpmt:xthrow.obj
 0001:0003858c       ?_Xbad_function_call@std@@YAXXZ 000000018003958c f   libcpmt:xthrow.obj
 0001:000385ac       ?_Xinvalid_argument@std@@YAXPEBD@Z 00000001800395ac f   libcpmt:xthrow.obj
 0001:000385d0       ?_Xlength_error@std@@YAXPEBD@Z 00000001800395d0 f   libcpmt:xthrow.obj
 0001:000385f4       ?_Xout_of_range@std@@YAXPEBD@Z 00000001800395f4 f   libcpmt:xthrow.obj
 0001:00038618       ?what@bad_function_call@std@@UEBAPEBDXZ 0000000180039618 f i libcpmt:xthrow.obj
 0001:00039150       __std_find_first_of_trivial_pos_2 000000018003a150 f   libcpmt:vector_algorithms.obj
 0001:00039260       __std_find_last_trivial_2  000000018003a260 f   libcpmt:vector_algorithms.obj
 0001:00039270       __std_find_trivial_2       000000018003a270 f   libcpmt:vector_algorithms.obj
 0001:00039280       __std_search_2             000000018003a280 f   libcpmt:vector_algorithms.obj
 0001:00039290       __std_init_once_link_alternate_names_and_abort 000000018003a290 f   libcpmt:xonce2.obj
 0001:000392a0       ?_Throw_Cpp_error@std@@YAXH@Z 000000018003a2a0 f   libcpmt:thread0.obj
 0001:000392e8       _Mtx_lock                  000000018003a2e8 f   libcpmt:mutex.obj
 0001:000392f0       _Mtx_unlock                000000018003a2f0 f   libcpmt:mutex.obj
 0001:00039448       ?_Syserror_map@std@@YAPEBDH@Z 000000018003a448 f   libcpmt:syserror.obj
 0001:00039470       ?_Winerror_map@std@@YAHH@Z 000000018003a470 f   libcpmt:syserror.obj
 0001:00039494       __std_system_error_allocate_message 000000018003a494 f   libcpmt:syserror_import_lib.obj
 0001:0003956c       __std_system_error_deallocate_message 000000018003a56c f   libcpmt:syserror_import_lib.obj
 0001:00039574       _Thrd_detach               000000018003a574 f   libcpmt:cthread.obj
 0001:00039590       _Thrd_id                   000000018003a590 f   libcpmt:cthread.obj
 0001:00039598       _Query_perf_counter        000000018003a598 f   libcpmt:xtime.obj
 0001:000395b4       _Query_perf_frequency      000000018003a5b4 f   libcpmt:xtime.obj
 0001:000395e0       _Timespec64_get_sys        000000018003a5e0 f   libcpmt:xtime.obj
 0001:0003961c       _Xtime_get_ticks           000000018003a61c f   libcpmt:xtime.obj
 0001:0003964c       _Thrd_sleep_for            000000018003a64c f   libcpmt:sharedmutex.obj
 0001:00039654       _Cnd_do_broadcast_at_thread_exit 000000018003a654 f   libcpmt:xnotify.obj
 0001:0003974c       __std_fs_code_page         000000018003a74c f   libcpmt:filesystem.obj
 0001:00039774       __std_fs_convert_wide_to_narrow_replace_chars 000000018003a774 f   libcpmt:filesystem.obj
 0001:00039850       __std_fs_create_directory  000000018003a850 f   libcpmt:filesystem.obj
 0001:000398c4       __std_fs_directory_iterator_advance 000000018003a8c4 f   libcpmt:filesystem.obj
 0001:000398e4       __std_fs_directory_iterator_close 000000018003a8e4 f   libcpmt:filesystem.obj
 0001:00039904       __std_fs_directory_iterator_open 000000018003a904 f   libcpmt:filesystem.obj
 0001:0003997c       __std_fs_get_stats         000000018003a97c f   libcpmt:filesystem.obj
 0001:00039cac       __std_fs_open_handle       000000018003acac f   libcpmt:filesystem.obj
 0001:00039d04       _Cnd_broadcast             000000018003ad04 f   libcpmt:cond.obj
 0001:00039d68       __crtGetSystemTimePreciseAsFileTime 000000018003ad68 f   libcpmt:winapisupp.obj
 0001:00039da0       __security_check_cookie    000000018003ada0 f   LIBCMT:amdsecgs.obj
 0001:00039dc0       __raise_securityfailure    000000018003adc0 f   LIBCMT:gs_report.obj
 0001:00039df4       __report_gsfailure         000000018003adf4 f   LIBCMT:gs_report.obj
 0001:00039ec8       __report_rangecheckfailure 000000018003aec8 f   LIBCMT:gs_report.obj
 0001:00039edc       __report_securityfailure   000000018003aedc f   LIBCMT:gs_report.obj
 0001:0003a060       ??_Etype_info@@UEAAPEAXI@Z 000000018003b060 f i LIBCMT:std_type_info_static.obj
 0001:0003a060       ??_Gtype_info@@UEAAPEAXI@Z 000000018003b060 f i LIBCMT:std_type_info_static.obj
 0001:0003a08c       ??3@YAXPEAX_K@Z            000000018003b08c f   LIBCMT:delete_scalar_size.obj
 0001:0003a08c       ??_V@YAXPEAX@Z             000000018003b08c f   LIBCMT:delete_array.obj
 0001:0003a094       ??3@YAXPEAX@Z              000000018003b094 f   LIBCMT:delete_scalar.obj
 0001:0003a09c       ??2@YAPEAX_K@Z             000000018003b09c f   LIBCMT:new_scalar.obj
 0001:0003a0d8       _Init_thread_abort         000000018003b0d8 f   LIBCMT:thread_safe_statics.obj
 0001:0003a114       _Init_thread_footer        000000018003b114 f   LIBCMT:thread_safe_statics.obj
 0001:0003a180       _Init_thread_header        000000018003b180 f   LIBCMT:thread_safe_statics.obj
 0001:0003a1fc       __scrt_acquire_startup_lock 000000018003b1fc f   LIBCMT:utility.obj
 0001:0003a238       __scrt_dllmain_after_initialize_c 000000018003b238 f   LIBCMT:utility.obj
 0001:0003a26c       __scrt_dllmain_before_initialize_c 000000018003b26c f   LIBCMT:utility.obj
 0001:0003a284       __scrt_dllmain_crt_thread_attach 000000018003b284 f   LIBCMT:utility.obj
 0001:0003a2ac       __scrt_dllmain_crt_thread_detach 000000018003b2ac f   LIBCMT:utility.obj
 0001:0003a2c4       __scrt_dllmain_exception_filter 000000018003b2c4 f   LIBCMT:utility.obj
 0001:0003a324       __scrt_dllmain_uninitialize_c 000000018003b324 f   LIBCMT:utility.obj
 0001:0003a354       __scrt_dllmain_uninitialize_critical 000000018003b354 f   LIBCMT:utility.obj
 0001:0003a368       __scrt_initialize_crt      000000018003b368 f   LIBCMT:utility.obj
 0001:0003a3a4       __scrt_initialize_onexit_tables 000000018003b3a4 f   LIBCMT:utility.obj
 0001:0003a430       __scrt_is_nonwritable_in_current_image 000000018003b430 f   LIBCMT:utility.obj
 0001:0003a4c8       __scrt_release_startup_lock 000000018003b4c8 f   LIBCMT:utility.obj
 0001:0003a4ec       __scrt_uninitialize_crt    000000018003b4ec f   LIBCMT:utility.obj
 0001:0003a518       _onexit                    000000018003b518 f   LIBCMT:utility.obj
 0001:0003a554       atexit                     000000018003b554 f   LIBCMT:utility.obj
 0001:0003a56c       ??_M@YAXPEAX_K1P6AX0@Z@Z   000000018003b56c f   LIBCMT:ehvecdtr.obj
 0001:0003a5d8       ?__ArrayUnwind@@YAXPEAX_K1P6AX0@Z@Z 000000018003b5d8 f   LIBCMT:ehvecdtr.obj
 0001:0003a634       ??_U@YAPEAX_K@Z            000000018003b634 f   LIBCMT:new_array.obj
 0001:0003a950       _DllMainCRTStartup         000000018003b950 f   LIBCMT:dll_dllmain.obj
 0001:0003a990       __GSHandlerCheck           000000018003b990 f   LIBCMT:gshandler.obj
 0001:0003a9b0       __GSHandlerCheckCommon     000000018003b9b0 f   LIBCMT:gshandler.obj
 0001:0003aa10       __isa_available_init       000000018003ba10 f   LIBCMT:cpu_disp.obj
 0001:0003aca8       __GSHandlerCheck_EH4       000000018003bca8 f   LIBCMT:gshandlereh4.obj
 0001:0003ad28       ?__scrt_throw_std_bad_alloc@@YAXXZ 000000018003bd28 f   LIBCMT:throw_bad_alloc.obj
 0001:0003ad48       __scrt_is_ucrt_dll_in_use  000000018003bd48 f   LIBCMT:ucrt_detection.obj
 0001:0003ad54       __crt_debugger_hook        000000018003bd54 f   LIBCMT:utility_desktop.obj
 0001:0003ad60       __scrt_fastfail            000000018003bd60 f   LIBCMT:utility_desktop.obj
 0001:0003aeac       __security_init_cookie     000000018003beac f   LIBCMT:gs_support.obj
 0001:0003af5c       ?__scrt_initialize_type_info@@YAXXZ 000000018003bf5c f   LIBCMT:tncleanup.obj
 0001:0003af6c       ?__scrt_uninitialize_type_info@@YAXXZ 000000018003bf6c f   LIBCMT:tncleanup.obj
 0001:0003af78       __local_stdio_scanf_options 000000018003bf78 f i LIBCMT:default_local_stdio_options.obj
 0001:0003af80       __scrt_initialize_default_local_stdio_options 000000018003bf80 f   LIBCMT:default_local_stdio_options.obj
 0001:0003af9c       __scrt_get_dyn_tls_init_callback 000000018003bf9c f   LIBCMT:dyn_tls_init.obj
 0001:0003afa4       _RTC_Initialize            000000018003bfa4 f   LIBCMT:initsect.obj
 0001:0003afe0       _RTC_Terminate             000000018003bfe0 f   LIBCMT:initsect.obj
 0001:0003b020       ??$_CallSETranslator@V__FrameHandler3@@@@YAHPEAUEHExceptionRecord@@PEA_KPEAU_CONTEXT@@PEAU_xDISPATCHER_CONTEXT@@PEBU_s_FuncInfo@@K1H@Z 000000018003c020 f i libvcruntime:risctrnsctrl.obj
 0001:0003b074       ??$_CallSETranslator@V__FrameHandler4@@@@YAHPEAUEHExceptionRecord@@PEA_KPEAU_CONTEXT@@PEAU_xDISPATCHER_CONTEXT@@PEAUFuncInfo4@FH4@@K1H@Z 000000018003c074 f i libvcruntime:risctrnsctrl.obj
 0001:0003b0c8       ?CatchTryBlock@__FrameHandler3@@SAPEBU_s_TryBlockMapEntry@@PEBU_s_FuncInfo@@H@Z 000000018003c0c8 f   libvcruntime:risctrnsctrl.obj
 0001:0003b12c       ?DecompFuncInfo@FH4@@YA_JPEAEAEAUFuncInfo4@1@_KH_N@Z 000000018003c12c f i libvcruntime:risctrnsctrl.obj
 0001:0003b258       ?ExecutionInCatch@__FrameHandler3@@SA_NPEAU_xDISPATCHER_CONTEXT@@PEBU_s_FuncInfo@@@Z 000000018003c258 f   libvcruntime:risctrnsctrl.obj
 0001:0003b284       ?ExecutionInCatch@__FrameHandler4@@SA_NPEAU_xDISPATCHER_CONTEXT@@PEAUFuncInfo4@FH4@@@Z 000000018003c284 f   libvcruntime:risctrnsctrl.obj
 0001:0003b28c       ?FrameUnwindToEmptyState@__FrameHandler3@@SAXPEA_KPEAU_xDISPATCHER_CONTEXT@@PEBU_s_FuncInfo@@@Z 000000018003c28c f   libvcruntime:risctrnsctrl.obj
 0001:0003b2f0       ?FrameUnwindToEmptyState@__FrameHandler4@@SAXPEA_KPEAU_xDISPATCHER_CONTEXT@@PEAUFuncInfo4@FH4@@@Z 000000018003c2f0 f   libvcruntime:risctrnsctrl.obj
 0001:0003b324       ?GetEstablisherFrame@__FrameHandler3@@SAPEA_KPEA_KPEAU_xDISPATCHER_CONTEXT@@PEBU_s_FuncInfo@@0@Z 000000018003c324 f   libvcruntime:risctrnsctrl.obj
 0001:0003b40c       ?GetEstablisherFrame@__FrameHandler4@@SAPEA_KPEA_KPEAU_xDISPATCHER_CONTEXT@@PEAUFuncInfo4@FH4@@0@Z 000000018003c40c f   libvcruntime:risctrnsctrl.obj
 0001:0003b430       ?GetRangeOfTrysToCheck@__FrameHandler3@@SA?AU?$pair@Viterator@TryBlockMap@__FrameHandler3@@V123@@std@@AEAVTryBlockMap@1@HPEAU_xDISPATCHER_CONTEXT@@PEBU_s_FuncInfo@@H@Z 000000018003c430 f   libvcruntime:risctrnsctrl.obj
 0001:0003b568       ?GetRangeOfTrysToCheck@__FrameHandler4@@SA?AU?$pair@Viterator@TryBlockMap4@FH4@@V123@@std@@AEAVTryBlockMap4@FH4@@HPEAU_xDISPATCHER_CONTEXT@@PEAUFuncInfo4@5@H@Z 000000018003c568 f   libvcruntime:risctrnsctrl.obj
 0001:0003b6e8       ?UnwindNestedFrames@__FrameHandler3@@SAXPEA_KPEAUEHExceptionRecord@@PEAU_CONTEXT@@0PEAXPEBU_s_FuncInfo@@HHPEBU_s_HandlerType@@PEAU_xDISPATCHER_CONTEXT@@E@Z 000000018003c6e8 f   libvcruntime:risctrnsctrl.obj
 0001:0003b7ec       ?UnwindNestedFrames@__FrameHandler4@@SAXPEA_KPEAUEHExceptionRecord@@PEAU_CONTEXT@@0PEAXPEAUFuncInfo4@FH4@@HHPEAUHandlerType4@5@PEAU_xDISPATCHER_CONTEXT@@E@Z 000000018003c7ec f   libvcruntime:risctrnsctrl.obj
 0001:0003b90c       ?setBuffer@TryBlockMap4@FH4@@QEAAXViterator@12@@Z 000000018003c90c f i libvcruntime:risctrnsctrl.obj
 0001:0003baf8       _CreateFrameInfo           000000018003caf8 f   libvcruntime:risctrnsctrl.obj
 0001:0003bb34       _FindAndUnlinkFrame        000000018003cb34 f   libvcruntime:risctrnsctrl.obj
 0001:0003bb88       _GetImageBase              000000018003cb88 f   libvcruntime:risctrnsctrl.obj
 0001:0003bb9c       _GetThrowImageBase         000000018003cb9c f   libvcruntime:risctrnsctrl.obj
 0001:0003bbb0       _SetImageBase              000000018003cbb0 f   libvcruntime:risctrnsctrl.obj
 0001:0003bbc8       _SetThrowImageBase         000000018003cbc8 f   libvcruntime:risctrnsctrl.obj
 0001:0003bbe0       __CxxFrameHandler3         000000018003cbe0 f   libvcruntime:risctrnsctrl.obj
 0001:0003bc68       __CxxFrameHandler4         000000018003cc68 f   libvcruntime:risctrnsctrl.obj
 0001:0003bd30       __DestructExceptionObject  000000018003cd30 f   libvcruntime:ehhelpers.obj
 0001:0003bda4       ?_CallMemberFunction0@@YAXQEAX0@Z 000000018003cda4 f i libvcruntime:ehhelpers.obj
 0001:0003bda8       _IsExceptionObjectToBeDestroyed 000000018003cda8 f   libvcruntime:ehhelpers.obj
 0001:0003bdd8       __AdjustPointer            000000018003cdd8 f   libvcruntime:ehhelpers.obj
 0001:0003bdfc       __FrameUnwindFilter        000000018003cdfc f   libvcruntime:ehhelpers.obj
 0001:0003be64       __current_exception        000000018003ce64 f   libvcruntime:ehhelpers.obj
 0001:0003be78       __current_exception_context 000000018003ce78 f   libvcruntime:ehhelpers.obj
 0001:0003be8c       __std_terminate            000000018003ce8c f   libvcruntime:ehhelpers.obj
 0001:0003be98       __std_exception_copy       000000018003ce98 f   libvcruntime:std_exception.obj
 0001:0003bf18       __std_exception_destroy    000000018003cf18 f   libvcruntime:std_exception.obj
 0001:0003bf40       _get_purecall_handler      000000018003cf40 f   libvcruntime:purevirt.obj
 0001:0003bf4c       _purecall                  000000018003cf4c f   libvcruntime:purevirt.obj
 0001:0003bf68       __C_specific_handler       000000018003cf68 f   libvcruntime:riscchandler.obj
 0001:0003c180       wcsstr                     000000018003d180 f   libvcruntime:wcsstr.obj
 0001:0003c3a0       _CxxThrowException         000000018003d3a0 f   libvcruntime:throw.obj
 0001:0003c450       __vcrt_initialize          000000018003d450 f   libvcruntime:initialization.obj
 0001:0003c478       __vcrt_thread_attach       000000018003d478 f   libvcruntime:initialization.obj
 0001:0003c48c       __vcrt_thread_detach       000000018003d48c f   libvcruntime:initialization.obj
 0001:0003c49c       __vcrt_uninitialize        000000018003d49c f   libvcruntime:initialization.obj
 0001:0003c4b8       __vcrt_uninitialize_critical 000000018003d4b8 f   libvcruntime:initialization.obj
 0001:0003c4c8       __std_type_info_compare    000000018003d4c8 f   libvcruntime:std_type_info.obj
 0001:0003c4e0       __std_type_info_destroy_list 000000018003d4e0 f   libvcruntime:std_type_info.obj
 0001:0003c50c       __vcrt_freefls             000000018003d50c f   libvcruntime:per_thread_data.obj
 0001:0003c52c       __vcrt_freeptd_for_this_thread 000000018003d52c f   libvcruntime:per_thread_data.obj
 0001:0003c574       __vcrt_getptd              000000018003d574 f   libvcruntime:per_thread_data.obj
 0001:0003c590       __vcrt_getptd_noexit       000000018003d590 f   libvcruntime:per_thread_data.obj
 0001:0003c65c       __vcrt_initialize_ptd      000000018003d65c f   libvcruntime:per_thread_data.obj
 0001:0003c6a4       __vcrt_uninitialize_ptd    000000018003d6a4 f   libvcruntime:per_thread_data.obj
 0001:0003c6cc       ?GetCurrentState@__FrameHandler3@@SAHPEA_KPEAU_xDISPATCHER_CONTEXT@@PEBU_s_FuncInfo@@@Z 000000018003d6cc f   libvcruntime:ehstate.obj
 0001:0003c6f4       ?GetUnwindTryBlock@__FrameHandler3@@SAHPEA_KPEAU_xDISPATCHER_CONTEXT@@PEBU_s_FuncInfo@@@Z 000000018003d6f4 f   libvcruntime:ehstate.obj
 0001:0003c720       ?SetState@__FrameHandler3@@SAXPEA_KPEBU_s_FuncInfo@@H@Z 000000018003d720 f   libvcruntime:ehstate.obj
 0001:0003c72c       ?SetUnwindTryBlock@__FrameHandler3@@SAXPEA_KPEAU_xDISPATCHER_CONTEXT@@PEBU_s_FuncInfo@@H@Z 000000018003d72c f   libvcruntime:ehstate.obj
 0001:0003c768       ?StateFromControlPc@__FrameHandler3@@SAHPEBU_s_FuncInfo@@PEAU_xDISPATCHER_CONTEXT@@@Z 000000018003d768 f   libvcruntime:ehstate.obj
 0001:0003c770       ?StateFromControlPc@__FrameHandler4@@SAHPEAUFuncInfo4@FH4@@PEAU_xDISPATCHER_CONTEXT@@@Z 000000018003d770 f   libvcruntime:ehstate.obj
 0001:0003c778       ?StateFromIp@__FrameHandler3@@SAHPEBU_s_FuncInfo@@PEAU_xDISPATCHER_CONTEXT@@_K@Z 000000018003d778 f   libvcruntime:ehstate.obj
 0001:0003c7e0       ?StateFromIp@__FrameHandler4@@SAHPEAUFuncInfo4@FH4@@PEAU_xDISPATCHER_CONTEXT@@_K@Z 000000018003d7e0 f   libvcruntime:ehstate.obj
 0001:0003df84       ??$TypeMatchHelper@V__FrameHandler3@@@@YAHPEBU_s_HandlerType@@PEBU_s_CatchableType@@PEBU_s_ThrowInfo@@@Z 000000018003ef84 f i libvcruntime:frame.obj
 0001:0003e0a4       ??$TypeMatchHelper@V__FrameHandler4@@@@YAHPEAUHandlerType4@FH4@@PEBU_s_CatchableType@@PEBU_s_ThrowInfo@@@Z 000000018003f0a4 f i libvcruntime:frame.obj
 0001:0003e1e4       ??$__InternalCxxFrameHandler@V__FrameHandler3@@@@YA?AW4_EXCEPTION_DISPOSITION@@PEAUEHExceptionRecord@@PEA_KPEAU_CONTEXT@@PEAU_xDISPATCHER_CONTEXT@@PEBU_s_FuncInfo@@H1E@Z 000000018003f1e4 f i libvcruntime:frame.obj
 0001:0003e414       ??$__InternalCxxFrameHandler@V__FrameHandler4@@@@YA?AW4_EXCEPTION_DISPOSITION@@PEAUEHExceptionRecord@@PEA_KPEAU_CONTEXT@@PEAU_xDISPATCHER_CONTEXT@@PEAUFuncInfo4@FH4@@H1E@Z 000000018003f414 f i libvcruntime:frame.obj
 0001:0003e6bc       ??$__InternalCxxFrameHandlerWrapper@V__FrameHandler3@@@@YA?AW4_EXCEPTION_DISPOSITION@@PEAUEHExceptionRecord@@PEA_KPEAU_CONTEXT@@PEAU_xDISPATCHER_CONTEXT@@PEBU_s_FuncInfo@@H1E@Z 000000018003f6bc f i libvcruntime:frame.obj
 0001:0003e6c4       ??$__InternalCxxFrameHandlerWrapper@V__FrameHandler4@@@@YA?AW4_EXCEPTION_DISPOSITION@@PEAUEHExceptionRecord@@PEA_KPEAU_CONTEXT@@PEAU_xDISPATCHER_CONTEXT@@PEAUFuncInfo4@FH4@@H1E@Z 000000018003f6c4 f i libvcruntime:frame.obj
 0001:0003e710       ??0HandlerMap4@FH4@@QEAA@PEBUTryBlockMapEntry4@1@_KH@Z 000000018003f710 f i libvcruntime:frame.obj
 0001:0003e794       ??0TryBlockMap4@FH4@@QEAA@PEBUFuncInfo4@1@_K@Z 000000018003f794 f i libvcruntime:frame.obj
 0001:0003e878       ??0bad_exception@std@@QEAA@AEBV01@@Z 000000018003f878 f i libvcruntime:frame.obj
 0001:0003e8b4       ??0bad_exception@std@@QEAA@XZ 000000018003f8b4 f i libvcruntime:frame.obj
 0001:0003e8d8       ?CxxCallCatchBlock@__FrameHandler3@@SAPEAXPEAU_EXCEPTION_RECORD@@@Z 000000018003f8d8 f   libvcruntime:frame.obj
 0001:0003eac4       ?CxxCallCatchBlock@__FrameHandler4@@SAPEAXPEAU_EXCEPTION_RECORD@@@Z 000000018003fac4 f   libvcruntime:frame.obj
 0001:0003ed04       ?DecompHandler@HandlerMap4@FH4@@AEAAXXZ 000000018003fd04 f i libvcruntime:frame.obj
 0001:0003ef54       ?FrameUnwindToState@__FrameHandler3@@SAXPEA_KPEAU_xDISPATCHER_CONTEXT@@PEBU_s_FuncInfo@@H@Z 000000018003ff54 f   libvcruntime:frame.obj
 0001:0003f0e0       ?FrameUnwindToState@__FrameHandler4@@SAXPEA_KPEAU_xDISPATCHER_CONTEXT@@PEAUFuncInfo4@FH4@@H@Z 00000001800400e0 f   libvcruntime:frame.obj
 0001:0003f3ec       ?GetHandlerSearchState@__FrameHandler3@@SAHPEA_KPEAU_xDISPATCHER_CONTEXT@@PEBU_s_FuncInfo@@@Z 00000001800403ec f i libvcruntime:frame.obj
 0001:0003f5f4       ?ReadEntry@UWMap4@FH4@@AEAAXPEAPEAE@Z 00000001800405f4 f i libvcruntime:frame.obj
 0001:0003f694       ?_CallMemberFunction1@@YAXQEAX00@Z 0000000180040694 f i libvcruntime:frame.obj
 0001:0003f6a0       ?_CallMemberFunction2@@YAXQEAX00H@Z 00000001800406a0 f i libvcruntime:frame.obj
 0001:0003f6b0       ?getStartStop@UWMap4@FH4@@QEAAXHHAEAViterator@12@0@Z 00000001800406b0 f i libvcruntime:frame.obj
 0001:0003f780       ?getStateFromIterators@UWMap4@FH4@@SAHAEBViterator@12@H0H0@Z 0000000180040780 f i libvcruntime:frame.obj
 0001:0003f860       _NLG_Notify                0000000180040860 f   libvcruntime:notify.obj
 0001:0003f880       __NLG_Dispatch2            0000000180040880 f   libvcruntime:notify.obj
 0001:0003f890       __NLG_Return2              0000000180040890 f   libvcruntime:notify.obj
 0001:0003f894       __except_validate_context_record 0000000180040894 f   libvcruntime:jbcxrval.obj
 0001:0003f8cc       __vcrt_initialize_locks    00000001800408cc f   libvcruntime:locks.obj
 0001:0003f914       __vcrt_uninitialize_locks  0000000180040914 f   libvcruntime:locks.obj
 0001:0003fa9c       __vcrt_FlsAlloc            0000000180040a9c f   libvcruntime:winapi_downlevel.obj
 0001:0003fae4       __vcrt_FlsFree             0000000180040ae4 f   libvcruntime:winapi_downlevel.obj
 0001:0003fb2c       __vcrt_FlsGetValue         0000000180040b2c f   libvcruntime:winapi_downlevel.obj
 0001:0003fb74       __vcrt_FlsSetValue         0000000180040b74 f   libvcruntime:winapi_downlevel.obj
 0001:0003fbc8       __vcrt_InitializeCriticalSectionEx 0000000180040bc8 f   libvcruntime:winapi_downlevel.obj
 0001:0003fc70       _CallSettingFrame          0000000180040c70 f   libvcruntime:handlers.obj
 0001:0003fcb0       _CallSettingFrame_LookupContinuationIndex 0000000180040cb0 f   libvcruntime:handlers.obj
 0001:0003fce0       _CallSettingFrame_NotifyContinuationAddr 0000000180040ce0 f   libvcruntime:handlers.obj
 0001:0003fd10       _CallSettingFrameEncoded   0000000180040d10 f   libvcruntime:handlers.obj
 0001:0003ff10       ??$ensure_buffer_is_big_enough@D@formatting_buffer@__crt_stdio_output@@QEAA_N_KAEAV__crt_cached_ptd_host@@@Z 0000000180040f10 f i libucrt:output.obj
 0001:0003ffb8       ??$ensure_buffer_is_big_enough@_W@formatting_buffer@__crt_stdio_output@@QEAA_N_KAEAV__crt_cached_ptd_host@@@Z 0000000180040fb8 f i libucrt:output.obj
 0001:00040064       ??$is_wide_character_specifier@_W@__crt_stdio_output@@YA_N_K_WW4length_modifier@0@@Z 0000000180041064 f i libucrt:output.obj
 0001:000400a4       ??$parse_integer@KV?$c_string_character_source@_W@__crt_strtox@@$0A@@__crt_strtox@@YAKAEAV__crt_cached_ptd_host@@V?$c_string_character_source@_W@0@H_N@Z 00000001800410a4 f i libucrt:output.obj
 0001:00040810       ??$type_case_integer@$07@?$output_processor@_WV?$string_output_adapter@_W@__crt_stdio_output@@V?$format_validation_base@_WV?$string_output_adapter@_W@__crt_stdio_output@@@2@@__crt_stdio_output@@AEAA_N_N@Z 0000000180041810 f i libucrt:output.obj
 0001:00040810       ??$type_case_integer@$07@?$output_processor@_WV?$string_output_adapter@_W@__crt_stdio_output@@V?$standard_base@_WV?$string_output_adapter@_W@__crt_stdio_output@@@2@@__crt_stdio_output@@AEAA_N_N@Z 0000000180041810 f i libucrt:output.obj
 0001:00040a1c       ??$type_case_integer@$09@?$output_processor@_WV?$string_output_adapter@_W@__crt_stdio_output@@V?$format_validation_base@_WV?$string_output_adapter@_W@__crt_stdio_output@@@2@@__crt_stdio_output@@AEAA_N_N@Z 0000000180041a1c f i libucrt:output.obj
 0001:00040a1c       ??$type_case_integer@$09@?$output_processor@_WV?$string_output_adapter@_W@__crt_stdio_output@@V?$standard_base@_WV?$string_output_adapter@_W@__crt_stdio_output@@@2@@__crt_stdio_output@@AEAA_N_N@Z 0000000180041a1c f i libucrt:output.obj
 0001:00040c28       ??$type_case_integer@$0BA@@?$output_processor@_WV?$string_output_adapter@_W@__crt_stdio_output@@V?$format_validation_base@_WV?$string_output_adapter@_W@__crt_stdio_output@@@2@@__crt_stdio_output@@AEAA_N_N@Z 0000000180041c28 f i libucrt:output.obj
 0001:00040c28       ??$type_case_integer@$0BA@@?$output_processor@_WV?$string_output_adapter@_W@__crt_stdio_output@@V?$standard_base@_WV?$string_output_adapter@_W@__crt_stdio_output@@@2@@__crt_stdio_output@@AEAA_N_N@Z 0000000180041c28 f i libucrt:output.obj
 0001:00040e34       ??$type_case_integer_parse_into_buffer@I$07@?$output_processor@_WV?$string_output_adapter@_W@__crt_stdio_output@@V?$format_validation_base@_WV?$string_output_adapter@_W@__crt_stdio_output@@@2@@__crt_stdio_output@@AEAAXI_N@Z 0000000180041e34 f i libucrt:output.obj
 0001:00040e34       ??$type_case_integer_parse_into_buffer@I$07@?$output_processor@_WV?$string_output_adapter@_W@__crt_stdio_output@@V?$standard_base@_WV?$string_output_adapter@_W@__crt_stdio_output@@@2@@__crt_stdio_output@@AEAAXI_N@Z 0000000180041e34 f i libucrt:output.obj
 0001:00040eb8       ??$type_case_integer_parse_into_buffer@I$09@?$output_processor@_WV?$string_output_adapter@_W@__crt_stdio_output@@V?$format_validation_base@_WV?$string_output_adapter@_W@__crt_stdio_output@@@2@@__crt_stdio_output@@AEAAXI_N@Z 0000000180041eb8 f i libucrt:output.obj
 0001:00040eb8       ??$type_case_integer_parse_into_buffer@I$09@?$output_processor@_WV?$string_output_adapter@_W@__crt_stdio_output@@V?$standard_base@_WV?$string_output_adapter@_W@__crt_stdio_output@@@2@@__crt_stdio_output@@AEAAXI_N@Z 0000000180041eb8 f i libucrt:output.obj
 0001:00040f78       ??$type_case_integer_parse_into_buffer@I$0BA@@?$output_processor@_WV?$string_output_adapter@_W@__crt_stdio_output@@V?$format_validation_base@_WV?$string_output_adapter@_W@__crt_stdio_output@@@2@@__crt_stdio_output@@AEAAXI_N@Z 0000000180041f78 f i libucrt:output.obj
 0001:00040f78       ??$type_case_integer_parse_into_buffer@I$0BA@@?$output_processor@_WV?$string_output_adapter@_W@__crt_stdio_output@@V?$standard_base@_WV?$string_output_adapter@_W@__crt_stdio_output@@@2@@__crt_stdio_output@@AEAAXI_N@Z 0000000180041f78 f i libucrt:output.obj
 0001:00041018       ??$type_case_integer_parse_into_buffer@_K$07@?$output_processor@_WV?$string_output_adapter@_W@__crt_stdio_output@@V?$format_validation_base@_WV?$string_output_adapter@_W@__crt_stdio_output@@@2@@__crt_stdio_output@@AEAAX_K_N@Z 0000000180042018 f i libucrt:output.obj
 0001:00041018       ??$type_case_integer_parse_into_buffer@_K$07@?$output_processor@_WV?$string_output_adapter@_W@__crt_stdio_output@@V?$standard_base@_WV?$string_output_adapter@_W@__crt_stdio_output@@@2@@__crt_stdio_output@@AEAAX_K_N@Z 0000000180042018 f i libucrt:output.obj
 0001:000410a0       ??$type_case_integer_parse_into_buffer@_K$09@?$output_processor@_WV?$string_output_adapter@_W@__crt_stdio_output@@V?$format_validation_base@_WV?$string_output_adapter@_W@__crt_stdio_output@@@2@@__crt_stdio_output@@AEAAX_K_N@Z 00000001800420a0 f i libucrt:output.obj
 0001:000410a0       ??$type_case_integer_parse_into_buffer@_K$09@?$output_processor@_WV?$string_output_adapter@_W@__crt_stdio_output@@V?$standard_base@_WV?$string_output_adapter@_W@__crt_stdio_output@@@2@@__crt_stdio_output@@AEAAX_K_N@Z 00000001800420a0 f i libucrt:output.obj
 0001:00041164       ??$type_case_integer_parse_into_buffer@_K$0BA@@?$output_processor@_WV?$string_output_adapter@_W@__crt_stdio_output@@V?$format_validation_base@_WV?$string_output_adapter@_W@__crt_stdio_output@@@2@@__crt_stdio_output@@AEAAX_K_N@Z 0000000180042164 f i libucrt:output.obj
 0001:00041164       ??$type_case_integer_parse_into_buffer@_K$0BA@@?$output_processor@_WV?$string_output_adapter@_W@__crt_stdio_output@@V?$standard_base@_WV?$string_output_adapter@_W@__crt_stdio_output@@@2@@__crt_stdio_output@@AEAAX_K_N@Z 0000000180042164 f i libucrt:output.obj
 0001:00041204       ?crop_zeroes@__crt_stdio_output@@YAXPEADQEAU__crt_locale_pointers@@@Z 0000000180042204 f i libucrt:output.obj
 0001:00041270       ?get_raw_ptd@__crt_cached_ptd_host@@QEAAPEAU__acrt_ptd@@XZ 0000000180042270 f i libucrt:output.obj
 0001:000412d8       ?parse_int_from_format_string@?$output_processor@_WV?$string_output_adapter@_W@__crt_stdio_output@@V?$format_validation_base@_WV?$string_output_adapter@_W@__crt_stdio_output@@@2@@__crt_stdio_output@@AEAA_NQEAH@Z 00000001800422d8 f i libucrt:output.obj
 0001:000412d8       ?parse_int_from_format_string@?$output_processor@_WV?$string_output_adapter@_W@__crt_stdio_output@@V?$standard_base@_WV?$string_output_adapter@_W@__crt_stdio_output@@@2@@__crt_stdio_output@@AEAA_NQEAH@Z 00000001800422d8 f i libucrt:output.obj
 0001:00041368       ?process@?$output_processor@_WV?$string_output_adapter@_W@__crt_stdio_output@@V?$format_validation_base@_WV?$string_output_adapter@_W@__crt_stdio_output@@@2@@__crt_stdio_output@@QEAAHXZ 0000000180042368 f i libucrt:output.obj
 0001:00041624       ?process@?$output_processor@_WV?$string_output_adapter@_W@__crt_stdio_output@@V?$standard_base@_WV?$string_output_adapter@_W@__crt_stdio_output@@@2@@__crt_stdio_output@@QEAAHXZ 0000000180042624 f i libucrt:output.obj
 0001:000418e8       ?state_case_size@?$output_processor@_WV?$string_output_adapter@_W@__crt_stdio_output@@V?$format_validation_base@_WV?$string_output_adapter@_W@__crt_stdio_output@@@2@@__crt_stdio_output@@AEAA_NXZ 00000001800428e8 f i libucrt:output.obj
 0001:000418e8       ?state_case_size@?$output_processor@_WV?$string_output_adapter@_W@__crt_stdio_output@@V?$standard_base@_WV?$string_output_adapter@_W@__crt_stdio_output@@@2@@__crt_stdio_output@@AEAA_NXZ 00000001800428e8 f i libucrt:output.obj
 0001:00041a98       ?state_case_type@?$output_processor@_WV?$string_output_adapter@_W@__crt_stdio_output@@V?$format_validation_base@_WV?$string_output_adapter@_W@__crt_stdio_output@@@2@@__crt_stdio_output@@AEAA_NXZ 0000000180042a98 f i libucrt:output.obj
 0001:00041a98       ?state_case_type@?$output_processor@_WV?$string_output_adapter@_W@__crt_stdio_output@@V?$standard_base@_WV?$string_output_adapter@_W@__crt_stdio_output@@@2@@__crt_stdio_output@@AEAA_NXZ 0000000180042a98 f i libucrt:output.obj
 0001:00042010       ?type_case_Z@?$output_processor@_WV?$string_output_adapter@_W@__crt_stdio_output@@V?$format_validation_base@_WV?$string_output_adapter@_W@__crt_stdio_output@@@2@@__crt_stdio_output@@AEAA_NXZ 0000000180043010 f i libucrt:output.obj
 0001:00042010       ?type_case_Z@?$output_processor@_WV?$string_output_adapter@_W@__crt_stdio_output@@V?$standard_base@_WV?$string_output_adapter@_W@__crt_stdio_output@@@2@@__crt_stdio_output@@AEAA_NXZ 0000000180043010 f i libucrt:output.obj
 0001:00042084       ?type_case_a@?$output_processor@_WV?$string_output_adapter@_W@__crt_stdio_output@@V?$format_validation_base@_WV?$string_output_adapter@_W@__crt_stdio_output@@@2@@__crt_stdio_output@@AEAA_NXZ 0000000180043084 f i libucrt:output.obj
 0001:00042084       ?type_case_a@?$output_processor@_WV?$string_output_adapter@_W@__crt_stdio_output@@V?$standard_base@_WV?$string_output_adapter@_W@__crt_stdio_output@@@2@@__crt_stdio_output@@AEAA_NXZ 0000000180043084 f i libucrt:output.obj
 0001:00042300       ?type_case_c_tchar@?$output_processor@_WV?$string_output_adapter@_W@__crt_stdio_output@@V?$format_validation_base@_WV?$string_output_adapter@_W@__crt_stdio_output@@@2@@__crt_stdio_output@@AEAA_N_W@Z 0000000180043300 f i libucrt:output.obj
 0001:00042300       ?type_case_c_tchar@?$output_processor@_WV?$string_output_adapter@_W@__crt_stdio_output@@V?$standard_base@_WV?$string_output_adapter@_W@__crt_stdio_output@@@2@@__crt_stdio_output@@AEAA_N_W@Z 0000000180043300 f i libucrt:output.obj
 0001:000423c4       ?type_case_n@?$output_processor@_WV?$string_output_adapter@_W@__crt_stdio_output@@V?$format_validation_base@_WV?$string_output_adapter@_W@__crt_stdio_output@@@2@@__crt_stdio_output@@AEAA_NXZ 00000001800433c4 f i libucrt:output.obj
 0001:000423c4       ?type_case_n@?$output_processor@_WV?$string_output_adapter@_W@__crt_stdio_output@@V?$standard_base@_WV?$string_output_adapter@_W@__crt_stdio_output@@@2@@__crt_stdio_output@@AEAA_NXZ 00000001800433c4 f i libucrt:output.obj
 0001:0004247c       ?type_case_s@?$output_processor@_WV?$string_output_adapter@_W@__crt_stdio_output@@V?$format_validation_base@_WV?$string_output_adapter@_W@__crt_stdio_output@@@2@@__crt_stdio_output@@AEAA_NXZ 000000018004347c f i libucrt:output.obj
 0001:0004247c       ?type_case_s@?$output_processor@_WV?$string_output_adapter@_W@__crt_stdio_output@@V?$standard_base@_WV?$string_output_adapter@_W@__crt_stdio_output@@@2@@__crt_stdio_output@@AEAA_NXZ 000000018004347c f i libucrt:output.obj
 0001:00042518       ?type_case_s_compute_narrow_string_length@?$output_processor@_WV?$string_output_adapter@_W@__crt_stdio_output@@V?$format_validation_base@_WV?$string_output_adapter@_W@__crt_stdio_output@@@2@@__crt_stdio_output@@AEAAHH_W@Z 0000000180043518 f i libucrt:output.obj
 0001:00042518       ?type_case_s_compute_narrow_string_length@?$output_processor@_WV?$string_output_adapter@_W@__crt_stdio_output@@V?$standard_base@_WV?$string_output_adapter@_W@__crt_stdio_output@@@2@@__crt_stdio_output@@AEAAHH_W@Z 0000000180043518 f i libucrt:output.obj
 0001:000425e0       ?update_locale_slow@__crt_cached_ptd_host@@AEAAXXZ 00000001800435e0 f i libucrt:output.obj
 0001:00042658       ?write_string@?$string_output_adapter@_W@__crt_stdio_output@@QEBAXQEB_WHQEAHAEAV__crt_cached_ptd_host@@@Z 0000000180043658 f i libucrt:output.obj
 0001:00042700       __stdio_common_vsnwprintf_s 0000000180043700 f   libucrt:output.obj
 0001:000428c4       __stdio_common_vswprintf   00000001800438c4 f   libucrt:output.obj
 0001:00042b20       __stdio_common_vswprintf_s 0000000180043b20 f   libucrt:output.obj
 0001:00042c34       ?get_raw_ptd_noexit@__crt_cached_ptd_host@@QEAAPEAU__acrt_ptd@@XZ 0000000180043c34 f i libucrt:invalid_parameter.obj
 0001:00042ca0       ?value@?$dual_state_global@P6AXPEB_W00I_K@Z@__crt_state_management@@QEAAAEAP6AXPEB_W00I_K@ZAEAV__crt_cached_ptd_host@@@Z 0000000180043ca0 f i libucrt:invalid_parameter.obj
 0001:00042cec       __acrt_call_reportfault    0000000180043cec f   libucrt:invalid_parameter.obj
 0001:00042e5c       __acrt_initialize_invalid_parameter_handler 0000000180043e5c f   libucrt:invalid_parameter.obj
 0001:00042e64       _invalid_parameter         0000000180043e64 f   libucrt:invalid_parameter.obj
 0001:00042f00       _invalid_parameter_internal 0000000180043f00 f   libucrt:invalid_parameter.obj
 0001:00042fb8       _invalid_parameter_noinfo  0000000180043fb8 f   libucrt:invalid_parameter.obj
 0001:00042fd8       _invoke_watson             0000000180043fd8 f   libucrt:invalid_parameter.obj
 0001:00043020       ??$is_overflow_condition@_K@__crt_strtox@@YA_NI_K@Z 0000000180044020 f i libucrt:strtox.obj
 0001:00043058       ??$parse_integer@KV?$c_string_character_source@_W@__crt_strtox@@$00@__crt_strtox@@YAKAEAV__crt_cached_ptd_host@@V?$c_string_character_source@_W@0@H_N@Z 0000000180044058 f i libucrt:strtox.obj
 0001:000437f4       ??$parse_integer@_KV?$c_string_character_source@_W@__crt_strtox@@$00@__crt_strtox@@YA_KAEAV__crt_cached_ptd_host@@V?$c_string_character_source@_W@0@H_N@Z 00000001800447f4 f i libucrt:strtox.obj
 0001:00043f78       wcstol                     0000000180044f78 f   libucrt:strtox.obj
 0001:0004402c       wcstoull                   000000018004502c f   libucrt:strtox.obj
 0001:000440e0       __acrt_errno_from_os_error 00000001800450e0 f   libucrt:errno.obj
 0001:000441b0       __acrt_errno_map_os_error  00000001800451b0 f   libucrt:errno.obj
 0001:000441d8       __acrt_errno_map_os_error_ptd 00000001800451d8 f   libucrt:errno.obj
 0001:000441fc       __doserrno                 00000001800451fc f   libucrt:errno.obj
 0001:00044220       _errno                     0000000180045220 f   libucrt:errno.obj
 0001:00044244       abort                      0000000180045244 f   libucrt:abort.obj
 0001:000442a0       ??0_LocaleUpdate@@QEAA@QEAU__crt_locale_pointers@@@Z 00000001800452a0 f i libucrt:stricmp.obj
 0001:00044390       _stricmp                   0000000180045390 f   libucrt:stricmp.obj
 0001:00044400       _stricmp_l                 0000000180045400 f   libucrt:stricmp.obj
 0001:00044520       strnlen                    0000000180045520 f   libucrt:strnlen.obj
 0001:000446b0       wcsnlen                    00000001800456b0 f   libucrt:strnlen.obj
 0001:000448c0       wcscpy_s                   00000001800458c0 f   libucrt:wcscpy_s.obj
 0001:00044950       strcpy_s                   0000000180045950 f   libucrt:strcpy_s.obj
 0001:000449d0       terminate                  00000001800459d0 f   libucrt:terminate.obj
 0001:00044b20       _beginthreadex             0000000180045b20 f   libucrt:thread.obj
 0001:00044c00       _endthreadex               0000000180045c00 f   libucrt:thread.obj
 0001:00044c10       iscntrl                    0000000180045c10 f   libucrt:_ctype.obj
 0001:00044cc0       isspace                    0000000180045cc0 f   libucrt:_ctype.obj
 0001:00044d70       __acrt_initialize_stdio    0000000180045d70 f   libucrt:_file.obj
 0001:00044e90       __acrt_uninitialize_stdio  0000000180045e90 f   libucrt:_file.obj
 0001:00044eec       _lock_file                 0000000180045eec f   libucrt:_file.obj
 0001:00044ef8       _unlock_file               0000000180045ef8 f   libucrt:_file.obj
 0001:00044f10       calloc                     0000000180045f10 f   libucrt:calloc.obj
 0001:00044f20       free                       0000000180045f20 f   libucrt:free.obj
 0001:00044f28       ___lc_codepage_func        0000000180045f28 f   libucrt:initctype.obj
 0001:00044f60       malloc                     0000000180045f60 f   libucrt:malloc.obj
 0001:00044f70       _callnewh                  0000000180045f70 f   libucrt:new_handler.obj
 0001:00044fb0       __acrt_initialize_new_handler 0000000180045fb0 f   libucrt:new_handler.obj
 0001:00044fc0       _query_new_handler         0000000180045fc0 f   libucrt:new_handler.obj
 0001:00045000       _set_new_handler           0000000180046000 f   libucrt:new_handler.obj
 0001:00045060       ?_set_new_handler@@YAP6AH_K@ZH@Z 0000000180046060 f   libucrt:new_handler.obj
 0001:0004506c       _seh_filter_dll            000000018004606c f   libucrt:exception_filter.obj
 0001:00045080       _seh_filter_exe            0000000180046080 f   libucrt:exception_filter.obj
 0001:0004545c       __acrt_initialize_thread_local_exit_callback 000000018004645c f   libucrt:exit.obj
 0001:00045464       _cexit                     0000000180046464 f   libucrt:exit.obj
 0001:00045474       _exit                      0000000180046474 f   libucrt:exit.obj
 0001:00045480       _is_c_termination_complete 0000000180046480 f   libucrt:exit.obj
 0001:00045648       __acrt_allocate_buffer_for_argv 0000000180046648 f   libucrt:argv_parsing.obj
 0001:000456a8       _configure_narrow_argv     00000001800466a8 f   libucrt:argv_parsing.obj
 0001:00045a2c       __dcrt_uninitialize_environments_nolock 0000000180046a2c f   libucrt:environment_initialization.obj
 0001:00045a70       _initialize_narrow_environment 0000000180046a70 f   libucrt:environment_initialization.obj
 0001:00045db8       _crt_atexit                0000000180046db8 f   libucrt:onexit.obj
 0001:00045dc8       _execute_onexit_table      0000000180046dc8 f   libucrt:onexit.obj
 0001:00045e0c       _initialize_onexit_table   0000000180046e0c f   libucrt:onexit.obj
 0001:00045e34       _register_onexit_function  0000000180046e34 f   libucrt:onexit.obj
 0001:00045eb4       __acrt_uninitialize_command_line 0000000180046eb4 f   libucrt:argv_data.obj
 0001:00045fac       __acrt_initialize          0000000180046fac f   libucrt:initialization.obj
 0001:00045fc0       __acrt_thread_attach       0000000180046fc0 f   libucrt:initialization.obj
 0001:00045fd4       __acrt_thread_detach       0000000180046fd4 f   libucrt:initialization.obj
 0001:00045fe4       __acrt_uninitialize        0000000180046fe4 f   libucrt:initialization.obj
 0001:0004601c       __acrt_uninitialize_critical 000000018004701c f   libucrt:initialization.obj
 0001:0004602c       _initterm                  000000018004702c f   libucrt:initterm.obj
 0001:00046064       _initterm_e                0000000180047064 f   libucrt:initterm.obj
 0001:000460a0       wcsncmp                    00000001800470a0 f   libucrt:wcsncmp.obj
 0001:000460e0       _free_base                 00000001800470e0 f   libucrt:free_base.obj
 0001:00046140       _malloc_base               0000000180047140 f   libucrt:malloc_base.obj
 0001:000461a0       __acrt_update_locale_info  00000001800471a0 f   libucrt:locale_update.obj
 0001:000461d4       __acrt_update_locale_info_explicit 00000001800471d4 f   libucrt:locale_update.obj
 0001:0004620c       __acrt_update_multibyte_info 000000018004720c f   libucrt:locale_update.obj
 0001:00046240       __acrt_update_multibyte_info_explicit 0000000180047240 f   libucrt:locale_update.obj
 0001:00046d88       __acrt_fp_format           0000000180047d88 f   libucrt:cvt.obj
 0001:00047070       _mbtowc_internal           0000000180048070 f   libucrt:mbtowc.obj
 0001:000471e8       ?__mblen_utf8@__crt_mbstring@@YAHPEBD@Z 00000001800481e8 f   libucrt:mbrtoc32.obj
 0001:00047220       ?__mbrtoc32_utf8@__crt_mbstring@@YA_KPEA_UPEBD_KPEAU_Mbstatet@@AEAV__crt_cached_ptd_host@@@Z 0000000180048220 f   libucrt:mbrtoc32.obj
 0001:000473e0       ?__mbrtowc_utf8@__crt_mbstring@@YA_KPEA_WPEBD_KPEAU_Mbstatet@@AEAV__crt_cached_ptd_host@@@Z 00000001800483e0 f   libucrt:mbrtowc.obj
 0001:00047428       ?__mbsrtowcs_utf8@__crt_mbstring@@YA_KPEA_WPEAPEBD_KPEAU_Mbstatet@@AEAV__crt_cached_ptd_host@@@Z 0000000180048428 f   libucrt:mbrtowc.obj
 0001:000475e0       _fileno                    00000001800485e0 f   libucrt:fileno.obj
 0001:00047608       _get_printf_count_output   0000000180048608 f   libucrt:printf_count_output.obj
 0001:00047930       ?internal_get_ptd_head_slow@@YAPEAU__acrt_ptd@@XZ 0000000180048930 f   libucrt:per_thread_data.obj
 0001:00047a50       __acrt_freeptd             0000000180048a50 f   libucrt:per_thread_data.obj
 0001:00047aa0       __acrt_getptd              0000000180048aa0 f   libucrt:per_thread_data.obj
 0001:00047abc       __acrt_getptd_head         0000000180048abc f   libucrt:per_thread_data.obj
 0001:00047b00       __acrt_getptd_noexit       0000000180048b00 f   libucrt:per_thread_data.obj
 0001:00047b90       __acrt_getptd_noexit_explicit 0000000180048b90 f   libucrt:per_thread_data.obj
 0001:00047bec       __acrt_initialize_ptd      0000000180048bec f   libucrt:per_thread_data.obj
 0001:00047c30       __acrt_uninitialize_ptd    0000000180048c30 f   libucrt:per_thread_data.obj
 0001:00047cc4       __acrt_set_locale_changed  0000000180048cc4 f   libucrt:wsetlocale.obj
 0001:00047cd0       __acrt_uninitialize_locale 0000000180048cd0 f   libucrt:wsetlocale.obj
 0001:00047f08       __acrt_initialize_lowio    0000000180048f08 f   libucrt:ioinit.obj
 0001:00047f44       __acrt_uninitialize_lowio  0000000180048f44 f   libucrt:ioinit.obj
 0001:00047f90       iswctype                   0000000180048f90 f   libucrt:iswctype.obj
 0001:00047ffc       _isctype_l                 0000000180048ffc f   libucrt:isctype.obj
 0001:0004814c       __acrt_get_sigabrt_handler 000000018004914c f   libucrt:signal.obj
 0001:0004817c       __acrt_initialize_signal_handlers 000000018004917c f   libucrt:signal.obj
 0001:0004819c       raise                      000000018004919c f   libucrt:signal.obj
 0001:00048400       _calloc_base               0000000180049400 f   libucrt:calloc_base.obj
 0001:0004862c       __acrt_AppPolicyGetProcessTerminationMethodInternal 000000018004962c f   libucrt:winapi_thunks.obj
 0001:00048688       __acrt_AppPolicyGetThreadInitializationTypeInternal 0000000180049688 f   libucrt:winapi_thunks.obj
 0001:000486e4       __acrt_AreFileApisANSI     00000001800496e4 f   libucrt:winapi_thunks.obj
 0001:00048730       __acrt_FlsAlloc            0000000180049730 f   libucrt:winapi_thunks.obj
 0001:00048738       __acrt_FlsFree             0000000180049738 f   libucrt:winapi_thunks.obj
 0001:00048740       __acrt_FlsGetValue         0000000180049740 f   libucrt:winapi_thunks.obj
 0001:00048748       __acrt_FlsGetValue2        0000000180049748 f   libucrt:winapi_thunks.obj
 0001:00048754       __acrt_FlsSetValue         0000000180049754 f   libucrt:winapi_thunks.obj
 0001:0004875c       __acrt_InitializeCriticalSectionEx 000000018004975c f   libucrt:winapi_thunks.obj
 0001:00048764       __acrt_LCMapStringEx       0000000180049764 f   libucrt:winapi_thunks.obj
 0001:00048858       __acrt_LocaleNameToLCID    0000000180049858 f   libucrt:winapi_thunks.obj
 0001:000488bc       __acrt_RoInitialize        00000001800498bc f   libucrt:winapi_thunks.obj
 0001:0004890c       __acrt_RoUninitialize      000000018004990c f   libucrt:winapi_thunks.obj
 0001:00048950       __acrt_initialize_winapi_thunks 0000000180049950 f   libucrt:winapi_thunks.obj
 0001:00048980       __acrt_tls2_supported      0000000180049980 f   libucrt:winapi_thunks.obj
 0001:000489c4       __acrt_uninitialize_winapi_thunks 00000001800499c4 f   libucrt:winapi_thunks.obj
 0001:00048a08       __acrt_get_begin_thread_init_policy 0000000180049a08 f   libucrt:win_policies.obj
 0001:00048a48       __acrt_get_process_end_policy 0000000180049a48 f   libucrt:win_policies.obj
 0001:00048a78       _fcloseall                 0000000180049a78 f   libucrt:closeall.obj
 0001:00048d0c       __acrt_stdio_flush_nolock  0000000180049d0c f   libucrt:fflush.obj
 0001:00048d98       _fflush_nolock             0000000180049d98 f   libucrt:fflush.obj
 0001:00048e6c       _flushall                  0000000180049e6c f   libucrt:fflush.obj
 0001:00048e74       __acrt_stdio_free_buffer_nolock 0000000180049e74 f   libucrt:_freebuf.obj
 0001:00048eb8       __acrt_GetStringTypeA      0000000180049eb8 f   libucrt:getstringtypea.obj
 0001:0004937c       __acrt_LCMapStringA        000000018004a37c f   libucrt:lcmapstringa.obj
 0001:00049414       __acrt_initialize_locks    000000018004a414 f   libucrt:locks.obj
 0001:0004945c       __acrt_lock                000000018004a45c f   libucrt:locks.obj
 0001:00049478       __acrt_uninitialize_locks  000000018004a478 f   libucrt:locks.obj
 0001:000494b0       __acrt_unlock              000000018004a4b0 f   libucrt:locks.obj
 0001:000494cc       __acrt_app_verifier_enabled 000000018004a4cc f   libucrt:peb_access.obj
 0001:000494e8       __acrt_is_secure_process   000000018004a4e8 f   libucrt:peb_access.obj
 0001:00049514       ??$__acrt_convert_wcs_mbs_cp@D_WV<lambda_7c9dea7b4ca7285d2cdb541a38da6275>@@U__crt_win32_buffer_internal_dynamic_resizing@@@@YAHQEBDAEAV?$__crt_win32_buffer@_WU__crt_win32_buffer_internal_dynamic_resizing@@@@AEBV<lambda_7c9dea7b4ca7285d2cdb541a38da6275>@@I@Z 000000018004a514 f i libucrt:argv_wildcards.obj
 0001:000496b4       ??$__acrt_convert_wcs_mbs_cp@_WDV<lambda_d8593a27d1aa8c02be35c86a17d324c4>@@U__crt_win32_buffer_internal_dynamic_resizing@@@@YAHQEB_WAEAV?$__crt_win32_buffer@DU__crt_win32_buffer_internal_dynamic_resizing@@@@AEBV<lambda_d8593a27d1aa8c02be35c86a17d324c4>@@I@Z 000000018004a6b4 f i libucrt:argv_wildcards.obj
 0001:00049f80       __acrt_expand_narrow_argv_wildcards 000000018004af80 f   libucrt:argv_wildcards.obj
 0001:00049f88       ??$__acrt_convert_wcs_mbs_cp@_WDV<lambda_f788ae46380686e8b737efdd8c720d07>@@U__crt_win32_buffer_no_resizing@@@@YAHQEB_WAEAV?$__crt_win32_buffer@DU__crt_win32_buffer_no_resizing@@@@AEBV<lambda_f788ae46380686e8b737efdd8c720d07>@@I@Z 000000018004af88 f i libucrt:getmodulefilenamea.obj
 0001:0004a0a4       __acrt_GetModuleFileNameA  000000018004b0a4 f   libucrt:getmodulefilenamea.obj
 0001:0004a9d0       __acrt_initialize_multibyte 000000018004b9d0 f   libucrt:mbctype.obj
 0001:0004aa30       __acrt_update_thread_multibyte_data 000000018004ba30 f   libucrt:mbctype.obj
 0001:0004aa4c       _setmbcp_nolock            000000018004ba4c f   libucrt:mbctype.obj
 0001:0004ad88       _ismbblead                 000000018004bd88 f   libucrt:ismbbyte.obj
 0001:0004ad9c       __acrt_initialize_command_line 000000018004bd9c f   libucrt:argv_data.obj
 0001:0004adc4       __acrt_MultiByteToWideChar 000000018004bdc4 f   libucrt:multibytetowidechar.obj
 0001:0004ae54       __acrt_WideCharToMultiByte 000000018004be54 f   libucrt:widechartomultibyte.obj
 0001:0004af34       __dcrt_get_narrow_environment_from_os 000000018004bf34 f   libucrt:get_environment_from_os.obj
 0001:0004b050       _recalloc_base             000000018004c050 f   libucrt:recalloc.obj
 0001:0004b0f0       _recalloc                  000000018004c0f0 f   libucrt:recalloc.obj
 0001:0004b100       _get_heap_handle           000000018004c100 f   libucrt:heap_handle.obj
 0001:0004b110       __acrt_initialize_heap     000000018004c110 f   libucrt:heap_handle.obj
 0001:0004b140       __acrt_uninitialize_heap   000000018004c140 f   libucrt:heap_handle.obj
 0001:0004b160       __acrt_getheap             000000018004c160 f   libucrt:heap_handle.obj
 0001:0004b168       __acrt_execute_initializers 000000018004c168 f   libucrt:shared_initialization.obj
 0001:0004b1e8       __acrt_execute_uninitializers 000000018004c1e8 f   libucrt:shared_initialization.obj
 0001:0004b230       __acrt_has_user_matherr    000000018004c230 f   libucrt:matherr.obj
 0001:0004b250       __acrt_initialize_user_matherr 000000018004c250 f   libucrt:matherr.obj
 0001:0004b260       __acrt_invoke_user_matherr 000000018004c260 f   libucrt:matherr.obj
 0001:0004b290       _query_new_mode            000000018004c290 f   libucrt:new_mode.obj
 0001:0004b2a0       _set_new_mode              000000018004c2a0 f   libucrt:new_mode.obj
 0001:0004b2cc       __acrt_add_locale_ref      000000018004c2cc f   libucrt:locale_refcounting.obj
 0001:0004b358       __acrt_free_locale         000000018004c358 f   libucrt:locale_refcounting.obj
 0001:0004b4d0       __acrt_locale_add_lc_time_reference 000000018004c4d0 f   libucrt:locale_refcounting.obj
 0001:0004b4f8       __acrt_locale_free_lc_time_if_unreferenced 000000018004c4f8 f   libucrt:locale_refcounting.obj
 0001:0004b530       __acrt_locale_release_lc_time_reference 000000018004c530 f   libucrt:locale_refcounting.obj
 0001:0004b558       __acrt_release_locale_ref  000000018004c558 f   libucrt:locale_refcounting.obj
 0001:0004b600       __acrt_update_thread_locale_data 000000018004c600 f   libucrt:locale_refcounting.obj
 0001:0004b670       _updatetlocinfoEx_nolock   000000018004c670 f   libucrt:locale_refcounting.obj
 0001:0004b7a8       __acrt_fp_strflt_to_string 000000018004c7a8 f   libucrt:_fptostr.obj
 0001:0004b8c0       ?divide@__crt_strtox@@YA_KAEAUbig_integer@1@AEBU21@@Z 000000018004c8c0 f i libucrt:cfout.obj
 0001:0004bd4c       __acrt_fltout              000000018004cd4c f   libucrt:cfout.obj
 0001:0004d060       fegetround                 000000018004e060 f   libucrt:fegetround.obj
 0001:0004d074       ?reset_and_return@__crt_mbstring@@YA_K_KPEAU_Mbstatet@@@Z 000000018004e074 f   libucrt:common_utf8.obj
 0001:0004d07c       ?return_illegal_sequence@__crt_mbstring@@YA_KPEAU_Mbstatet@@AEAV__crt_cached_ptd_host@@@Z 000000018004e07c f   libucrt:common_utf8.obj
 0001:0004d090       _isatty                    000000018004e090 f   libucrt:isatty.obj
 0001:0004d0f0       __acrt_locale_free_monetary 000000018004e0f0 f   libucrt:initmon.obj
 0001:0004d1fc       __acrt_locale_free_numeric 000000018004e1fc f   libucrt:initnum.obj
 0001:0004d29c       __acrt_locale_free_time    000000018004e29c f   libucrt:inittime.obj
 0001:0004d3a4       __acrt_lowio_create_handle_array 000000018004e3a4 f   libucrt:osfinfo.obj
 0001:0004d44c       __acrt_lowio_destroy_handle_array 000000018004e44c f   libucrt:osfinfo.obj
 0001:0004d49c       __acrt_lowio_ensure_fh_exists 000000018004e49c f   libucrt:osfinfo.obj
 0001:0004d544       __acrt_lowio_lock_fh       000000018004e544 f   libucrt:osfinfo.obj
 0001:0004d56c       __acrt_lowio_unlock_fh     000000018004e56c f   libucrt:osfinfo.obj
 0001:0004d594       _free_osfhnd               000000018004e594 f   libucrt:osfinfo.obj
 0001:0004d650       _get_osfhandle             000000018004e650 f   libucrt:osfinfo.obj
 0001:0004d6c8       __acrt_GetStringTypeW      000000018004e6c8 f   libucrt:getstringtypew.obj
 0001:0004d6d0       __acrt_DownlevelLocaleNameToLCID 000000018004e6d0 f   libucrt:lcidtoname_downlevel.obj
 0001:0004d89c       fclose                     000000018004e89c f   libucrt:fclose.obj
 0001:0004d9c0       _commit                    000000018004e9c0 f   libucrt:commit.obj
 0001:0004e280       _write_internal            000000018004f280 f   libucrt:write.obj
 0001:0004e3a0       _write_nolock              000000018004f3a0 f   libucrt:write.obj
 0001:0004e780       _lseeki64_nolock_internal  000000018004f780 f   libucrt:lseek.obj
 0001:0004e790       strncpy_s                  000000018004f790 f   libucrt:strncpy_s.obj
 0001:0004e8c0       __strncnt                  000000018004f8c0 f   libucrt:strncnt.obj
 0001:0004e8e0       qsort                      000000018004f8e0 f   libucrt:qsort.obj
 0001:0004ed20       strpbrk                    000000018004fd20 f   libucrt:strpbrk.obj
 0001:0004f0d8       _mbsdec                    00000001800500d8 f   libucrt:mbsdec.obj
 0001:0004f0e0       _mbsdec_l                  00000001800500e0 f   libucrt:mbsdec.obj
 0001:0004f190       _msize_base                0000000180050190 f   libucrt:msize.obj
 0001:0004f1d0       _msize                     00000001800501d0 f   libucrt:msize.obj
 0001:0004f1e0       _realloc_base              00000001800501e0 f   libucrt:realloc_base.obj
 0001:0004f260       _controlfp_s               0000000180050260 f   libucrt:contrlfp.obj
 0001:0004f2d0       fegetenv                   00000001800502d0 f   libucrt:fegetenv.obj
 0001:0004f2f0       fesetenv                   00000001800502f0 f   libucrt:fesetenv.obj
 0001:0004f360       feholdexcept               0000000180050360 f   libucrt:feholdexcept.obj
 0001:0004f3c0       ceil                       00000001800503c0 f   libucrt:ceil.obj
 0001:0004f490       log10                      0000000180050490 f   libucrt:log10.obj
 0001:0004fa40       __acrt_fenv_get_common_round_control 0000000180050a40 f   libucrt:_fenvutils.obj
 0001:0004fa50       __acrt_fenv_get_control    0000000180050a50 f   libucrt:_fenvutils.obj
 0001:0004fb30       __acrt_fenv_get_status     0000000180050b30 f   libucrt:_fenvutils.obj
 0001:0004fb90       __acrt_fenv_set_control    0000000180050b90 f   libucrt:_fenvutils.obj
 0001:0004fcc0       __acrt_fenv_set_status     0000000180050cc0 f   libucrt:_fenvutils.obj
 0001:0004fd40       __ascii_wcsnicmp           0000000180050d40 f   libucrt:wcsnicmp.obj
 0001:0004fda8       _query_app_type            0000000180050da8 f   libucrt:report_runtime_error.obj
 0001:0004fe28       _close_internal            0000000180050e28 f   libucrt:close.obj
 0001:0004feec       _close_nolock_internal     0000000180050eec f   libucrt:close.obj
 0001:0004ffbc       ?__acrt_stdio_free_stream@@YAXV__crt_stdio_stream@@@Z 0000000180050fbc f   libucrt:stream.obj
 0001:0004ffd8       _putwch_nolock             0000000180050fd8 f   libucrt:putwch.obj
 0001:00050018       _guard_check_icall         0000000180051018 f i libucrt:checkcfg.obj
 0001:00050030       _clearfp                   0000000180051030 f   libucrt:ieee.obj
 0001:000500a0       _control87                 00000001800510a0 f   libucrt:ieee.obj
 0001:00050460       _handle_error              0000000180051460 f   libucrt:libm_error.obj
 0001:000505a0       _handle_nan                00000001800515a0 f   libucrt:libm_error.obj
 0001:000505c0       _handle_nanf               00000001800515c0 f   libucrt:libm_error.obj
 0001:000505d0       ceil_sse41                 00000001800515d0 f   libucrt:floorceil_sse41.obj
 0001:000505e0       ceilf_sse41                00000001800515e0 f   libucrt:floorceil_sse41.obj
 0001:000505f0       __acrt_initialize_fma3     00000001800515f0 f   libucrt:fma3_available.obj
 0001:000506b0       _log10_special             00000001800516b0 f   libucrt:log_special.obj
 0001:0005076c       __dcrt_lowio_ensure_console_output_initialized 000000018005176c f   libucrt:initcon.obj
 0001:000507c0       __dcrt_terminate_console_output 00000001800517c0 f   libucrt:initcon.obj
 0001:000507dc       __dcrt_write_console       00000001800517dc f   libucrt:initcon.obj
 0001:000508a0       _clrfp                     00000001800518a0 f   libucrt:fpctrl.obj
 0001:000508c0       _ctrlfp                    00000001800518c0 f   libucrt:fpctrl.obj
 0001:00050940       _get_fpcsr                 0000000180051940 f   libucrt:fpctrl.obj
 0001:00050940       _get_fpsr                  0000000180051940 f   libucrt:fpctrl.obj
 0001:00050950       _set_fpcsr                 0000000180051950 f   libucrt:fpctrl.obj
 0001:00050950       _set_fpsr                  0000000180051950 f   libucrt:fpctrl.obj
 0001:00050960       _set_statfp                0000000180051960 f   libucrt:fpctrl.obj
 0001:00050980       _statfp                    0000000180051980 f   libucrt:fpctrl.obj
 0001:00050990       _raise_exc                 0000000180051990 f   libucrt:fpexcept.obj
 0001:000509c0       _raise_exc_ex              00000001800519c0 f   libucrt:fpexcept.obj
 0001:00050cd0       _set_errno_from_matherr    0000000180051cd0 f   libucrt:fpexcept.obj
 0001:00050d10       _FindPESection             0000000180051d10 f   LIBCMT:pesect.obj
 0001:00050d60       _IsNonwritableInCurrentImage 0000000180051d60 f   LIBCMT:pesect.obj
 0001:00050db0       _ValidateImageBase         0000000180051db0 f   LIBCMT:pesect.obj
 0001:00050ddc       __GSHandlerCheck_SEH       0000000180051ddc f   LIBCMT:gshandlerseh.obj
 0001:00050e64       __GSHandlerCheck_EH        0000000180051e64 f   LIBCMT:gshandlereh.obj
 0001:00050f00       __chkstk                   0000000180051f00 f   LIBCMT:chkstk.obj
 0001:00050f00       _alloca_probe              0000000180051f00 f   LIBCMT:chkstk.obj
 0001:00050f50       __C_specific_handler_noexcept 0000000180051f50 f   libvcruntime:chandler_noexcept.obj
 0001:00050f9c       strrchr                    0000000180051f9c f   libvcruntime:strrchr.obj
 0001:000510d0       ceilf                      00000001800520d0 f   libucrt:ceilf.obj
 0001:00051180       _guard_dispatch_icall_nop  0000000180052180 f   LIBCMT:guard_dispatch.obj
 0001:000511a0       _guard_xfg_dispatch_icall_nop 00000001800521a0 f   LIBCMT:guard_xfg_dispatch.obj
 0001:000511c0       _guard_dispatch_icall      00000001800521c0 f   libucrt:dispatchcfg.obj
 0001:000511c0       _guard_dispatch_icall_$fo_default$ 00000001800521c0     libucrt:dispatchcfg.obj
 0001:000511f0       memset_repstos             00000001800521f0 f   libvcruntime:memset.obj
 0001:00051200       memset                     0000000180052200 f   libvcruntime:memset.obj
 0001:000515b0       memcmp                     00000001800525b0 f   libvcruntime:memcmp.obj
 0001:000516a0       memcpy_repmovs             00000001800526a0 f   libvcruntime:memcpy.obj
 0001:000516b0       memcpy                     00000001800526b0 f   libvcruntime:memcpy.obj
 0001:000516b0       memcpy_$fo_default$        00000001800526b0     libvcruntime:memcpy.obj
 0001:000516b0       memmove                    00000001800526b0 f   libvcruntime:memcpy.obj
 0001:00051d30       strncmp                    0000000180052d30 f   libucrt:strncmp.obj
 0001:00051dc0       strlen                     0000000180052dc0 f   libucrt:strlen.obj
 0001:00051e80       strcmp                     0000000180052e80 f   libucrt:strcmp.obj
 0002:00000000       __imp_RegNotifyChangeKeyValue 0000000180057000     advapi32:ADVAPI32.dll
 0002:00000008       __imp_RegEnumKeyExW        0000000180057008     advapi32:ADVAPI32.dll
 0002:00000010       __imp_FreeSid              0000000180057010     advapi32:ADVAPI32.dll
 0002:00000018       __imp_AllocateAndInitializeSid 0000000180057018     advapi32:ADVAPI32.dll
 0002:00000020       __imp_RegGetValueW         0000000180057020     advapi32:ADVAPI32.dll
 0002:00000028       __imp_LsaNtStatusToWinError 0000000180057028     advapi32:ADVAPI32.dll
 0002:00000030       __imp_ConvertStringSecurityDescriptorToSecurityDescriptorW 0000000180057030     advapi32:ADVAPI32.dll
 0002:00000038       __imp_RegCloseKey          0000000180057038     advapi32:ADVAPI32.dll
 0002:00000040       __imp_RegEnumValueW        0000000180057040     advapi32:ADVAPI32.dll
 0002:00000048       __imp_RegQueryInfoKeyW     0000000180057048     advapi32:ADVAPI32.dll
 0002:00000050       __imp_RegQueryValueExW     0000000180057050     advapi32:ADVAPI32.dll
 0002:00000058       __imp_RegDeleteValueW      0000000180057058     advapi32:ADVAPI32.dll
 0002:00000060       __imp_RegSetValueExW       0000000180057060     advapi32:ADVAPI32.dll
 0002:00000068       __imp_RegCreateKeyExW      0000000180057068     advapi32:ADVAPI32.dll
 0002:00000070       \177ADVAPI32_NULL_THUNK_DATA 0000000180057070     advapi32:ADVAPI32.dll
 0002:00000078       __imp_LCMapStringW         0000000180057078     kernel32:KERNEL32.dll
 0002:00000080       __imp_WriteConsoleW        0000000180057080     kernel32:KERNEL32.dll
 0002:00000088       __imp_OutputDebugStringW   0000000180057088     kernel32:KERNEL32.dll
 0002:00000090       __imp_GetCurrentThreadId   0000000180057090     kernel32:KERNEL32.dll
 0002:00000098       __imp_FormatMessageW       0000000180057098     kernel32:KERNEL32.dll
 0002:000000a0       __imp_IsDebuggerPresent    00000001800570a0     kernel32:KERNEL32.dll
 0002:000000a8       __imp_CreateFileW          00000001800570a8     kernel32:KERNEL32.dll
 0002:000000b0       __imp_WriteFile            00000001800570b0     kernel32:KERNEL32.dll
 0002:000000b8       __imp_CloseHandle          00000001800570b8     kernel32:KERNEL32.dll
 0002:000000c0       __imp_SetLastError         00000001800570c0     kernel32:KERNEL32.dll
 0002:000000c8       __imp_GetPrivateProfileStringW 00000001800570c8     kernel32:KERNEL32.dll
 0002:000000d0       __imp_GetLastError         00000001800570d0     kernel32:KERNEL32.dll
 0002:000000d8       __imp_WritePrivateProfileStringW 00000001800570d8     kernel32:KERNEL32.dll
 0002:000000e0       __imp_GetModuleHandleW     00000001800570e0     kernel32:KERNEL32.dll
 0002:000000e8       __imp_GetProcAddress       00000001800570e8     kernel32:KERNEL32.dll
 0002:000000f0       __imp_IsWow64Process       00000001800570f0     kernel32:KERNEL32.dll
 0002:000000f8       __imp_DuplicateHandle      00000001800570f8     kernel32:KERNEL32.dll
 0002:00000100       __imp_VirtualFreeEx        0000000180057100     kernel32:KERNEL32.dll
 0002:00000108       __imp_GetCurrentProcess    0000000180057108     kernel32:KERNEL32.dll
 0002:00000110       __imp_VirtualAllocEx       0000000180057110     kernel32:KERNEL32.dll
 0002:00000118       __imp_WriteProcessMemory   0000000180057118     kernel32:KERNEL32.dll
 0002:00000120       __imp_VirtualProtectEx     0000000180057120     kernel32:KERNEL32.dll
 0002:00000128       __imp_TlsAlloc             0000000180057128     kernel32:KERNEL32.dll
 0002:00000130       __imp_TlsSetValue          0000000180057130     kernel32:KERNEL32.dll
 0002:00000138       __imp_TlsFree              0000000180057138     kernel32:KERNEL32.dll
 0002:00000140       __imp_TlsGetValue          0000000180057140     kernel32:KERNEL32.dll
 0002:00000148       __imp_LCMapStringEx        0000000180057148     kernel32:KERNEL32.dll
 0002:00000150       __imp_GetVersionExW        0000000180057150     kernel32:KERNEL32.dll
 0002:00000158       __imp_FreeLibrary          0000000180057158     kernel32:KERNEL32.dll
 0002:00000160       __imp_LoadLibraryExW       0000000180057160     kernel32:KERNEL32.dll
 0002:00000168       __imp_FindResourceW        0000000180057168     kernel32:KERNEL32.dll
 0002:00000170       __imp_LoadResource         0000000180057170     kernel32:KERNEL32.dll
 0002:00000178       __imp_LockResource         0000000180057178     kernel32:KERNEL32.dll
 0002:00000180       __imp_ExpandEnvironmentStringsW 0000000180057180     kernel32:KERNEL32.dll
 0002:00000188       __imp_OpenThread           0000000180057188     kernel32:KERNEL32.dll
 0002:00000190       __imp_SuspendThread        0000000180057190     kernel32:KERNEL32.dll
 0002:00000198       __imp_GetThreadContext     0000000180057198     kernel32:KERNEL32.dll
 0002:000001a0       __imp_SetThreadContext     00000001800571a0     kernel32:KERNEL32.dll
 0002:000001a8       __imp_ResumeThread         00000001800571a8     kernel32:KERNEL32.dll
 0002:000001b0       __imp_GetCurrentProcessId  00000001800571b0     kernel32:KERNEL32.dll
 0002:000001b8       __imp_CreateToolhelp32Snapshot 00000001800571b8     kernel32:KERNEL32.dll
 0002:000001c0       __imp_Thread32First        00000001800571c0     kernel32:KERNEL32.dll
 0002:000001c8       __imp_Thread32Next         00000001800571c8     kernel32:KERNEL32.dll
 0002:000001d0       __imp_VirtualAlloc         00000001800571d0     kernel32:KERNEL32.dll
 0002:000001d8       __imp_VirtualProtect       00000001800571d8     kernel32:KERNEL32.dll
 0002:000001e0       __imp_AddVectoredExceptionHandler 00000001800571e0     kernel32:KERNEL32.dll
 0002:000001e8       __imp_VirtualQuery         00000001800571e8     kernel32:KERNEL32.dll
 0002:000001f0       __imp_FlsFree              00000001800571f0     kernel32:KERNEL32.dll
 0002:000001f8       __imp_FlsGetValue          00000001800571f8     kernel32:KERNEL32.dll
 0002:00000200       __imp_FlsSetValue          0000000180057200     kernel32:KERNEL32.dll
 0002:00000208       __imp_ReleaseMutex         0000000180057208     kernel32:KERNEL32.dll
 0002:00000210       __imp_WaitForSingleObjectEx 0000000180057210     kernel32:KERNEL32.dll
 0002:00000218       __imp_CreateMutexW         0000000180057218     kernel32:KERNEL32.dll
 0002:00000220       __imp_GetSystemTimeAsFileTime 0000000180057220     kernel32:KERNEL32.dll
 0002:00000228       __imp_GetCurrentThread     0000000180057228     kernel32:KERNEL32.dll
 0002:00000230       __imp_GetTickCount         0000000180057230     kernel32:KERNEL32.dll
 0002:00000238       __imp_Sleep                0000000180057238     kernel32:KERNEL32.dll
 0002:00000240       __imp_GetModuleFileNameW   0000000180057240     kernel32:KERNEL32.dll
 0002:00000248       __imp_GetCommandLineW      0000000180057248     kernel32:KERNEL32.dll
 0002:00000250       __imp_QueryFullProcessImageNameW 0000000180057250     kernel32:KERNEL32.dll
 0002:00000258       __imp_LocalFree            0000000180057258     kernel32:KERNEL32.dll
 0002:00000260       __imp_K32GetModuleFileNameExW 0000000180057260     kernel32:KERNEL32.dll
 0002:00000268       __imp_SetThreadPriority    0000000180057268     kernel32:KERNEL32.dll
 0002:00000270       __imp_WaitForSingleObject  0000000180057270     kernel32:KERNEL32.dll
 0002:00000278       __imp_GetExitCodeThread    0000000180057278     kernel32:KERNEL32.dll
 0002:00000280       __imp_GetProcessId         0000000180057280     kernel32:KERNEL32.dll
 0002:00000288       __imp_ClosePrivateNamespace 0000000180057288     kernel32:KERNEL32.dll
 0002:00000290       __imp_GetThreadId          0000000180057290     kernel32:KERNEL32.dll
 0002:00000298       __imp_ReleaseSemaphore     0000000180057298     kernel32:KERNEL32.dll
 0002:000002a0       __imp_GetProcessTimes      00000001800572a0     kernel32:KERNEL32.dll
 0002:000002a8       __imp_WaitForMultipleObjects 00000001800572a8     kernel32:KERNEL32.dll
 0002:000002b0       __imp_SetThreadErrorMode   00000001800572b0     kernel32:KERNEL32.dll
 0002:000002b8       __imp_FreeLibraryAndExitThread 00000001800572b8     kernel32:KERNEL32.dll
 0002:000002c0       __imp_GetModuleHandleExW   00000001800572c0     kernel32:KERNEL32.dll
 0002:000002c8       __imp_CreateSemaphoreExW   00000001800572c8     kernel32:KERNEL32.dll
 0002:000002d0       __imp_FindCloseChangeNotification 00000001800572d0     kernel32:KERNEL32.dll
 0002:000002d8       __imp_CreateBoundaryDescriptorW 00000001800572d8     kernel32:KERNEL32.dll
 0002:000002e0       __imp_AddSIDToBoundaryDescriptor 00000001800572e0     kernel32:KERNEL32.dll
 0002:000002e8       __imp_AddIntegrityLabelToBoundaryDescriptor 00000001800572e8     kernel32:KERNEL32.dll
 0002:000002f0       __imp_OpenPrivateNamespaceW 00000001800572f0     kernel32:KERNEL32.dll
 0002:000002f8       __imp_DeleteBoundaryDescriptor 00000001800572f8     kernel32:KERNEL32.dll
 0002:00000300       __imp_GetEnvironmentVariableW 0000000180057300     kernel32:KERNEL32.dll
 0002:00000308       __imp_SetFilePointer       0000000180057308     kernel32:KERNEL32.dll
 0002:00000310       __imp_SetEndOfFile         0000000180057310     kernel32:KERNEL32.dll
 0002:00000318       __imp_FindFirstChangeNotificationW 0000000180057318     kernel32:KERNEL32.dll
 0002:00000320       __imp_CreateEventW         0000000180057320     kernel32:KERNEL32.dll
 0002:00000328       __imp_FindNextChangeNotification 0000000180057328     kernel32:KERNEL32.dll
 0002:00000330       __imp_GetModuleFileNameA   0000000180057330     kernel32:KERNEL32.dll
 0002:00000338       __imp_HeapFree             0000000180057338     kernel32:KERNEL32.dll
 0002:00000340       __imp_OpenSemaphoreW       0000000180057340     kernel32:KERNEL32.dll
 0002:00000348       __imp_HeapAlloc            0000000180057348     kernel32:KERNEL32.dll
 0002:00000350       __imp_CreateMutexExW       0000000180057350     kernel32:KERNEL32.dll
 0002:00000358       __imp_GetProcessHeap       0000000180057358     kernel32:KERNEL32.dll
 0002:00000360       __imp_WideCharToMultiByte  0000000180057360     kernel32:KERNEL32.dll
 0002:00000368       __imp_DebugBreak           0000000180057368     kernel32:KERNEL32.dll
 0002:00000370       __imp_EnterCriticalSection 0000000180057370     kernel32:KERNEL32.dll
 0002:00000378       __imp_LeaveCriticalSection 0000000180057378     kernel32:KERNEL32.dll
 0002:00000380       __imp_HeapReAlloc          0000000180057380     kernel32:KERNEL32.dll
 0002:00000388       __imp_DeleteCriticalSection 0000000180057388     kernel32:KERNEL32.dll
 0002:00000390       __imp_SetEvent             0000000180057390     kernel32:KERNEL32.dll
 0002:00000398       __imp_CreateThread         0000000180057398     kernel32:KERNEL32.dll
 0002:000003a0       __imp_GetFileType          00000001800573a0     kernel32:KERNEL32.dll
 0002:000003a8       __imp_SetFilePointerEx     00000001800573a8     kernel32:KERNEL32.dll
 0002:000003b0       __imp_GetStringTypeW       00000001800573b0     kernel32:KERNEL32.dll
 0002:000003b8       __imp_IsValidCodePage      00000001800573b8     kernel32:KERNEL32.dll
 0002:000003c0       __imp_GetACP               00000001800573c0     kernel32:KERNEL32.dll
 0002:000003c8       __imp_GetOEMCP             00000001800573c8     kernel32:KERNEL32.dll
 0002:000003d0       __imp_GetCommandLineA      00000001800573d0     kernel32:KERNEL32.dll
 0002:000003d8       __imp_GetEnvironmentStringsW 00000001800573d8     kernel32:KERNEL32.dll
 0002:000003e0       __imp_FreeEnvironmentStringsW 00000001800573e0     kernel32:KERNEL32.dll
 0002:000003e8       __imp_SetStdHandle         00000001800573e8     kernel32:KERNEL32.dll
 0002:000003f0       __imp_FlushFileBuffers     00000001800573f0     kernel32:KERNEL32.dll
 0002:000003f8       __imp_GetConsoleOutputCP   00000001800573f8     kernel32:KERNEL32.dll
 0002:00000400       __imp_GetConsoleMode       0000000180057400     kernel32:KERNEL32.dll
 0002:00000408       __imp_HeapSize             0000000180057408     kernel32:KERNEL32.dll
 0002:00000410       __imp_FlsAlloc             0000000180057410     kernel32:KERNEL32.dll
 0002:00000418       __imp_InitializeCriticalSection 0000000180057418     kernel32:KERNEL32.dll
 0002:00000420       __imp_GetStdHandle         0000000180057420     kernel32:KERNEL32.dll
 0002:00000428       __imp_ExitProcess          0000000180057428     kernel32:KERNEL32.dll
 0002:00000430       __imp_GetCPInfo            0000000180057430     kernel32:KERNEL32.dll
 0002:00000438       __imp_InitOnceBeginInitialize 0000000180057438     kernel32:KERNEL32.dll
 0002:00000438       __imp___std_init_once_begin_initialize 0000000180057438     kernel32:KERNEL32.dll
 0002:00000440       __imp_InitOnceComplete     0000000180057440     kernel32:KERNEL32.dll
 0002:00000440       __imp___std_init_once_complete 0000000180057440     kernel32:KERNEL32.dll
 0002:00000448       __imp_ReleaseSRWLockExclusive 0000000180057448     kernel32:KERNEL32.dll
 0002:00000450       __imp_AcquireSRWLockExclusive 0000000180057450     kernel32:KERNEL32.dll
 0002:00000458       __imp_TryAcquireSRWLockExclusive 0000000180057458     kernel32:KERNEL32.dll
 0002:00000460       __imp_FormatMessageA       0000000180057460     kernel32:KERNEL32.dll
 0002:00000468       __imp_GetLocaleInfoEx      0000000180057468     kernel32:KERNEL32.dll
 0002:00000470       __imp_QueryPerformanceCounter 0000000180057470     kernel32:KERNEL32.dll
 0002:00000478       __imp_QueryPerformanceFrequency 0000000180057478     kernel32:KERNEL32.dll
 0002:00000480       __imp_SleepConditionVariableSRW 0000000180057480     kernel32:KERNEL32.dll
 0002:00000488       __imp_CreateDirectoryW     0000000180057488     kernel32:KERNEL32.dll
 0002:00000490       __imp_FindClose            0000000180057490     kernel32:KERNEL32.dll
 0002:00000498       __imp_FindFirstFileW       0000000180057498     kernel32:KERNEL32.dll
 0002:000004a0       __imp_FindFirstFileExW     00000001800574a0     kernel32:KERNEL32.dll
 0002:000004a8       __imp_FindNextFileW        00000001800574a8     kernel32:KERNEL32.dll
 0002:000004b0       __imp_GetFileAttributesExW 00000001800574b0     kernel32:KERNEL32.dll
 0002:000004b8       __imp_AreFileApisANSI      00000001800574b8     kernel32:KERNEL32.dll
 0002:000004c0       __imp_GetFileInformationByHandleEx 00000001800574c0     kernel32:KERNEL32.dll
 0002:000004c8       __imp_MultiByteToWideChar  00000001800574c8     kernel32:KERNEL32.dll
 0002:000004d0       __imp_WakeAllConditionVariable 00000001800574d0     kernel32:KERNEL32.dll
 0002:000004d8       __imp_InitializeCriticalSectionEx 00000001800574d8     kernel32:KERNEL32.dll
 0002:000004e0       __imp_UnhandledExceptionFilter 00000001800574e0     kernel32:KERNEL32.dll
 0002:000004e8       __imp_SetUnhandledExceptionFilter 00000001800574e8     kernel32:KERNEL32.dll
 0002:000004f0       __imp_TerminateProcess     00000001800574f0     kernel32:KERNEL32.dll
 0002:000004f8       __imp_IsProcessorFeaturePresent 00000001800574f8     kernel32:KERNEL32.dll
 0002:00000500       __imp_GetStartupInfoW      0000000180057500     kernel32:KERNEL32.dll
 0002:00000508       __imp_InitializeSListHead  0000000180057508     kernel32:KERNEL32.dll
 0002:00000510       __imp_RaiseException       0000000180057510     kernel32:KERNEL32.dll
 0002:00000518       __imp_InterlockedFlushSList 0000000180057518     kernel32:KERNEL32.dll
 0002:00000520       __imp_EncodePointer        0000000180057520     kernel32:KERNEL32.dll
 0002:00000528       __imp_InitializeCriticalSectionAndSpinCount 0000000180057528     kernel32:KERNEL32.dll
 0002:00000530       __imp_ExitThread           0000000180057530     kernel32:KERNEL32.dll
 0002:00000538       \177KERNEL32_NULL_THUNK_DATA 0000000180057538     kernel32:KERNEL32.dll
 0002:00000540       __imp_RtlCaptureContext    0000000180057540     ntdll:ntdll.dll
 0002:00000548       __imp_RtlUnwindEx          0000000180057548     ntdll:ntdll.dll
 0002:00000550       __imp_RtlLookupFunctionEntry 0000000180057550     ntdll:ntdll.dll
 0002:00000558       __imp_RtlVirtualUnwind     0000000180057558     ntdll:ntdll.dll
 0002:00000560       __imp_NtProtectVirtualMemory 0000000180057560     ntdll:ntdll.dll
 0002:00000568       __imp_NtAllocateVirtualMemory 0000000180057568     ntdll:ntdll.dll
 0002:00000570       __imp_NtFlushInstructionCache 0000000180057570     ntdll:ntdll.dll
 0002:00000578       __imp_NtFreeVirtualMemory  0000000180057578     ntdll:ntdll.dll
 0002:00000580       __imp_NtResumeThread       0000000180057580     ntdll:ntdll.dll
 0002:00000588       __imp_NtQueryInformationThread 0000000180057588     ntdll:ntdll.dll
 0002:00000590       __imp_NtSetContextThread   0000000180057590     ntdll:ntdll.dll
 0002:00000598       __imp_NtGetNextThread      0000000180057598     ntdll:ntdll.dll
 0002:000005a0       __imp_NtSuspendThread      00000001800575a0     ntdll:ntdll.dll
 0002:000005a8       __imp_NtGetContextThread   00000001800575a8     ntdll:ntdll.dll
 0002:000005b0       __imp_NtQueryValueKey      00000001800575b0     ntdll:ntdll.dll
 0002:000005b8       __imp_RtlCreateHeap        00000001800575b8     ntdll:ntdll.dll
 0002:000005c0       __imp_RtlFreeHeap          00000001800575c0     ntdll:ntdll.dll
 0002:000005c8       __imp_NtClose              00000001800575c8     ntdll:ntdll.dll
 0002:000005d0       __imp_RtlReAllocateHeap    00000001800575d0     ntdll:ntdll.dll
 0002:000005d8       __imp_LdrGetDllHandleEx    00000001800575d8     ntdll:ntdll.dll
 0002:000005e0       __imp_NtOpenKey            00000001800575e0     ntdll:ntdll.dll
 0002:000005e8       __imp_NtQuerySystemInformation 00000001800575e8     ntdll:ntdll.dll
 0002:000005f0       __imp_RtlEqualUnicodeString 00000001800575f0     ntdll:ntdll.dll
 0002:000005f8       __imp_RtlAllocateHeap      00000001800575f8     ntdll:ntdll.dll
 0002:00000600       __imp_RtlDestroyHeap       0000000180057600     ntdll:ntdll.dll
 0002:00000608       __imp_NtQueryVirtualMemory 0000000180057608     ntdll:ntdll.dll
 0002:00000610       __imp_RtlPcToFileHeader    0000000180057610     ntdll:ntdll.dll
 0002:00000618       \177ntdll_NULL_THUNK_DATA  0000000180057618     ntdll:ntdll.dll
 0002:00000620       __guard_check_icall_fptr   0000000180057620     LIBCMT:guard_support.obj
 0002:00000628       __guard_xfg_check_icall_fptr 0000000180057628     LIBCMT:guard_support.obj
 0002:00000630       __guard_dispatch_icall_fptr 0000000180057630     LIBCMT:guard_support.obj
 0002:00000638       __guard_xfg_dispatch_icall_fptr 0000000180057638     LIBCMT:guard_support.obj
 0002:00000640       __guard_xfg_table_dispatch_icall_fptr 0000000180057640     LIBCMT:guard_support.obj
 0002:00000648       __castguard_check_failure_os_handled_fptr 0000000180057648     LIBCMT:guard_support.obj
 0002:00000650       __guard_memcpy_fptr        0000000180057650     libvcruntime:softmemtag.obj
 0002:00000658       __xc_a                     0000000180057658     LIBCMT:initializers.obj
 0002:000006a0       __xc_z                     00000001800576a0     LIBCMT:initializers.obj
 0002:000006a8       __xi_a                     00000001800576a8     LIBCMT:initializers.obj
 0002:000006b8       __acrt_stdio_initializer   00000001800576b8     libucrt:stdio_initializer.obj
 0002:000006c0       __acrt_multibyte_initializer 00000001800576c0     libucrt:multibyte_initializer.obj
 0002:000006c8       __acrt_tran_fma3_initializer 00000001800576c8     libucrt:fma3_initializer.obj
 0002:000006d0       __xi_z                     00000001800576d0     LIBCMT:initializers.obj
 0002:000006d8       __xl_a                     00000001800576d8     LIBCMT:tlssup.obj
 0002:000006e0       __xl_z                     00000001800576e0     LIBCMT:tlssup.obj
 0002:000006e8       __xp_a                     00000001800576e8     LIBCMT:initializers.obj
 0002:000006f0       __acrt_locale_terminator   00000001800576f0     libucrt:locale_initializer.obj
 0002:000006f8       __dcrt_console_output_terminator 00000001800576f8     libucrt:console_output_initializer.obj
 0002:00000700       __acrt_stdio_terminator    0000000180057700     libucrt:stdio_initializer.obj
 0002:00000708       __xp_z                     0000000180057708     LIBCMT:initializers.obj
 0002:00000710       __xt_a                     0000000180057710     LIBCMT:initializers.obj
 0002:00000718       __xt_z                     0000000180057718     LIBCMT:initializers.obj
 0002:00000758       _GUID_00000001_0000_0000_c000_000000000046 0000000180057758     diaguids:guidstr.obj
 0002:00000768       ??_C@_0BC@JDLGBILA@DllGetClassObject@ 0000000180057768     diaguids:guidstr.obj
 0002:00000780       CLSID_DiaSource            0000000180057780     diaguids:dia2_i.obj
 0002:00000790       FOLDERID_ProgramData       0000000180057790     shell32:shguid.obj
 0002:000007a8       ??_7exception@std@@6B@     00000001800577a8     libcpmt:xthrow.obj
 0002:000007c0       ??_7bad_alloc@std@@6B@     00000001800577c0     libcpmt:xthrow.obj
 0002:000007d0       ??_C@_0P@GHFPNOJB@bad?5allocation@ 00000001800577d0     libcpmt:xthrow.obj
 0002:000007e8       ??_7bad_function_call@std@@6B@ 00000001800577e8     libcpmt:xthrow.obj
 0002:000007f8       ??_C@_0BC@DPJNKNAF@bad?5function?5call@ 00000001800577f8     libcpmt:xthrow.obj
 0002:00000818       ??_7logic_error@std@@6B@   0000000180057818     libcpmt:xthrow.obj
 0002:00000830       ??_7invalid_argument@std@@6B@ 0000000180057830     libcpmt:xthrow.obj
 0002:00000848       ??_7length_error@std@@6B@  0000000180057848     libcpmt:xthrow.obj
 0002:00000860       ??_7out_of_range@std@@6B@  0000000180057860     libcpmt:xthrow.obj
 0002:00000878       ??_7runtime_error@std@@6B@ 0000000180057878     libcpmt:xthrow.obj
 0002:00002dc0       __xmm@ff00ff00ff00ff00ff00ff00ff00ff00 0000000180059dc0     libcpmt:vector_algorithms.obj
 0002:00002dd0       __xmm@ffffffffffffffffffffffffffffffff 0000000180059dd0     libcpmt:vector_algorithms.obj
 0002:00002de0       __ymm@0000001f0000001f0000001f0000001f0000001f0000001f0000001f0000001f 0000000180059de0     libcpmt:vector_algorithms.obj
 0002:00002e00       __ymm@ffffff00ffffff00ffffff00ffffff00ffffff00ffffff00ffffff00ffffff00 0000000180059e00     libcpmt:vector_algorithms.obj
 0002:00002e78       ??_C@_0BI@NGCEHDD@device?5or?5resource?5busy@ 0000000180059e78     libcpmt:thread0.obj
 0002:00002e90       ??_C@_0BB@FCMFBGOM@invalid?5argument@ 0000000180059e90     libcpmt:thread0.obj
 0002:00002ea8       ??_C@_0BA@ENLPPKBN@no?5such?5process@ 0000000180059ea8     libcpmt:thread0.obj
 0002:00002eb8       ??_C@_0BC@ENOOLCNF@not?5enough?5memory@ 0000000180059eb8     libcpmt:thread0.obj
 0002:00002ed0       ??_C@_0BI@OHIEJAAB@operation?5not?5permitted@ 0000000180059ed0     libcpmt:thread0.obj
 0002:00002ee8       ??_C@_0BO@BJBOMOEJ@resource?5deadlock?5would?5occur@ 0000000180059ee8     libcpmt:thread0.obj
 0002:00002f08       ??_C@_0BP@LKNGHENJ@resource?5unavailable?5try?5again@ 0000000180059f08     libcpmt:thread0.obj
 0002:00002f30       ??_7bad_array_new_length@std@@6B@ 0000000180059f30     libcpmt:thread0.obj
 0002:00002f48       ??_7_System_error@std@@6B@ 0000000180059f48     libcpmt:thread0.obj
 0002:00002f60       ??_7system_error@std@@6B@  0000000180059f60     libcpmt:thread0.obj
 0002:00002f78       ??_7_Generic_error_category@std@@6B@ 0000000180059f78     libcpmt:thread0.obj
 0002:00003740       ??_C@_07IPNMCAN@success@   000000018005a740     libcpmt:syserror.obj
 0002:00003748       ??_C@_0BN@LKKBCCDB@address?5family?5not?5supported@ 000000018005a748     libcpmt:syserror.obj
 0002:00003768       ??_C@_0P@LDMLAFHI@address?5in?5use@ 000000018005a768     libcpmt:syserror.obj
 0002:00003778       ??_C@_0BG@DHPCNBJB@address?5not?5available@ 000000018005a778     libcpmt:syserror.obj
 0002:00003790       ??_C@_0BC@DFIBIBIL@already?5connected@ 000000018005a790     libcpmt:syserror.obj
 0002:000037a8       ??_C@_0BH@CAKOHOMI@argument?5list?5too?5long@ 000000018005a7a8     libcpmt:syserror.obj
 0002:000037c0       ??_C@_0BH@CGIMPKIM@argument?5out?5of?5domain@ 000000018005a7c0     libcpmt:syserror.obj
 0002:000037d8       ??_C@_0M@KGHGGJGL@bad?5address@ 000000018005a7d8     libcpmt:syserror.obj
 0002:000037e8       ??_C@_0BE@MPJPGCEO@bad?5file?5descriptor@ 000000018005a7e8     libcpmt:syserror.obj
 0002:00003800       ??_C@_0M@PMMIEFCP@bad?5message@ 000000018005a800     libcpmt:syserror.obj
 0002:00003810       ??_C@_0M@KPHOFDBE@broken?5pipe@ 000000018005a810     libcpmt:syserror.obj
 0002:00003820       ??_C@_0BD@MGNDDEGM@connection?5aborted@ 000000018005a820     libcpmt:syserror.obj
 0002:00003838       ??_C@_0BP@KAIHPOGN@connection?5already?5in?5progress@ 000000018005a838     libcpmt:syserror.obj
 0002:00003858       ??_C@_0BD@PJLIIJEL@connection?5refused@ 000000018005a858     libcpmt:syserror.obj
 0002:00003870       ??_C@_0BB@IECNJNOI@connection?5reset@ 000000018005a870     libcpmt:syserror.obj
 0002:00003888       ??_C@_0BC@PPHBOELF@cross?5device?5link@ 000000018005a888     libcpmt:syserror.obj
 0002:000038a0       ??_C@_0BN@KDMIFEIP@destination?5address?5required@ 000000018005a8a0     libcpmt:syserror.obj
 0002:000038c0       ??_C@_0BE@JIDOCPHM@directory?5not?5empty@ 000000018005a8c0     libcpmt:syserror.obj
 0002:000038d8       ??_C@_0BI@BNCLIGPB@executable?5format?5error@ 000000018005a8d8     libcpmt:syserror.obj
 0002:000038f0       ??_C@_0M@MIDIAGJP@file?5exists@ 000000018005a8f0     libcpmt:syserror.obj
 0002:00003900       ??_C@_0P@DNAJLBJK@file?5too?5large@ 000000018005a900     libcpmt:syserror.obj
 0002:00003910       ??_C@_0BC@EJHOMAAK@filename?5too?5long@ 000000018005a910     libcpmt:syserror.obj
 0002:00003928       ??_C@_0BH@KEFGLDAF@function?5not?5supported@ 000000018005a928     libcpmt:syserror.obj
 0002:00003940       ??_C@_0BB@DHFDFGDM@host?5unreachable@ 000000018005a940     libcpmt:syserror.obj
 0002:00003958       ??_C@_0BD@JPHBMONG@identifier?5removed@ 000000018005a958     libcpmt:syserror.obj
 0002:00003970       ??_C@_0BG@CDNPAGJK@illegal?5byte?5sequence@ 000000018005a970     libcpmt:syserror.obj
 0002:00003988       ??_C@_0CD@BNPLBMNA@inappropriate?5io?5control?5operat@ 000000018005a988     libcpmt:syserror.obj
 0002:000039b0       ??_C@_0M@EGEKIIMP@interrupted@ 000000018005a9b0     libcpmt:syserror.obj
 0002:000039c0       ??_C@_0N@OHAFKDEK@invalid?5seek@ 000000018005a9c0     libcpmt:syserror.obj
 0002:000039d0       ??_C@_08GLNPIFBN@io?5error@ 000000018005a9d0     libcpmt:syserror.obj
 0002:000039e0       ??_C@_0P@FLLDBIDK@is?5a?5directory@ 000000018005a9e0     libcpmt:syserror.obj
 0002:000039f0       ??_C@_0N@IFLPBIOP@message?5size@ 000000018005a9f0     libcpmt:syserror.obj
 0002:00003a00       ??_C@_0N@KIIEAAIO@network?5down@ 000000018005aa00     libcpmt:syserror.obj
 0002:00003a10       ??_C@_0O@FNPDBHEE@network?5reset@ 000000018005aa10     libcpmt:syserror.obj
 0002:00003a20       ??_C@_0BE@IFNCKGE@network?5unreachable@ 000000018005aa20     libcpmt:syserror.obj
 0002:00003a38       ??_C@_0BA@PFFCAOFK@no?5buffer?5space@ 000000018005aa38     libcpmt:syserror.obj
 0002:00003a48       ??_C@_0BB@IEPBLJHK@no?5child?5process@ 000000018005aa48     libcpmt:syserror.obj
 0002:00003a60       ??_C@_07PLECNNKG@no?5link@ 000000018005aa60     libcpmt:syserror.obj
 0002:00003a68       ??_C@_0BC@NJECKMKE@no?5lock?5available@ 000000018005aa68     libcpmt:syserror.obj
 0002:00003a80       ??_C@_0BF@PBGGPKKE@no?5message?5available@ 000000018005aa80     libcpmt:syserror.obj
 0002:00003a98       ??_C@_0L@EDOLMPAK@no?5message@ 000000018005aa98     libcpmt:syserror.obj
 0002:00003aa8       ??_C@_0BD@EAMBFIDF@no?5protocol?5option@ 000000018005aaa8     libcpmt:syserror.obj
 0002:00003ac0       ??_C@_0BD@IJDJKDEA@no?5space?5on?5device@ 000000018005aac0     libcpmt:syserror.obj
 0002:00003ad8       ??_C@_0BE@MKFDAFMP@no?5stream?5resources@ 000000018005aad8     libcpmt:syserror.obj
 0002:00003af0       ??_C@_0BK@IMCPHCBI@no?5such?5device?5or?5address@ 000000018005aaf0     libcpmt:syserror.obj
 0002:00003b10       ??_C@_0P@FDINDDOK@no?5such?5device@ 000000018005ab10     libcpmt:syserror.obj
 0002:00003b20       ??_C@_0BK@NDOCBPGE@no?5such?5file?5or?5directory@ 000000018005ab20     libcpmt:syserror.obj
 0002:00003b40       ??_C@_0BA@DOCPFFJG@not?5a?5directory@ 000000018005ab40     libcpmt:syserror.obj
 0002:00003b50       ??_C@_0N@POEIPGGF@not?5a?5socket@ 000000018005ab50     libcpmt:syserror.obj
 0002:00003b60       ??_C@_0N@LGAPMMPI@not?5a?5stream@ 000000018005ab60     libcpmt:syserror.obj
 0002:00003b70       ??_C@_0O@GLMIBBEG@not?5connected@ 000000018005ab70     libcpmt:syserror.obj
 0002:00003b80       ??_C@_0O@NHEDABJP@not?5supported@ 000000018005ab80     libcpmt:syserror.obj
 0002:00003b90       ??_C@_0BD@MOLBPMEA@operation?5canceled@ 000000018005ab90     libcpmt:syserror.obj
 0002:00003ba8       ??_C@_0BG@KDKHOPCO@operation?5in?5progress@ 000000018005aba8     libcpmt:syserror.obj
 0002:00003bc0       ??_C@_0BI@LNEGIFLN@operation?5not?5supported@ 000000018005abc0     libcpmt:syserror.obj
 0002:00003bd8       ??_C@_0BG@OEMDKMEE@operation?5would?5block@ 000000018005abd8     libcpmt:syserror.obj
 0002:00003bf0       ??_C@_0L@BLPOFLNJ@owner?5dead@ 000000018005abf0     libcpmt:syserror.obj
 0002:00003c00       ??_C@_0BC@CIJDGCDI@permission?5denied@ 000000018005ac00     libcpmt:syserror.obj
 0002:00003c18       ??_C@_0P@FNPOCJBE@protocol?5error@ 000000018005ac18     libcpmt:syserror.obj
 0002:00003c28       ??_C@_0BH@JPPPLHJB@protocol?5not?5supported@ 000000018005ac28     libcpmt:syserror.obj
 0002:00003c40       ??_C@_0BG@EICBIHDP@read?5only?5file?5system@ 000000018005ac40     libcpmt:syserror.obj
 0002:00003c58       ??_C@_0BE@GOIPJJHG@result?5out?5of?5range@ 000000018005ac58     libcpmt:syserror.obj
 0002:00003c70       ??_C@_0BG@MPLKFPAE@state?5not?5recoverable@ 000000018005ac70     libcpmt:syserror.obj
 0002:00003c88       ??_C@_0P@DIIFGFCG@stream?5timeout@ 000000018005ac88     libcpmt:syserror.obj
 0002:00003c98       ??_C@_0P@IPFDMIFL@text?5file?5busy@ 000000018005ac98     libcpmt:syserror.obj
 0002:00003ca8       ??_C@_09KJPPMAOI@timed?5out@ 000000018005aca8     libcpmt:syserror.obj
 0002:00003cb8       ??_C@_0BO@HACHBEKI@too?5many?5files?5open?5in?5system@ 000000018005acb8     libcpmt:syserror.obj
 0002:00003cd8       ??_C@_0BE@GHAFMPAH@too?5many?5files?5open@ 000000018005acd8     libcpmt:syserror.obj
 0002:00003cf0       ??_C@_0P@HCOMKFCC@too?5many?5links@ 000000018005acf0     libcpmt:syserror.obj
 0002:00003d00       ??_C@_0BO@EFGOJEF@too?5many?5symbolic?5link?5levels@ 000000018005ad00     libcpmt:syserror.obj
 0002:00003d20       ??_C@_0BA@KGKGOOJA@value?5too?5large@ 000000018005ad20     libcpmt:syserror.obj
 0002:00003d30       ??_C@_0BE@MIEJDDNH@wrong?5protocol?5type@ 000000018005ad30     libcpmt:syserror.obj
 0002:00003d48       ??_C@_0O@BFJCFAAK@unknown?5error@ 000000018005ad48     libcpmt:syserror.obj
 0002:00003e60       ??_C@_1CM@BFAMBNFD@?$AA?$CB?$AAx?$AA?9?$AAs?$AAy?$AAs?$AA?9?$AAd?$AAe?$AAf?$AAa?$AAu?$AAl?$AAt?$AA?9@ 000000018005ae60     libcpmt:syserror_import_lib.obj
 0002:00003e90       ??_C@_0O@NNMIPI@GetTempPath2W@ 000000018005ae90     libcpmt:filesystem.obj
 0002:00003ea0       ??_C@_0BP@FPNJPEJC@GetSystemTimePreciseAsFileTime@ 000000018005aea0     libcpmt:winapisupp.obj
 0002:00003ed8       ??_7type_info@@6B@         000000018005aed8     LIBCMT:std_type_info_static.obj
 0002:00003ee0       _pDefaultRawDllMain        000000018005aee0     LIBCMT:dll_dllmain.obj
 0002:00003ee0       _pRawDllMain               000000018005aee0     LIBCMT:dll_dllmain.obj
 0002:00003ee8       ?s_negLengthTab@FH4@@3QBCB 000000018005aee8     libvcruntime:risctrnsctrl.obj
 0002:00003ef8       ?s_shiftTab@FH4@@3QBEB     000000018005aef8     libvcruntime:risctrnsctrl.obj
 0002:00004048       _pDestructExceptionObject  000000018005b048     libvcruntime:ehhelpers.obj
 0002:00004058       ??_7bad_exception@std@@6B@ 000000018005b058     libvcruntime:frame.obj
 0002:00004068       ??_C@_0O@DPKOEFFH@bad?5exception@ 000000018005b068     libvcruntime:frame.obj
 0002:00004790       ??_C@_08EHJDFFNH@__based?$CI@ 000000018005b790     libvcruntime:undname.obj
 0002:000047a0       ??_C@_07KOLFKCDI@__cdecl@  000000018005b7a0     libvcruntime:undname.obj
 0002:000047a8       ??_C@_09IFJBGAPI@__stdcall@ 000000018005b7a8     libvcruntime:undname.obj
 0002:000047b8       ??_C@_0L@NPHFGOKO@__thiscall@ 000000018005b7b8     libvcruntime:undname.obj
 0002:000047c8       ??_C@_0L@JMKHOMEK@__fastcall@ 000000018005b7c8     libvcruntime:undname.obj
 0002:000047d8       ??_C@_0N@BCKKPABJ@__vectorcall@ 000000018005b7d8     libvcruntime:undname.obj
 0002:000047e8       ??_C@_0BA@NAGGFLJK@__preserve_none@ 000000018005b7e8     libvcruntime:undname.obj
 0002:000047f8       ??_C@_09HIJEGCPM@__clrcall@ 000000018005b7f8     libvcruntime:undname.obj
 0002:00004804       ??_C@_06GHPCKEAG@__eabi@   000000018005b804     libvcruntime:undname.obj
 0002:00004810       ??_C@_09IOPIDJLG@__swift_1@ 000000018005b810     libvcruntime:undname.obj
 0002:00004820       ??_C@_09KFNFGKHF@__swift_2@ 000000018005b820     libvcruntime:undname.obj
 0002:00004830       ??_C@_09LMMOFLDE@__swift_3@ 000000018005b830     libvcruntime:undname.obj
 0002:00004840       ??_C@_07JOMMBBKO@__ptr64@  000000018005b840     libvcruntime:undname.obj
 0002:00004848       ??_C@_0L@PILCLIHE@__restrict@ 000000018005b848     libvcruntime:undname.obj
 0002:00004858       ??_C@_0M@GFIIJFMG@__unaligned@ 000000018005b858     libvcruntime:undname.obj
 0002:00004868       ??_C@_09DHDLOLLB@restrict?$CI@ 000000018005b868     libvcruntime:undname.obj
 0002:00004874       ??_C@_04NIHEBCM@?5new@     000000018005b874     libvcruntime:undname.obj
 0002:00004880       ??_C@_07FPCDHGMM@?5delete@ 000000018005b880     libvcruntime:undname.obj
 0002:00004888       ??_C@_01NEMOKFLO@?$DN@     000000018005b888     libvcruntime:undname.obj
 0002:0000488c       ??_C@_02GPIOPFAK@?$DO?$DO@ 000000018005b88c     libvcruntime:undname.obj
 0002:00004890       ??_C@_02FODMEDOG@?$DM?$DM@ 000000018005b890     libvcruntime:undname.obj
 0002:00004894       ??_C@_01DCLJPIOD@?$CB@     000000018005b894     libvcruntime:undname.obj
 0002:00004898       ??_C@_02EGOFBIJA@?$DN?$DN@ 000000018005b898     libvcruntime:undname.obj
 0002:0000489c       ??_C@_02FDNJECIE@?$CB?$DN@ 000000018005b89c     libvcruntime:undname.obj
 0002:000048a0       ??_C@_02GPECMEKF@?$FL?$FN@ 000000018005b8a0     libvcruntime:undname.obj
 0002:000048a8       ??_C@_08LHJFAFGD@operator@ 000000018005b8a8     libvcruntime:undname.obj
 0002:000048b4       ??_C@_02HBOOOICD@?9?$DO@   000000018005b8b4     libvcruntime:undname.obj
 0002:000048b8       ??_C@_02ECNGHCIF@?$CL?$CL@ 000000018005b8b8     libvcruntime:undname.obj
 0002:000048bc       ??_C@_02BAABKJLB@?9?9@     000000018005b8bc     libvcruntime:undname.obj
 0002:000048c0       ??_C@_01HNPIGOCE@?$CG@     000000018005b8c0     libvcruntime:undname.obj
 0002:000048c4       ??_C@_03MNHNFDLC@?9?$DO?$CK@ 000000018005b8c4     libvcruntime:undname.obj
 0002:000048c8       ??_C@_01KMDKNFGN@?1@       000000018005b8c8     libvcruntime:undname.obj
 0002:000048cc       ??_C@_01MNNFJEPP@?$DM@     000000018005b8cc     libvcruntime:undname.obj
 0002:000048d0       ??_C@_02EHCHHCKH@?$DM?$DN@ 000000018005b8d0     libvcruntime:undname.obj
 0002:000048d4       ??_C@_01PPODPGHN@?$DO@     000000018005b8d4     libvcruntime:undname.obj
 0002:000048d8       ??_C@_02EEKDKGMJ@?$DO?$DN@ 000000018005b8d8     libvcruntime:undname.obj
 0002:000048dc       ??_C@_02HCKGKOFO@?$CI?$CJ@ 000000018005b8dc     libvcruntime:undname.obj
 0002:000048e0       ??_C@_01PJKLJHI@?$HO@      000000018005b8e0     libvcruntime:undname.obj
 0002:000048e4       ??_C@_01JKBOJNNK@?$FO@     000000018005b8e4     libvcruntime:undname.obj
 0002:000048e8       ??_C@_01DNKMNLPK@?$HM@     000000018005b8e8     libvcruntime:undname.obj
 0002:000048ec       ??_C@_02PPKAJPJL@?$CG?$CG@ 000000018005b8ec     libvcruntime:undname.obj
 0002:000048f0       ??_C@_02NONPIBCD@?$HM?$HM@ 000000018005b8f0     libvcruntime:undname.obj
 0002:000048f4       ??_C@_02FPIMKNGF@?$CK?$DN@ 000000018005b8f4     libvcruntime:undname.obj
 0002:000048f8       ??_C@_02FOEOMHFC@?$CL?$DN@ 000000018005b8f8     libvcruntime:undname.obj
 0002:000048fc       ??_C@_02FKMDLLOA@?9?$DN@   000000018005b8fc     libvcruntime:undname.obj
 0002:00004900       ??_C@_02FJEHGPIO@?1?$DN@   000000018005b900     libvcruntime:undname.obj
 0002:00004904       ??_C@_02FENAOKFI@?$CF?$DN@ 000000018005b904     libvcruntime:undname.obj
 0002:00004908       ??_C@_03IKFCCPFF@?$DO?$DO?$DN@ 000000018005b908     libvcruntime:undname.obj
 0002:0000490c       ??_C@_03CDNPDDLA@?$DM?$DM?$DN@ 000000018005b90c     libvcruntime:undname.obj
 0002:00004910       ??_C@_02FGJGFEAB@?$CG?$DN@ 000000018005b910     libvcruntime:undname.obj
 0002:00004914       ??_C@_02DHLNPPGH@?$HM?$DN@ 000000018005b914     libvcruntime:undname.obj
 0002:00004918       ??_C@_02MHEGNOJ@?$FO?$DN@  000000018005b918     libvcruntime:undname.obj
 0002:00004920       ??_C@_09IFPLHPGF@?$GAvftable?8@ 000000018005b920     libvcruntime:undname.obj
 0002:00004930       ??_C@_09BLBHBJP@?$GAvbtable?8@ 000000018005b930     libvcruntime:undname.obj
 0002:00004940       ??_C@_07FEEIOKP@?$GAvcall?8@ 000000018005b940     libvcruntime:undname.obj
 0002:00004948       ??_C@_08LLFFHHDJ@?$GAtypeof?8@ 000000018005b948     libvcruntime:undname.obj
 0002:00004958       ??_C@_0BF@KDPPACIK@?$GAlocal?5static?5guard?8@ 000000018005b958     libvcruntime:undname.obj
 0002:00004970       ??_C@_08OBABFOLI@?$GAstring?8@ 000000018005b970     libvcruntime:undname.obj
 0002:00004980       ??_C@_0BD@JDLKDPAB@?$GAvbase?5destructor?8@ 000000018005b980     libvcruntime:undname.obj
 0002:00004998       ??_C@_0BN@DEGPLNFK@?$GAvector?5deleting?5destructor?8@ 000000018005b998     libvcruntime:undname.obj
 0002:000049b8       ??_C@_0BO@OBMKPJIG@?$GAdefault?5constructor?5closure?8@ 000000018005b9b8     libvcruntime:undname.obj
 0002:000049d8       ??_C@_0BN@IMDCHIKM@?$GAscalar?5deleting?5destructor?8@ 000000018005b9d8     libvcruntime:undname.obj
 0002:000049f8       ??_C@_0BO@PFGOCPJJ@?$GAvector?5constructor?5iterator?8@ 000000018005b9f8     libvcruntime:undname.obj
 0002:00004a18       ??_C@_0BN@LFPFMEDL@?$GAvector?5destructor?5iterator?8@ 000000018005ba18     libvcruntime:undname.obj
 0002:00004a38       ??_C@_0CE@IKBNEHA@?$GAvector?5vbase?5constructor?5itera@ 000000018005ba38     libvcruntime:undname.obj
 0002:00004a60       ??_C@_0BL@NILFHHPC@?$GAvirtual?5displacement?5map?8@ 000000018005ba60     libvcruntime:undname.obj
 0002:00004a80       ??_C@_0CB@JONCMFFK@?$GAeh?5vector?5constructor?5iterator@ 000000018005ba80     libvcruntime:undname.obj
 0002:00004aa8       ??_C@_0CA@GCEOPDGL@?$GAeh?5vector?5destructor?5iterator?8@ 000000018005baa8     libvcruntime:undname.obj
 0002:00004ac8       ??_C@_0CH@OOJPLCPH@?$GAeh?5vector?5vbase?5constructor?5it@ 000000018005bac8     libvcruntime:undname.obj
 0002:00004af0       ??_C@_0BL@LLKPOHJI@?$GAcopy?5constructor?5closure?8@ 000000018005baf0     libvcruntime:undname.obj
 0002:00004b10       ??_C@_0BA@KBCDOMBN@?$GAudt?5returning?8@ 000000018005bb10     libvcruntime:undname.obj
 0002:00004b20       ??_C@_03KLGMFNMG@?$GAEH@   000000018005bb20     libvcruntime:undname.obj
 0002:00004b24       ??_C@_05KHLCHHI@?$GARTTI@  000000018005bb24     libvcruntime:undname.obj
 0002:00004b30       ??_C@_0BA@KKLDJDLB@?$GAlocal?5vftable?8@ 000000018005bb30     libvcruntime:undname.obj
 0002:00004b40       ??_C@_0CE@IIHCMGGL@?$GAlocal?5vftable?5constructor?5clos@ 000000018005bb40     libvcruntime:undname.obj
 0002:00004b64       ??_C@_06FHBGPFGH@?5new?$FL?$FN@ 000000018005bb64     libvcruntime:undname.obj
 0002:00004b70       ??_C@_09LBNFPBCA@?5delete?$FL?$FN@ 000000018005bb70     libvcruntime:undname.obj
 0002:00004b80       ??_C@_0P@HJKNJFNN@?$GAomni?5callsig?8@ 000000018005bb80     libvcruntime:undname.obj
 0002:00004b90       ??_C@_0BL@CNOONJFP@?$GAplacement?5delete?5closure?8@ 000000018005bb90     libvcruntime:undname.obj
 0002:00004bb0       ??_C@_0BN@CKNJLHMB@?$GAplacement?5delete?$FL?$FN?5closure?8@ 000000018005bbb0     libvcruntime:undname.obj
 0002:00004bd0       ??_C@_0CG@CFDHKGGD@?$GAmanaged?5vector?5constructor?5ite@ 000000018005bbd0     libvcruntime:undname.obj
 0002:00004bf8       ??_C@_0CF@IMGKMJNO@?$GAmanaged?5vector?5destructor?5iter@ 000000018005bbf8     libvcruntime:undname.obj
 0002:00004c20       ??_C@_0CG@HLDDJMAG@?$GAeh?5vector?5copy?5constructor?5ite@ 000000018005bc20     libvcruntime:undname.obj
 0002:00004c48       ??_C@_0CM@FCBBDIGB@?$GAeh?5vector?5vbase?5copy?5construct@ 000000018005bc48     libvcruntime:undname.obj
 0002:00004c78       ??_C@_0BL@CLIPGLGB@?$GAdynamic?5initializer?5for?5?8@ 000000018005bc78     libvcruntime:undname.obj
 0002:00004c98       ??_C@_0CB@PDBIFEP@?$GAdynamic?5atexit?5destructor?5for?5@ 000000018005bc98     libvcruntime:undname.obj
 0002:00004cc0       ??_C@_0CD@CGAJBKEJ@?$GAvector?5copy?5constructor?5iterat@ 000000018005bcc0     libvcruntime:undname.obj
 0002:00004ce8       ??_C@_0CJ@GJELGAMM@?$GAvector?5vbase?5copy?5constructor?5@ 000000018005bce8     libvcruntime:undname.obj
 0002:00004d18       ??_C@_0CL@FGIJHLCE@?$GAmanaged?5vector?5copy?5constructo@ 000000018005bd18     libvcruntime:undname.obj
 0002:00004d48       ??_C@_0BM@PMGGMLDN@?$GAlocal?5static?5thread?5guard?8@ 000000018005bd48     libvcruntime:undname.obj
 0002:00004d68       ??_C@_0N@BDNMDMOL@operator?5?$CC?$CC?5@ 000000018005bd68     libvcruntime:undname.obj
 0002:00004d78       ??_C@_0BC@GGEBGALA@operator?5co_await@ 000000018005bd78     libvcruntime:undname.obj
 0002:00004d90       ??_C@_0M@GAAIMMOH@operator?$DM?$DN?$DO@ 000000018005bd90     libvcruntime:undname.obj
 0002:00004da0       ??_C@_0BC@DAFEJGAK@?5Type?5Descriptor?8@ 000000018005bda0     libvcruntime:undname.obj
 0002:00004db8       ??_C@_0BM@LDKODKLH@?5Base?5Class?5Descriptor?5at?5?$CI@ 000000018005bdb8     libvcruntime:undname.obj
 0002:00004dd8       ??_C@_0BD@LGICGFMM@?5Base?5Class?5Array?8@ 000000018005bdd8     libvcruntime:undname.obj
 0002:00004df0       ??_C@_0BN@MECKDCOJ@?5Class?5Hierarchy?5Descriptor?8@ 000000018005bdf0     libvcruntime:undname.obj
 0002:00004e10       ??_C@_0BK@CFCOFLF@?5Complete?5Object?5Locator?8@ 000000018005be10     libvcruntime:undname.obj
 0002:00004e30       ??_C@_0BG@JNJLAMPM@?$GAanonymous?5namespace?8@ 000000018005be30     libvcruntime:undname.obj
 0002:00004e60       ??_C@_1DM@KHCHBNEB@?$AAa?$AAp?$AAi?$AA?9?$AAm?$AAs?$AA?9?$AAw?$AAi?$AAn?$AA?9?$AAc?$AAo?$AAr?$AAe@ 000000018005be60     libvcruntime:winapi_downlevel.obj
 0002:00004ea0       ??_C@_1DK@LPPGFMPP@?$AAa?$AAp?$AAi?$AA?9?$AAm?$AAs?$AA?9?$AAw?$AAi?$AAn?$AA?9?$AAc?$AAo?$AAr?$AAe@ 000000018005bea0     libvcruntime:winapi_downlevel.obj
 0002:00004ee0       ??_C@_1BC@GDMECMAK@?$AAk?$AAe?$AAr?$AAn?$AAe?$AAl?$AA3?$AA2@ 000000018005bee0     libvcruntime:winapi_downlevel.obj
 0002:00004ef8       ??_C@_1BA@PFFKHIOG@?$AAa?$AAp?$AAi?$AA?9?$AAm?$AAs?$AA?9@ 000000018005bef8     libvcruntime:winapi_downlevel.obj
 0002:00004f10       ??_C@_08KNHFBNJ@FlsAlloc@  000000018005bf10     libvcruntime:winapi_downlevel.obj
 0002:00004f28       ??_C@_07PEJMOBNF@FlsFree@  000000018005bf28     libvcruntime:winapi_downlevel.obj
 0002:00004f38       ??_C@_0M@GDNOONDI@FlsGetValue@ 000000018005bf38     libvcruntime:winapi_downlevel.obj
 0002:00004f50       ??_C@_0M@JCPCPOEF@FlsSetValue@ 000000018005bf50     libvcruntime:winapi_downlevel.obj
 0002:00004f68       ??_C@_0BM@HCFOFFN@InitializeCriticalSectionEx@ 000000018005bf68     libvcruntime:winapi_downlevel.obj
 0002:00004f90       ?standard_lookup_table_spectre@__crt_stdio_output@@3V?$spectre_mitigated_lookup_table@Ustate_transition_pair@__crt_stdio_output@@$0IA@@1@B 000000018005bf90     libucrt:output.obj
 0002:00005090       ?format_validation_lookup_table_spectre@__crt_stdio_output@@3V?$spectre_mitigated_lookup_table@Ustate_transition_pair@__crt_stdio_output@@$0IA@@1@B 000000018005c090     libucrt:output.obj
 0002:000051e0       ??_C@_1O@CEDCILHN@?$AA?$CI?$AAn?$AAu?$AAl?$AAl?$AA?$CJ@ 000000018005c1e0     libucrt:output.obj
 0002:000051f0       ??_C@_06OJHGLDPL@?$CInull?$CJ@ 000000018005c1f0     libucrt:output.obj
 0002:00005370       __acrt_exception_action_table 000000018005c370     libucrt:exception_filter.obj
 0002:00005430       __acrt_signal_action_table_count 000000018005c430     libucrt:exception_filter.obj
 0002:00005438       __acrt_signal_action_first_fpe_index 000000018005c438     libucrt:exception_filter.obj
 0002:00005440       __acrt_signal_action_fpe_count 000000018005c440     libucrt:exception_filter.obj
 0002:00005498       ??_C@_1BI@BGOHAHKC@?$AAm?$AAs?$AAc?$AAo?$AAr?$AAe?$AAe?$AA?4?$AAd?$AAl?$AAl@ 000000018005c498     libucrt:exit.obj
 0002:000054b0       ??_C@_0P@MIGLKIOC@CorExitProcess@ 000000018005c4b0     libucrt:exit.obj
 0002:00005690       ??_C@_03OEIAHPBN@INF@      000000018005c690     libucrt:cvt.obj
 0002:00005694       ??_C@_03OJHLLCGB@inf@      000000018005c694     libucrt:cvt.obj
 0002:00005698       ??_C@_03LKNCIKJB@NAN@      000000018005c698     libucrt:cvt.obj
 0002:0000569c       ??_C@_03LHCJEHON@nan@      000000018005c69c     libucrt:cvt.obj
 0002:000056a0       ??_C@_09OFJJIMPC@NAN?$CISNAN?$CJ@ 000000018005c6a0     libucrt:cvt.obj
 0002:000056b0       ??_C@_09IPFBKMDL@nan?$CIsnan?$CJ@ 000000018005c6b0     libucrt:cvt.obj
 0002:000056c0       ??_C@_08IKHNHAJ@NAN?$CIIND?$CJ@ 000000018005c6c0     libucrt:cvt.obj
 0002:000056d0       ??_C@_08OFCDMILK@nan?$CIind?$CJ@ 000000018005c6d0     libucrt:cvt.obj
 0002:000056dc       ??_C@_05KLBDPFGC@e?$CL000@ 000000018005c6dc     libucrt:cvt.obj
 0002:000056f0       __lc_time_c                000000018005c6f0     libucrt:nlsdata.obj
 0002:000059b0       ??_C@_03KOEHGMDN@Sun@      000000018005c9b0     libucrt:nlsdata.obj
 0002:000059b4       ??_C@_03PDAGKDH@Mon@       000000018005c9b4     libucrt:nlsdata.obj
 0002:000059b8       ??_C@_03NAGEINEP@Tue@      000000018005c9b8     libucrt:nlsdata.obj
 0002:000059bc       ??_C@_03MHOMLAJA@Wed@      000000018005c9bc     libucrt:nlsdata.obj
 0002:000059c0       ??_C@_03IOFIKPDN@Thu@      000000018005c9c0     libucrt:nlsdata.obj
 0002:000059c4       ??_C@_03IDIOELNC@Fri@      000000018005c9c4     libucrt:nlsdata.obj
 0002:000059c8       ??_C@_03FEFJNEK@Sat@       000000018005c9c8     libucrt:nlsdata.obj
 0002:000059cc       ??_C@_06OOPIFAJ@Sunday@    000000018005c9cc     libucrt:nlsdata.obj
 0002:000059d4       ??_C@_06JLEDEDGH@Monday@   000000018005c9d4     libucrt:nlsdata.obj
 0002:000059e0       ??_C@_07BAAGCFCM@Tuesday@  000000018005c9e0     libucrt:nlsdata.obj
 0002:000059e8       ??_C@_09DLIGFAKA@Wednesday@ 000000018005c9e8     libucrt:nlsdata.obj
 0002:000059f8       ??_C@_08HACCIKIA@Thursday@ 000000018005c9f8     libucrt:nlsdata.obj
 0002:00005a04       ??_C@_06JECMNKMI@Friday@   000000018005ca04     libucrt:nlsdata.obj
 0002:00005a10       ??_C@_08INBOOONO@Saturday@ 000000018005ca10     libucrt:nlsdata.obj
 0002:00005a1c       ??_C@_03JIHJHPIE@Jan@      000000018005ca1c     libucrt:nlsdata.obj
 0002:00005a20       ??_C@_03HJBDCHOM@Feb@      000000018005ca20     libucrt:nlsdata.obj
 0002:00005a24       ??_C@_03ODNJBKGA@Mar@      000000018005ca24     libucrt:nlsdata.obj
 0002:00005a28       ??_C@_03LEOLGMJP@Apr@      000000018005ca28     libucrt:nlsdata.obj
 0002:00005a2c       ??_C@_03CNMDKL@May@        000000018005ca2c     libucrt:nlsdata.obj
 0002:00005a30       ??_C@_03IDFGHECI@Jun@      000000018005ca30     libucrt:nlsdata.obj
 0002:00005a34       ??_C@_03LBGABGKK@Jul@      000000018005ca34     libucrt:nlsdata.obj
 0002:00005a38       ??_C@_03IFJFEIGA@Aug@      000000018005ca38     libucrt:nlsdata.obj
 0002:00005a3c       ??_C@_03GGCAPAJC@Sep@      000000018005ca3c     libucrt:nlsdata.obj
 0002:00005a40       ??_C@_03BMAOKBAD@Oct@      000000018005ca40     libucrt:nlsdata.obj
 0002:00005a44       ??_C@_03JPJOFNIA@Nov@      000000018005ca44     libucrt:nlsdata.obj
 0002:00005a48       ??_C@_03MKABNOCG@Dec@      000000018005ca48     libucrt:nlsdata.obj
 0002:00005a50       ??_C@_07CGJPFGJA@January@  000000018005ca50     libucrt:nlsdata.obj
 0002:00005a58       ??_C@_08GNJGEPFN@February@ 000000018005ca58     libucrt:nlsdata.obj
 0002:00005a64       ??_C@_05HPCKOFNC@March@    000000018005ca64     libucrt:nlsdata.obj
 0002:00005a6c       ??_C@_05DMJDNLEJ@April@    000000018005ca6c     libucrt:nlsdata.obj
 0002:00005a74       ??_C@_04CNLMGBGM@June@     000000018005ca74     libucrt:nlsdata.obj
 0002:00005a7c       ??_C@_04MIEPOIFP@July@     000000018005ca7c     libucrt:nlsdata.obj
 0002:00005a84       ??_C@_06LBBHFDDG@August@   000000018005ca84     libucrt:nlsdata.obj
 0002:00005a90       ??_C@_09BHHEALKD@September@ 000000018005ca90     libucrt:nlsdata.obj
 0002:00005aa0       ??_C@_07JJNFCEND@October@  000000018005caa0     libucrt:nlsdata.obj
 0002:00005aa8       ??_C@_08HCHEGEOA@November@ 000000018005caa8     libucrt:nlsdata.obj
 0002:00005ab8       ??_C@_08EDHMEBNP@December@ 000000018005cab8     libucrt:nlsdata.obj
 0002:00005ac4       ??_C@_02DEDBPAFC@AM@       000000018005cac4     libucrt:nlsdata.obj
 0002:00005ac8       ??_C@_02CJNFDJBF@PM@       000000018005cac8     libucrt:nlsdata.obj
 0002:00005ad0       ??_C@_08BPBNCDIB@MM?1dd?1yy@ 000000018005cad0     libucrt:nlsdata.obj
 0002:00005ae0       ??_C@_0BE@CKGJFCPC@dddd?0?5MMMM?5dd?0?5yyyy@ 000000018005cae0     libucrt:nlsdata.obj
 0002:00005af8       ??_C@_08JCCMCCIL@HH?3mm?3ss@ 000000018005caf8     libucrt:nlsdata.obj
 0002:00005b08       ??_C@_17MBGCMIPB@?$AAS?$AAu?$AAn@ 000000018005cb08     libucrt:nlsdata.obj
 0002:00005b10       ??_C@_17KBOMKBF@?$AAM?$AAo?$AAn@ 000000018005cb10     libucrt:nlsdata.obj
 0002:00005b18       ??_C@_17BMKGEGOJ@?$AAT?$AAu?$AAe@ 000000018005cb18     libucrt:nlsdata.obj
 0002:00005b20       ??_C@_17CJEDCEPE@?$AAW?$AAe?$AAd@ 000000018005cb20     libucrt:nlsdata.obj
 0002:00005b28       ??_C@_17PDPHAADD@?$AAT?$AAh?$AAu@ 000000018005cb28     libucrt:nlsdata.obj
 0002:00005b30       ??_C@_17HFOLPPLP@?$AAF?$AAr?$AAi@ 000000018005cb30     libucrt:nlsdata.obj
 0002:00005b38       ??_C@_17GGIBDPIH@?$AAS?$AAa?$AAt@ 000000018005cb38     libucrt:nlsdata.obj
 0002:00005b40       ??_C@_1O@IHNHDHPB@?$AAS?$AAu?$AAn?$AAd?$AAa?$AAy@ 000000018005cb40     libucrt:nlsdata.obj
 0002:00005b50       ??_C@_1O@MMNBFLIA@?$AAM?$AAo?$AAn?$AAd?$AAa?$AAy@ 000000018005cb50     libucrt:nlsdata.obj
 0002:00005b60       ??_C@_1BA@ENFBFFEK@?$AAT?$AAu?$AAe?$AAs?$AAd?$AAa?$AAy@ 000000018005cb60     libucrt:nlsdata.obj
 0002:00005b70       ??_C@_1BE@EBOGMDOH@?$AAW?$AAe?$AAd?$AAn?$AAe?$AAs?$AAd?$AAa?$AAy@ 000000018005cb70     libucrt:nlsdata.obj
 0002:00005b88       ??_C@_1BC@HHMNLIHE@?$AAT?$AAh?$AAu?$AAr?$AAs?$AAd?$AAa?$AAy@ 000000018005cb88     libucrt:nlsdata.obj
 0002:00005ba0       ??_C@_1O@PDICJHAG@?$AAF?$AAr?$AAi?$AAd?$AAa?$AAy@ 000000018005cba0     libucrt:nlsdata.obj
 0002:00005bb0       ??_C@_1BC@ENMNNPAJ@?$AAS?$AAa?$AAt?$AAu?$AAr?$AAd?$AAa?$AAy@ 000000018005cbb0     libucrt:nlsdata.obj
 0002:00005bc8       ??_C@_17DKNBKCHM@?$AAJ?$AAa?$AAn@ 000000018005cbc8     libucrt:nlsdata.obj
 0002:00005bd0       ??_C@_17LMDJEKJN@?$AAF?$AAe?$AAb@ 000000018005cbd0     libucrt:nlsdata.obj
 0002:00005bd8       ??_C@_17CKNLEDEC@?$AAM?$AAa?$AAr@ 000000018005cbd8     libucrt:nlsdata.obj
 0002:00005be0       ??_C@_17LFPOIHDD@?$AAA?$AAp?$AAr@ 000000018005cbe0     libucrt:nlsdata.obj
 0002:00005be8       ??_C@_17PNNKMEED@?$AAM?$AAa?$AAy@ 000000018005cbe8     libucrt:nlsdata.obj
 0002:00005bf0       ??_C@_17KCJGOCPB@?$AAJ?$AAu?$AAn@ 000000018005cbf0     libucrt:nlsdata.obj
 0002:00005bf8       ??_C@_17IJPCKHK@?$AAJ?$AAu?$AAl@ 000000018005cbf8     libucrt:nlsdata.obj
 0002:00005c00       ??_C@_17ICPELBCN@?$AAA?$AAu?$AAg@ 000000018005cc00     libucrt:nlsdata.obj
 0002:00005c08       ??_C@_17HCHCOKMG@?$AAS?$AAe?$AAp@ 000000018005cc08     libucrt:nlsdata.obj
 0002:00005c10       ??_C@_17FNLKOI@?$AAO?$AAc?$AAt@ 000000018005cc10     libucrt:nlsdata.obj
 0002:00005c18       ??_C@_17BBDMLCIG@?$AAN?$AAo?$AAv@ 000000018005cc18     libucrt:nlsdata.obj
 0002:00005c20       ??_C@_17EGKACKIF@?$AAD?$AAe?$AAc@ 000000018005cc20     libucrt:nlsdata.obj
 0002:00005c28       ??_C@_1BA@EFMEIEBA@?$AAJ?$AAa?$AAn?$AAu?$AAa?$AAr?$AAy@ 000000018005cc28     libucrt:nlsdata.obj
 0002:00005c38       ??_C@_1BC@JGDDFFAM@?$AAF?$AAe?$AAb?$AAr?$AAu?$AAa?$AAr?$AAy@ 000000018005cc38     libucrt:nlsdata.obj
 0002:00005c50       ??_C@_1M@IKEENEDF@?$AAM?$AAa?$AAr?$AAc?$AAh@ 000000018005cc50     libucrt:nlsdata.obj
 0002:00005c60       ??_C@_1M@GJNLMHFD@?$AAA?$AAp?$AAr?$AAi?$AAl@ 000000018005cc60     libucrt:nlsdata.obj
 0002:00005c70       ??_C@_19EPFLPGAP@?$AAJ?$AAu?$AAn?$AAe@ 000000018005cc70     libucrt:nlsdata.obj
 0002:00005c80       ??_C@_19BIFMLPCD@?$AAJ?$AAu?$AAl?$AAy@ 000000018005cc80     libucrt:nlsdata.obj
 0002:00005c90       ??_C@_1O@PAHLKOAC@?$AAA?$AAu?$AAg?$AAu?$AAs?$AAt@ 000000018005cc90     libucrt:nlsdata.obj
 0002:00005ca0       ??_C@_1BE@DKAAMBJL@?$AAS?$AAe?$AAp?$AAt?$AAe?$AAm?$AAb?$AAe?$AAr@ 000000018005cca0     libucrt:nlsdata.obj
 0002:00005cb8       ??_C@_1BA@EPANDLNG@?$AAO?$AAc?$AAt?$AAo?$AAb?$AAe?$AAr@ 000000018005ccb8     libucrt:nlsdata.obj
 0002:00005cc8       ??_C@_1BC@BGLIFPF@?$AAN?$AAo?$AAv?$AAe?$AAm?$AAb?$AAe?$AAr@ 000000018005ccc8     libucrt:nlsdata.obj
 0002:00005ce0       ??_C@_1BC@FEMKIFH@?$AAD?$AAe?$AAc?$AAe?$AAm?$AAb?$AAe?$AAr@ 000000018005cce0     libucrt:nlsdata.obj
 0002:00005cf4       ??_C@_15ODEHAHHF@?$AAA?$AAM@ 000000018005ccf4     libucrt:nlsdata.obj
 0002:00005cfc       ??_C@_15CLMNNGEL@?$AAP?$AAM@ 000000018005ccfc     libucrt:nlsdata.obj
 0002:00005d08       ??_C@_1BC@IEBCMHCM@?$AAM?$AAM?$AA?1?$AAd?$AAd?$AA?1?$AAy?$AAy@ 000000018005cd08     libucrt:nlsdata.obj
 0002:00005d20       ??_C@_1CI@KNAKOEBC@?$AAd?$AAd?$AAd?$AAd?$AA?0?$AA?5?$AAM?$AAM?$AAM?$AAM?$AA?5?$AAd?$AAd?$AA?0?$AA?5@ 000000018005cd20     libucrt:nlsdata.obj
 0002:00005d48       ??_C@_1BC@GDGBMEMK@?$AAH?$AAH?$AA?3?$AAm?$AAm?$AA?3?$AAs?$AAs@ 000000018005cd48     libucrt:nlsdata.obj
 0002:00005d60       ??_C@_1M@BMHNFIME@?$AAe?$AAn?$AA?9?$AAU?$AAS@ 000000018005cd60     libucrt:nlsdata.obj
 0002:00005d70       __newctype                 000000018005cd70     libucrt:ctype.obj
 0002:00006070       __newclmap                 000000018005d070     libucrt:ctype.obj
 0002:000061f0       __newcumap                 000000018005d1f0     libucrt:ctype.obj
 0002:00006370       _wctype                    000000018005d370     libucrt:ctype.obj
 0002:00006640       ??_C@_1EA@JGEFHKEI@?$AAa?$AAp?$AAi?$AA?9?$AAm?$AAs?$AA?9?$AAw?$AAi?$AAn?$AA?9?$AAc?$AAo?$AAr?$AAe@ 000000018005d640     libucrt:winapi_thunks.obj
 0002:00006680       ??_C@_1DM@LFJCLCKP@?$AAa?$AAp?$AAi?$AA?9?$AAm?$AAs?$AA?9?$AAw?$AAi?$AAn?$AA?9?$AAc?$AAo?$AAr?$AAe@ 000000018005d680     libucrt:winapi_thunks.obj
 0002:000066c0       ??_C@_1DI@KMEPCBPN@?$AAa?$AAp?$AAi?$AA?9?$AAm?$AAs?$AA?9?$AAw?$AAi?$AAn?$AA?9?$AAc?$AAo?$AAr?$AAe@ 000000018005d6c0     libucrt:winapi_thunks.obj
 0002:000066f8       ??_C@_1DI@IJCEHOCB@?$AAa?$AAp?$AAi?$AA?9?$AAm?$AAs?$AA?9?$AAw?$AAi?$AAn?$AA?9?$AAc?$AAo?$AAr?$AAe@ 000000018005d6f8     libucrt:winapi_thunks.obj
 0002:00006730       ??_C@_1DI@FFFOPEOO@?$AAa?$AAp?$AAi?$AA?9?$AAm?$AAs?$AA?9?$AAw?$AAi?$AAn?$AA?9?$AAc?$AAo?$AAr?$AAe@ 000000018005d730     libucrt:winapi_thunks.obj
 0002:00006770       ??_C@_1EI@MPIAOHOC@?$AAa?$AAp?$AAi?$AA?9?$AAm?$AAs?$AA?9?$AAw?$AAi?$AAn?$AA?9?$AAc?$AAo?$AAr?$AAe@ 000000018005d770     libucrt:winapi_thunks.obj
 0002:000067c0       ??_C@_1FK@FPHCKFIE@?$AAa?$AAp?$AAi?$AA?9?$AAm?$AAs?$AA?9?$AAw?$AAi?$AAn?$AA?9?$AAc?$AAo?$AAr?$AAe@ 000000018005d7c0     libucrt:winapi_thunks.obj
 0002:00006820       ??_C@_1EM@DILCGIIO@?$AAa?$AAp?$AAi?$AA?9?$AAm?$AAs?$AA?9?$AAw?$AAi?$AAn?$AA?9?$AAc?$AAo?$AAr?$AAe@ 000000018005d820     libucrt:winapi_thunks.obj
 0002:00006870       ??_C@_1DM@LNCGDDPN@?$AAa?$AAp?$AAi?$AA?9?$AAm?$AAs?$AA?9?$AAw?$AAi?$AAn?$AA?9?$AAc?$AAo?$AAr?$AAe@ 000000018005d870     libucrt:winapi_thunks.obj
 0002:000068b0       ??_C@_1DO@FPAPJEMD@?$AAa?$AAp?$AAi?$AA?9?$AAm?$AAs?$AA?9?$AAw?$AAi?$AAn?$AA?9?$AAc?$AAo?$AAr?$AAe@ 000000018005d8b0     libucrt:winapi_thunks.obj
 0002:000068f0       ??_C@_1DK@NDHNAHIO@?$AAa?$AAp?$AAi?$AA?9?$AAm?$AAs?$AA?9?$AAw?$AAi?$AAn?$AA?9?$AAc?$AAo?$AAr?$AAe@ 000000018005d8f0     libucrt:winapi_thunks.obj
 0002:00006930       ??_C@_1DM@KGHDGBCM@?$AAa?$AAp?$AAi?$AA?9?$AAm?$AAs?$AA?9?$AAw?$AAi?$AAn?$AA?9?$AAc?$AAo?$AAr?$AAe@ 000000018005d930     libucrt:winapi_thunks.obj
 0002:00006970       ??_C@_1EO@IJIOEFOH@?$AAa?$AAp?$AAi?$AA?9?$AAm?$AAs?$AA?9?$AAw?$AAi?$AAn?$AA?9?$AAr?$AAt?$AAc?$AAo@ 000000018005d970     libucrt:winapi_thunks.obj
 0002:000069c0       ??_C@_1FG@HHGEKANL@?$AAa?$AAp?$AAi?$AA?9?$AAm?$AAs?$AA?9?$AAw?$AAi?$AAn?$AA?9?$AAs?$AAe?$AAc?$AAu@ 000000018005d9c0     libucrt:winapi_thunks.obj
 0002:00006a20       ??_C@_1EG@DBIOJECG@?$AAe?$AAx?$AAt?$AA?9?$AAm?$AAs?$AA?9?$AAw?$AAi?$AAn?$AA?9?$AAn?$AAt?$AAu?$AAs@ 000000018005da20     libucrt:winapi_thunks.obj
 0002:00006a70       ??_C@_1EO@FIHMJCLF@?$AAe?$AAx?$AAt?$AA?9?$AAm?$AAs?$AA?9?$AAw?$AAi?$AAn?$AA?9?$AAn?$AAt?$AAu?$AAs@ 000000018005da70     libucrt:winapi_thunks.obj
 0002:00006ac0       ??_C@_1BC@DNHGCMLG@?$AAa?$AAd?$AAv?$AAa?$AAp?$AAi?$AA3?$AA2@ 000000018005dac0     libucrt:winapi_thunks.obj
 0002:00006ad8       ??_C@_1BG@CJPGBMEF@?$AAk?$AAe?$AAr?$AAn?$AAe?$AAl?$AAb?$AAa?$AAs?$AAe@ 000000018005dad8     libucrt:winapi_thunks.obj
 0002:00006af0       ??_C@_1M@OAIMIKLP@?$AAn?$AAt?$AAd?$AAl?$AAl@ 000000018005daf0     libucrt:winapi_thunks.obj
 0002:00006b00       ??_C@_1EG@DPGNFKGC@?$AAa?$AAp?$AAi?$AA?9?$AAm?$AAs?$AA?9?$AAw?$AAi?$AAn?$AA?9?$AAa?$AAp?$AAp?$AAm@ 000000018005db00     libucrt:winapi_thunks.obj
 0002:00006b48       ??_C@_1O@BCCLBEOE@?$AAu?$AAs?$AAe?$AAr?$AA3?$AA2@ 000000018005db48     libucrt:winapi_thunks.obj
 0002:00006b58       ??_C@_1BA@IAIFMGEF@?$AAe?$AAx?$AAt?$AA?9?$AAm?$AAs?$AA?9@ 000000018005db58     libucrt:winapi_thunks.obj
 0002:00006b70       ??_C@_0BA@FHFNEAED@AreFileApisANSI@ 000000018005db70     libucrt:winapi_thunks.obj
 0002:00006b88       ??_C@_0N@MFBBDCAC@FlsGetValue2@ 000000018005db88     libucrt:winapi_thunks.obj
 0002:00006ba0       ??_C@_0O@KKBNKAPF@LCMapStringEx@ 000000018005dba0     libucrt:winapi_thunks.obj
 0002:00006bb8       ??_C@_0BB@HBDEELFH@LocaleNameToLCID@ 000000018005dbb8     libucrt:winapi_thunks.obj
 0002:00006bd0       ??_C@_0N@PPOMPGGK@RoInitialize@ 000000018005dbd0     libucrt:winapi_thunks.obj
 0002:00006be8       ??_C@_0P@LLFHBIJD@RoUninitialize@ 000000018005dbe8     libucrt:winapi_thunks.obj
 0002:00006c00       ??_C@_0CF@OJOFEIGO@AppPolicyGetProcessTerminationM@ 000000018005dc00     libucrt:winapi_thunks.obj
 0002:00006c30       ??_C@_0CF@NNDFDCOC@AppPolicyGetThreadInitializatio@ 000000018005dc30     libucrt:winapi_thunks.obj
 0002:00006c78       ??_C@_1M@HPNHIDJI@?$AAj?$AAa?$AA?9?$AAJ?$AAP@ 000000018005dc78     libucrt:mbctype.obj
 0002:00006c88       ??_C@_1M@BIBDDEMK@?$AAz?$AAh?$AA?9?$AAC?$AAN@ 000000018005dc88     libucrt:mbctype.obj
 0002:00006c98       ??_C@_1M@JLOOOEGK@?$AAk?$AAo?$AA?9?$AAK?$AAR@ 000000018005dc98     libucrt:mbctype.obj
 0002:00006ca8       ??_C@_1M@CLNBBOPM@?$AAz?$AAh?$AA?9?$AAT?$AAW@ 000000018005dca8     libucrt:mbctype.obj
 0002:00006cc0       ?large_power_data@?1??multiply_by_power_of_ten@__crt_strtox@@YA_NAEAUbig_integer@2@I@Z@4QBIB 000000018005dcc0     libucrt:cfout.obj
 0002:000075d0       ?large_power_indices@?1??multiply_by_power_of_ten@__crt_strtox@@YA_NAEAUbig_integer@2@I@Z@4QBUunpack_index@?1??12@YA_N0I@Z@B 000000018005e5d0     libucrt:cfout.obj
 0002:00007668       ?small_powers_of_ten@?1??multiply_by_power_of_ten@__crt_strtox@@YA_NAEAUbig_integer@2@I@Z@4QBIB 000000018005e668     libucrt:cfout.obj
 0002:0000768c       ??_C@_01GBGANLPD@0@        000000018005e68c     libucrt:cfout.obj
 0002:00007690       ??_C@_05DNEBIAHO@1?$CDINF@ 000000018005e690     libucrt:cfout.obj
 0002:00007698       ??_C@_06IMKFLFPG@1?$CDQNAN@ 000000018005e698     libucrt:cfout.obj
 0002:000076a0       ??_C@_06PGGFOGJG@1?$CDSNAN@ 000000018005e6a0     libucrt:cfout.obj
 0002:000076a8       ??_C@_05PHHOCPM@1?$CDIND@  000000018005e6a8     libucrt:cfout.obj
 0002:000076b0       ??_C@_15PJPFLCCM@?$AAu?$AAk@ 000000018005e6b0     libucrt:get_qualified_locale.obj
 0002:00008500       ??_C@_15EMKDOKLE@?$AAa?$AAr@ 000000018005f500     libucrt:lcidtoname_downlevel.obj
 0002:00008508       ??_C@_15KNPADPLH@?$AAb?$AAg@ 000000018005f508     libucrt:lcidtoname_downlevel.obj
 0002:00008510       ??_C@_15EDMHLDMO@?$AAc?$AAa@ 000000018005f510     libucrt:lcidtoname_downlevel.obj
 0002:00008518       ??_C@_1O@BPEAJADD@?$AAz?$AAh?$AA?9?$AAC?$AAH?$AAS@ 000000018005f518     libucrt:lcidtoname_downlevel.obj
 0002:00008528       ??_C@_15LJNHCMNK@?$AAc?$AAs@ 000000018005f528     libucrt:lcidtoname_downlevel.obj
 0002:00008530       ??_C@_15FOMCIDHG@?$AAd?$AAa@ 000000018005f530     libucrt:lcidtoname_downlevel.obj
 0002:00008538       ??_C@_15NBKABECB@?$AAd?$AAe@ 000000018005f538     libucrt:lcidtoname_downlevel.obj
 0002:00008540       ??_C@_15GHPEIIAO@?$AAe?$AAl@ 000000018005f540     libucrt:lcidtoname_downlevel.obj
 0002:00008548       ??_C@_15MNPNEAIF@?$AAe?$AAn@ 000000018005f548     libucrt:lcidtoname_downlevel.obj
 0002:00008550       ??_C@_15GPIOMPMH@?$AAe?$AAs@ 000000018005f550     libucrt:lcidtoname_downlevel.obj
 0002:00008558       ??_C@_15NGLOAKJC@?$AAf?$AAi@ 000000018005f558     libucrt:lcidtoname_downlevel.obj
 0002:00008560       ??_C@_15FBKGNKAM@?$AAf?$AAr@ 000000018005f560     libucrt:lcidtoname_downlevel.obj
 0002:00008568       ??_C@_15KGGCNEFK@?$AAh?$AAe@ 000000018005f568     libucrt:lcidtoname_downlevel.obj
 0002:00008570       ??_C@_15PGHLIDMF@?$AAh?$AAu@ 000000018005f570     libucrt:lcidtoname_downlevel.obj
 0002:00008578       ??_C@_15BIEMAPLM@?$AAi?$AAs@ 000000018005f578     libucrt:lcidtoname_downlevel.obj
 0002:00008580       ??_C@_15IFJLDHAF@?$AAi?$AAt@ 000000018005f580     libucrt:lcidtoname_downlevel.obj
 0002:00008588       ??_C@_15GEMIOCAG@?$AAj?$AAa@ 000000018005f588     libucrt:lcidtoname_downlevel.obj
 0002:00008590       ??_C@_15EPELEGJA@?$AAk?$AAo@ 000000018005f590     libucrt:lcidtoname_downlevel.obj
 0002:00008598       ??_C@_15NDDHIMN@?$AAn?$AAl@ 000000018005f598     libucrt:lcidtoname_downlevel.obj
 0002:000085a0       ??_C@_15BPIGNHCD@?$AAn?$AAo@ 000000018005f5a0     libucrt:lcidtoname_downlevel.obj
 0002:000085a8       ??_C@_15DEOPBLCG@?$AAp?$AAl@ 000000018005f5a8     libucrt:lcidtoname_downlevel.obj
 0002:000085b0       ??_C@_15KBECGEFG@?$AAp?$AAt@ 000000018005f5b0     libucrt:lcidtoname_downlevel.obj
 0002:000085b8       ??_C@_15GLJCBFMD@?$AAr?$AAo@ 000000018005f5b8     libucrt:lcidtoname_downlevel.obj
 0002:000085c0       ??_C@_15FEDGKCDI@?$AAr?$AAu@ 000000018005f5c0     libucrt:lcidtoname_downlevel.obj
 0002:000085c8       ??_C@_15GLKMLLHM@?$AAh?$AAr@ 000000018005f5c8     libucrt:lcidtoname_downlevel.obj
 0002:000085d0       ??_C@_15CPKMFBDB@?$AAs?$AAk@ 000000018005f5d0     libucrt:lcidtoname_downlevel.obj
 0002:000085d8       ??_C@_15BAAIOGMK@?$AAs?$AAq@ 000000018005f5d8     libucrt:lcidtoname_downlevel.obj
 0002:000085e0       ??_C@_15INNPNOHD@?$AAs?$AAv@ 000000018005f5e0     libucrt:lcidtoname_downlevel.obj
 0002:000085e8       ??_C@_15CABMMOGH@?$AAt?$AAh@ 000000018005f5e8     libucrt:lcidtoname_downlevel.obj
 0002:000085f0       ??_C@_15BPLIHJJM@?$AAt?$AAr@ 000000018005f5f0     libucrt:lcidtoname_downlevel.obj
 0002:000085f8       ??_C@_15NEOEKKDJ@?$AAu?$AAr@ 000000018005f5f8     libucrt:lcidtoname_downlevel.obj
 0002:00008600       ??_C@_15NFICGAJK@?$AAi?$AAd@ 000000018005f600     libucrt:lcidtoname_downlevel.obj
 0002:00008608       ??_C@_15HPJPHDM@?$AAb?$AAe@ 000000018005f608     libucrt:lcidtoname_downlevel.obj
 0002:00008610       ??_C@_15LCHLGJII@?$AAs?$AAl@ 000000018005f610     libucrt:lcidtoname_downlevel.obj
 0002:00008618       ??_C@_15PCFJPHHO@?$AAe?$AAt@ 000000018005f618     libucrt:lcidtoname_downlevel.obj
 0002:00008620       ??_C@_15HPFPGODN@?$AAl?$AAv@ 000000018005f620     libucrt:lcidtoname_downlevel.obj
 0002:00008628       ??_C@_15NFFGKGLG@?$AAl?$AAt@ 000000018005f628     libucrt:lcidtoname_downlevel.obj
 0002:00008630       ??_C@_15BDAKCCHN@?$AAf?$AAa@ 000000018005f630     libucrt:lcidtoname_downlevel.obj
 0002:00008638       ??_C@_15NFGIAIAJ@?$AAv?$AAi@ 000000018005f638     libucrt:lcidtoname_downlevel.obj
 0002:00008640       ??_C@_15LMKNDMHN@?$AAh?$AAy@ 000000018005f640     libucrt:lcidtoname_downlevel.obj
 0002:00008648       ??_C@_15IJBHMCFL@?$AAa?$AAz@ 000000018005f648     libucrt:lcidtoname_downlevel.obj
 0002:00008650       ??_C@_15EKOFJABL@?$AAe?$AAu@ 000000018005f650     libucrt:lcidtoname_downlevel.obj
 0002:00008658       ??_C@_15BGHADCNK@?$AAm?$AAk@ 000000018005f658     libucrt:lcidtoname_downlevel.obj
 0002:00008660       ??_C@_15JDNICKHM@?$AAa?$AAf@ 000000018005f660     libucrt:lcidtoname_downlevel.obj
 0002:00008668       ??_C@_15KPJEDBKD@?$AAk?$AAa@ 000000018005f668     libucrt:lcidtoname_downlevel.obj
 0002:00008670       ??_C@_15PDNFFFEO@?$AAf?$AAo@ 000000018005f670     libucrt:lcidtoname_downlevel.obj
 0002:00008678       ??_C@_15OMLEGLOC@?$AAh?$AAi@ 000000018005f678     libucrt:lcidtoname_downlevel.obj
 0002:00008680       ??_C@_15IDNNENKK@?$AAm?$AAs@ 000000018005f680     libucrt:lcidtoname_downlevel.obj
 0002:00008688       ??_C@_15MACJNBMH@?$AAk?$AAk@ 000000018005f688     libucrt:lcidtoname_downlevel.obj
 0002:00008690       ??_C@_15DKDJEOND@?$AAk?$AAy@ 000000018005f690     libucrt:lcidtoname_downlevel.obj
 0002:00008698       ??_C@_15DFGDLJBG@?$AAs?$AAw@ 000000018005f698     libucrt:lcidtoname_downlevel.obj
 0002:000086a0       ??_C@_15BBFAICNG@?$AAu?$AAz@ 000000018005f6a0     libucrt:lcidtoname_downlevel.obj
 0002:000086a8       ??_C@_15DKNDCGEA@?$AAt?$AAt@ 000000018005f6a8     libucrt:lcidtoname_downlevel.obj
 0002:000086b0       ??_C@_15MGIFMDPL@?$AAp?$AAa@ 000000018005f6b0     libucrt:lcidtoname_downlevel.obj
 0002:000086b8       ??_C@_15HCNDBBA@?$AAg?$AAu@ 000000018005f6b8     libucrt:lcidtoname_downlevel.obj
 0002:000086c0       ??_C@_15FNBEIBON@?$AAt?$AAa@ 000000018005f6c0     libucrt:lcidtoname_downlevel.obj
 0002:000086c8       ??_C@_15NCHGBGLK@?$AAt?$AAe@ 000000018005f6c8     libucrt:lcidtoname_downlevel.obj
 0002:000086d0       ??_C@_15PHPHCBPF@?$AAk?$AAn@ 000000018005f6d0     libucrt:lcidtoname_downlevel.obj
 0002:000086d8       ??_C@_15DLGBCKMP@?$AAm?$AAr@ 000000018005f6d8     libucrt:lcidtoname_downlevel.obj
 0002:000086e0       ??_C@_15EABBLBFF@?$AAs?$AAa@ 000000018005f6e0     libucrt:lcidtoname_downlevel.obj
 0002:000086e8       ??_C@_15CBKOMCOI@?$AAm?$AAn@ 000000018005f6e8     libucrt:lcidtoname_downlevel.obj
 0002:000086f0       ??_C@_15CKDMCJAF@?$AAg?$AAl@ 000000018005f6f0     libucrt:lcidtoname_downlevel.obj
 0002:000086f8       ??_C@_17CNJFBPG@?$AAk?$AAo?$AAk@ 000000018005f6f8     libucrt:lcidtoname_downlevel.obj
 0002:00008700       ??_C@_17FFBJICPL@?$AAs?$AAy?$AAr@ 000000018005f700     libucrt:lcidtoname_downlevel.obj
 0002:00008708       ??_C@_17KPNDCPAF@?$AAd?$AAi?$AAv@ 000000018005f708     libucrt:lcidtoname_downlevel.obj
 0002:00008710       ??_C@_1M@OKAHONE@?$AAa?$AAr?$AA?9?$AAS?$AAA@ 000000018005f710     libucrt:lcidtoname_downlevel.obj
 0002:00008720       ??_C@_1M@FFFIGIGK@?$AAb?$AAg?$AA?9?$AAB?$AAG@ 000000018005f720     libucrt:lcidtoname_downlevel.obj
 0002:00008730       ??_C@_1M@BJNKEDC@?$AAc?$AAa?$AA?9?$AAE?$AAS@ 000000018005f730     libucrt:lcidtoname_downlevel.obj
 0002:00008740       ??_C@_1M@IJJHFJHA@?$AAc?$AAs?$AA?9?$AAC?$AAZ@ 000000018005f740     libucrt:lcidtoname_downlevel.obj
 0002:00008750       ??_C@_1M@CLPEOBGI@?$AAd?$AAa?$AA?9?$AAD?$AAK@ 000000018005f750     libucrt:lcidtoname_downlevel.obj
 0002:00008760       ??_C@_1M@MCMADGCB@?$AAd?$AAe?$AA?9?$AAD?$AAE@ 000000018005f760     libucrt:lcidtoname_downlevel.obj
 0002:00008770       ??_C@_1M@OOCKEMAM@?$AAe?$AAl?$AA?9?$AAG?$AAR@ 000000018005f770     libucrt:lcidtoname_downlevel.obj
 0002:00008780       ??_C@_1M@DDNJFGID@?$AAf?$AAi?$AA?9?$AAF?$AAI@ 000000018005f780     libucrt:lcidtoname_downlevel.obj
 0002:00008790       ??_C@_1M@GLIPPMAC@?$AAf?$AAr?$AA?9?$AAF?$AAR@ 000000018005f790     libucrt:lcidtoname_downlevel.obj
 0002:000087a0       ??_C@_1M@GFMCHPE@?$AAh?$AAe?$AA?9?$AAI?$AAL@ 000000018005f7a0     libucrt:lcidtoname_downlevel.obj
 0002:000087b0       ??_C@_1M@MHLPGNKM@?$AAh?$AAu?$AA?9?$AAH?$AAU@ 000000018005f7b0     libucrt:lcidtoname_downlevel.obj
 0002:000087c0       ??_C@_1M@LPDDNNPN@?$AAi?$AAs?$AA?9?$AAI?$AAS@ 000000018005f7c0     libucrt:lcidtoname_downlevel.obj
 0002:000087d0       ??_C@_1M@MADIPODN@?$AAi?$AAt?$AA?9?$AAI?$AAT@ 000000018005f7d0     libucrt:lcidtoname_downlevel.obj
 0002:000087e0       ??_C@_1M@IHBJJGG@?$AAn?$AAl?$AA?9?$AAN?$AAL@ 000000018005f7e0     libucrt:lcidtoname_downlevel.obj
 0002:000087f0       ??_C@_1M@EANAGDL@?$AAn?$AAb?$AA?9?$AAN?$AAO@ 000000018005f7f0     libucrt:lcidtoname_downlevel.obj
 0002:00008800       ??_C@_1M@NEIEMEGP@?$AAp?$AAl?$AA?9?$AAP?$AAL@ 000000018005f800     libucrt:lcidtoname_downlevel.obj
 0002:00008810       ??_C@_1M@BOCFIGEP@?$AAp?$AAt?$AA?9?$AAB?$AAR@ 000000018005f810     libucrt:lcidtoname_downlevel.obj
 0002:00008820       ??_C@_1M@IMPFOPBG@?$AAr?$AAo?$AA?9?$AAR?$AAO@ 000000018005f820     libucrt:lcidtoname_downlevel.obj
 0002:00008830       ??_C@_1M@IDNNEJMM@?$AAr?$AAu?$AA?9?$AAR?$AAU@ 000000018005f830     libucrt:lcidtoname_downlevel.obj
 0002:00008840       ??_C@_1M@LILEEOGM@?$AAh?$AAr?$AA?9?$AAH?$AAR@ 000000018005f840     libucrt:lcidtoname_downlevel.obj
 0002:00008850       ??_C@_1M@FKIFEHPB@?$AAs?$AAk?$AA?9?$AAS?$AAK@ 000000018005f850     libucrt:lcidtoname_downlevel.obj
 0002:00008860       ??_C@_1M@LJMAMNPJ@?$AAs?$AAq?$AA?9?$AAA?$AAL@ 000000018005f860     libucrt:lcidtoname_downlevel.obj
 0002:00008870       ??_C@_1M@GIAKDKJK@?$AAs?$AAv?$AA?9?$AAS?$AAE@ 000000018005f870     libucrt:lcidtoname_downlevel.obj
 0002:00008880       ??_C@_1M@MKJKIKCL@?$AAt?$AAh?$AA?9?$AAT?$AAH@ 000000018005f880     libucrt:lcidtoname_downlevel.obj
 0002:00008890       ??_C@_1M@MFLCCMPB@?$AAt?$AAr?$AA?9?$AAT?$AAR@ 000000018005f890     libucrt:lcidtoname_downlevel.obj
 0002:000088a0       ??_C@_1M@OIJHDKJN@?$AAu?$AAr?$AA?9?$AAP?$AAK@ 000000018005f8a0     libucrt:lcidtoname_downlevel.obj
 0002:000088b0       ??_C@_1M@LHIPCIEK@?$AAi?$AAd?$AA?9?$AAI?$AAD@ 000000018005f8b0     libucrt:lcidtoname_downlevel.obj
 0002:000088c0       ??_C@_1M@MFMOBGI@?$AAu?$AAk?$AA?9?$AAU?$AAA@ 000000018005f8c0     libucrt:lcidtoname_downlevel.obj
 0002:000088d0       ??_C@_1M@OBGLJIPL@?$AAb?$AAe?$AA?9?$AAB?$AAY@ 000000018005f8d0     libucrt:lcidtoname_downlevel.obj
 0002:000088e0       ??_C@_1M@BCFAJEAD@?$AAs?$AAl?$AA?9?$AAS?$AAI@ 000000018005f8e0     libucrt:lcidtoname_downlevel.obj
 0002:000088f0       ??_C@_1M@FKFFEDDN@?$AAe?$AAt?$AA?9?$AAE?$AAE@ 000000018005f8f0     libucrt:lcidtoname_downlevel.obj
 0002:00008900       ??_C@_1M@KGKKAACI@?$AAl?$AAv?$AA?9?$AAL?$AAV@ 000000018005f900     libucrt:lcidtoname_downlevel.obj
 0002:00008910       ??_C@_1M@IFGBIJO@?$AAl?$AAt?$AA?9?$AAL?$AAT@ 000000018005f910     libucrt:lcidtoname_downlevel.obj
 0002:00008920       ??_C@_1M@FGEAHEDM@?$AAf?$AAa?$AA?9?$AAI?$AAR@ 000000018005f920     libucrt:lcidtoname_downlevel.obj
 0002:00008930       ??_C@_1M@KBMAIBFN@?$AAv?$AAi?$AA?9?$AAV?$AAN@ 000000018005f930     libucrt:lcidtoname_downlevel.obj
 0002:00008940       ??_C@_1M@GPCBKDJK@?$AAh?$AAy?$AA?9?$AAA?$AAM@ 000000018005f940     libucrt:lcidtoname_downlevel.obj
 0002:00008950       ??_C@_1BG@BECMDDJB@?$AAa?$AAz?$AA?9?$AAA?$AAZ?$AA?9?$AAL?$AAa?$AAt?$AAn@ 000000018005f950     libucrt:lcidtoname_downlevel.obj
 0002:00008968       ??_C@_1M@MAOFCAEA@?$AAe?$AAu?$AA?9?$AAE?$AAS@ 000000018005f968     libucrt:lcidtoname_downlevel.obj
 0002:00008978       ??_C@_1M@IGHABKPI@?$AAm?$AAk?$AA?9?$AAM?$AAK@ 000000018005f978     libucrt:lcidtoname_downlevel.obj
 0002:00008988       ??_C@_1M@IAIGNEJG@?$AAt?$AAn?$AA?9?$AAZ?$AAA@ 000000018005f988     libucrt:lcidtoname_downlevel.obj
 0002:00008998       ??_C@_1M@IIJCOJFA@?$AAx?$AAh?$AA?9?$AAZ?$AAA@ 000000018005f998     libucrt:lcidtoname_downlevel.obj
 0002:000089a8       ??_C@_1M@LGPJHNJH@?$AAz?$AAu?$AA?9?$AAZ?$AAA@ 000000018005f9a8     libucrt:lcidtoname_downlevel.obj
 0002:000089b8       ??_C@_1M@HOKAOIO@?$AAa?$AAf?$AA?9?$AAZ?$AAA@ 000000018005f9b8     libucrt:lcidtoname_downlevel.obj
 0002:000089c8       ??_C@_1M@DPCLHLIE@?$AAk?$AAa?$AA?9?$AAG?$AAE@ 000000018005f9c8     libucrt:lcidtoname_downlevel.obj
 0002:000089d8       ??_C@_1M@BLKMHJBI@?$AAf?$AAo?$AA?9?$AAF?$AAO@ 000000018005f9d8     libucrt:lcidtoname_downlevel.obj
 0002:000089e8       ??_C@_1M@LGGJAPPB@?$AAh?$AAi?$AA?9?$AAI?$AAN@ 000000018005f9e8     libucrt:lcidtoname_downlevel.obj
 0002:000089f8       ??_C@_1M@FIKPIHFE@?$AAm?$AAt?$AA?9?$AAM?$AAT@ 000000018005f9f8     libucrt:lcidtoname_downlevel.obj
 0002:00008a08       ??_C@_1M@HEGGPBFA@?$AAs?$AAe?$AA?9?$AAN?$AAO@ 000000018005fa08     libucrt:lcidtoname_downlevel.obj
 0002:00008a18       ??_C@_1M@EIBJEEPA@?$AAm?$AAs?$AA?9?$AAM?$AAY@ 000000018005fa18     libucrt:lcidtoname_downlevel.obj
 0002:00008a28       ??_C@_1M@FHLBGMPP@?$AAk?$AAk?$AA?9?$AAK?$AAZ@ 000000018005fa28     libucrt:lcidtoname_downlevel.obj
 0002:00008a38       ??_C@_1M@NGJJLCGI@?$AAk?$AAy?$AA?9?$AAK?$AAG@ 000000018005fa38     libucrt:lcidtoname_downlevel.obj
 0002:00008a48       ??_C@_1M@GIENNBFC@?$AAs?$AAw?$AA?9?$AAK?$AAE@ 000000018005fa48     libucrt:lcidtoname_downlevel.obj
 0002:00008a58       ??_C@_1BG@NDGMJIMJ@?$AAu?$AAz?$AA?9?$AAU?$AAZ?$AA?9?$AAL?$AAa?$AAt?$AAn@ 000000018005fa58     libucrt:lcidtoname_downlevel.obj
 0002:00008a70       ??_C@_1M@IDCCIHBC@?$AAt?$AAt?$AA?9?$AAR?$AAU@ 000000018005fa70     libucrt:lcidtoname_downlevel.obj
 0002:00008a80       ??_C@_1M@LOICPMOJ@?$AAb?$AAn?$AA?9?$AAI?$AAN@ 000000018005fa80     libucrt:lcidtoname_downlevel.obj
 0002:00008a90       ??_C@_1M@KPKKNEAH@?$AAp?$AAa?$AA?9?$AAI?$AAN@ 000000018005fa90     libucrt:lcidtoname_downlevel.obj
 0002:00008aa0       ??_C@_1M@PJGPPBOG@?$AAg?$AAu?$AA?9?$AAI?$AAN@ 000000018005faa0     libucrt:lcidtoname_downlevel.obj
 0002:00008ab0       ??_C@_1M@KMKMOPHI@?$AAt?$AAa?$AA?9?$AAI?$AAN@ 000000018005fab0     libucrt:lcidtoname_downlevel.obj
 0002:00008ac0       ??_C@_1M@KFEHEPAC@?$AAt?$AAe?$AA?9?$AAI?$AAN@ 000000018005fac0     libucrt:lcidtoname_downlevel.obj
 0002:00008ad0       ??_C@_1M@CDCLMGHI@?$AAk?$AAn?$AA?9?$AAI?$AAN@ 000000018005fad0     libucrt:lcidtoname_downlevel.obj
 0002:00008ae0       ??_C@_1M@MIODLDKF@?$AAm?$AAl?$AA?9?$AAI?$AAN@ 000000018005fae0     libucrt:lcidtoname_downlevel.obj
 0002:00008af0       ??_C@_1M@PBIEACPO@?$AAm?$AAr?$AA?9?$AAI?$AAN@ 000000018005faf0     libucrt:lcidtoname_downlevel.obj
 0002:00008b00       ??_C@_1M@NIDEAGPH@?$AAs?$AAa?$AA?9?$AAI?$AAN@ 000000018005fb00     libucrt:lcidtoname_downlevel.obj
 0002:00008b10       ??_C@_1M@FHIHCBIO@?$AAm?$AAn?$AA?9?$AAM?$AAN@ 000000018005fb10     libucrt:lcidtoname_downlevel.obj
 0002:00008b20       ??_C@_1M@JAIJPENP@?$AAc?$AAy?$AA?9?$AAG?$AAB@ 000000018005fb20     libucrt:lcidtoname_downlevel.obj
 0002:00008b30       ??_C@_1M@PHGFBEPN@?$AAg?$AAl?$AA?9?$AAE?$AAS@ 000000018005fb30     libucrt:lcidtoname_downlevel.obj
 0002:00008b40       ??_C@_1O@KPIPDNCP@?$AAk?$AAo?$AAk?$AA?9?$AAI?$AAN@ 000000018005fb40     libucrt:lcidtoname_downlevel.obj
 0002:00008b50       ??_C@_1O@KNHJLDJA@?$AAs?$AAy?$AAr?$AA?9?$AAS?$AAY@ 000000018005fb50     libucrt:lcidtoname_downlevel.obj
 0002:00008b60       ??_C@_1O@MKEKBLAH@?$AAd?$AAi?$AAv?$AA?9?$AAM?$AAV@ 000000018005fb60     libucrt:lcidtoname_downlevel.obj
 0002:00008b70       ??_C@_1O@OHDCKDDF@?$AAq?$AAu?$AAz?$AA?9?$AAB?$AAO@ 000000018005fb70     libucrt:lcidtoname_downlevel.obj
 0002:00008b80       ??_C@_1M@LEPJNLFD@?$AAn?$AAs?$AA?9?$AAZ?$AAA@ 000000018005fb80     libucrt:lcidtoname_downlevel.obj
 0002:00008b90       ??_C@_1M@OMLEIIJB@?$AAm?$AAi?$AA?9?$AAN?$AAZ@ 000000018005fb90     libucrt:lcidtoname_downlevel.obj
 0002:00008ba0       ??_C@_1M@PMPEAILG@?$AAa?$AAr?$AA?9?$AAI?$AAQ@ 000000018005fba0     libucrt:lcidtoname_downlevel.obj
 0002:00008bb0       ??_C@_1M@CNKPNOEE@?$AAd?$AAe?$AA?9?$AAC?$AAH@ 000000018005fbb0     libucrt:lcidtoname_downlevel.obj
 0002:00008bc0       ??_C@_1M@LKMGMLKO@?$AAe?$AAn?$AA?9?$AAG?$AAB@ 000000018005fbc0     libucrt:lcidtoname_downlevel.obj
 0002:00008bd0       ??_C@_1M@PGKJFFGL@?$AAe?$AAs?$AA?9?$AAM?$AAX@ 000000018005fbd0     libucrt:lcidtoname_downlevel.obj
 0002:00008be0       ??_C@_1M@DNNANBDC@?$AAf?$AAr?$AA?9?$AAB?$AAE@ 000000018005fbe0     libucrt:lcidtoname_downlevel.obj
 0002:00008bf0       ??_C@_1M@HLGMDFHM@?$AAi?$AAt?$AA?9?$AAC?$AAH@ 000000018005fbf0     libucrt:lcidtoname_downlevel.obj
 0002:00008c00       ??_C@_1M@CLLBGJH@?$AAn?$AAl?$AA?9?$AAB?$AAE@ 000000018005fc00     libucrt:lcidtoname_downlevel.obj
 0002:00008c10       ??_C@_1M@BODBOGLF@?$AAn?$AAn?$AA?9?$AAN?$AAO@ 000000018005fc10     libucrt:lcidtoname_downlevel.obj
 0002:00008c20       ??_C@_1M@HFFAHKAD@?$AAp?$AAt?$AA?9?$AAP?$AAT@ 000000018005fc20     libucrt:lcidtoname_downlevel.obj
 0002:00008c30       ??_C@_1BG@LNOAKHIE@?$AAs?$AAr?$AA?9?$AAS?$AAP?$AA?9?$AAL?$AAa?$AAt?$AAn@ 000000018005fc30     libucrt:lcidtoname_downlevel.obj
 0002:00008c48       ??_C@_1M@HBMHBGAK@?$AAs?$AAv?$AA?9?$AAF?$AAI@ 000000018005fc48     libucrt:lcidtoname_downlevel.obj
 0002:00008c58       ??_C@_1BG@DGCJGJBE@?$AAa?$AAz?$AA?9?$AAA?$AAZ?$AA?9?$AAC?$AAy?$AAr?$AAl@ 000000018005fc58     libucrt:lcidtoname_downlevel.obj
 0002:00008c70       ??_C@_1M@KEJDAAHB@?$AAs?$AAe?$AA?9?$AAS?$AAE@ 000000018005fc70     libucrt:lcidtoname_downlevel.obj
 0002:00008c80       ??_C@_1M@HEIBJJAD@?$AAm?$AAs?$AA?9?$AAB?$AAN@ 000000018005fc80     libucrt:lcidtoname_downlevel.obj
 0002:00008c90       ??_C@_1BG@PBGJMCEM@?$AAu?$AAz?$AA?9?$AAU?$AAZ?$AA?9?$AAC?$AAy?$AAr?$AAl@ 000000018005fc90     libucrt:lcidtoname_downlevel.obj
 0002:00008ca8       ??_C@_1O@LAOBCMDF@?$AAq?$AAu?$AAz?$AA?9?$AAE?$AAC@ 000000018005fca8     libucrt:lcidtoname_downlevel.obj
 0002:00008cb8       ??_C@_1M@POEEMAIO@?$AAa?$AAr?$AA?9?$AAE?$AAG@ 000000018005fcb8     libucrt:lcidtoname_downlevel.obj
 0002:00008cc8       ??_C@_1M@EFAKDEDL@?$AAz?$AAh?$AA?9?$AAH?$AAK@ 000000018005fcc8     libucrt:lcidtoname_downlevel.obj
 0002:00008cd8       ??_C@_1M@HKKIJHGI@?$AAd?$AAe?$AA?9?$AAA?$AAT@ 000000018005fcd8     libucrt:lcidtoname_downlevel.obj
 0002:00008ce8       ??_C@_1M@KBFBEHJF@?$AAe?$AAn?$AA?9?$AAA?$AAU@ 000000018005fce8     libucrt:lcidtoname_downlevel.obj
 0002:00008cf8       ??_C@_1M@MNPLFAAH@?$AAe?$AAs?$AA?9?$AAE?$AAS@ 000000018005fcf8     libucrt:lcidtoname_downlevel.obj
 0002:00008d08       ??_C@_1M@HJOOJFMA@?$AAf?$AAr?$AA?9?$AAC?$AAA@ 000000018005fd08     libucrt:lcidtoname_downlevel.obj
 0002:00008d18       ??_C@_1BG@JPOFPNAB@?$AAs?$AAr?$AA?9?$AAS?$AAP?$AA?9?$AAC?$AAy?$AAr?$AAl@ 000000018005fd18     libucrt:lcidtoname_downlevel.obj
 0002:00008d30       ??_C@_1M@LNFOCMOB@?$AAs?$AAe?$AA?9?$AAF?$AAI@ 000000018005fd30     libucrt:lcidtoname_downlevel.obj
 0002:00008d40       ??_C@_1O@MGJBOAMB@?$AAq?$AAu?$AAz?$AA?9?$AAP?$AAE@ 000000018005fd40     libucrt:lcidtoname_downlevel.obj
 0002:00008d50       ??_C@_1M@GJINLBOK@?$AAa?$AAr?$AA?9?$AAL?$AAY@ 000000018005fd50     libucrt:lcidtoname_downlevel.obj
 0002:00008d60       ??_C@_1M@GGMNHJNL@?$AAz?$AAh?$AA?9?$AAS?$AAG@ 000000018005fd60     libucrt:lcidtoname_downlevel.obj
 0002:00008d70       ??_C@_1M@HOIKODND@?$AAd?$AAe?$AA?9?$AAL?$AAU@ 000000018005fd70     libucrt:lcidtoname_downlevel.obj
 0002:00008d80       ??_C@_1M@DDOCCGFG@?$AAe?$AAn?$AA?9?$AAC?$AAA@ 000000018005fd80     libucrt:lcidtoname_downlevel.obj
 0002:00008d90       ??_C@_1M@BNOEMJLF@?$AAe?$AAs?$AA?9?$AAG?$AAT@ 000000018005fd90     libucrt:lcidtoname_downlevel.obj
 0002:00008da0       ??_C@_1M@EOGNKEK@?$AAf?$AAr?$AA?9?$AAC?$AAH@ 000000018005fda0     libucrt:lcidtoname_downlevel.obj
 0002:00008db0       ??_C@_1M@FLIDJFHL@?$AAh?$AAr?$AA?9?$AAB?$AAA@ 000000018005fdb0     libucrt:lcidtoname_downlevel.obj
 0002:00008dc0       ??_C@_1O@FMCELNAJ@?$AAs?$AAm?$AAj?$AA?9?$AAN?$AAO@ 000000018005fdc0     libucrt:lcidtoname_downlevel.obj
 0002:00008dd0       ??_C@_1M@JHGLJMGJ@?$AAa?$AAr?$AA?9?$AAD?$AAZ@ 000000018005fdd0     libucrt:lcidtoname_downlevel.obj
 0002:00008de0       ??_C@_1M@JKKFDCNP@?$AAz?$AAh?$AA?9?$AAM?$AAO@ 000000018005fde0     libucrt:lcidtoname_downlevel.obj
 0002:00008df0       ??_C@_1M@GEEFALPE@?$AAd?$AAe?$AA?9?$AAL?$AAI@ 000000018005fdf0     libucrt:lcidtoname_downlevel.obj
 0002:00008e00       ??_C@_1M@IGEOFBG@?$AAe?$AAn?$AA?9?$AAN?$AAZ@ 000000018005fe00     libucrt:lcidtoname_downlevel.obj
 0002:00008e10       ??_C@_1M@KDBONEHP@?$AAe?$AAs?$AA?9?$AAC?$AAR@ 000000018005fe10     libucrt:lcidtoname_downlevel.obj
 0002:00008e20       ??_C@_1M@FHMDOHNN@?$AAf?$AAr?$AA?9?$AAL?$AAU@ 000000018005fe20     libucrt:lcidtoname_downlevel.obj
 0002:00008e30       ??_C@_1BG@NFKKMAFG@?$AAb?$AAs?$AA?9?$AAB?$AAA?$AA?9?$AAL?$AAa?$AAt?$AAn@ 000000018005fe30     libucrt:lcidtoname_downlevel.obj
 0002:00008e48       ??_C@_1O@IMNBEMCI@?$AAs?$AAm?$AAj?$AA?9?$AAS?$AAE@ 000000018005fe48     libucrt:lcidtoname_downlevel.obj
 0002:00008e58       ??_C@_1M@DHHMBNDP@?$AAa?$AAr?$AA?9?$AAM?$AAA@ 000000018005fe58     libucrt:lcidtoname_downlevel.obj
 0002:00008e68       ??_C@_1M@BNBLJCGH@?$AAe?$AAn?$AA?9?$AAI?$AAE@ 000000018005fe68     libucrt:lcidtoname_downlevel.obj
 0002:00008e78       ??_C@_1M@GEPAFMDL@?$AAe?$AAs?$AA?9?$AAP?$AAA@ 000000018005fe78     libucrt:lcidtoname_downlevel.obj
 0002:00008e88       ??_C@_1M@OJONDMDL@?$AAf?$AAr?$AA?9?$AAM?$AAC@ 000000018005fe88     libucrt:lcidtoname_downlevel.obj
 0002:00008e98       ??_C@_1BG@OBCNFJB@?$AAs?$AAr?$AA?9?$AAB?$AAA?$AA?9?$AAL?$AAa?$AAt?$AAn@ 000000018005fe98     libucrt:lcidtoname_downlevel.obj
 0002:00008eb0       ??_C@_1O@KEMEEGPO@?$AAs?$AAm?$AAa?$AA?9?$AAN?$AAO@ 000000018005feb0     libucrt:lcidtoname_downlevel.obj
 0002:00008ec0       ??_C@_1M@ELMGFODK@?$AAa?$AAr?$AA?9?$AAT?$AAN@ 000000018005fec0     libucrt:lcidtoname_downlevel.obj
 0002:00008ed0       ??_C@_1M@BHDLHFAF@?$AAe?$AAn?$AA?9?$AAZ?$AAA@ 000000018005fed0     libucrt:lcidtoname_downlevel.obj
 0002:00008ee0       ??_C@_1M@BMGIGLIF@?$AAe?$AAs?$AA?9?$AAD?$AAO@ 000000018005fee0     libucrt:lcidtoname_downlevel.obj
 0002:00008ef0       ??_C@_1BG@CMBHIPBE@?$AAs?$AAr?$AA?9?$AAB?$AAA?$AA?9?$AAC?$AAy?$AAr?$AAl@ 000000018005fef0     libucrt:lcidtoname_downlevel.obj
 0002:00008f08       ??_C@_1O@HEDBLHNP@?$AAs?$AAm?$AAa?$AA?9?$AAS?$AAE@ 000000018005ff08     libucrt:lcidtoname_downlevel.obj
 0002:00008f18       ??_C@_1M@DAGCADIM@?$AAa?$AAr?$AA?9?$AAO?$AAM@ 000000018005ff18     libucrt:lcidtoname_downlevel.obj
 0002:00008f28       ??_C@_1M@FODLMICG@?$AAe?$AAn?$AA?9?$AAJ?$AAM@ 000000018005ff28     libucrt:lcidtoname_downlevel.obj
 0002:00008f38       ??_C@_1M@DNMLCIHB@?$AAe?$AAs?$AA?9?$AAV?$AAE@ 000000018005ff38     libucrt:lcidtoname_downlevel.obj
 0002:00008f48       ??_C@_1O@EOKHMKJK@?$AAs?$AAm?$AAs?$AA?9?$AAF?$AAI@ 000000018005ff48     libucrt:lcidtoname_downlevel.obj
 0002:00008f58       ??_C@_1M@CAFJMKOF@?$AAa?$AAr?$AA?9?$AAY?$AAE@ 000000018005ff58     libucrt:lcidtoname_downlevel.obj
 0002:00008f68       ??_C@_1M@CBFHIJLI@?$AAe?$AAn?$AA?9?$AAC?$AAB@ 000000018005ff68     libucrt:lcidtoname_downlevel.obj
 0002:00008f78       ??_C@_1M@BGNFLDN@?$AAe?$AAs?$AA?9?$AAC?$AAO@ 000000018005ff78     libucrt:lcidtoname_downlevel.obj
 0002:00008f88       ??_C@_1O@JMPHMAMC@?$AAs?$AAm?$AAn?$AA?9?$AAF?$AAI@ 000000018005ff88     libucrt:lcidtoname_downlevel.obj
 0002:00008f98       ??_C@_1M@JLANABKE@?$AAa?$AAr?$AA?9?$AAS?$AAY@ 000000018005ff98     libucrt:lcidtoname_downlevel.obj
 0002:00008fa8       ??_C@_1M@HPKGCFGN@?$AAe?$AAn?$AA?9?$AAB?$AAZ@ 000000018005ffa8     libucrt:lcidtoname_downlevel.obj
 0002:00008fb8       ??_C@_1M@OLJCMLGM@?$AAe?$AAs?$AA?9?$AAP?$AAE@ 000000018005ffb8     libucrt:lcidtoname_downlevel.obj
 0002:00008fc8       ??_C@_1M@MKKGFKLE@?$AAa?$AAr?$AA?9?$AAJ?$AAO@ 000000018005ffc8     libucrt:lcidtoname_downlevel.obj
 0002:00008fd8       ??_C@_1M@EKPGLDNI@?$AAe?$AAn?$AA?9?$AAT?$AAT@ 000000018005ffd8     libucrt:lcidtoname_downlevel.obj
 0002:00008fe8       ??_C@_1M@OONGHFHE@?$AAe?$AAs?$AA?9?$AAA?$AAR@ 000000018005ffe8     libucrt:lcidtoname_downlevel.obj
 0002:00008ff8       ??_C@_1M@OOJFGBHE@?$AAa?$AAr?$AA?9?$AAL?$AAB@ 000000018005fff8     libucrt:lcidtoname_downlevel.obj
 0002:00009008       ??_C@_1M@GCEJHNEG@?$AAe?$AAn?$AA?9?$AAZ?$AAW@ 0000000180060008     libucrt:lcidtoname_downlevel.obj
 0002:00009018       ??_C@_1M@JNOCAHJI@?$AAe?$AAs?$AA?9?$AAE?$AAC@ 0000000180060018     libucrt:lcidtoname_downlevel.obj
 0002:00009028       ??_C@_1M@JEFHPGGB@?$AAa?$AAr?$AA?9?$AAK?$AAW@ 0000000180060028     libucrt:lcidtoname_downlevel.obj
 0002:00009038       ??_C@_1M@MLKIBJOJ@?$AAe?$AAn?$AA?9?$AAP?$AAH@ 0000000180060038     libucrt:lcidtoname_downlevel.obj
 0002:00009048       ??_C@_1M@BDNIPEND@?$AAe?$AAs?$AA?9?$AAC?$AAL@ 0000000180060048     libucrt:lcidtoname_downlevel.obj
 0002:00009058       ??_C@_1M@MPNMEKBD@?$AAa?$AAr?$AA?9?$AAA?$AAE@ 0000000180060058     libucrt:lcidtoname_downlevel.obj
 0002:00009068       ??_C@_1M@KBJALCPI@?$AAe?$AAs?$AA?9?$AAU?$AAY@ 0000000180060068     libucrt:lcidtoname_downlevel.obj
 0002:00009078       ??_C@_1M@LLCCOAGA@?$AAa?$AAr?$AA?9?$AAB?$AAH@ 0000000180060078     libucrt:lcidtoname_downlevel.obj
 0002:00009088       ??_C@_1M@PBFNCDEL@?$AAe?$AAs?$AA?9?$AAP?$AAY@ 0000000180060088     libucrt:lcidtoname_downlevel.obj
 0002:00009098       ??_C@_1M@EDGINPNP@?$AAa?$AAr?$AA?9?$AAQ?$AAA@ 0000000180060098     libucrt:lcidtoname_downlevel.obj
 0002:000090a8       ??_C@_1M@MKDBIIJI@?$AAe?$AAs?$AA?9?$AAB?$AAO@ 00000001800600a8     libucrt:lcidtoname_downlevel.obj
 0002:000090b8       ??_C@_1M@CPKKEBLD@?$AAe?$AAs?$AA?9?$AAS?$AAV@ 00000001800600b8     libucrt:lcidtoname_downlevel.obj
 0002:000090c8       ??_C@_1M@NDBGMMJL@?$AAe?$AAs?$AA?9?$AAH?$AAN@ 00000001800600c8     libucrt:lcidtoname_downlevel.obj
 0002:000090d8       ??_C@_1M@JIJIBHDP@?$AAe?$AAs?$AA?9?$AAN?$AAI@ 00000001800600d8     libucrt:lcidtoname_downlevel.obj
 0002:000090e8       ??_C@_1M@CGFMKEEK@?$AAe?$AAs?$AA?9?$AAP?$AAR@ 00000001800600e8     libucrt:lcidtoname_downlevel.obj
 0002:000090f8       ??_C@_1O@ICJHKIIK@?$AAz?$AAh?$AA?9?$AAC?$AAH?$AAT@ 00000001800600f8     libucrt:lcidtoname_downlevel.obj
 0002:00009108       ??_C@_15CLNEJCE@?$AAs?$AAr@ 0000000180060108     libucrt:lcidtoname_downlevel.obj
 0002:00009f50       ??_C@_1M@KAHEKEIG@?$AAa?$AAf?$AA?9?$AAz?$AAa@ 0000000180060f50     libucrt:lcidtoname_downlevel.obj
 0002:00009f60       ??_C@_1M@GIECOABL@?$AAa?$AAr?$AA?9?$AAa?$AAe@ 0000000180060f60     libucrt:lcidtoname_downlevel.obj
 0002:00009f70       ??_C@_1M@BMLMEKGI@?$AAa?$AAr?$AA?9?$AAb?$AAh@ 0000000180060f70     libucrt:lcidtoname_downlevel.obj
 0002:00009f80       ??_C@_1M@DAPFDGGB@?$AAa?$AAr?$AA?9?$AAd?$AAz@ 0000000180060f80     libucrt:lcidtoname_downlevel.obj
 0002:00009f90       ??_C@_1M@FJNKGKIG@?$AAa?$AAr?$AA?9?$AAe?$AAg@ 0000000180060f90     libucrt:lcidtoname_downlevel.obj
 0002:00009fa0       ??_C@_1M@FLGKKCLO@?$AAa?$AAr?$AA?9?$AAi?$AAq@ 0000000180060fa0     libucrt:lcidtoname_downlevel.obj
 0002:00009fb0       ??_C@_1M@GNDIPALM@?$AAa?$AAr?$AA?9?$AAj?$AAo@ 0000000180060fb0     libucrt:lcidtoname_downlevel.obj
 0002:00009fc0       ??_C@_1M@DDMJFMGJ@?$AAa?$AAr?$AA?9?$AAk?$AAw@ 0000000180060fc0     libucrt:lcidtoname_downlevel.obj
 0002:00009fd0       ??_C@_1M@EJALMLHM@?$AAa?$AAr?$AA?9?$AAl?$AAb@ 0000000180060fd0     libucrt:lcidtoname_downlevel.obj
 0002:00009fe0       ??_C@_1M@MOBDBLOC@?$AAa?$AAr?$AA?9?$AAl?$AAy@ 0000000180060fe0     libucrt:lcidtoname_downlevel.obj
 0002:00009ff0       ??_C@_1M@JAOCLHDH@?$AAa?$AAr?$AA?9?$AAm?$AAa@ 0000000180060ff0     libucrt:lcidtoname_downlevel.obj
 0002:0000a000       ??_C@_1M@JHPMKJIE@?$AAa?$AAr?$AA?9?$AAo?$AAm@ 0000000180061000     libucrt:lcidtoname_downlevel.obj
 0002:0000a010       ??_C@_1M@OEPGHFNH@?$AAa?$AAr?$AA?9?$AAq?$AAa@ 0000000180061010     libucrt:lcidtoname_downlevel.obj
 0002:0000a020       ??_C@_1M@KJDONENM@?$AAa?$AAr?$AA?9?$AAs?$AAa@ 0000000180061020     libucrt:lcidtoname_downlevel.obj
 0002:0000a030       ??_C@_1M@DMJDKLKM@?$AAa?$AAr?$AA?9?$AAs?$AAy@ 0000000180061030     libucrt:lcidtoname_downlevel.obj
 0002:0000a040       ??_C@_1M@OMFIPEDC@?$AAa?$AAr?$AA?9?$AAt?$AAn@ 0000000180061040     libucrt:lcidtoname_downlevel.obj
 0002:0000a050       ??_C@_1M@IHMHGAON@?$AAa?$AAr?$AA?9?$AAy?$AAe@ 0000000180061050     libucrt:lcidtoname_downlevel.obj
 0002:0000a060       ??_C@_1BG@KDCPGJGB@?$AAa?$AAz?$AA?9?$AAa?$AAz?$AA?9?$AAc?$AAy?$AAr?$AAl@ 0000000180061060     libucrt:lcidtoname_downlevel.obj
 0002:0000a078       ??_C@_1BG@IBCKDDOE@?$AAa?$AAz?$AA?9?$AAa?$AAz?$AA?9?$AAl?$AAa?$AAt?$AAn@ 0000000180061078     libucrt:lcidtoname_downlevel.obj
 0002:0000a090       ??_C@_1M@EGPFDCPD@?$AAb?$AAe?$AA?9?$AAb?$AAy@ 0000000180061090     libucrt:lcidtoname_downlevel.obj
 0002:0000a0a0       ??_C@_1M@PCMGMCGC@?$AAb?$AAg?$AA?9?$AAb?$AAg@ 00000001800610a0     libucrt:lcidtoname_downlevel.obj
 0002:0000a0b0       ??_C@_1M@BJBMFGOB@?$AAb?$AAn?$AA?9?$AAi?$AAn@ 00000001800610b0     libucrt:lcidtoname_downlevel.obj
 0002:0000a0c0       ??_C@_1BG@EAKMMACD@?$AAb?$AAs?$AA?9?$AAb?$AAa?$AA?9?$AAl?$AAa?$AAt?$AAn@ 00000001800610c0     libucrt:lcidtoname_downlevel.obj
 0002:0000a0d8       ??_C@_1M@KGADAODK@?$AAc?$AAa?$AA?9?$AAe?$AAs@ 00000001800610d8     libucrt:lcidtoname_downlevel.obj
 0002:0000a0e8       ??_C@_1M@COAJPDHI@?$AAc?$AAs?$AA?9?$AAc?$AAz@ 00000001800610e8     libucrt:lcidtoname_downlevel.obj
 0002:0000a0f8       ??_C@_1M@DHBHFONH@?$AAc?$AAy?$AA?9?$AAg?$AAb@ 00000001800610f8     libucrt:lcidtoname_downlevel.obj
 0002:0000a108       ??_C@_1M@IMGKELGA@?$AAd?$AAa?$AA?9?$AAd?$AAk@ 0000000180061108     libucrt:lcidtoname_downlevel.obj
 0002:0000a118       ??_C@_1M@NNDGDNGA@?$AAd?$AAe?$AA?9?$AAa?$AAt@ 0000000180061118     libucrt:lcidtoname_downlevel.obj
 0002:0000a128       ??_C@_1M@IKDBHEEM@?$AAd?$AAe?$AA?9?$AAc?$AAh@ 0000000180061128     libucrt:lcidtoname_downlevel.obj
 0002:0000a138       ??_C@_1M@GFFOJMCJ@?$AAd?$AAe?$AA?9?$AAd?$AAe@ 0000000180061138     libucrt:lcidtoname_downlevel.obj
 0002:0000a148       ??_C@_1M@MDNLKBPM@?$AAd?$AAe?$AA?9?$AAl?$AAi@ 0000000180061148     libucrt:lcidtoname_downlevel.obj
 0002:0000a158       ??_C@_1M@NJBEEJNL@?$AAd?$AAe?$AA?9?$AAl?$AAu@ 0000000180061158     libucrt:lcidtoname_downlevel.obj
 0002:0000a168       ??_C@_1O@GNNELBAP@?$AAd?$AAi?$AAv?$AA?9?$AAm?$AAv@ 0000000180061168     libucrt:lcidtoname_downlevel.obj
 0002:0000a178       ??_C@_1M@EJLEOGAE@?$AAe?$AAl?$AA?9?$AAg?$AAr@ 0000000180061178     libucrt:lcidtoname_downlevel.obj
 0002:0000a188       ??_C@_1M@GMPONJN@?$AAe?$AAn?$AA?9?$AAa?$AAu@ 0000000180061188     libucrt:lcidtoname_downlevel.obj
 0002:0000a198       ??_C@_1M@NIDIIPGF@?$AAe?$AAn?$AA?9?$AAb?$AAz@ 0000000180061198     libucrt:lcidtoname_downlevel.obj
 0002:0000a1a8       ??_C@_1M@JEHMIMFO@?$AAe?$AAn?$AA?9?$AAc?$AAa@ 00000001800611a8     libucrt:lcidtoname_downlevel.obj
 0002:0000a1b8       ??_C@_1M@IGMJCDLA@?$AAe?$AAn?$AA?9?$AAc?$AAb@ 00000001800611b8     libucrt:lcidtoname_downlevel.obj
 0002:0000a1c8       ??_C@_1M@BNFIGBKG@?$AAe?$AAn?$AA?9?$AAg?$AAb@ 00000001800611c8     libucrt:lcidtoname_downlevel.obj
 0002:0000a1d8       ??_C@_1M@LKIFDIGP@?$AAe?$AAn?$AA?9?$AAi?$AAe@ 00000001800611d8     libucrt:lcidtoname_downlevel.obj
 0002:0000a1e8       ??_C@_1M@PJKFGCCO@?$AAe?$AAn?$AA?9?$AAj?$AAm@ 00000001800611e8     libucrt:lcidtoname_downlevel.obj
 0002:0000a1f8       ??_C@_1M@KPPKEPBO@?$AAe?$AAn?$AA?9?$AAn?$AAz@ 00000001800611f8     libucrt:lcidtoname_downlevel.obj
 0002:0000a208       ??_C@_1M@GMDGLDOB@?$AAe?$AAn?$AA?9?$AAp?$AAh@ 0000000180061208     libucrt:lcidtoname_downlevel.obj
 0002:0000a218       ??_C@_1M@ONGIBJNA@?$AAe?$AAn?$AA?9?$AAt?$AAt@ 0000000180061218     libucrt:lcidtoname_downlevel.obj
 0002:0000a228       ??_C@_1M@LLODPCMM@?$AAe?$AAn?$AA?9?$AAu?$AAs@ 0000000180061228     libucrt:lcidtoname_downlevel.obj
 0002:0000a238       ??_C@_1M@LAKFNPAN@?$AAe?$AAn?$AA?9?$AAz?$AAa@ 0000000180061238     libucrt:lcidtoname_downlevel.obj
 0002:0000a248       ??_C@_1M@MFNHNHEO@?$AAe?$AAn?$AA?9?$AAz?$AAw@ 0000000180061248     libucrt:lcidtoname_downlevel.obj
 0002:0000a258       ??_C@_1M@EJEINPHM@?$AAe?$AAs?$AA?9?$AAa?$AAr@ 0000000180061258     libucrt:lcidtoname_downlevel.obj
 0002:0000a268       ??_C@_1M@GNKPCCJA@?$AAe?$AAs?$AA?9?$AAb?$AAo@ 0000000180061268     libucrt:lcidtoname_downlevel.obj
 0002:0000a278       ??_C@_1M@LEEGFONL@?$AAe?$AAs?$AA?9?$AAc?$AAl@ 0000000180061278     libucrt:lcidtoname_downlevel.obj
 0002:0000a288       ??_C@_1M@KGPDPBDF@?$AAe?$AAs?$AA?9?$AAc?$AAo@ 0000000180061288     libucrt:lcidtoname_downlevel.obj
 0002:0000a298       ??_C@_1M@EIAHOHH@?$AAe?$AAs?$AA?9?$AAc?$AAr@ 0000000180061298     libucrt:lcidtoname_downlevel.obj
 0002:0000a2a8       ??_C@_1M@LLPGMBIN@?$AAe?$AAs?$AA?9?$AAd?$AAo@ 00000001800612a8     libucrt:lcidtoname_downlevel.obj
 0002:0000a2b8       ??_C@_1M@DKHMKNJA@?$AAe?$AAs?$AA?9?$AAe?$AAc@ 00000001800612b8     libucrt:lcidtoname_downlevel.obj
 0002:0000a2c8       ??_C@_1M@GKGFPKAP@?$AAe?$AAs?$AA?9?$AAe?$AAs@ 00000001800612c8     libucrt:lcidtoname_downlevel.obj
 0002:0000a2d8       ??_C@_1M@LKHKGDLN@?$AAe?$AAs?$AA?9?$AAg?$AAt@ 00000001800612d8     libucrt:lcidtoname_downlevel.obj
 0002:0000a2e8       ??_C@_1M@HEIIGGJD@?$AAe?$AAs?$AA?9?$AAh?$AAn@ 00000001800612e8     libucrt:lcidtoname_downlevel.obj
 0002:0000a2f8       ??_C@_1M@FBDHPPGD@?$AAe?$AAs?$AA?9?$AAm?$AAx@ 00000001800612f8     libucrt:lcidtoname_downlevel.obj
 0002:0000a308       ??_C@_1M@DPAGLNDH@?$AAe?$AAs?$AA?9?$AAn?$AAi@ 0000000180061308     libucrt:lcidtoname_downlevel.obj
 0002:0000a318       ??_C@_1M@MDGOPGDD@?$AAe?$AAs?$AA?9?$AAp?$AAa@ 0000000180061318     libucrt:lcidtoname_downlevel.obj
 0002:0000a328       ??_C@_1M@EMAMGBGE@?$AAe?$AAs?$AA?9?$AAp?$AAe@ 0000000180061328     libucrt:lcidtoname_downlevel.obj
 0002:0000a338       ??_C@_1M@IBMCAOEC@?$AAe?$AAs?$AA?9?$AAp?$AAr@ 0000000180061338     libucrt:lcidtoname_downlevel.obj
 0002:0000a348       ??_C@_1M@FGMDIJED@?$AAe?$AAs?$AA?9?$AAp?$AAy@ 0000000180061348     libucrt:lcidtoname_downlevel.obj
 0002:0000a358       ??_C@_1M@IIDEOLLL@?$AAe?$AAs?$AA?9?$AAs?$AAv@ 0000000180061358     libucrt:lcidtoname_downlevel.obj
 0002:0000a368       ??_C@_1M@GAOBIPA@?$AAe?$AAs?$AA?9?$AAu?$AAy@ 0000000180061368     libucrt:lcidtoname_downlevel.obj
 0002:0000a378       ??_C@_1M@JKFFICHJ@?$AAe?$AAs?$AA?9?$AAv?$AAe@ 0000000180061378     libucrt:lcidtoname_downlevel.obj
 0002:0000a388       ??_C@_1M@PNMLOJDF@?$AAe?$AAt?$AA?9?$AAe?$AAe@ 0000000180061388     libucrt:lcidtoname_downlevel.obj
 0002:0000a398       ??_C@_1M@GHHLIKEI@?$AAe?$AAu?$AA?9?$AAe?$AAs@ 0000000180061398     libucrt:lcidtoname_downlevel.obj
 0002:0000a3a8       ??_C@_1M@PBNONODE@?$AAf?$AAa?$AA?9?$AAi?$AAr@ 00000001800613a8     libucrt:lcidtoname_downlevel.obj
 0002:0000a3b8       ??_C@_1M@JEEHPMIL@?$AAf?$AAi?$AA?9?$AAf?$AAi@ 00000001800613b8     libucrt:lcidtoname_downlevel.obj
 0002:0000a3c8       ??_C@_1M@LMDCNDBA@?$AAf?$AAo?$AA?9?$AAf?$AAo@ 00000001800613c8     libucrt:lcidtoname_downlevel.obj
 0002:0000a3d8       ??_C@_1M@JKEOHLDK@?$AAf?$AAr?$AA?9?$AAb?$AAe@ 00000001800613d8     libucrt:lcidtoname_downlevel.obj
 0002:0000a3e8       ??_C@_1M@NOHADPMI@?$AAf?$AAr?$AA?9?$AAc?$AAa@ 00000001800613e8     libucrt:lcidtoname_downlevel.obj
 0002:0000a3f8       ??_C@_1M@KDHIHAEC@?$AAf?$AAr?$AA?9?$AAc?$AAh@ 00000001800613f8     libucrt:lcidtoname_downlevel.obj
 0002:0000a408       ??_C@_1M@MMBBFGAK@?$AAf?$AAr?$AA?9?$AAf?$AAr@ 0000000180061408     libucrt:lcidtoname_downlevel.obj
 0002:0000a418       ??_C@_1M@PAFNENNF@?$AAf?$AAr?$AA?9?$AAl?$AAu@ 0000000180061418     libucrt:lcidtoname_downlevel.obj
 0002:0000a428       ??_C@_1M@EOHDJGDD@?$AAf?$AAr?$AA?9?$AAm?$AAc@ 0000000180061428     libucrt:lcidtoname_downlevel.obj
 0002:0000a438       ??_C@_1M@FAPLLOPF@?$AAg?$AAl?$AA?9?$AAe?$AAs@ 0000000180061438     libucrt:lcidtoname_downlevel.obj
 0002:0000a448       ??_C@_1M@FOPBFLOO@?$AAg?$AAu?$AA?9?$AAi?$AAn@ 0000000180061448     libucrt:lcidtoname_downlevel.obj
 0002:0000a458       ??_C@_1M@KBMCINPM@?$AAh?$AAe?$AA?9?$AAi?$AAl@ 0000000180061458     libucrt:lcidtoname_downlevel.obj
 0002:0000a468       ??_C@_1M@BBPHKFPJ@?$AAh?$AAi?$AA?9?$AAi?$AAn@ 0000000180061468     libucrt:lcidtoname_downlevel.obj
 0002:0000a478       ??_C@_1M@PMBNDPHD@?$AAh?$AAr?$AA?9?$AAb?$AAa@ 0000000180061478     libucrt:lcidtoname_downlevel.obj
 0002:0000a488       ??_C@_1M@BPCKOEGE@?$AAh?$AAr?$AA?9?$AAh?$AAr@ 0000000180061488     libucrt:lcidtoname_downlevel.obj
 0002:0000a498       ??_C@_1M@GACBMHKE@?$AAh?$AAu?$AA?9?$AAh?$AAu@ 0000000180061498     libucrt:lcidtoname_downlevel.obj
 0002:0000a4a8       ??_C@_1M@MILPAJJC@?$AAh?$AAy?$AA?9?$AAa?$AAm@ 00000001800614a8     libucrt:lcidtoname_downlevel.obj
 0002:0000a4b8       ??_C@_1M@BABBICEC@?$AAi?$AAd?$AA?9?$AAi?$AAd@ 00000001800614b8     libucrt:lcidtoname_downlevel.obj
 0002:0000a4c8       ??_C@_1M@BIKNHHPF@?$AAi?$AAs?$AA?9?$AAi?$AAs@ 00000001800614c8     libucrt:lcidtoname_downlevel.obj
 0002:0000a4d8       ??_C@_1M@NMPCJPHE@?$AAi?$AAt?$AA?9?$AAc?$AAh@ 00000001800614d8     libucrt:lcidtoname_downlevel.obj
 0002:0000a4e8       ??_C@_1M@GHKGFEDF@?$AAi?$AAt?$AA?9?$AAi?$AAt@ 00000001800614e8     libucrt:lcidtoname_downlevel.obj
 0002:0000a4f8       ??_C@_1M@NIEJCJJA@?$AAj?$AAa?$AA?9?$AAj?$AAp@ 00000001800614f8     libucrt:lcidtoname_downlevel.obj
 0002:0000a508       ??_C@_1M@JILFNBIM@?$AAk?$AAa?$AA?9?$AAg?$AAe@ 0000000180061508     libucrt:lcidtoname_downlevel.obj
 0002:0000a518       ??_C@_1M@PACPMGPH@?$AAk?$AAk?$AA?9?$AAk?$AAz@ 0000000180061518     libucrt:lcidtoname_downlevel.obj
 0002:0000a528       ??_C@_1M@IELFGMHA@?$AAk?$AAn?$AA?9?$AAi?$AAn@ 0000000180061528     libucrt:lcidtoname_downlevel.obj
 0002:0000a538       ??_C@_1O@IBBJHCH@?$AAk?$AAo?$AAk?$AA?9?$AAi?$AAn@ 0000000180061538     libucrt:lcidtoname_downlevel.obj
 0002:0000a548       ??_C@_1M@DMHAEOGC@?$AAk?$AAo?$AA?9?$AAk?$AAr@ 0000000180061548     libucrt:lcidtoname_downlevel.obj
 0002:0000a558       ??_C@_1M@HBAHBIGA@?$AAk?$AAy?$AA?9?$AAk?$AAg@ 0000000180061558     libucrt:lcidtoname_downlevel.obj
 0002:0000a568       ??_C@_1M@KPMILCJG@?$AAl?$AAt?$AA?9?$AAl?$AAt@ 0000000180061568     libucrt:lcidtoname_downlevel.obj
 0002:0000a578       ??_C@_1M@BDEKKCA@?$AAl?$AAv?$AA?9?$AAl?$AAv@ 0000000180061578     libucrt:lcidtoname_downlevel.obj
 0002:0000a588       ??_C@_1M@ELCKCCJJ@?$AAm?$AAi?$AA?9?$AAn?$AAz@ 0000000180061588     libucrt:lcidtoname_downlevel.obj
 0002:0000a598       ??_C@_1M@CBOOLAPA@?$AAm?$AAk?$AA?9?$AAm?$AAk@ 0000000180061598     libucrt:lcidtoname_downlevel.obj
 0002:0000a5a8       ??_C@_1M@GPHNBJKN@?$AAm?$AAl?$AA?9?$AAi?$AAn@ 00000001800615a8     libucrt:lcidtoname_downlevel.obj
 0002:0000a5b8       ??_C@_1M@PABJILIG@?$AAm?$AAn?$AA?9?$AAm?$AAn@ 00000001800615b8     libucrt:lcidtoname_downlevel.obj
 0002:0000a5c8       ??_C@_1M@FGBKKIPG@?$AAm?$AAr?$AA?9?$AAi?$AAn@ 00000001800615c8     libucrt:lcidtoname_downlevel.obj
 0002:0000a5d8       ??_C@_1M@NDBPDDAL@?$AAm?$AAs?$AA?9?$AAb?$AAn@ 00000001800615d8     libucrt:lcidtoname_downlevel.obj
 0002:0000a5e8       ??_C@_1M@OPIHOOPI@?$AAm?$AAs?$AA?9?$AAm?$AAy@ 00000001800615e8     libucrt:lcidtoname_downlevel.obj
 0002:0000a5f8       ??_C@_1M@PPDBCNFM@?$AAm?$AAt?$AA?9?$AAm?$AAt@ 00000001800615f8     libucrt:lcidtoname_downlevel.obj
 0002:0000a608       ??_C@_1M@KDJDKMDD@?$AAn?$AAb?$AA?9?$AAn?$AAo@ 0000000180061608     libucrt:lcidtoname_downlevel.obj
 0002:0000a618       ??_C@_1M@KFCFLMJP@?$AAn?$AAl?$AA?9?$AAb?$AAe@ 0000000180061618     libucrt:lcidtoname_downlevel.obj
 0002:0000a628       ??_C@_1M@KPOPDDGO@?$AAn?$AAl?$AA?9?$AAn?$AAl@ 0000000180061628     libucrt:lcidtoname_downlevel.obj
 0002:0000a638       ??_C@_1M@LJKPEMLN@?$AAn?$AAn?$AA?9?$AAn?$AAo@ 0000000180061638     libucrt:lcidtoname_downlevel.obj
 0002:0000a648       ??_C@_1M@BDGHHBFL@?$AAn?$AAs?$AA?9?$AAz?$AAa@ 0000000180061648     libucrt:lcidtoname_downlevel.obj
 0002:0000a658       ??_C@_1M@IDEHOAP@?$AAp?$AAa?$AA?9?$AAi?$AAn@ 0000000180061658     libucrt:lcidtoname_downlevel.obj
 0002:0000a668       ??_C@_1M@HDBKGOGH@?$AAp?$AAl?$AA?9?$AAp?$AAl@ 0000000180061668     libucrt:lcidtoname_downlevel.obj
 0002:0000a678       ??_C@_1M@LJLLCMEH@?$AAp?$AAt?$AA?9?$AAb?$AAr@ 0000000180061678     libucrt:lcidtoname_downlevel.obj
 0002:0000a688       ??_C@_1M@NCMONAAL@?$AAp?$AAt?$AA?9?$AAp?$AAt@ 0000000180061688     libucrt:lcidtoname_downlevel.obj
 0002:0000a698       ??_C@_1O@EAKMAJDN@?$AAq?$AAu?$AAz?$AA?9?$AAb?$AAo@ 0000000180061698     libucrt:lcidtoname_downlevel.obj
 0002:0000a6a8       ??_C@_1O@BHHPIGDN@?$AAq?$AAu?$AAz?$AA?9?$AAe?$AAc@ 00000001800616a8     libucrt:lcidtoname_downlevel.obj
 0002:0000a6b8       ??_C@_1O@GBAPEKMJ@?$AAq?$AAu?$AAz?$AA?9?$AAp?$AAe@ 00000001800616b8     libucrt:lcidtoname_downlevel.obj
 0002:0000a6c8       ??_C@_1M@CLGLEFBO@?$AAr?$AAo?$AA?9?$AAr?$AAo@ 00000001800616c8     libucrt:lcidtoname_downlevel.obj
 0002:0000a6d8       ??_C@_1M@CEEDODME@?$AAr?$AAu?$AA?9?$AAr?$AAu@ 00000001800616d8     libucrt:lcidtoname_downlevel.obj
 0002:0000a6e8       ??_C@_1M@HPKKKMPP@?$AAs?$AAa?$AA?9?$AAi?$AAn@ 00000001800616e8     libucrt:lcidtoname_downlevel.obj
 0002:0000a6f8       ??_C@_1M@BKMAIGOJ@?$AAs?$AAe?$AA?9?$AAf?$AAi@ 00000001800616f8     libucrt:lcidtoname_downlevel.obj
 0002:0000a708       ??_C@_1M@NDPIFLFI@?$AAs?$AAe?$AA?9?$AAn?$AAo@ 0000000180061708     libucrt:lcidtoname_downlevel.obj
 0002:0000a718       ??_C@_1M@DANKKHJ@?$AAs?$AAe?$AA?9?$AAs?$AAe@ 0000000180061718     libucrt:lcidtoname_downlevel.obj
 0002:0000a728       ??_C@_1M@PNBLONPJ@?$AAs?$AAk?$AA?9?$AAs?$AAk@ 0000000180061728     libucrt:lcidtoname_downlevel.obj
 0002:0000a738       ??_C@_1M@LFMODOAL@?$AAs?$AAl?$AA?9?$AAs?$AAi@ 0000000180061738     libucrt:lcidtoname_downlevel.obj
 0002:0000a748       ??_C@_1O@DFKOMPG@?$AAs?$AAm?$AAa?$AA?9?$AAn?$AAo@ 0000000180061748     libucrt:lcidtoname_downlevel.obj
 0002:0000a758       ??_C@_1O@NDKPBNNH@?$AAs?$AAm?$AAa?$AA?9?$AAs?$AAe@ 0000000180061758     libucrt:lcidtoname_downlevel.obj
 0002:0000a768       ??_C@_1O@PLLKBHAB@?$AAs?$AAm?$AAj?$AA?9?$AAn?$AAo@ 0000000180061768     libucrt:lcidtoname_downlevel.obj
 0002:0000a778       ??_C@_1O@CLEPOGCA@?$AAs?$AAm?$AAj?$AA?9?$AAs?$AAe@ 0000000180061778     libucrt:lcidtoname_downlevel.obj
 0002:0000a788       ??_C@_1O@DLGJGKMK@?$AAs?$AAm?$AAn?$AA?9?$AAf?$AAi@ 0000000180061788     libucrt:lcidtoname_downlevel.obj
 0002:0000a798       ??_C@_1O@OJDJGAJC@?$AAs?$AAm?$AAs?$AA?9?$AAf?$AAi@ 0000000180061798     libucrt:lcidtoname_downlevel.obj
 0002:0000a7a8       ??_C@_1M@BOFOGHPB@?$AAs?$AAq?$AA?9?$AAa?$AAl@ 00000001800617a8     libucrt:lcidtoname_downlevel.obj
 0002:0000a7b8       ??_C@_1BG@LJBBIPGB@?$AAs?$AAr?$AA?9?$AAb?$AAa?$AA?9?$AAc?$AAy?$AAr?$AAl@ 00000001800617b8     libucrt:lcidtoname_downlevel.obj
 0002:0000a7d0       ??_C@_1BG@JLBENFOE@?$AAs?$AAr?$AA?9?$AAb?$AAa?$AA?9?$AAl?$AAa?$AAt?$AAn@ 00000001800617d0     libucrt:lcidtoname_downlevel.obj
 0002:0000a7e8       ??_C@_1BG@KODPNHE@?$AAs?$AAr?$AA?9?$AAs?$AAp?$AA?9?$AAc?$AAy?$AAr?$AAl@ 00000001800617e8     libucrt:lcidtoname_downlevel.obj
 0002:0000a800       ??_C@_1BG@CIOGKHPB@?$AAs?$AAr?$AA?9?$AAs?$AAp?$AA?9?$AAl?$AAa?$AAt?$AAn@ 0000000180061800     libucrt:lcidtoname_downlevel.obj
 0002:0000a818       ??_C@_1M@NGFJLMAC@?$AAs?$AAv?$AA?9?$AAf?$AAi@ 0000000180061818     libucrt:lcidtoname_downlevel.obj
 0002:0000a828       ??_C@_1M@MPJEJAJC@?$AAs?$AAv?$AA?9?$AAs?$AAe@ 0000000180061828     libucrt:lcidtoname_downlevel.obj
 0002:0000a838       ??_C@_1M@MPNDHLFK@?$AAs?$AAw?$AA?9?$AAk?$AAe@ 0000000180061838     libucrt:lcidtoname_downlevel.obj
 0002:0000a848       ??_C@_1O@KOHBJJI@?$AAs?$AAy?$AAr?$AA?9?$AAs?$AAy@ 0000000180061848     libucrt:lcidtoname_downlevel.obj
 0002:0000a858       ??_C@_1M@LDCEFHA@?$AAt?$AAa?$AA?9?$AAi?$AAn@ 0000000180061858     libucrt:lcidtoname_downlevel.obj
 0002:0000a868       ??_C@_1M@CNJOFAK@?$AAt?$AAe?$AA?9?$AAi?$AAn@ 0000000180061868     libucrt:lcidtoname_downlevel.obj
 0002:0000a878       ??_C@_1M@GNAECACD@?$AAt?$AAh?$AA?9?$AAt?$AAh@ 0000000180061878     libucrt:lcidtoname_downlevel.obj
 0002:0000a888       ??_C@_1M@CHBIHOJO@?$AAt?$AAn?$AA?9?$AAz?$AAa@ 0000000180061888     libucrt:lcidtoname_downlevel.obj
 0002:0000a898       ??_C@_1M@GCCMIGPJ@?$AAt?$AAr?$AA?9?$AAt?$AAr@ 0000000180061898     libucrt:lcidtoname_downlevel.obj
 0002:0000a8a8       ??_C@_1M@CELMCNBK@?$AAt?$AAt?$AA?9?$AAr?$AAu@ 00000001800618a8     libucrt:lcidtoname_downlevel.obj
 0002:0000a8b8       ??_C@_1M@KLMCELGA@?$AAu?$AAk?$AA?9?$AAu?$AAa@ 00000001800618b8     libucrt:lcidtoname_downlevel.obj
 0002:0000a8c8       ??_C@_1M@EPAJJAJF@?$AAu?$AAr?$AA?9?$AAp?$AAk@ 00000001800618c8     libucrt:lcidtoname_downlevel.obj
 0002:0000a8d8       ??_C@_1BG@GEGPMCDJ@?$AAu?$AAz?$AA?9?$AAu?$AAz?$AA?9?$AAc?$AAy?$AAr?$AAl@ 00000001800618d8     libucrt:lcidtoname_downlevel.obj
 0002:0000a8f0       ??_C@_1BG@EGGKJILM@?$AAu?$AAz?$AA?9?$AAu?$AAz?$AA?9?$AAl?$AAa?$AAt?$AAn@ 00000001800618f0     libucrt:lcidtoname_downlevel.obj
 0002:0000a908       ??_C@_1M@GFOCLFF@?$AAv?$AAi?$AA?9?$AAv?$AAn@ 0000000180061908     libucrt:lcidtoname_downlevel.obj
 0002:0000a918       ??_C@_1M@CPAMEDFI@?$AAx?$AAh?$AA?9?$AAz?$AAa@ 0000000180061918     libucrt:lcidtoname_downlevel.obj
 0002:0000a928       ??_C@_1O@EBKIFIGN@?$AAz?$AAh?$AA?9?$AAc?$AAh?$AAs@ 0000000180061928     libucrt:lcidtoname_downlevel.obj
 0002:0000a938       ??_C@_1O@NMHPGANE@?$AAz?$AAh?$AA?9?$AAc?$AAh?$AAt@ 0000000180061938     libucrt:lcidtoname_downlevel.obj
 0002:0000a948       ??_C@_1M@LPINJOMC@?$AAz?$AAh?$AA?9?$AAc?$AAn@ 0000000180061948     libucrt:lcidtoname_downlevel.obj
 0002:0000a958       ??_C@_1M@OCJEJODD@?$AAz?$AAh?$AA?9?$AAh?$AAk@ 0000000180061958     libucrt:lcidtoname_downlevel.obj
 0002:0000a968       ??_C@_1M@DNDLJINH@?$AAz?$AAh?$AA?9?$AAm?$AAo@ 0000000180061968     libucrt:lcidtoname_downlevel.obj
 0002:0000a978       ??_C@_1M@MBFDNDND@?$AAz?$AAh?$AA?9?$AAs?$AAg@ 0000000180061978     libucrt:lcidtoname_downlevel.obj
 0002:0000a988       ??_C@_1M@IMEPLEPE@?$AAz?$AAh?$AA?9?$AAt?$AAw@ 0000000180061988     libucrt:lcidtoname_downlevel.obj
 0002:0000a998       ??_C@_1M@BBGHNHJP@?$AAz?$AAu?$AA?9?$AAz?$AAa@ 0000000180061998     libucrt:lcidtoname_downlevel.obj
 0002:0000a9d0       __real@3ff0000000000000    00000001800619d0     libucrt:ceil.obj
 0002:0000ac70       __log10_256_lead           0000000180061c70     libucrt:log10_256_lead_tail_table.obj
 0002:0000b480       __log10_256_tail           0000000180062480     libucrt:log10_256_lead_tail_table.obj
 0002:0000bc90       __log_F_inv_qword          0000000180062c90     libucrt:log_f_inv_qword_table.obj
 0002:0000c4a0       ??_C@_05HGHHAHAP@log10@    00000001800634a0     libucrt:log_special.obj
 0002:0000c4a8       ??_C@_1BA@BALFACEM@?$AAC?$AAO?$AAN?$AAO?$AAU?$AAT?$AA$@ 00000001800634a8     libucrt:initcon.obj
 0002:0000c4b8       _Asan_string_should_annotate 00000001800634b8     libcpmt:asan_noop.obj
 0002:0000c4b8       _Asan_string_should_annotate_default 00000001800634b8     libcpmt:asan_noop.obj
 0002:0000c4b9       _Asan_vector_should_annotate_default 00000001800634b9     libcpmt:asan_noop.obj
 0002:0000c4c0       ??_C@_0BN@PIGJJKFN@shared?2portable_settings?4cpp@ 00000001800634c0     portable_settings.obj
 0002:0000c4e0       ??_C@_0BC@IJHGPFDC@invalid?5hex?5digit@ 00000001800634e0     portable_settings.obj
 0002:0000c4f4       ??_C@_02DEBJNODD@?$PP?$PO@ 00000001800634f4     portable_settings.obj
 0002:0000c4f8       ??_C@_15JNBOKNOG@?$AA?$AN?$AA?6@ 00000001800634f8     portable_settings.obj
 0002:0000c500       ??_C@_0L@BNKBKFNE@odd?5length@ 0000000180063500     portable_settings.obj
 0002:0000c510       ??_C@_0CA@DKOHHGJO@shared?2libraries?2wil?2safecast?4h@ 0000000180063510     portable_settings.obj
 0002:0000c530       ??_C@_0BA@FOIKENOD@vector?5too?5long@ 0000000180063530     portable_settings.obj
 0002:0000c548       ??_7?$EnumIteratorRegistryBase@H@@6B@ 0000000180063548     portable_settings.obj
 0002:0000c568       ??_7?$EnumIteratorRegistryBase@V?$basic_string@_WU?$char_traits@_W@std@@V?$allocator@_W@2@@std@@@@6B@ 0000000180063568     portable_settings.obj
 0002:0000c588       ??_7?$EnumIteratorIniFileBase@H@@6B@ 0000000180063588     portable_settings.obj
 0002:0000c5a8       ??_7?$EnumIteratorImpl@H@@6B@ 00000001800635a8     portable_settings.obj
 0002:0000c5c8       ??_7?$EnumIteratorIniFileBase@V?$basic_string@_WU?$char_traits@_W@std@@V?$allocator@_W@2@@std@@@@6B@ 00000001800635c8     portable_settings.obj
 0002:0000c5e8       ??_7?$EnumIteratorImpl@V?$basic_string@_WU?$char_traits@_W@std@@V?$allocator@_W@2@@std@@@@6B@ 00000001800635e8     portable_settings.obj
 0002:0000c600       ??_C@_0BI@CFPLBAOH@invalid?5string?5position@ 0000000180063600     portable_settings.obj
 0002:0000c648       ??_7IniFileSettings@@6B@   0000000180063648     portable_settings.obj
 0002:0000c6a0       ??_7EnumIteratorIniFileString@@6B@ 00000001800636a0     portable_settings.obj
 0002:0000c6c0       ??_7EnumIteratorIniFileInt@@6B@ 00000001800636c0     portable_settings.obj
 0002:0000c6d8       ??_C@_00CNPNBAHC@@         00000001800636d8     portable_settings.obj
 0002:0000c6e0       ??_C@_09FBNMMHMJ@Exception@ 00000001800636e0     portable_settings.obj
 0002:0000c6f0       ??_C@_08PHCNGLJD@ReturnNt@ 00000001800636f0     portable_settings.obj
 0002:0000c700       ??_C@_08KFPKLAKH@ReturnHr@ 0000000180063700     portable_settings.obj
 0002:0000c70c       ??_C@_05LKGDKHFF@LogNt@    000000018006370c     portable_settings.obj
 0002:0000c714       ??_C@_05OILEHMGB@LogHr@    0000000180063714     portable_settings.obj
 0002:0000c720       ??_C@_08IAOKKAJK@FailFast@ 0000000180063720     portable_settings.obj
 0002:0000c730       ??_C@_1CC@NCIPMFAO@?$AA?$CF?$AAh?$AAs?$AA?$CI?$AA?$CF?$AAu?$AA?$CJ?$AA?2?$AA?$CF?$AAh?$AAs?$AA?$CB?$AA?$CF?$AAp?$AA?3@ 0000000180063730     portable_settings.obj
 0002:0000c758       ??_C@_1BC@HOGHCIFF@?$AA?$CF?$AAh?$AAs?$AA?$CB?$AA?$CF?$AAp?$AA?3?$AA?5@ 0000000180063758     portable_settings.obj
 0002:0000c770       ??_C@_1BM@EAHLIJPA@?$AA?$CI?$AAc?$AAa?$AAl?$AAl?$AAe?$AAr?$AA?3?$AA?5?$AA?$CF?$AAp?$AA?$CJ?$AA?5@ 0000000180063770     portable_settings.obj
 0002:0000c790       ??_C@_1DC@MFHOKFOG@?$AA?$CF?$AAh?$AAs?$AA?$CI?$AA?$CF?$AAd?$AA?$CJ?$AA?5?$AAt?$AAi?$AAd?$AA?$CI?$AA?$CF?$AAx?$AA?$CJ@ 0000000180063790     portable_settings.obj
 0002:0000c7c8       ??_C@_19NMAFMAH@?$AA?5?$AA?5?$AA?5?$AA?5@ 00000001800637c8     portable_settings.obj
 0002:0000c7d8       ??_C@_1BG@MCLOHHAM@?$AAM?$AAs?$AAg?$AA?3?$AA?$FL?$AA?$CF?$AAw?$AAs?$AA?$FN?$AA?5@ 00000001800637d8     portable_settings.obj
 0002:0000c7f0       ??_C@_1CG@CGJKEFKG@?$AAC?$AAa?$AAl?$AAl?$AAC?$AAo?$AAn?$AAt?$AAe?$AAx?$AAt?$AA?3?$AA?$FL?$AA?$CF?$AAh@ 00000001800637f0     portable_settings.obj
 0002:0000c818       ??_C@_1BI@PKOCHLJN@?$AA?$FL?$AA?$CF?$AAh?$AAs?$AA?$CI?$AA?$CF?$AAh?$AAs?$AA?$CJ?$AA?$FN?$AA?6@ 0000000180063818     portable_settings.obj
 0002:0000c830       ??_C@_1O@PJKHPDBK@?$AA?$FL?$AA?$CF?$AAh?$AAs?$AA?$FN?$AA?6@ 0000000180063830     portable_settings.obj
 0002:0000c840       ??_C@_13LBAGMAIH@?$AA?6@   0000000180063840     portable_settings.obj
 0002:0000c850       ??_7RegistrySettings@@6B@  0000000180063850     portable_settings.obj
 0002:0000c8a8       ??_7EnumIteratorRegistryString@@6B@ 00000001800638a8     portable_settings.obj
 0002:0000c8c8       ??_7EnumIteratorRegistryInt@@6B@ 00000001800638c8     portable_settings.obj
 0002:0000c8e0       ??_C@_0BG@HBEOPAA@invalid?5stol?5argument@ 00000001800638e0     portable_settings.obj
 0002:0000c8f8       ??_C@_0BL@CNHODNBK@stol?5argument?5out?5of?5range@ 00000001800638f8     portable_settings.obj
 0002:0000c918       ??_C@_0BA@JFNIOLAK@string?5too?5long@ 0000000180063918     portable_settings.obj
 0002:0000c928       ??_C@_0BF@KINCDENJ@bad?5array?5new?5length@ 0000000180063928     portable_settings.obj
 0002:0000c940       ??_C@_0BC@EOODALEL@Unknown?5exception@ 0000000180063940     portable_settings.obj
 0002:0000c958       ??_C@_0BB@NNNBNIDF@NtQueueApcThread@ 0000000180063958     dll_inject.obj
 0002:0000c970       ??_C@_0BL@NGJPPJDB@NtQueueApcThread?5not?5found@ 0000000180063970     dll_inject.obj
 0002:0000c990       ??_C@_0BG@IEENCHJM@engine?2dll_inject?4cpp@ 0000000180063990     dll_inject.obj
 0002:0000c9a8       ??_C@_1BK@MGMFAEKH@?$AAk?$AAe?$AAr?$AAn?$AAe?$AAl?$AA3?$AA2?$AA?4?$AAd?$AAl?$AAl@ 00000001800639a8     dll_inject.obj
 0002:0000c9c8       ??_C@_0BG@IFILFNJG@GetProcessInformation@ 00000001800639c8     dll_inject.obj
 0002:0000c9e0       ??_C@_1BC@PFDDLKEP@?$AAS?$AAe?$AAt?$AAt?$AAi?$AAn?$AAg?$AAs@ 00000001800639e0     dll_inject.obj
 0002:0000c9f8       ??_C@_1CI@POBIGHKE@?$AAU?$AAs?$AAe?$AAP?$AAh?$AAa?$AAn?$AAt?$AAo?$AAm?$AAI?$AAn?$AAj?$AAe?$AAc@ 00000001800639f8     dll_inject.obj
 0002:0000ca20       ??_C@_0BL@CPBNLHLM@Invalid?5architecture?5value@ 0000000180063a20     dll_inject.obj
 0002:0000ca40       ??_C@_1BK@LAAHIMOG@?$AAw?$AAi?$AAn?$AAd?$AAh?$AAa?$AAw?$AAk?$AA?4?$AAd?$AAl?$AAl@ 0000000180063a40     dll_inject.obj
 0002:0000ca60       ??_C@_1CI@EPIKOING@?$AAU?$AAs?$AAe?$AAI?$AAn?$AAd?$AAi?$AAr?$AAe?$AAc?$AAt?$AAS?$AAy?$AAs?$AAc@ 0000000180063a60     dll_inject.obj
 0002:0000ca88       ??_C@_1CE@DGDDLKJN@?$AAU?$AAs?$AAe?$AAM?$AAo?$AAd?$AAu?$AAl?$AAe?$AAS?$AAt?$AAo?$AAm?$AAp?$AAi@ 0000000180063a88     dll_inject.obj
 0002:0000cab0       ??_C@_1BK@BNOFJAFM@?$AAx?$AAp?$AAs?$AAp?$AAr?$AAi?$AAn?$AAt?$AA?4?$AAd?$AAl?$AAl@ 0000000180063ab0     dll_inject.obj
 0002:0000cad0       ??_C@_0BF@MKCNNBBA@DllInject?3?3DllInject@ 0000000180063ad0     dll_inject.obj
 0002:0000caf0       ??_C@_1IE@FPKGECOI@?$AA?$FL?$AAW?$AAH?$AA?$FN?$AA?5?$AA?$FL?$AA?$CF?$AAS?$AA?$FN?$AA?3?$AA?5?$AAM?$AAo?$AAd?$AAu@ 0000000180063af0     dll_inject.obj
 0002:0000cb78       ??_C@_0CJ@PBEBNAOB@IndirectNtAllocateVirtualMemory@ 0000000180063b78     dll_inject.obj
 0002:0000cba8       ??_C@_0CE@KKGNENMH@IndirectNtWriteVirtualMemory?5fa@ 0000000180063ba8     dll_inject.obj
 0002:0000cbd0       ??_C@_0CG@HGIJEAPA@IndirectNtProtectVirtualMemory?5@ 0000000180063bd0     dll_inject.obj
 0002:0000cbf8       ??_C@_0CA@LOHDOHIF@IndirectNtQueueApcThread?5failed@ 0000000180063bf8     dll_inject.obj
 0002:0000cc18       ??_C@_0CA@OPHJBLCP@IndirectNtCreateThreadEx?5failed@ 0000000180063c18     dll_inject.obj
 0002:0000cc38       ??_C@_1DI@PNLAENMD@?$AAW?$AAi?$AAn?$AAd?$AAh?$AAa?$AAw?$AAk?$AAI?$AAn?$AAj?$AAe?$AAc?$AAt?$AAe@ 0000000180063c38     dll_inject.obj
 0002:0000cc70       ??_C@_1CC@CFCNHABB@?$AAW?$AAi?$AAn?$AAd?$AAh?$AAa?$AAw?$AAk?$AAI?$AAn?$AAj?$AAe?$AAc?$AAt?$AAe@ 0000000180063c70     dll_inject.obj
 0002:0000cc98       ??_C@_1BE@GJOFHIHD@?$AAn?$AAt?$AAd?$AAl?$AAl?$AA?4?$AAd?$AAl?$AAl@ 0000000180063c98     dll_inject.obj
 0002:0000f2b0       OPERAND_DEFINITIONS        00000001800662b0     Zydis.obj
 0002:00028950       FILTERS_EVEX_B             000000018007f950     Zydis.obj
 0002:0002a410       encoder_instructions       0000000180081410     Zydis.obj
 0002:0003df64       FILTERS_MODE_WBNOINVD      0000000180094f64     Zydis.obj
 0002:0003df80       FILTERS_PREFIX_GROUP1      0000000180094f80     Zydis.obj
 0002:0003dfc0       FILTERS_MODRM_REG          0000000180094fc0     Zydis.obj
 0002:0003eb40       FILTERS_MODE_COMPACT       0000000180095b40     Zydis.obj
 0002:0003f400       FILTERS_MODE               0000000180096400     Zydis.obj
 0002:0003f468       FILTERS_MODE_MPX           0000000180096468     Zydis.obj
 0002:0003f590       ISTR_DEFINITIONS_EVEX      0000000180096590     Zydis.obj
 0002:0004f970       FILTERS_ADDRESS_SIZE       00000001800a6970     Zydis.obj
 0002:0004fbb0       FILTERS_VECTOR_LENGTH      00000001800a6bb0     Zydis.obj
 0002:00053450       ISTR_DEFINITIONS_VEX       00000001800aa450     Zydis.obj
 0002:00059e40       FILTERS_XOP                00000001800b0e40     Zydis.obj
 0002:00059f10       FILTERS_MODE_AMD           00000001800b0f10     Zydis.obj
 0002:00059f80       FILTERS_MODE_IPREFETCH     00000001800b0f80     Zydis.obj
 0002:0005a010       FILTERS_MODRM_MOD_COMPACT  00000001800b1010     Zydis.obj
 0002:0005cca0       FILTERS_REX_W              00000001800b3ca0     Zydis.obj
 0002:0005f6f0       FILTERS_MANDATORY_PREFIX   00000001800b66f0     Zydis.obj
 0002:00061370       FILTERS_VEX                00000001800b8370     Zydis.obj
 0002:000613e0       FILTERS_EMVEX              00000001800b83e0     Zydis.obj
 0002:00066060       FILTERS_MODE_LZCNT         00000001800bd060     Zydis.obj
 0002:000660b4       FILTERS_MODE_UD0_COMPAT    00000001800bd0b4     Zydis.obj
 0002:00066cf0       ISTR_DEFINITIONS_3DNOW     00000001800bdcf0     Zydis.obj
 0002:00067074       zydis_decoder_tree_root    00000001800be074     Zydis.obj
 0002:000672d0       ISTR_DEFINITIONS_XOP       00000001800be2d0     Zydis.obj
 0002:00067d30       FILTERS_MODE_CLDEMOTE      00000001800bed30     Zydis.obj
 0002:00067e18       FILTERS_MODE_KNC           00000001800bee18     Zydis.obj
 0002:0006819c       FILTERS_REX_B              00000001800bf19c     Zydis.obj
 0002:000682d0       FILTERS_MVEX_E             00000001800bf2d0     Zydis.obj
 0002:00068780       FILTERS_MODRM_RM           00000001800bf780     Zydis.obj
 0002:00068ec0       FILTERS_OPCODE             00000001800bfec0     Zydis.obj
 0002:00071998       FILTERS_MODRM_MOD          00000001800c8998     Zydis.obj
 0002:00071a58       FILTERS_MODE_TZCNT         00000001800c8a58     Zydis.obj
 0002:00071a80       ISTR_DEFINITIONS_MVEX      00000001800c8a80     Zydis.obj
 0002:00073590       ISTR_DEFINITIONS_LEGACY    00000001800ca590     Zydis.obj
 0002:0007a860       FILTERS_OPERAND_SIZE       00000001800d1860     Zydis.obj
 0002:0007aa18       FILTERS_MODE_CET           00000001800d1a18     Zydis.obj
 0002:0007ab30       ??_C@_0O@MJPOMPOC@EtwEventWrite@ 00000001800d1b30     etw_stealth.obj
 0002:0007ab40       ??_C@_0BP@GINMGICN@EtwStealth?3?3PatchEtwEventWrite@ 00000001800d1b40     etw_stealth.obj
 0002:0007ab60       ??_C@_1II@DGGHEFIH@?$AA?$FL?$AAW?$AAH?$AA?$FN?$AA?5?$AA?$FL?$AA?$CF?$AAS?$AA?$FN?$AA?3?$AA?5?$AAE?$AAt?$AAw?$AAE@ 00000001800d1b60     etw_stealth.obj
 0002:0007abf0       ??_C@_1GI@FHIJNNGI@?$AA?$FL?$AAW?$AAH?$AA?$FN?$AA?5?$AA?$FL?$AA?$CF?$AAS?$AA?$FN?$AA?3?$AA?5?$AAF?$AAa?$AAi?$AAl@ 00000001800d1bf0     etw_stealth.obj
 0002:0007ac60       ??_C@_1GI@PCDAMHNG@?$AA?$FL?$AAW?$AAH?$AA?$FN?$AA?5?$AA?$FL?$AA?$CF?$AAS?$AA?$FN?$AA?3?$AA?5?$AAF?$AAa?$AAi?$AAl@ 00000001800d1c60     etw_stealth.obj
 0002:0007acc8       ??_C@_15EAECJAPL@?$AA?$CK?$AA?$DP@ 00000001800d1cc8     functions.obj
 0002:0007acd0       ??_C@_1JK@LKBPHDHG@?$AAD?$AA?3?$AAP?$AA?$CI?$AAA?$AA?$DL?$AA?$DL?$AAG?$AAA?$AA?$DL?$AA?$DL?$AA?$DL?$AAW?$AAD?$AA?$CJ@ 00000001800d1cd0     functions.obj
 0002:0007ad70       ??_C@_0BB@KGGDNLNO@NtCreateThreadEx@ 00000001800d1d70     functions.obj
 0002:0007ad88       ??_C@_0CA@ODLDBBMI@Functions?3?3MyCreateRemoteThread@ 00000001800d1d88     functions.obj
 0002:0007adb0       ??_C@_1GI@JMENFCGJ@?$AA?$FL?$AAW?$AAH?$AA?$FN?$AA?5?$AA?$FL?$AA?$CF?$AAS?$AA?$FN?$AA?3?$AA?5?$AAS?$AAt?$AAa?$AAc@ 00000001800d1db0     functions.obj
 0002:0007ae18       ??_C@_0BH@OLGOMKMH@RtlGetNtVersionNumbers@ 00000001800d1e18     functions.obj
 0002:0007ae30       ??_C@_1BI@JADLCDAP@?$AAv?$AAe?$AAr?$AAs?$AAi?$AAo?$AAn?$AA?4?$AAd?$AAl?$AAl@ 00000001800d1e30     functions.obj
 0002:0007ae48       ??_C@_0P@BMNOKKJF@VerQueryValueW@ 00000001800d1e48     functions.obj
 0002:0007ae58       ??_C@_13FPGAJAPJ@?$AA?2@   00000001800d1e58     functions.obj
 0002:0007ae60       ??_C@_0BF@HANKKIJA@SetThreadDescription@ 00000001800d1e60     functions.obj
 0002:0007ae80       ??_7?$__func@V<lambda_1>@?1???$ExpandEnvironmentStringsW@V?$basic_string@_WU?$char_traits@_W@std@@V?$allocator@_W@2@@std@@$0BAA@@wil@@YAJPEB_WAEAV?$basic_string@_WU?$char_traits@_W@std@@V?$allocator@_W@2@@std@@@Z@$$A6AJPEA_W_KPEA_K@Z@__function@wistd@@6B@ 00000001800d1e80     functions.obj
 0002:0007aeb0       ??_7?$__base@$$A6AJPEA_W_KPEA_K@Z@__function@wistd@@6B@ 00000001800d1eb0     functions.obj
 0002:0007aed8       ??_C@_0BN@OFDOGPDL@invalid?5string_view?5position@ 00000001800d1ed8     functions.obj
 0002:0007aef8       ??_C@_0CF@JDAAONOL@shared?2libraries?2wil?2win32_help@ 00000001800d1ef8     functions.obj
 0002:0007af20       ??_C@_0BC@CDONGAKG@HwbpHook?3?3SetHook@ 00000001800d1f20     hwbp_hook.obj
 0002:0007af40       ??_C@_1JE@BIIEOMHK@?$AA?$FL?$AAW?$AAH?$AA?$FN?$AA?5?$AA?$FL?$AA?$CF?$AAS?$AA?$FN?$AA?3?$AA?5?$AAH?$AAW?$AAB?$AAP@ 00000001800d1f40     hwbp_hook.obj
 0002:0007afe0       ??_C@_1HE@OHJAOLFN@?$AA?$FL?$AAW?$AAH?$AA?$FN?$AA?5?$AA?$FL?$AA?$CF?$AAS?$AA?$FN?$AA?3?$AA?5?$AAH?$AAW?$AAB?$AAP@ 00000001800d1fe0     hwbp_hook.obj
 0002:0007b060       ??_C@_1GO@CFMNBIJM@?$AA?$FL?$AAW?$AAH?$AA?$FN?$AA?5?$AA?$FL?$AA?$CF?$AAS?$AA?$FN?$AA?3?$AA?5?$AAH?$AAW?$AAB?$AAP@ 00000001800d2060     hwbp_hook.obj
 0002:0007b0d0       ??_C@_1BA@LEPJIIOK@?$AAU?$AAn?$AAk?$AAn?$AAo?$AAw?$AAn@ 00000001800d20d0     injection_monitor.obj
 0002:0007b0e0       ??_C@_19EOHDNDII@?$AAR?$AAe?$AAa?$AAd@ 00000001800d20e0     injection_monitor.obj
 0002:0007b0f0       ??_C@_1M@GNJKCMMA@?$AAW?$AAr?$AAi?$AAt?$AAe@ 00000001800d20f0     injection_monitor.obj
 0002:0007b100       ??_C@_1BA@GMIPEBEM@?$AAE?$AAx?$AAe?$AAc?$AAu?$AAt?$AAe@ 00000001800d2100     injection_monitor.obj
 0002:0007b110       ??_C@_0BN@KADMGPJM@InjectionMonitor?3?3VehHandler@ 00000001800d2110     injection_monitor.obj
 0002:0007b130       ??_C@_1NC@DEMJNABA@?$AA?$FL?$AAW?$AAH?$AA?$FN?$AA?5?$AA?$FL?$AA?$CF?$AAS?$AA?$FN?$AA?3?$AA?5?$AA?$FL?$AAH?$AAo?$AAo@ 00000001800d2130     injection_monitor.obj
 0002:0007b208       ??_C@_0BN@HHCFNBIN@InjectionMonitor?3?3Initialize@ 00000001800d2208     injection_monitor.obj
 0002:0007b230       ??_C@_1FI@LFANCLJA@?$AA?$FL?$AAW?$AAH?$AA?$FN?$AA?5?$AA?$FL?$AA?$CF?$AAS?$AA?$FN?$AA?3?$AA?5?$AAI?$AAn?$AAj?$AAe@ 00000001800d2230     injection_monitor.obj
 0002:0007b290       ??_C@_1GI@CCGJEDEF@?$AA?$FL?$AAW?$AAH?$AA?$FN?$AA?5?$AA?$FL?$AA?$CF?$AAS?$AA?$FN?$AA?3?$AA?5?$AAF?$AAa?$AAi?$AAl@ 00000001800d2290     injection_monitor.obj
 0002:0007b2f8       ??_C@_0CF@FIJELLOA@InjectionMonitor?3?3RegisterHookR@ 00000001800d22f8     injection_monitor.obj
 0002:0007b320       ??_C@_1GO@BDODFKBH@?$AA?$FL?$AAW?$AAH?$AA?$FN?$AA?5?$AA?$FL?$AA?$CF?$AAS?$AA?$FN?$AA?3?$AA?5?$AAF?$AAa?$AAi?$AAl@ 00000001800d2320     injection_monitor.obj
 0002:0007b390       ??_C@_1IA@LHCECGLG@?$AA?$FL?$AAW?$AAH?$AA?$FN?$AA?5?$AA?$FL?$AA?$CF?$AAS?$AA?$FN?$AA?3?$AA?5?$AAR?$AAe?$AAg?$AAi@ 00000001800d2390     injection_monitor.obj
 0002:0007b410       ??_C@_0BL@GOIGLPKN@unordered_map?1set?5too?5long@ 00000001800d2410     injection_monitor.obj
 0002:0007b430       ??_C@_0BK@OGNNAFAB@invalid?5hash?5bucket?5count@ 00000001800d2430     injection_monitor.obj
 0002:0007b450       ??_C@_1CC@EPFAMDMB@?$AAL?$AAo?$AAg?$AAg?$AAi?$AAn?$AAg?$AAV?$AAe?$AAr?$AAb?$AAo?$AAs?$AAi?$AAt@ 00000001800d2450     logger.obj
 0002:0007b478       ??_C@_0P@NHEEEMO@FlsAlloc?5error@ 00000001800d2478     logger.obj
 0002:0007b490       ??_7?$_Func_impl_no_alloc@U?$default_delete@V?$optional@W4Verbosity@LoggerBase@@@std@@@std@@XPEAV?$optional@W4Verbosity@LoggerBase@@@2@@std@@6B@ 00000001800d2490     logger.obj
 0002:0007b4c8       ??_7?$_Func_impl_no_alloc@V<lambda_5_>@?0???0?$ThreadLocal@V?$optional@W4Verbosity@LoggerBase@@@std@@@@QEAA@XZ@PEAV?$optional@W4Verbosity@LoggerBase@@@std@@$$V@std@@6B@ 00000001800d24c8     logger.obj
 0002:0007b4f8       ??_C@_06FHFOAHML@system@   00000001800d24f8     logger.obj
 0002:0007b500       ?_Unknown_error@?6??message@_System_error_category@std@@UEBA?AV?$basic_string@DU?$char_traits@D@std@@V?$allocator@D@2@@3@H@Z@4QBDB 00000001800d2500     logger.obj
 0002:0007b510       ??_C@_07DCLBNMLN@generic@  00000001800d2510     logger.obj
 0002:0007b520       ??_7_System_error_category@std@@6B@ 00000001800d2520     logger.obj
 0002:0007b550       ??_C@_02LMMGGCAJ@?3?5@     00000001800d2550     logger.obj
 0002:0007b560       ??_C@_0EC@FPACEJAO@?$GAanonymous?9namespace?8?3?3ModDebug@ 00000001800d2560     mod.obj
 0002:0007b5a8       ??_C@_1DI@FDIPNKDM@?$AA?$FL?$AAW?$AAH?$AA?$FN?$AA?5?$AA?$FL?$AA?$CF?$AAS?$AA?$FN?$AA?3?$AA?5?$AA?$DO?$AA?$DO?$AA?$DO?$AA?5@ 00000001800d25a8     mod.obj
 0002:0007b5e0       ??_C@_0ED@IFAJIPBG@?$GAanonymous?9namespace?8?3?3ModDebug@ 00000001800d25e0     mod.obj
 0002:0007b628       ??_C@_1DG@KEGIJEBK@?$AA?$FL?$AAW?$AAH?$AA?$FN?$AA?5?$AA?$FL?$AA?$CF?$AAS?$AA?$FN?$AA?3?$AA?5?$AA?$DM?$AA?$DM?$AA?$DM?$AA?5@ 00000001800d2628     mod.obj
 0002:0007b660       ??_C@_0DE@JHEIDOCF@?$GAanonymous?9namespace?8?3?3CrossMod@ 00000001800d2660     mod.obj
 0002:0007b698       ??_C@_1BO@CJDPGKLP@?$AA?$FL?$AAW?$AAH?$AA?$FN?$AA?5?$AA?$FL?$AA?$CF?$AAS?$AA?$FN?$AA?3?$AA?5?$AA?$CF?$AAS?$AA?6@ 00000001800d2698     mod.obj
 0002:0007b6b8       ??_C@_0P@PAHLILCK@engine?2mod?4cpp@ 00000001800d26b8     mod.obj
 0002:0007b6c8       ??_C@_13ENNFDPBH@?$AA_@    00000001800d26c8     mod.obj
 0002:0007b6d0       ??_C@_1O@EPKDGFAP@?$AAx?$AA8?$AA6?$AA?9?$AA6?$AA4@ 00000001800d26d0     mod.obj
 0002:0007b6e0       ??_C@_1M@OKAPLDDA@?$AAa?$AAm?$AAd?$AA6?$AA4@ 00000001800d26e0     mod.obj
 0002:0007b6f0       ??_C@_1BA@LIACFDLB@?$AAV?$AAe?$AAr?$AAs?$AAi?$AAo?$AAn@ 00000001800d26f0     mod.obj
 0002:0007b700       ??_C@_13IMODFHAA@?$AA?9@   00000001800d2700     mod.obj
 0002:0007b708       ??_C@_1CI@HEMOPGAP@?$AAs?$AAt?$AAa?$AAr?$AAt?$AA?9?$AAm?$AAe?$AAn?$AAu?$AA?9?$AAa?$AAl?$AAl?$AA?9@ 00000001800d2708     mod.obj
 0002:0007b730       ??_C@_17BODHOPJC@?$AA1?$AA?4?$AA0@ 00000001800d2730     mod.obj
 0002:0007b738       ??_C@_1M@KKMONIGH@?$AA1?$AA?4?$AA0?$AA?4?$AA1@ 00000001800d2738     mod.obj
 0002:0007b748       ??_C@_1CK@DFOIIMGI@?$AAt?$AAa?$AAs?$AAk?$AAb?$AAa?$AAr?$AA?9?$AAb?$AAu?$AAt?$AAt?$AAo?$AAn?$AA?9@ 00000001800d2748     mod.obj
 0002:0007b778       ??_C@_1DI@CHBMBGCK@?$AAt?$AAa?$AAs?$AAk?$AAb?$AAa?$AAr?$AA?9?$AAc?$AAl?$AAo?$AAc?$AAk?$AA?9?$AAc@ 00000001800d2778     mod.obj
 0002:0007b7b0       ??_C@_1M@LIHLHHIJ@?$AA1?$AA?4?$AA0?$AA?4?$AA2@ 00000001800d27b0     mod.obj
 0002:0007b7c0       ??_C@_1M@MHBAOM@?$AA1?$AA?4?$AA0?$AA?4?$AA3@ 00000001800d27c0     mod.obj
 0002:0007b7d0       ??_C@_1M@JNBACIFF@?$AA1?$AA?4?$AA0?$AA?4?$AA4@ 00000001800d27d0     mod.obj
 0002:0007b7e0       ??_C@_1M@CFKMEPDA@?$AA1?$AA?4?$AA0?$AA?4?$AA5@ 00000001800d27e0     mod.obj
 0002:0007b7f0       ??_C@_1CC@ILNPLFL@?$AAt?$AAa?$AAs?$AAk?$AAb?$AAa?$AAr?$AA?9?$AAg?$AAr?$AAo?$AAu?$AAp?$AAi?$AAn@ 00000001800d27f0     mod.obj
 0002:0007b818       ??_C@_1CE@KJIOFEAH@?$AAt?$AAa?$AAs?$AAk?$AAb?$AAa?$AAr?$AA?9?$AAi?$AAc?$AAo?$AAn?$AA?9?$AAs?$AAi@ 00000001800d2818     mod.obj
 0002:0007b840       ??_C@_1BO@DGLKOHAB@?$AAt?$AAa?$AAs?$AAk?$AAb?$AAa?$AAr?$AA?9?$AAl?$AAa?$AAb?$AAe?$AAl?$AAs@ 00000001800d2840     mod.obj
 0002:0007b860       ??_C@_1DE@HOOMCEJM@?$AAt?$AAa?$AAs?$AAk?$AAb?$AAa?$AAr?$AA?9?$AAt?$AAh?$AAu?$AAm?$AAb?$AAn?$AAa@ 00000001800d2860     mod.obj
 0002:0007b898       ??_C@_1O@BABJODAP@?$AAl?$AAo?$AAc?$AAa?$AAl?$AA?$EA@ 00000001800d2898     mod.obj
 0002:0007b8b0       ??_C@_0ED@GKIJGNNP@_ZN13WindhawkUtils11HookSymbols@ 00000001800d28b0     mod.obj
 0002:0007b900       ??_C@_0GA@NAFEAKO@_ZN13WindhawkUtils11HookSymbols@ 00000001800d2900     mod.obj
 0002:0007b960       ??_C@_0CO@GGMNFFLP@_Z11HookSymbolsP11HINSTANCE__PK@ 00000001800d2960     mod.obj
 0002:0007b990       ??_C@_0EF@JHMGHDPK@_Z34HookSymbolsWithOnlineCacheF@ 00000001800d2990     mod.obj
 0002:0007b9d8       ??_C@_0DH@IMCPJBKE@_Z15CmwfHookSymbolsP11HINSTANCE@ 00000001800d29d8     mod.obj
 0002:0007ba10       ??_C@_0EJ@LGLACAKP@_ZN13WindhawkUtils11HookSymbols@ 00000001800d2a10     mod.obj
 0002:0007ba60       ??_C@_0GO@DEDLPJF@_ZN13WindhawkUtils11HookSymbols@ 00000001800d2a60     mod.obj
 0002:0007bad0       ??_C@_1O@MMEACLKK@?$AAe?$AAr?$AAr?$AAo?$AAr?$AA?3@ 00000001800d2ad0     mod.obj
 0002:0007bae0       ??_C@_0DM@KGAJFPID@?$GAanonymous?9namespace?8?3?3HookSymb@ 00000001800d2ae0     mod.obj
 0002:0007bb20       ??_C@_1EE@CDDPBOPM@?$AA?$FL?$AAW?$AAH?$AA?$FN?$AA?5?$AA?$FL?$AA?$CF?$AAS?$AA?$FN?$AA?3?$AA?5?$AAT?$AAo?$AA?5?$AAb@ 00000001800d2b20     mod.obj
 0002:0007bb68       ??_C@_1DG@PBDCMBIN@?$AA?$FL?$AAW?$AAH?$AA?$FN?$AA?5?$AA?$FL?$AA?$CF?$AAS?$AA?$FN?$AA?3?$AA?5?$AAF?$AAo?$AAu?$AAn@ 00000001800d2b68     mod.obj
 0002:0007bba0       ??_C@_1BI@LNPACGDA@?$AAS?$AAy?$AAm?$AAb?$AAo?$AAl?$AAC?$AAa?$AAc?$AAh?$AAe@ 00000001800d2ba0     mod.obj
 0002:0007bbc0       ??_C@_0ED@JPAPPDDC@?$GAanonymous?9namespace?8?3?3HookSymb@ 00000001800d2bc0     mod.obj
 0002:0007bc10       ??_C@_1FE@OIFFLCLG@?$AA?$FL?$AAW?$AAH?$AA?$FN?$AA?5?$AA?$FL?$AA?$CF?$AAS?$AA?$FN?$AA?3?$AA?5?$AAU?$AAs?$AAi?$AAn@ 00000001800d2c10     mod.obj
 0002:0007bc68       ??_C@_0DO@OFPCGNB@?$GAanonymous?9namespace?8?3?3HookSymb@ 00000001800d2c68     mod.obj
 0002:0007bcb0       ??_C@_0FC@INJFNLAD@?$GAanonymous?9namespace?8?3?3HookSymb@ 00000001800d2cb0     mod.obj
 0002:0007bd08       ??_C@_0DN@BOILKIBG@?$GAanonymous?9namespace?8?3?3HookSymb@ 00000001800d2d08     mod.obj
 0002:0007bd48       ??_C@_1DG@GBDPDCMC@?$AA?$FL?$AAW?$AAH?$AA?$FN?$AA?5?$AA?$FL?$AA?$CF?$AAS?$AA?$FN?$AA?3?$AA?5?$AAA?$AAp?$AAp?$AAl@ 00000001800d2d48     mod.obj
 0002:0007bd80       ??_C@_0EN@OHEGFJDB@?$GAanonymous?9namespace?8?3?3HookSymb@ 00000001800d2d80     mod.obj
 0002:0007bdd0       ??_C@_1CO@OICDLOII@?$AA?$FL?$AAW?$AAH?$AA?$FN?$AA?5?$AA?$FL?$AA?$CF?$AAS?$AA?$FN?$AA?3?$AA?5?$AAM?$AAo?$AAd?$AAu@ 00000001800d2dd0     mod.obj
 0002:0007be00       ??_C@_1CK@DDGMBLMJ@?$AA?$FL?$AAW?$AAH?$AA?$FN?$AA?5?$AA?$FL?$AA?$CF?$AAS?$AA?$FN?$AA?3?$AA?5?$AAP?$AAa?$AAt?$AAh@ 00000001800d2e00     mod.obj
 0002:0007be30       ??_C@_1DA@PBKOJHBP@?$AA?$FL?$AAW?$AAH?$AA?$FN?$AA?5?$AA?$FL?$AA?$CF?$AAS?$AA?$FN?$AA?3?$AA?5?$AAV?$AAe?$AAr?$AAs@ 00000001800d2e30     mod.obj
 0002:0007be60       ??_C@_1FO@HKOEALMA@?$AA?$CF?$AA0?$AA8?$AAX?$AA?$CF?$AA0?$AA4?$AAX?$AA?$CF?$AA0?$AA4?$AAX?$AA?$CF?$AA0?$AA2@ 00000001800d2e60     mod.obj
 0002:0007bec0       ??_C@_19GIMPANPF@?$AAp?$AAd?$AAb?$AA_@ 00000001800d2ec0     mod.obj
 0002:0007bed0       ??_C@_1BC@MMJCMAGC@?$AA_?$AAh?$AAy?$AAb?$AAr?$AAi?$AAd?$AA?9@ 00000001800d2ed0     mod.obj
 0002:0007bee8       ??_C@_17PNNKDABL@?$AAp?$AAe?$AA_@ 00000001800d2ee8     mod.obj
 0002:0007bef0       ??_C@_1BA@PDEIENOI@?$AA_?$AAh?$AAy?$AAb?$AAr?$AAi?$AAd@ 00000001800d2ef0     mod.obj
 0002:0007bf00       ??_C@_1M@BNADFHPB@?$AA?$CF?$AAs?$AAe?$AAp?$AA?$CF@ 00000001800d2f00     mod.obj
 0002:0007bf10       ??_C@_1BK@MIHJMJHO@?$AAC?$AAu?$AAr?$AAr?$AAe?$AAn?$AAt?$AAB?$AAu?$AAi?$AAl?$AAd@ 00000001800d2f10     mod.obj
 0002:0007bf30       ??_C@_1FK@EDIIEKBJ@?$AAS?$AAO?$AAF?$AAT?$AAW?$AAA?$AAR?$AAE?$AA?2?$AAM?$AAi?$AAc?$AAr?$AAo?$AAs@ 00000001800d2f30     mod.obj
 0002:0007bf90       ??_C@_17KEIPLBHK@?$AAU?$AAB?$AAR@ 00000001800d2f90     mod.obj
 0002:0007bf98       ??_C@_15CMBHNMLL@?$AA?5?$AA?$CI@ 00000001800d2f98     mod.obj
 0002:0007bfa0       ??_C@_0BF@HJJKEGON@LoadedMod?3?3LoadedMod@ 00000001800d2fa0     mod.obj
 0002:0007bfb8       ??_C@_1CO@PNCBJCLP@?$AA?$FL?$AAW?$AAH?$AA?$FN?$AA?5?$AA?$FL?$AA?$CF?$AAS?$AA?$FN?$AA?3?$AA?5?$AAW?$AAi?$AAn?$AAd@ 00000001800d2fb8     mod.obj
 0002:0007bff0       ??_C@_1EG@LKKPKMCK@?$AA?$FL?$AAW?$AAH?$AA?$FN?$AA?5?$AA?$FL?$AA?$CF?$AAS?$AA?$FN?$AA?3?$AA?5?$AAW?$AAi?$AAn?$AAd@ 00000001800d2ff0     mod.obj
 0002:0007c038       ??_C@_1CO@PJDFLNNJ@?$AA?$FL?$AAW?$AAH?$AA?$FN?$AA?5?$AA?$FL?$AA?$CF?$AAS?$AA?$FN?$AA?3?$AA?5?$AAM?$AAo?$AAd?$AA?5@ 00000001800d3038     mod.obj
 0002:0007c068       ??_C@_1DI@BJDNEACD@?$AA?$FL?$AAW?$AAH?$AA?$FN?$AA?5?$AA?$FL?$AA?$CF?$AAS?$AA?$FN?$AA?3?$AA?5?$AAM?$AAo?$AAd?$AA?5@ 00000001800d3068     mod.obj
 0002:0007c0a0       ??_C@_1EC@PILLHDBJ@?$AA?$FL?$AAW?$AAH?$AA?$FN?$AA?5?$AA?$FL?$AA?$CF?$AAS?$AA?$FN?$AA?3?$AA?5?$AAM?$AAo?$AAd?$AA?5@ 00000001800d30a0     mod.obj
 0002:0007c0e8       ??_C@_0BB@PGDKCKED@InternalWhModPtr@ 00000001800d30e8     mod.obj
 0002:0007c100       ??_C@_1FO@DEEKIPCP@?$AA?$FL?$AAW?$AAH?$AA?$FN?$AA?5?$AA?$FL?$AA?$CF?$AAS?$AA?$FN?$AA?3?$AA?5?$AAM?$AAo?$AAd?$AA?5@ 00000001800d3100     mod.obj
 0002:0007c160       ??_C@_1CO@HELKALHB@?$AA?$FL?$AAW?$AAH?$AA?$FN?$AA?5?$AA?$FL?$AA?$CF?$AAS?$AA?$FN?$AA?3?$AA?5?$AAM?$AAo?$AAd?$AA?5@ 00000001800d3160     mod.obj
 0002:0007c190       ??_C@_0BG@CMIJCIOI@LoadedMod?3?3?$HOLoadedMod@ 00000001800d3190     mod.obj
 0002:0007c1b0       ??_C@_1GM@HPLKCHML@?$AA?$FL?$AAW?$AAH?$AA?$FN?$AA?5?$AA?$FL?$AA?$CF?$AAS?$AA?$FN?$AA?3?$AA?5?$AAM?$AAo?$AAd?$AA?5@ 00000001800d31b0     mod.obj
 0002:0007c220       ??_C@_0BG@MHKBODPL@LoadedMod?3?3Initialize@ 00000001800d3220     mod.obj
 0002:0007c238       ??_C@_0BE@LNLBJNNO@Already?5initialized@ 00000001800d3238     mod.obj
 0002:0007c250       ??_C@_1CA@CPAJBOA@?$AAI?$AAn?$AAi?$AAt?$AAi?$AAa?$AAl?$AAi?$AAz?$AAi?$AAn?$AAg?$AA?4?$AA?4?$AA?4@ 00000001800d3250     mod.obj
 0002:0007c270       ??_C@_1BO@JEAOPBAI@?$AAS?$AAa?$AAn?$AAd?$AAb?$AAo?$AAx?$AAC?$AAp?$AAu?$AAR?$AAa?$AAt?$AAe@ 00000001800d3270     mod.obj
 0002:0007c290       ??_C@_1CA@NFCDAAOK@?$AAS?$AAa?$AAn?$AAd?$AAb?$AAo?$AAx?$AAM?$AAe?$AAm?$AAo?$AAr?$AAy?$AAM?$AAB@ 00000001800d3290     mod.obj
 0002:0007c2b0       ??_C@_1CE@IDPEHBOJ@?$AAS?$AAa?$AAn?$AAd?$AAb?$AAo?$AAx?$AAM?$AAa?$AAx?$AAH?$AAa?$AAn?$AAd?$AAl@ 00000001800d32b0     mod.obj
 0002:0007c2e0       ??_C@_1GC@HJHDKLAI@?$AA?$FL?$AAW?$AAH?$AA?$FN?$AA?5?$AA?$FL?$AA?$CF?$AAS?$AA?$FN?$AA?3?$AA?5?$AAA?$AAp?$AAp?$AAl@ 00000001800d32e0     mod.obj
 0002:0007c348       ??_C@_1BO@GHDAOEKG@?$AAU?$AAs?$AAe?$AAH?$AAw?$AAb?$AAp?$AAH?$AAo?$AAo?$AAk?$AAi?$AAn?$AAg@ 00000001800d3348     mod.obj
 0002:0007c370       ??_C@_1HO@CEIAHDEC@?$AA?$FL?$AAW?$AAH?$AA?$FN?$AA?5?$AA?$FL?$AA?$CF?$AAS?$AA?$FN?$AA?3?$AA?5?$AAS?$AAt?$AAe?$AAa@ 00000001800d3370     mod.obj
 0002:0007c3f0       ??_C@_0BA@FMCDNJEK@_Z10Wh_ModInitv@ 00000001800d33f0     mod.obj
 0002:0007c400       ??_C@_0BF@GJKBPIFI@LoadedMod?3?3AfterInit@ 00000001800d3400     mod.obj
 0002:0007c418       ??_C@_0BF@FDMDBIDB@_Z15Wh_ModAfterInitv@ 00000001800d3418     mod.obj
 0002:0007c430       ??_C@_0BI@GCJDPNAA@LoadedMod?3?3BeforeUninit@ 00000001800d3430     mod.obj
 0002:0007c448       ??_C@_1CE@MNKCPMGJ@?$AAU?$AAn?$AAi?$AAn?$AAi?$AAt?$AAi?$AAa?$AAl?$AAi?$AAz?$AAi?$AAn?$AAg?$AA?4@ 00000001800d3448     mod.obj
 0002:0007c470       ??_C@_0BI@DEIHADGH@_Z18Wh_ModBeforeUninitv@ 00000001800d3470     mod.obj
 0002:0007c490       ??_C@_1HI@OFLKGCLH@?$AA?$FL?$AAW?$AAH?$AA?$FN?$AA?5?$AA?$FL?$AA?$CF?$AAS?$AA?$FN?$AA?3?$AA?5?$AAM?$AAo?$AAd?$AA?5@ 00000001800d3490     mod.obj
 0002:0007c508       ??_C@_0BI@LONAHPGO@LoadedMod?3?3Uninitialize@ 00000001800d3508     mod.obj
 0002:0007c520       ??_C@_0BC@HOLMNCDP@_Z12Wh_ModUninitv@ 00000001800d3520     mod.obj
 0002:0007c538       ??_C@_0BL@BPHCAEHG@LoadedMod?3?3SettingsChanged@ 00000001800d3538     mod.obj
 0002:0007c558       ??_C@_0BM@CNHELBPE@_Z21Wh_ModSettingsChangedPi@ 00000001800d3558     mod.obj
 0002:0007c578       ??_C@_0BL@IBOOCDCH@_Z21Wh_ModSettingsChangedv@ 00000001800d3578     mod.obj
 0002:0007c598       ??_C@_1BM@ODEOFMJK@?$AA?$FL?$AAW?$AAH?$AA?$FN?$AA?5?$AA?$FL?$AA?$CF?$AAs?$AA?$FN?$AA?5?$AA?$CF?$AAs?$AA?6@ 00000001800d3598     mod.obj
 0002:0007c5b8       ??_C@_0BH@DGPKBCFL@LoadedMod?3?3GetIntValue@ 00000001800d35b8     mod.obj
 0002:0007c5d0       ??_C@_1DE@KAJMLPEL@?$AA?$FL?$AAW?$AAH?$AA?$FN?$AA?5?$AA?$FL?$AA?$CF?$AAS?$AA?$FN?$AA?3?$AA?5?$AAv?$AAa?$AAl?$AAu@ 00000001800d35d0     mod.obj
 0002:0007c608       ??_C@_1BK@KFPDIKCN@?$AAL?$AAo?$AAc?$AAa?$AAl?$AAS?$AAt?$AAo?$AAr?$AAa?$AAg?$AAe@ 00000001800d3608     mod.obj
 0002:0007c628       ??_C@_1CM@DDPBFKK@?$AA?$FL?$AAW?$AAH?$AA?$FN?$AA?5?$AA?$FL?$AA?$CF?$AAS?$AA?$FN?$AA?3?$AA?5?$AAv?$AAa?$AAl?$AAu@ 00000001800d3628     mod.obj
 0002:0007c658       ??_C@_0BH@DJOEMENI@LoadedMod?3?3SetIntValue@ 00000001800d3658     mod.obj
 0002:0007c670       ??_C@_0BK@IHEKKGMM@LoadedMod?3?3GetStringValue@ 00000001800d3670     mod.obj
 0002:0007c690       ??_C@_1CM@BNOMCHIJ@?$AA?$FL?$AAW?$AAH?$AA?$FN?$AA?5?$AA?$FL?$AA?$CF?$AAS?$AA?$FN?$AA?3?$AA?5?$AAv?$AAa?$AAl?$AAu@ 00000001800d3690     mod.obj
 0002:0007c6c0       ??_C@_1FK@BFCHAKEN@?$AA?$FL?$AAW?$AAH?$AA?$FN?$AA?5?$AA?$FL?$AA?$CF?$AAS?$AA?$FN?$AA?3?$AA?5?$AAB?$AAu?$AAf?$AAf@ 00000001800d36c0     mod.obj
 0002:0007c720       ??_C@_0BK@EJFEFMOA@LoadedMod?3?3SetStringValue@ 00000001800d3720     mod.obj
 0002:0007c740       ??_C@_0BK@OPCKIOBK@LoadedMod?3?3GetBinaryValue@ 00000001800d3740     mod.obj
 0002:0007c760       ??_C@_0BK@CBDEHEDG@LoadedMod?3?3SetBinaryValue@ 00000001800d3760     mod.obj
 0002:0007c780       ??_C@_0BH@DNAKMKJJ@LoadedMod?3?3DeleteValue@ 00000001800d3780     mod.obj
 0002:0007c798       ??_C@_0BN@JEDCEFN@LoadedMod?3?3GetModStoragePath@ 00000001800d3798     mod.obj
 0002:0007c7b8       ??_C@_0BJ@OGJPOEOO@LoadedMod?3?3GetIntSetting@ 00000001800d37b8     mod.obj
 0002:0007c7e0       ??_C@_1EG@ODGHADEM@?$AA?$FL?$AAW?$AAH?$AA?$FN?$AA?5?$AA?$FL?$AA?$CF?$AAS?$AA?$FN?$AA?3?$AA?5?$AAv?$AAa?$AAl?$AAu@ 00000001800d37e0     mod.obj
 0002:0007c828       ??_C@_0BM@BEJDDOBG@LoadedMod?3?3GetStringSetting@ 00000001800d3828     mod.obj
 0002:0007c848       ??_C@_0BN@PLLHCENB@LoadedMod?3?3FreeStringSetting@ 00000001800d3848     mod.obj
 0002:0007c868       ??_C@_0BL@EBLCKIEL@LoadedMod?3?3SetFunctionHook@ 00000001800d3868     mod.obj
 0002:0007c888       ??_C@_1CO@GGIGDGAD@?$AA?$FL?$AAW?$AAH?$AA?$FN?$AA?5?$AA?$FL?$AA?$CF?$AAS?$AA?$FN?$AA?3?$AA?5?$AAT?$AAa?$AAr?$AAg@ 00000001800d3888     mod.obj
 0002:0007c8b8       ??_C@_1CK@BBFFDGIB@?$AA?$FL?$AAW?$AAH?$AA?$FN?$AA?5?$AA?$FL?$AA?$CF?$AAS?$AA?$FN?$AA?3?$AA?5?$AAH?$AAo?$AAo?$AAk@ 00000001800d38b8     mod.obj
 0002:0007c8f0       ??_C@_1GK@EPJNNMD@?$AA?$FL?$AAW?$AAH?$AA?$FN?$AA?5?$AA?$FL?$AA?$CF?$AAS?$AA?$FN?$AA?3?$AA?5?$AAU?$AAn?$AAi?$AAn@ 00000001800d38f0     mod.obj
 0002:0007c960       ??_C@_1GM@MJJBGIAP@?$AA?$FL?$AAW?$AAH?$AA?$FN?$AA?5?$AA?$FL?$AA?$CF?$AAS?$AA?$FN?$AA?3?$AA?5?$AAM?$AAo?$AAd?$AA?5@ 00000001800d3960     mod.obj
 0002:0007c9d0       ??_C@_1HG@ELEENOBK@?$AA?$FL?$AAW?$AAH?$AA?$FN?$AA?5?$AA?$FL?$AA?$CF?$AAS?$AA?$FN?$AA?3?$AA?5?$AAM?$AAo?$AAd?$AA?5@ 00000001800d39d0     mod.obj
 0002:0007ca48       ??_C@_0BO@OLEBILBI@LoadedMod?3?3RemoveFunctionHook@ 00000001800d3a48     mod.obj
 0002:0007ca70       ??_C@_1HC@GOILHHHO@?$AA?$FL?$AAW?$AAH?$AA?$FN?$AA?5?$AA?$FL?$AA?$CF?$AAS?$AA?$FN?$AA?3?$AA?5?$AAN?$AAo?$AAt?$AA?5@ 00000001800d3a70     mod.obj
 0002:0007caf0       ??_C@_1HA@EHEEBLEE@?$AA?$FL?$AAW?$AAH?$AA?$FN?$AA?5?$AA?$FL?$AA?$CF?$AAS?$AA?$FN?$AA?3?$AA?5?$AAU?$AAn?$AAi?$AAn@ 00000001800d3af0     mod.obj
 0002:0007cb60       ??_C@_0BP@PMNEJKOM@LoadedMod?3?3ApplyHookOperations@ 00000001800d3b60     mod.obj
 0002:0007cb80       ??_C@_1HA@LMJOGLNI@?$AA?$FL?$AAW?$AAH?$AA?$FN?$AA?5?$AA?$FL?$AA?$CF?$AAS?$AA?$FN?$AA?3?$AA?5?$AAN?$AAo?$AAt?$AA?5@ 00000001800d3b80     mod.obj
 0002:0007cbf0       ??_C@_1GO@HFPDFHAH@?$AA?$FL?$AAW?$AAH?$AA?$FN?$AA?5?$AA?$FL?$AA?$CF?$AAS?$AA?$FN?$AA?3?$AA?5?$AAU?$AAn?$AAi?$AAn@ 00000001800d3bf0     mod.obj
 0002:0007cc60       ??_C@_1GO@BDLAGCMH@?$AA?$FL?$AAW?$AAH?$AA?$FN?$AA?5?$AA?$FL?$AA?$CF?$AAS?$AA?$FN?$AA?3?$AA?5?$AAM?$AAo?$AAd?$AA?5@ 00000001800d3c60     mod.obj
 0002:0007ccd0       ??_C@_1HO@BAPLEFJC@?$AA?$FL?$AAW?$AAH?$AA?$FN?$AA?5?$AA?$FL?$AA?$CF?$AAS?$AA?$FN?$AA?3?$AA?5?$AAM?$AAo?$AAd?$AA?5@ 00000001800d3cd0     mod.obj
 0002:0007cd50       ??_C@_0DF@EPGGDAMI@LoadedMod?3?3FindFirstSymbol4?3?3?$DMl@ 00000001800d3d50     mod.obj
 0002:0007cd88       ??_C@_13DIBMAFH@?$AA?$CJ@  00000001800d3d88     mod.obj
 0002:0007cd90       ??_C@_17EJGBMOED@?$AA?$CF?$AA?5?$AA?$CI@ 00000001800d3d90     mod.obj
 0002:0007cd98       ??_C@_1CI@OFMIJKMG@?$AAL?$AAo?$AAa?$AAd?$AAi?$AAn?$AAg?$AA?5?$AAs?$AAy?$AAm?$AAb?$AAo?$AAl?$AAs@ 00000001800d3d98     mod.obj
 0002:0007cdc0       ??_C@_0DF@OBAOKBFJ@LoadedMod?3?3FindFirstSymbol4?3?3?$DMl@ 00000001800d3dc0     mod.obj
 0002:0007cdf8       ??_C@_0BM@NFHKEOKL@LoadedMod?3?3FindFirstSymbol4@ 00000001800d3df8     mod.obj
 0002:0007ce20       ??_C@_1HA@EGPBMHME@?$AA?$FL?$AAW?$AAH?$AA?$FN?$AA?5?$AA?$FL?$AA?$CF?$AAS?$AA?$FN?$AA?3?$AA?5?$AAU?$AAn?$AAs?$AAu@ 00000001800d3e20     mod.obj
 0002:0007ce90       ??_C@_1BA@FCPOJOJP@?$AA?5?$AA?$CI?$AAm?$AAa?$AAi?$AAn?$AA?$CJ@ 00000001800d3e90     mod.obj
 0002:0007cea0       ??_C@_1DC@DFAILPBE@?$AA?$FL?$AAW?$AAH?$AA?$FN?$AA?5?$AA?$FL?$AA?$CF?$AAS?$AA?$FN?$AA?3?$AA?5?$AAM?$AAo?$AAd?$AAu@ 00000001800d3ea0     mod.obj
 0002:0007ced8       ??_C@_1CK@OIPMGIIL@?$AAL?$AAo?$AAa?$AAd?$AAi?$AAn?$AAg?$AA?5?$AAs?$AAy?$AAm?$AAb?$AAo?$AAl?$AAs@ 00000001800d3ed8     mod.obj
 0002:0007cf10       ??_C@_1IG@DFFPGOCH@?$AAS?$AAy?$AAm?$AAb?$AAo?$AAl?$AAL?$AAo?$AAa?$AAd?$AAL?$AAo?$AAc?$AAk?$AAM@ 00000001800d3f10     mod.obj
 0002:0007cfa0       ??_C@_1GC@MNBNLAFF@?$AA?$FL?$AAW?$AAH?$AA?$FN?$AA?5?$AA?$FL?$AA?$CF?$AAS?$AA?$FN?$AA?3?$AA?5?$AAF?$AAa?$AAi?$AAl@ 00000001800d3fa0     mod.obj
 0002:0007d008       ??_C@_1DC@HGAHMPAE@?$AAW?$AAa?$AAi?$AAt?$AAi?$AAn?$AAg?$AA?5?$AAf?$AAo?$AAr?$AA?5?$AAs?$AAy?$AAm@ 00000001800d4008     mod.obj
 0002:0007d040       ??_C@_1EI@JOHCLEEI@?$AA?$FL?$AAW?$AAH?$AA?$FN?$AA?5?$AA?$FL?$AA?$CF?$AAS?$AA?$FN?$AA?3?$AA?5?$AAA?$AAb?$AAo?$AAr@ 00000001800d4040     mod.obj
 0002:0007d088       ??_C@_1DK@LAMLAHAF@?$AA?$FL?$AAW?$AAH?$AA?$FN?$AA?5?$AA?$FL?$AA?$CF?$AAS?$AA?$FN?$AA?3?$AA?5?$AAN?$AAo?$AA?5?$AAs@ 00000001800d4088     mod.obj
 0002:0007d0c8       ??_C@_0BL@LAAOFLCI@LoadedMod?3?3FindCloseSymbol@ 00000001800d40c8     mod.obj
 0002:0007d0e8       ??_C@_0BH@JOFACNIA@LoadedMod?3?3HookSymbols@ 00000001800d40e8     mod.obj
 0002:0007d100       ??_C@_1EE@EKKKCGJK@?$AA?$FL?$AAW?$AAH?$AA?$FN?$AA?5?$AA?$FL?$AA?$CF?$AAS?$AA?$FN?$AA?3?$AA?5?$AAM?$AAo?$AAd?$AAu@ 00000001800d4100     mod.obj
 0002:0007d150       ??_C@_1EA@EKIMPHEI@?$AA?$FL?$AAW?$AAH?$AA?$FN?$AA?5?$AA?$FL?$AA?$CF?$AAS?$AA?$FN?$AA?3?$AA?5?$AAs?$AAy?$AAm?$AAb@ 00000001800d4150     mod.obj
 0002:0007d190       ??_C@_1FG@NJHFBGNJ@?$AAh?$AAo?$AAo?$AAk?$AA_?$AAs?$AAy?$AAm?$AAb?$AAo?$AAl?$AAs?$AA_?$AAn?$AAo@ 00000001800d4190     mod.obj
 0002:0007d1f0       ??_C@_1IC@DPBJHHHN@?$AA?$FL?$AAW?$AAH?$AA?$FN?$AA?5?$AA?$FL?$AA?$CF?$AAS?$AA?$FN?$AA?3?$AA?5?$AAH?$AAy?$AAb?$AAr@ 00000001800d41f0     mod.obj
 0002:0007d280       ??_C@_1GM@PDIPDHFL@?$AA?$FL?$AAW?$AAH?$AA?$FN?$AA?5?$AA?$FL?$AA?$CF?$AAS?$AA?$FN?$AA?3?$AA?5?$AAR?$AAe?$AAt?$AAu@ 00000001800d4280     mod.obj
 0002:0007d2f0       ??_C@_1HE@PGLPPEGF@?$AA?$FL?$AAW?$AAH?$AA?$FN?$AA?5?$AA?$FL?$AA?$CF?$AAS?$AA?$FN?$AA?3?$AA?5?$AAC?$AAo?$AAu?$AAl@ 00000001800d42f0     mod.obj
 0002:0007d368       ??_C@_1DG@EJDEIBJ@?$AAS?$AAy?$AAm?$AAb?$AAo?$AAl?$AAG?$AAe?$AAt?$AAO?$AAn?$AAl?$AAi?$AAn?$AAe@ 00000001800d4368     mod.obj
 0002:0007d3a0       ??_C@_1GE@JDIKCGBP@?$AA?$FL?$AAW?$AAH?$AA?$FN?$AA?5?$AA?$FL?$AA?$CF?$AAS?$AA?$FN?$AA?3?$AA?5?$AAC?$AAo?$AAu?$AAl@ 00000001800d43a0     mod.obj
 0002:0007d410       ??_C@_1GC@NKBAKPHB@?$AA?$FL?$AAW?$AAH?$AA?$FN?$AA?5?$AA?$FL?$AA?$CF?$AAS?$AA?$FN?$AA?3?$AA?5?$AAU?$AAs?$AAi?$AAn@ 00000001800d4410     mod.obj
 0002:0007d480       ??_C@_1HG@HGGPBPNN@?$AA?$FL?$AAW?$AAH?$AA?$FN?$AA?5?$AA?$FL?$AA?$CF?$AAS?$AA?$FN?$AA?3?$AA?5?$AAC?$AAo?$AAu?$AAl@ 00000001800d4480     mod.obj
 0002:0007d4f8       ??_C@_0BC@CMOFIDGI@LoadedMod?3?3Disasm@ 00000001800d44f8     mod.obj
 0002:0007d510       ??_C@_1HI@HOONAALF@?$AA?$FL?$AAW?$AAH?$AA?$FN?$AA?5?$AA?$FL?$AA?$CF?$AAS?$AA?$FN?$AA?3?$AA?5?$AAM?$AAo?$AAd?$AA?5@ 00000001800d4510     mod.obj
 0002:0007d588       ??_C@_1BI@DHLGAPDE@?$AAw?$AAi?$AAn?$AAh?$AAt?$AAt?$AAp?$AA?4?$AAd?$AAl?$AAl@ 00000001800d4588     mod.obj
 0002:0007d5a0       ??_C@_0DN@IFBDILGM@LoadedMod?3?3GetUrlContent?3?3WinHt@ 00000001800d45a0     mod.obj
 0002:0007d5e0       ??_C@_1EO@HLFHNNLN@?$AA?$FL?$AAW?$AAH?$AA?$FN?$AA?5?$AA?$FL?$AA?$CF?$AAS?$AA?$FN?$AA?3?$AA?5?$AAF?$AAa?$AAi?$AAl@ 00000001800d45e0     mod.obj
 0002:0007d630       ??_C@_0BD@JHEHAPIO@WinHttpCloseHandle@ 00000001800d4630     mod.obj
 0002:0007d648       ??_C@_0M@HCNFPBAH@WinHttpOpen@ 00000001800d4648     mod.obj
 0002:0007d658       ??_C@_0P@FPJFCHEB@WinHttpConnect@ 00000001800d4658     mod.obj
 0002:0007d668       ??_C@_0BE@GNIOOJIH@WinHttpQueryHeaders@ 00000001800d4668     mod.obj
 0002:0007d680       ??_C@_0BH@OJNKOBKL@WinHttpReceiveResponse@ 00000001800d4680     mod.obj
 0002:0007d698       ??_C@_0BD@OOKJOHJ@WinHttpSendRequest@ 00000001800d4698     mod.obj
 0002:0007d6b0       ??_C@_0BD@LFJHCHOE@WinHttpOpenRequest@ 00000001800d46b0     mod.obj
 0002:0007d6c8       ??_C@_0BK@EMLOBLJE@WinHttpQueryDataAvailable@ 00000001800d46c8     mod.obj
 0002:0007d6e8       ??_C@_0BA@FGGCGJIN@WinHttpReadData@ 00000001800d46e8     mod.obj
 0002:0007d6f8       ??_C@_0BA@LFJOCOJ@WinHttpCrackUrl@ 00000001800d46f8     mod.obj
 0002:0007d710       ??_C@_1GI@MKELPLEJ@?$AA?$FL?$AAW?$AAH?$AA?$FN?$AA?5?$AA?$FL?$AA?$CF?$AAS?$AA?$FN?$AA?3?$AA?5?$AAF?$AAa?$AAi?$AAl@ 00000001800d4710     mod.obj
 0002:0007d778       ??_C@_0BJ@DJEGICFP@LoadedMod?3?3GetUrlContent@ 00000001800d4778     mod.obj
 0002:0007d798       ??_C@_1CI@IMNNHBAC@?$AA?$FL?$AAW?$AAH?$AA?$FN?$AA?5?$AA?$FL?$AA?$CF?$AAS?$AA?$FN?$AA?3?$AA?5?$AAU?$AAR?$AAL?$AA?3@ 00000001800d4798     mod.obj
 0002:0007d7c0       ??_C@_1O@HBJEMMOJ@?$AA?$CI?$AAn?$AAo?$AAn?$AAe?$AA?$CJ@ 00000001800d47c0     mod.obj
 0002:0007d7d0       ??_C@_1EC@LFEABJJD@?$AA?$FL?$AAW?$AAH?$AA?$FN?$AA?5?$AA?$FL?$AA?$CF?$AAS?$AA?$FN?$AA?3?$AA?5?$AAT?$AAa?$AAr?$AAg@ 00000001800d47d0     mod.obj
 0002:0007d820       ??_C@_1GA@HBFCEDMK@?$AA?$FL?$AAW?$AAH?$AA?$FN?$AA?5?$AA?$FL?$AA?$CF?$AAS?$AA?$FN?$AA?3?$AA?5?$AAW?$AAi?$AAn?$AAH@ 00000001800d4820     mod.obj
 0002:0007d880       ??_C@_1BO@KCPGGCB@?$AAW?$AAi?$AAn?$AAd?$AAh?$AAa?$AAw?$AAk?$AA?1?$AA1?$AA?4?$AA7?$AA?4?$AA3@ 00000001800d4880     mod.obj
 0002:0007d8a0       ??_C@_17KCHPOIEI@?$AAG?$AAE?$AAT@ 00000001800d48a0     mod.obj
 0002:0007d8a8       ??_C@_0BK@INNJJGLC@LoadedMod?3?3FreeUrlContent@ 00000001800d48a8     mod.obj
 0002:0007d8d0       ??_C@_1HG@FIBCCOAO@?$AAh?$AAt?$AAt?$AAp?$AAs?$AA?3?$AA?1?$AA?1?$AAr?$AAa?$AAm?$AAe?$AAn?$AAs?$AAo@ 00000001800d48d0     mod.obj
 0002:0007d948       ??_C@_0CF@NOBACLNL@LoadedMod?3?3HookSymbolsGetOnline@ 00000001800d4948     mod.obj
 0002:0007d970       ??_C@_1FC@ONGLHBL@?$AA?$FL?$AAW?$AAH?$AA?$FN?$AA?5?$AA?$FL?$AA?$CF?$AAS?$AA?$FN?$AA?3?$AA?5?$AAS?$AAk?$AAi?$AAp@ 00000001800d4970     mod.obj
 0002:0007d9c8       ??_C@_19GGNHIDOH@?$AA?4?$AAt?$AAx?$AAt@ 00000001800d49c8     mod.obj
 0002:0007d9e0       ??_C@_1GC@IHGDPGB@?$AA?$FL?$AAW?$AAH?$AA?$FN?$AA?5?$AA?$FL?$AA?$CF?$AAS?$AA?$FN?$AA?3?$AA?5?$AAA?$AAb?$AAo?$AAr@ 00000001800d49e0     mod.obj
 0002:0007da50       ??_C@_1GK@KAHDOL@?$AA?$FL?$AAW?$AAH?$AA?$FN?$AA?5?$AA?$FL?$AA?$CF?$AAS?$AA?$FN?$AA?3?$AA?5?$AAG?$AAe?$AAt?$AAt@ 00000001800d4a50     mod.obj
 0002:0007dac0       ??_C@_1FA@EDBGIPAE@?$AA?$FL?$AAW?$AAH?$AA?$FN?$AA?5?$AA?$FL?$AA?$CF?$AAS?$AA?$FN?$AA?3?$AA?5?$AAG?$AAe?$AAt?$AAt@ 00000001800d4ac0     mod.obj
 0002:0007db10       ??_C@_1GK@CKIGCCOE@?$AA?$FL?$AAW?$AAH?$AA?$FN?$AA?5?$AA?$FL?$AA?$CF?$AAS?$AA?$FN?$AA?3?$AA?5?$AAC?$AAo?$AAu?$AAl@ 00000001800d4b10     mod.obj
 0002:0007db80       ??_C@_1EG@MEIACHGE@?$AA?$FL?$AAW?$AAH?$AA?$FN?$AA?5?$AA?$FL?$AA?$CF?$AAS?$AA?$FN?$AA?3?$AA?5?$AAO?$AAn?$AAl?$AAi@ 00000001800d4b80     mod.obj
 0002:0007dbd0       ??_C@_1GG@MENDMHGN@?$AA?$FL?$AAW?$AAH?$AA?$FN?$AA?5?$AA?$FL?$AA?$CF?$AAS?$AA?$FN?$AA?3?$AA?5?$AAO?$AAn?$AAl?$AAi@ 00000001800d4bd0     mod.obj
 0002:0007dc40       ??_C@_1BAA@MGMAIJDG@?$AA?$FL?$AAW?$AAH?$AA?$FN?$AA?5?$AA?$FL?$AA?$CF?$AAS?$AA?$FN?$AA?3?$AA?5?$AAI?$AAn?$AA?5?$AAc@ 00000001800d4c40     mod.obj
 0002:0007dd40       ??_C@_1BDC@JIFPHACN@?$AA?$FL?$AAW?$AAH?$AA?$FN?$AA?5?$AA?$FL?$AA?$CF?$AAS?$AA?$FN?$AA?3?$AA?5?$AAf?$AAo?$AAr?$AA?5@ 00000001800d4d40     mod.obj
 0002:0007de78       ??_C@_1BC@KKLCINDK@?$AAm?$AAo?$AAd?$AA?9?$AAt?$AAa?$AAs?$AAk@ 00000001800d4e78     mod.obj
 0002:0007de90       ??_C@_0BD@OMPOPKOD@LoadedMod?3?3SetTask@ 00000001800d4e90     mod.obj
 0002:0007dea8       ??_C@_0BM@NKNLDAF@LoadedMod?3?3LogFunctionError@ 00000001800d4ea8     mod.obj
 0002:0007dec8       ??_C@_1DK@HGMKDHMP@?$AA?$FL?$AAW?$AAH?$AA?$FN?$AA?5?$AA?$FL?$AA?$CF?$AAS?$AA?$FN?$AA?3?$AA?5?$AAM?$AAo?$AAd?$AA?5@ 00000001800d4ec8     mod.obj
 0002:0007df08       ??_C@_1BG@GCBDAABL@?$AAP?$AAe?$AAn?$AAd?$AAi?$AAn?$AAg?$AA?4?$AA?4?$AA?4@ 00000001800d4f08     mod.obj
 0002:0007df20       ??_C@_1O@JJDHCMCP@?$AAL?$AAo?$AAa?$AAd?$AAe?$AAd@ 00000001800d4f20     mod.obj
 0002:0007df30       ??_C@_1BC@ILOENEMO@?$AAU?$AAn?$AAl?$AAo?$AAa?$AAd?$AAe?$AAd@ 00000001800d4f30     mod.obj
 0002:0007df48       ??_C@_0P@JBFCGIKL@Already?5loaded@ 00000001800d4f48     mod.obj
 0002:0007df58       ??_C@_1CA@JJCILGFB@?$AAL?$AAi?$AAb?$AAr?$AAa?$AAr?$AAy?$AAF?$AAi?$AAl?$AAe?$AAN?$AAa?$AAm?$AAe@ 00000001800d4f58     mod.obj
 0002:0007df78       ??_C@_0BO@NJBKHGLO@Missing?5LibraryFileName?5value@ 00000001800d4f78     mod.obj
 0002:0007df98       ??_C@_1CG@OGMLJLAD@?$AAS?$AAe?$AAt?$AAt?$AAi?$AAn?$AAg?$AAs?$AAC?$AAh?$AAa?$AAn?$AAg?$AAe?$AAT@ 00000001800d4f98     mod.obj
 0002:0007dfc0       ??_C@_1BO@MEGJABNJ@?$AAL?$AAo?$AAg?$AAg?$AAi?$AAn?$AAg?$AAE?$AAn?$AAa?$AAb?$AAl?$AAe?$AAd@ 00000001800d4fc0     mod.obj
 0002:0007dfe0       ??_C@_1CI@CHEFKADJ@?$AAD?$AAe?$AAb?$AAu?$AAg?$AAL?$AAo?$AAg?$AAg?$AAi?$AAn?$AAg?$AAE?$AAn?$AAa@ 00000001800d4fe0     mod.obj
 0002:0007e008       ??_C@_1BG@IPGMPLAM@?$AAL?$AAo?$AAa?$AAd?$AAi?$AAn?$AAg?$AA?4?$AA?4?$AA?4@ 00000001800d5008     mod.obj
 0002:0007e020       ??_C@_1BC@FGCJDNHA@?$AAD?$AAi?$AAs?$AAa?$AAb?$AAl?$AAe?$AAd@ 00000001800d5020     mod.obj
 0002:0007e038       ??_C@_1BK@NGNFGMBN@?$AAA?$AAr?$AAc?$AAh?$AAi?$AAt?$AAe?$AAc?$AAt?$AAu?$AAr?$AAe@ 00000001800d5038     mod.obj
 0002:0007e060       ??_C@_1EK@BJBDAMDJ@?$AAP?$AAa?$AAt?$AAt?$AAe?$AAr?$AAn?$AAs?$AAM?$AAa?$AAt?$AAc?$AAh?$AAC?$AAr@ 00000001800d5060     mod.obj
 0002:0007e0b0       ??_C@_1DC@FEPFJCAC@?$AAI?$AAn?$AAc?$AAl?$AAu?$AAd?$AAe?$AAE?$AAx?$AAc?$AAl?$AAu?$AAd?$AAe?$AAC@ 00000001800d50b0     mod.obj
 0002:0007e0e8       ??_C@_1BA@EIDNBJKI@?$AAI?$AAn?$AAc?$AAl?$AAu?$AAd?$AAe@ 00000001800d50e8     mod.obj
 0002:0007e0f8       ??_C@_1BM@NHLNIHFB@?$AAI?$AAn?$AAc?$AAl?$AAu?$AAd?$AAe?$AAC?$AAu?$AAs?$AAt?$AAo?$AAm@ 00000001800d50f8     mod.obj
 0002:0007e118       ??_C@_1BA@HBGPLNLK@?$AAE?$AAx?$AAc?$AAl?$AAu?$AAd?$AAe@ 00000001800d5118     mod.obj
 0002:0007e128       ??_C@_1BM@EJEJBNAE@?$AAE?$AAx?$AAc?$AAl?$AAu?$AAd?$AAe?$AAC?$AAu?$AAs?$AAt?$AAo?$AAm@ 00000001800d5128     mod.obj
 0002:0007e148       ??_C@_1BG@MDFIMHKE@?$AAm?$AAo?$AAd?$AA?9?$AAs?$AAt?$AAa?$AAt?$AAu?$AAs@ 00000001800d5148     mod.obj
 0002:0007e160       ??_C@_0P@MGGFIAAM@Mod?3?3SetStatus@ 00000001800d5160     mod.obj
 0002:0007e170       ??_C@_0GH@EIEHOGDA@?$GAanonymous?9namespace?8?3?3HookSymb@ 00000001800d5170     mod.obj
 0002:0007e1e0       ??_C@_1GO@FCGHEMKK@?$AA?$FL?$AAW?$AAH?$AA?$FN?$AA?5?$AA?$FL?$AA?$CF?$AAS?$AA?$FN?$AA?3?$AA?5?$AAO?$AAp?$AAt?$AAi@ 00000001800d51e0     mod.obj
 0002:0007e250       ??_C@_1CK@HOJMLLMG@?$AA?$FL?$AAW?$AAH?$AA?$FN?$AA?5?$AA?$FL?$AA?$CF?$AAS?$AA?$FN?$AA?3?$AA?5?$AA?5?$AA?5?$AA?5?$AA?5@ 00000001800d5250     mod.obj
 0002:0007e280       ??_C@_1BI@LLOKMOP@?$AA?5?$AA?$CI?$AAo?$AAp?$AAt?$AAi?$AAo?$AAn?$AAa?$AAl?$AA?$CJ@ 00000001800d5280     mod.obj
 0002:0007e2a0       ??_C@_0GD@JELNLJFL@?$GAanonymous?9namespace?8?3?3HookSymb@ 00000001800d52a0     mod.obj
 0002:0007e310       ??_C@_1EA@JDBGDJMA@?$AA?$FL?$AAW?$AAH?$AA?$FN?$AA?5?$AA?$FL?$AA?$CF?$AAS?$AA?$FN?$AA?3?$AA?5?$AAU?$AAn?$AAr?$AAe@ 00000001800d5310     mod.obj
 0002:0007e358       ??_7?$__func@V<lambda_1>@?1???$K32GetModuleFileNameExW@V?$basic_string@_WU?$char_traits@_W@std@@V?$allocator@_W@2@@std@@$0IA@@wil@@YAJPEAXPEAUHINSTANCE__@@AEAV?$basic_string@_WU?$char_traits@_W@std@@V?$allocator@_W@2@@std@@@Z@$$A6AJPEA_W_KPEA_K@Z@__function@wistd@@6B@ 00000001800d5358     mod.obj
 0002:0007e388       ??_7?$__func@V<lambda_1>@?1???$QueryFullProcessImageNameW@V?$basic_string@_WU?$char_traits@_W@std@@V?$allocator@_W@2@@std@@$0BAA@@wil@@YAJPEAXKAEAV?$basic_string@_WU?$char_traits@_W@std@@V?$allocator@_W@2@@std@@@Z@$$A6AJPEA_W_KPEA_K@Z@__function@wistd@@6B@ 00000001800d5388     mod.obj
 0002:0007e440       ??_C@_0CA@IMBMGMGL@shared?2libraries?2wil?2resource?4h@ 00000001800d5440     mod.obj
 0002:0007e460       ??_C@_11LOCGONAA@@         00000001800d5460     mod.obj
 0002:0007e470       ?kCriticalProcessesForMods@ProcessLists@@3QB_WB 00000001800d5470     mod.obj
 0002:0007e5d0       ?kCriticalProcesses@ProcessLists@@3QB_WB 00000001800d55d0     mod.obj
 0002:0007ef10       ??_C@_0BF@NGCCGCKP@SetThreadInformation@ 00000001800d5f10     mod_sandbox.obj
 0002:0007ef28       ??_C@_1BE@BIOKAAFN@?$AAA?$AAn?$AAo?$AAn?$AAy?$AAm?$AAo?$AAu?$AAs@ 00000001800d5f28     mod_sandbox.obj
 0002:0007ef40       ??_C@_0CJ@HCNMNOEI@ModSandbox?3?3SandboxObject?3?3Sand@ 00000001800d5f40     mod_sandbox.obj
 0002:0007ef70       ??_C@_1FC@PPLCDPIG@?$AA?$FL?$AAW?$AAH?$AA?$FN?$AA?5?$AA?$FL?$AA?$CF?$AAS?$AA?$FN?$AA?3?$AA?5?$AAS?$AAa?$AAn?$AAd@ 00000001800d5f70     mod_sandbox.obj
 0002:0007efc8       ??_C@_0CN@IELJBBNA@ModSandbox?3?3SandboxObject?3?3Appl@ 00000001800d5fc8     mod_sandbox.obj
 0002:0007f000       ??_C@_1HE@MBFDAAFB@?$AA?$FL?$AAW?$AAH?$AA?$FN?$AA?5?$AA?$FL?$AA?$CF?$AAS?$AA?$FN?$AA?3?$AA?5?$AAF?$AAa?$AAi?$AAl@ 00000001800d6000     mod_sandbox.obj
 0002:0007f080       ??_C@_1GK@GLEDKGOK@?$AA?$FL?$AAW?$AAH?$AA?$FN?$AA?5?$AA?$FL?$AA?$CF?$AAS?$AA?$FN?$AA?3?$AA?5?$AAF?$AAa?$AAi?$AAl@ 00000001800d6080     mod_sandbox.obj
 0002:0007f0f0       ??_C@_0CH@BLCNHMHD@A?5mod?5with?5that?5name?5is?5already@ 00000001800d60f0     mods_manager.obj
 0002:0007f118       ??_C@_0CN@LDELCPOF@ModsManager?3?3?$HLctor?$HN?3?3?$DMlambda_1?$DO@ 00000001800d6118     mods_manager.obj
 0002:0007f150       ??_C@_1FK@GPENLBEN@?$AA?$FL?$AAW?$AAH?$AA?$FN?$AA?5?$AA?$FL?$AA?$CF?$AAS?$AA?$FN?$AA?3?$AA?5?$AAM?$AAo?$AAd?$AA?5@ 00000001800d6150     mods_manager.obj
 0002:0007f1b0       ??_C@_0BJ@KKIIMDJL@ModsManager?3?3ModsManager@ 00000001800d61b0     mods_manager.obj
 0002:0007f1d0       ??_C@_1FA@NEPONGHE@?$AA?$FL?$AAW?$AAH?$AA?$FN?$AA?5?$AA?$FL?$AA?$CF?$AAS?$AA?$FN?$AA?3?$AA?5?$AAM?$AAo?$AAd?$AA?5@ 00000001800d61d0     mods_manager.obj
 0002:0007f220       ??_C@_0BK@KBIACGJD@ModsManager?3?3?$HOModsManager@ 00000001800d6220     mods_manager.obj
 0002:0007f240       ??_C@_1FK@NKLEDPDL@?$AA?$FL?$AAW?$AAH?$AA?$FN?$AA?5?$AA?$FL?$AA?$CF?$AAS?$AA?$FN?$AA?3?$AA?5?$AAM?$AAo?$AAd?$AA?5@ 00000001800d6240     mods_manager.obj
 0002:0007f2a0       ??_C@_0BH@BPKDDFGO@ModsManager?3?3AfterInit@ 00000001800d62a0     mods_manager.obj
 0002:0007f2c0       ??_C@_1FE@JMCNPMHF@?$AA?$FL?$AAW?$AAH?$AA?$FN?$AA?5?$AA?$FL?$AA?$CF?$AAS?$AA?$FN?$AA?3?$AA?5?$AAM?$AAo?$AAd?$AA?5@ 00000001800d62c0     mods_manager.obj
 0002:0007f318       ??_C@_0BK@NCCPKMHL@ModsManager?3?3BeforeUninit@ 00000001800d6318     mods_manager.obj
 0002:0007f340       ??_C@_1FK@PEKBEGOF@?$AA?$FL?$AAW?$AAH?$AA?$FN?$AA?5?$AA?$FL?$AA?$CF?$AAS?$AA?$FN?$AA?3?$AA?5?$AAM?$AAo?$AAd?$AA?5@ 00000001800d6340     mods_manager.obj
 0002:0007f3a0       ??_C@_0DM@MJNEBKK@ModsManager?3?3ReloadModsAndSetti@ 00000001800d63a0     mods_manager.obj
 0002:0007f3e0       ??_C@_1FE@DKKIPEHH@?$AA?$FL?$AAW?$AAH?$AA?$FN?$AA?5?$AA?$FL?$AA?$CF?$AAS?$AA?$FN?$AA?3?$AA?5?$AAM?$AAo?$AAd?$AA?5@ 00000001800d63e0     mods_manager.obj
 0002:0007f438       ??_C@_0CD@OLBBKIEG@ModsManager?3?3ReloadModsAndSetti@ 00000001800d6438     mods_manager.obj
 0002:0007f460       ??_C@_1FI@DOMAIEPP@?$AA?$FL?$AAW?$AAH?$AA?$FN?$AA?5?$AA?$FL?$AA?$CF?$AAS?$AA?$FN?$AA?3?$AA?5?$AAM?$AAH?$AA_?$AAA@ 00000001800d6460     mods_manager.obj
 0002:0007f4b8       ??_C@_1DA@LCPJOBBB@?$AAH?$AAo?$AAo?$AAk?$AAI?$AAn?$AAt?$AAe?$AAg?$AAr?$AAi?$AAt?$AAy?$AAM?$AAo@ 00000001800d64b8     mods_manager.obj
 0002:0007f558       ??_C@_0N@KCFDJLIF@LoadLibraryW@ 00000001800d6558     module_stomp.obj
 0002:0007f568       ??_C@_0BN@MECLNDMG@ModuleStomp?3?3LoadStompTarget@ 00000001800d6568     module_stomp.obj
 0002:0007f590       ??_C@_1HK@NLKKCEKC@?$AA?$FL?$AAW?$AAH?$AA?$FN?$AA?5?$AA?$FL?$AA?$CF?$AAS?$AA?$FN?$AA?3?$AA?5?$AAM?$AAo?$AAd?$AAu@ 00000001800d6590     module_stomp.obj
 0002:0007f610       ??_C@_1FC@CJIICPEG@?$AA?$FL?$AAW?$AAH?$AA?$FN?$AA?5?$AA?$FL?$AA?$CF?$AAS?$AA?$FN?$AA?3?$AA?5?$AAM?$AAo?$AAd?$AAu@ 00000001800d6610     module_stomp.obj
 0002:0007f668       ??_C@_0CA@DJFMEEGA@engine?2new_process_injector?4cpp@ 00000001800d6668     new_process_injector.obj
 0002:0007f688       ??_C@_1DI@PIELCBOE@?$AA?2?$AAP?$AAr?$AAo?$AAc?$AAe?$AAs?$AAs?$AAI?$AAn?$AAi?$AAt?$AAA?$AAP?$AAC@ 00000001800d6688     new_process_injector.obj
 0002:0007f6c0       ??_C@_0DB@DHDNIPMI@Only?5one?5instance?5is?5supported?5@ 00000001800d66c0     new_process_injector.obj
 0002:0007f6f8       ??_C@_0BH@IODECGKA@CreateProcessInternalW@ 00000001800d66f8     new_process_injector.obj
 0002:0007f710       ??_C@_0CH@MGPFIJKK@NewProcessInjector?3?3NewProcessI@ 00000001800d6710     new_process_injector.obj
 0002:0007f740       ??_C@_1GE@PKEPCMFJ@?$AA?$FL?$AAW?$AAH?$AA?$FN?$AA?5?$AA?$FL?$AA?$CF?$AAS?$AA?$FN?$AA?3?$AA?5?$AAF?$AAa?$AAi?$AAl@ 00000001800d6740     new_process_injector.obj
 0002:0007f7a8       ??_C@_1CG@KNFPBPCF@?$AAT?$AAh?$AAr?$AAe?$AAa?$AAd?$AAA?$AAt?$AAt?$AAa?$AAc?$AAh?$AAE?$AAx?$AAe@ 00000001800d67a8     new_process_injector.obj
 0002:0007f7d0       ??_C@_1DI@BNBDNAFM@?$AAI?$AAn?$AAj?$AAe?$AAc?$AAt?$AAI?$AAn?$AAt?$AAo?$AAC?$AAr?$AAi?$AAt?$AAi@ 00000001800d67d0     new_process_injector.obj
 0002:0007f808       ??_C@_1DO@EKDDOBHN@?$AAI?$AAn?$AAj?$AAe?$AAc?$AAt?$AAI?$AAn?$AAt?$AAo?$AAI?$AAn?$AAc?$AAo?$AAm@ 00000001800d6808     new_process_injector.obj
 0002:0007f848       ??_C@_1CA@NPFNGIIF@?$AAI?$AAn?$AAj?$AAe?$AAc?$AAt?$AAI?$AAn?$AAt?$AAo?$AAG?$AAa?$AAm?$AAe?$AAs@ 00000001800d6848     new_process_injector.obj
 0002:0007f868       ??_C@_0CI@EFDJLFDM@NewProcessInjector?3?3?$HONewProcess@ 00000001800d6868     new_process_injector.obj
 0002:0007f890       ??_C@_1IM@DPCLEKMN@?$AA?$FL?$AAW?$AAH?$AA?$FN?$AA?5?$AA?$FL?$AA?$CF?$AAS?$AA?$FN?$AA?3?$AA?5?$AAc?$AAo?$AAm?$AAp@ 00000001800d6890     new_process_injector.obj
 0002:0007f920       ??_C@_1O@INIEDEDF@?$AA?$CI?$AAN?$AAU?$AAL?$AAL?$AA?$CJ@ 00000001800d6920     new_process_injector.obj
 0002:0007f930       ??_C@_0DA@MGBBGCLC@NewProcessInjector?3?3CreateProce@ 00000001800d6930     new_process_injector.obj
 0002:0007f960       ??_C@_1IG@JDEPAMMN@?$AA?$FL?$AAW?$AAH?$AA?$FN?$AA?5?$AA?$FL?$AA?$CF?$AAS?$AA?$FN?$AA?3?$AA?5?$AAN?$AAe?$AAw?$AA?5@ 00000001800d6960     new_process_injector.obj
 0002:0007f9f0       ??_C@_0EC@CGPIDGAC@NewProcessInjector?3?3HandleCreat@ 00000001800d69f0     new_process_injector.obj
 0002:0007fa40       ??_C@_1HA@IKIEKKLI@?$AA?$FL?$AAW?$AAH?$AA?$FN?$AA?5?$AA?$FL?$AA?$CF?$AAS?$AA?$FN?$AA?3?$AA?5?$AAD?$AAl?$AAl?$AAI@ 00000001800d6a40     new_process_injector.obj
 0002:0007fab0       ??_C@_1FM@FPJOJIG@?$AA?$FL?$AAW?$AAH?$AA?$FN?$AA?5?$AA?$FL?$AA?$CF?$AAS?$AA?$FN?$AA?3?$AA?5?$AAE?$AAr?$AAr?$AAo@ 00000001800d6ab0     new_process_injector.obj
 0002:0007fb10       ??_C@_0CJ@PMHPMLLL@NewProcessInjector?3?3HandleCreat@ 00000001800d6b10     new_process_injector.obj
 0002:0007fb40       ??_C@_1FC@GPDBFCGC@?$AA?$FL?$AAW?$AAH?$AA?$FN?$AA?5?$AA?$FL?$AA?$CF?$AAS?$AA?$FN?$AA?3?$AA?5?$AAS?$AAk?$AAi?$AAp@ 00000001800d6b40     new_process_injector.obj
 0002:0007fba0       ??_C@_1GG@LCHFKICL@?$AA?$FL?$AAW?$AAH?$AA?$FN?$AA?5?$AA?$FL?$AA?$CF?$AAS?$AA?$FN?$AA?3?$AA?5?$AAD?$AAe?$AAf?$AAe@ 00000001800d6ba0     new_process_injector.obj
 0002:0007fc10       ??_C@_1GG@PNLLHMKA@?$AA?$FL?$AAW?$AAH?$AA?$FN?$AA?5?$AA?$FL?$AA?$CF?$AAS?$AA?$FN?$AA?3?$AA?5?$AAD?$AAl?$AAl?$AAI@ 00000001800d6c10     new_process_injector.obj
 0002:0007fc80       ??_C@_1FC@BHKILBAF@?$AA?$FL?$AAW?$AAH?$AA?$FN?$AA?5?$AA?$FL?$AA?$CF?$AAS?$AA?$FN?$AA?3?$AA?5?$AAE?$AAr?$AAr?$AAo@ 00000001800d6c80     new_process_injector.obj
 0002:0007fcd8       ??_C@_1BO@MFOKJHPK@?$AAk?$AAe?$AAr?$AAn?$AAe?$AAl?$AAb?$AAa?$AAs?$AAe?$AA?4?$AAd?$AAl?$AAl@ 00000001800d6cd8     new_process_injector.obj
 0002:0007fd00       ?kGames@ProcessLists@@3QB_WB 00000001800d6d00     new_process_injector.obj
 0002:00080c40       ?kIncompatiblePrograms@ProcessLists@@3QB_WB 00000001800d7c40     new_process_injector.obj
 0002:00080ce0       ?kDeferredProcesses@ProcessLists@@3QB_WB 00000001800d7ce0     new_process_injector.obj
 0002:00080e18       ??_C@_0P@LDMPNPEN@LazyInitialize@ 00000001800d7e18     main.obj
 0002:00080e30       ??_C@_1EM@BANCDMDL@?$AA?$FL?$AAW?$AAH?$AA?$FN?$AA?5?$AA?$FL?$AA?$CF?$AAS?$AA?$FN?$AA?3?$AA?5?$AAI?$AAn?$AAi?$AAt@ 00000001800d7e30     main.obj
 0002:00080e80       ??_C@_0L@PLHBHKF@InjectInit@ 00000001800d7e80     main.obj
 0002:00080e90       ??_C@_1DO@JJEEIGIB@?$AA?$FL?$AAW?$AAH?$AA?$FN?$AA?5?$AA?$FL?$AA?$CF?$AAS?$AA?$FN?$AA?3?$AA?5?$AAR?$AAu?$AAn?$AAn@ 00000001800d7e90     main.obj
 0002:00080ed0       ??_C@_1HC@KCIELEPH@?$AA?$FL?$AAW?$AAH?$AA?$FN?$AA?5?$AA?$FL?$AA?$CF?$AAS?$AA?$FN?$AA?3?$AA?5?$AAS?$AAe?$AAs?$AAs@ 00000001800d7ed0     main.obj
 0002:00080f48       ??_C@_0BA@KFLOHNAA@NtGetNextThread@ 00000001800d7f48     customization_session.obj
 0002:00080f58       ??_C@_0DG@CPPLMOPJ@?$GAanonymous?9namespace?8?3?3GetFirst@ 00000001800d7f58     customization_session.obj
 0002:00080f90       ??_C@_1GE@FKPJPKAG@?$AA?$FL?$AAW?$AAH?$AA?$FN?$AA?5?$AA?$FL?$AA?$CF?$AAS?$AA?$FN?$AA?3?$AA?5?$AAF?$AAa?$AAi?$AAl@ 00000001800d7f90     customization_session.obj
 0002:00081000       ??_C@_1IG@GLBNDFMG@?$AA?$FL?$AAW?$AAH?$AA?$FN?$AA?5?$AA?$FL?$AA?$CF?$AAS?$AA?$FN?$AA?3?$AA?5?$AAF?$AAa?$AAi?$AAl@ 00000001800d8000     customization_session.obj
 0002:00081090       ??_C@_1GM@GHLHHCCC@?$AA?$FL?$AAW?$AAH?$AA?$FN?$AA?5?$AA?$FL?$AA?$CF?$AAS?$AA?$FN?$AA?3?$AA?5?$AAC?$AAu?$AAr?$AAr@ 00000001800d8090     customization_session.obj
 0002:00081100       ??_C@_1FG@FMMILFIP@?$AA?$FL?$AAW?$AAH?$AA?$FN?$AA?5?$AA?$FL?$AA?$CF?$AAS?$AA?$FN?$AA?3?$AA?5?$AAN?$AAt?$AAG?$AAe@ 00000001800d8100     customization_session.obj
 0002:00081160       ??_C@_1HA@FNLPAPCB@?$AA?$FL?$AAW?$AAH?$AA?$FN?$AA?5?$AA?$FL?$AA?$CF?$AAS?$AA?$FN?$AA?3?$AA?5?$AAW?$AAa?$AAi?$AAt@ 00000001800d8160     customization_session.obj
 0002:000811d0       ??_C@_0BL@OHHPJCHM@GetProcessMitigationPolicy@ 00000001800d81d0     customization_session.obj
 0002:000811f0       ??_C@_0DJ@BDGPCIOL@?$GAanonymous?9namespace?8?3?3CurrentP@ 00000001800d81f0     customization_session.obj
 0002:00081230       ??_C@_1HK@PFKJPKNC@?$AA?$FL?$AAW?$AAH?$AA?$FN?$AA?5?$AA?$FL?$AA?$CF?$AAS?$AA?$FN?$AA?3?$AA?5?$AAF?$AAa?$AAi?$AAl@ 00000001800d8230     customization_session.obj
 0002:000812b0       ??_C@_1FG@KEBELNLO@?$AAW?$AAi?$AAn?$AAd?$AAh?$AAa?$AAw?$AAk?$AAC?$AAu?$AAs?$AAt?$AAo?$AAm?$AAi@ 00000001800d82b0     customization_session.obj
 0002:00081308       ??_C@_0DC@PDKGDLCJ@Failed?5to?5acquire?5customization@ 00000001800d8308     customization_session.obj
 0002:00081340       ??_C@_0DA@DEHLLPBB@Only?5one?5session?5is?5supported?5a@ 00000001800d8340     customization_session.obj
 0002:00081370       ??_C@_0CB@DBKGNDAI@engine?2customization_session?4cp@ 00000001800d8370     customization_session.obj
 0002:00081398       ??_C@_0CL@EILCJNLJ@CustomizationSession?3?3Customiza@ 00000001800d8398     customization_session.obj
 0002:000813d0       ??_C@_1EC@NFGMCMCP@?$AA?$FL?$AAW?$AAH?$AA?$FN?$AA?5?$AA?$FL?$AA?$CF?$AAS?$AA?$FN?$AA?3?$AA?5?$AAA?$AAf?$AAt?$AAe@ 00000001800d83d0     customization_session.obj
 0002:00081418       ??_C@_0CM@HLAKOFNG@CustomizationSession?3?3?$HOCustomiz@ 00000001800d8418     customization_session.obj
 0002:00081450       ??_C@_1EI@IMKCJLDK@?$AA?$FL?$AAW?$AAH?$AA?$FN?$AA?5?$AA?$FL?$AA?$CF?$AAS?$AA?$FN?$AA?3?$AA?5?$AAB?$AAe?$AAf?$AAo@ 00000001800d8450     customization_session.obj
 0002:000814a0       ??_C@_0EI@JCMPCIAN@CustomizationSession?3?3MinHookSc@ 00000001800d84a0     customization_session.obj
 0002:000814f0       ??_C@_1HO@LHNOFDHK@?$AA?$FL?$AAW?$AAH?$AA?$FN?$AA?5?$AA?$FL?$AA?$CF?$AAS?$AA?$FN?$AA?3?$AA?5?$AAH?$AAo?$AAo?$AAk@ 00000001800d84f0     customization_session.obj
 0002:00081570       ??_C@_0DJ@ECAOMJFE@CustomizationSession?3?3MinHookSc@ 00000001800d8570     customization_session.obj
 0002:000815b0       ??_C@_1FC@MCDFOEFC@?$AA?$FL?$AAW?$AAH?$AA?$FN?$AA?5?$AA?$FL?$AA?$CF?$AAS?$AA?$FN?$AA?3?$AA?5?$AAM?$AAH?$AA_?$AAI@ 00000001800d85b0     customization_session.obj
 0002:00081608       ??_C@_0BN@ENMBCIJ@Failed?5to?5initialize?5MinHook@ 00000001800d8608     customization_session.obj
 0002:00081628       ??_C@_0DK@BJADIFIP@CustomizationSession?3?3MinHookSc@ 00000001800d8628     customization_session.obj
 0002:00081670       ??_C@_1GE@LHODKLON@?$AA?$FL?$AAW?$AAH?$AA?$FN?$AA?5?$AA?$FL?$AA?$CF?$AAS?$AA?$FN?$AA?3?$AA?5?$AAM?$AAH?$AA_?$AAU@ 00000001800d8670     customization_session.obj
 0002:000816d8       ??_C@_0DL@BPIHPBJL@CustomizationSession?3?3MinHookSc@ 00000001800d86d8     customization_session.obj
 0002:00081718       ??_C@_0DM@HNKHIHHP@CustomizationSession?3?3MinHookSc@ 00000001800d8718     customization_session.obj
 0002:00081760       ??_C@_1GG@ICAMIFAP@?$AA?$FL?$AAW?$AAH?$AA?$FN?$AA?5?$AA?$FL?$AA?$CF?$AAS?$AA?$FN?$AA?3?$AA?5?$AAM?$AAH?$AA_?$AAD@ 00000001800d8760     customization_session.obj
 0002:000817c8       ??_C@_0DF@NCOKHKGM@CustomizationSession?3?3MainLoopR@ 00000001800d87c8     customization_session.obj
 0002:00081800       ??_C@_1HO@ILHAAKMJ@?$AA?$FL?$AAW?$AAH?$AA?$FN?$AA?5?$AA?$FL?$AA?$CF?$AAS?$AA?$FN?$AA?3?$AA?5?$AAM?$AAo?$AAd?$AAC@ 00000001800d8800     customization_session.obj
 0002:00081880       ??_C@_0CK@NLGIHGCO@CustomizationSession?3?3MainLoopR@ 00000001800d8880     customization_session.obj
 0002:000818b0       ??_C@_1HM@OGHDLPBH@?$AA?$FL?$AAW?$AAH?$AA?$FN?$AA?5?$AA?$FL?$AA?$CF?$AAS?$AA?$FN?$AA?3?$AA?5?$AAW?$AAa?$AAi?$AAt@ 00000001800d88b0     customization_session.obj
 0002:00081930       ??_C@_0DJ@LDENHEFA@CustomizationSession?3?3MainLoopR@ 00000001800d8930     customization_session.obj
 0002:00081970       ??_C@_1FE@JIHCCDAG@?$AA?$FL?$AAW?$AAH?$AA?$FN?$AA?5?$AA?$FL?$AA?$CF?$AAS?$AA?$FN?$AA?3?$AA?5?$AAC?$AAo?$AAn?$AAt@ 00000001800d8970     customization_session.obj
 0002:000819c8       ??_C@_0CH@FEBDMDDF@CustomizationSession?3?3StartInit@ 00000001800d89c8     customization_session.obj
 0002:000819f0       ??_C@_1EO@IFGIBHP@?$AA?$FL?$AAW?$AAH?$AA?$FN?$AA?5?$AA?$FL?$AA?$CF?$AAS?$AA?$FN?$AA?3?$AA?5?$AAT?$AAh?$AAr?$AAe@ 00000001800d89f0     customization_session.obj
 0002:00081a40       ??_C@_1EG@IIGBIEAA@?$AAW?$AAi?$AAn?$AAd?$AAh?$AAa?$AAw?$AAk?$AAM?$AAa?$AAi?$AAn?$AAL?$AAo?$AAo@ 00000001800d8a40     customization_session.obj
 0002:00081a90       ??_C@_0FK@MDHANPJI@CustomizationSession?3?3RunMainLo@ 00000001800d8a90     customization_session.obj
 0002:00081af0       ??_C@_1IM@MOPBDCC@?$AA?$FL?$AAW?$AAH?$AA?$FN?$AA?5?$AA?$FL?$AA?$CF?$AAS?$AA?$FN?$AA?3?$AA?5?$AAP?$AAr?$AAo?$AAc@ 00000001800d8af0     customization_session.obj
 0002:00081b80       ??_C@_1CE@PGMIGCFK@?$AAE?$AAt?$AAw?$AAS?$AAt?$AAe?$AAa?$AAl?$AAt?$AAh?$AAE?$AAn?$AAa?$AAb?$AAl@ 00000001800d8b80     customization_session.obj
 0002:00081bb0       ??_C@_1FK@OBJHDDJL@?$AA?$FL?$AAW?$AAH?$AA?$FN?$AA?5?$AA?$FL?$AA?$CF?$AAS?$AA?$FN?$AA?3?$AA?5?$AAR?$AAe?$AAl?$AAo@ 00000001800d8bb0     customization_session.obj
 0002:00081c10       ??_C@_0EB@LMHEBHMK@CustomizationSession?3?3RunMainLo@ 00000001800d8c10     customization_session.obj
 0002:00081c58       ??_C@_1CC@EMPLNHHG@?$AAW?$AAi?$AAn?$AAd?$AAh?$AAa?$AAw?$AAk?$AAM?$AAa?$AAi?$AAn?$AAL?$AAo?$AAo@ 00000001800d8c58     customization_session.obj
 0002:00081c80       ??_C@_0CC@NENIACNA@CustomizationSession?3?3RunMainLo@ 00000001800d8c80     customization_session.obj
 0002:00081cb0       ??_C@_1FI@LDJBDPFN@?$AA?$FL?$AAW?$AAH?$AA?$FN?$AA?5?$AA?$FL?$AA?$CF?$AAS?$AA?$FN?$AA?3?$AA?5?$AAE?$AAx?$AAi?$AAt@ 00000001800d8cb0     customization_session.obj
 0002:00081d08       ??_C@_0CB@DCKAFHOJ@CustomizationSession?3?3DeleteThi@ 00000001800d8d08     customization_session.obj
 0002:00081d30       ??_C@_1IC@BLOMNFNP@?$AA?$FL?$AAW?$AAH?$AA?$FN?$AA?5?$AA?$FL?$AA?$CF?$AAS?$AA?$FN?$AA?3?$AA?5?$AAP?$AAr?$AAo?$AAc@ 00000001800d8d30     customization_session.obj
 0002:00081db8       ??_C@_0CF@GKBMNDBC@shared?2libraries?2wil?2result_mac@ 00000001800d8db8     customization_session.obj
 0002:00081de0       ??_C@_0BE@LMOOKEAD@Bad?5optional?5access@ 00000001800d8de0     customization_session.obj
 0002:00081e00       ??_7bad_optional_access@std@@6B@ 00000001800d8e00     customization_session.obj
 0002:00081e10       ??_C@_0CF@NBBGCGHK@engine?2session_private_namespac@ 00000001800d8e10     session_private_namespace.obj
 0002:00081e38       ??_C@_1CE@BMACEPKB@?$AAW?$AAi?$AAn?$AAd?$AAh?$AAa?$AAw?$AAk?$AAS?$AAe?$AAs?$AAs?$AAi?$AAo?$AAn@ 00000001800d8e38     session_private_namespace.obj
 0002:00081e60       ??_C@_0BH@MFPBLOMC@StackSpoof?3?3Initialize@ 00000001800d8e60     stack_spoof.obj
 0002:00081e80       ??_C@_1JG@NLNDBJFK@?$AA?$FL?$AAW?$AAH?$AA?$FN?$AA?5?$AA?$FL?$AA?$CF?$AAS?$AA?$FN?$AA?3?$AA?5?$AAS?$AAt?$AAa?$AAc@ 00000001800d8e80     stack_spoof.obj
 0002:00081f18       ??_C@_1BI@BNFKGMFK@?$AAs?$AAh?$AAe?$AAl?$AAl?$AA3?$AA2?$AA?4?$AAd?$AAl?$AAl@ 00000001800d8f18     storage_manager.obj
 0002:00081f30       ??_C@_0BF@OMOLCJCE@SHGetKnownFolderPath@ 00000001800d8f30     storage_manager.obj
 0002:00081f48       ??_C@_1BE@DPMNNGMJ@?$AAo?$AAl?$AAe?$AA3?$AA2?$AA?4?$AAd?$AAl?$AAl@ 00000001800d8f48     storage_manager.obj
 0002:00081f60       ??_C@_0O@MIBPKJDN@CoTaskMemFree@ 00000001800d8f60     storage_manager.obj
 0002:00081f70       ??_C@_0BD@HKLFGHMI@Missing?5path?5value@ 00000001800d8f70     storage_manager.obj
 0002:00081f88       ??_C@_1BI@PCFBINBH@?$AAP?$AAr?$AAo?$AAg?$AAr?$AAa?$AAm?$AAD?$AAa?$AAt?$AAa@ 00000001800d8f88     storage_manager.obj
 0002:00081fa0       ??_C@_1BM@BPCHLFEE@?$AA?$CF?$AAP?$AAr?$AAo?$AAg?$AAr?$AAa?$AAm?$AAD?$AAa?$AAt?$AAa?$AA?$CF@ 00000001800d8fa0     storage_manager.obj
 0002:00081fc0       ??_C@_1BI@BNLANBPC@?$AAS?$AAy?$AAs?$AAt?$AAe?$AAm?$AAD?$AAr?$AAi?$AAv?$AAe@ 00000001800d8fc0     storage_manager.obj
 0002:00081fd8       ??_C@_1BK@OPEJHODM@?$AA?2?$AAP?$AAr?$AAo?$AAg?$AAr?$AAa?$AAm?$AAD?$AAa?$AAt?$AAa@ 00000001800d8fd8     storage_manager.obj
 0002:00081ff8       ??_C@_1BO@DPOFENEI@?$AAC?$AA?3?$AA?2?$AAP?$AAr?$AAo?$AAg?$AAr?$AAa?$AAm?$AAD?$AAa?$AAt?$AAa@ 00000001800d8ff8     storage_manager.obj
 0002:00082018       ??_C@_19PGJFMJNJ@?$AA?4?$AAi?$AAn?$AAi@ 00000001800d9018     storage_manager.obj
 0002:00082028       ??_C@_19JEBFOLLA@?$AAM?$AAo?$AAd?$AAs@ 00000001800d9028     storage_manager.obj
 0002:00082038       ??_C@_17GFKDCKHB@?$AAM?$AAo?$AAd@ 00000001800d9038     storage_manager.obj
 0002:00082040       ??_C@_1O@PFFGFEFP@?$AA?2?$AAM?$AAo?$AAd?$AAs?$AA?2@ 00000001800d9040     storage_manager.obj
 0002:00082050       ??_C@_1BK@LOEJHKPH@?$AAM?$AAo?$AAd?$AAs?$AAW?$AAr?$AAi?$AAt?$AAa?$AAb?$AAl?$AAe@ 00000001800d9050     storage_manager.obj
 0002:00082070       ??_C@_1BO@ELFKPADN@?$AA?2?$AAM?$AAo?$AAd?$AAs?$AAW?$AAr?$AAi?$AAt?$AAa?$AAb?$AAl?$AAe?$AA?2@ 00000001800d9070     storage_manager.obj
 0002:00082090       ??_C@_1BI@EHAKDGJC@?$AAm?$AAo?$AAd?$AA?9?$AAs?$AAt?$AAo?$AAr?$AAa?$AAg?$AAe@ 00000001800d9090     storage_manager.obj
 0002:000820a8       ??_C@_0BL@CJFKFCI@engine?2storage_manager?4cpp@ 00000001800d90a8     storage_manager.obj
 0002:000820c4       ??_C@_15JGPBBLHF@?$AA3?$AA2@ 00000001800d90c4     storage_manager.obj
 0002:000820cc       ??_C@_15ODFHNFBK@?$AA6?$AA4@ 00000001800d90cc     storage_manager.obj
 0002:000820d8       ??_C@_1M@CDOFHCHO@?$AAa?$AAr?$AAm?$AA6?$AA4@ 00000001800d90d8     storage_manager.obj
 0002:000820e8       ??_C@_0BF@PAAHKDFF@Unknown?5architecture@ 00000001800d90e8     storage_manager.obj
 0002:00082100       ??_C@_1BA@NKHEEPNG@?$AAS?$AAy?$AAm?$AAb?$AAo?$AAl?$AAs@ 00000001800d9100     storage_manager.obj
 0002:00082110       ??_C@_1BG@JHPKGNCN@?$AAe?$AAn?$AAg?$AAi?$AAn?$AAe?$AA?4?$AAi?$AAn?$AAi@ 00000001800d9110     storage_manager.obj
 0002:00082128       ??_C@_0BF@NIEEMBFP@engine?4ini?5not?5found@ 00000001800d9128     storage_manager.obj
 0002:00082140       ??_C@_1BA@KMCEMKEI@?$AAS?$AAt?$AAo?$AAr?$AAa?$AAg?$AAe@ 00000001800d9140     storage_manager.obj
 0002:00082150       ??_C@_1BI@HCGPBLCP@?$AAA?$AAp?$AAp?$AAD?$AAa?$AAt?$AAa?$AAP?$AAa?$AAt?$AAh@ 00000001800d9150     storage_manager.obj
 0002:00082168       ??_C@_1BC@EIAJDLIM@?$AAP?$AAo?$AAr?$AAt?$AAa?$AAb?$AAl?$AAe@ 00000001800d9168     storage_manager.obj
 0002:00082180       ??_C@_1BK@BDLHIEGA@?$AAs?$AAe?$AAt?$AAt?$AAi?$AAn?$AAg?$AAs?$AA?4?$AAi?$AAn?$AAi@ 00000001800d9180     storage_manager.obj
 0002:000821a0       ??_C@_1BI@PJNLJJGH@?$AAR?$AAe?$AAg?$AAi?$AAs?$AAt?$AAr?$AAy?$AAK?$AAe?$AAy@ 00000001800d91a0     storage_manager.obj
 0002:000821b8       ??_C@_0BK@LMMIEMIN@Missing?5RegistryKey?5value@ 00000001800d91b8     storage_manager.obj
 0002:000821d8       ??_C@_0BK@NBAMLEHE@Invalid?5RegistryKey?5value@ 00000001800d91d8     storage_manager.obj
 0002:000821f8       ??_C@_1CE@HLHNCBPM@?$AAH?$AAK?$AAE?$AAY?$AA_?$AAC?$AAU?$AAR?$AAR?$AAE?$AAN?$AAT?$AA_?$AAU?$AAS@ 00000001800d91f8     storage_manager.obj
 0002:00082220       ??_C@_19JAPAIJDE@?$AAH?$AAK?$AAC?$AAU@ 00000001800d9220     storage_manager.obj
 0002:00082230       ??_C@_1BG@BGODANIO@?$AAH?$AAK?$AAE?$AAY?$AA_?$AAU?$AAS?$AAE?$AAR?$AAS@ 00000001800d9230     storage_manager.obj
 0002:00082248       ??_C@_17PJOJPMPB@?$AAH?$AAK?$AAU@ 00000001800d9248     storage_manager.obj
 0002:00082250       ??_C@_1CG@GFBEANJL@?$AAH?$AAK?$AAE?$AAY?$AA_?$AAL?$AAO?$AAC?$AAA?$AAL?$AA_?$AAM?$AAA?$AAC?$AAH@ 00000001800d9250     storage_manager.obj
 0002:00082278       ??_C@_19PEALEEJB@?$AAH?$AAK?$AAL?$AAM@ 00000001800d9278     storage_manager.obj
 0002:00082288       ??_C@_0BO@LNGLPCAK@Unsupported?5RegistryKey?5value@ 00000001800d9288     storage_manager.obj
 0002:000822a8       ??_C@_1M@DFDLFCCE@?$AA?2?$AAM?$AAo?$AAd?$AAs@ 00000001800d92a8     storage_manager.obj
 0002:000822c0       ??_7?$__func@V<lambda_1>@?1???$GetEnvironmentVariableW@V?$basic_string@_WU?$char_traits@_W@std@@V?$allocator@_W@2@@std@@$0IA@@wil@@YAJPEB_WAEAV?$basic_string@_WU?$char_traits@_W@std@@V?$allocator@_W@2@@std@@@Z@$$A6AJPEA_W_KPEA_K@Z@__function@wistd@@6B@ 00000001800d92c0     storage_manager.obj
 0002:000822e8       ??_C@_0BI@LBKDNGFK@directory_entry?3?3status@ 00000001800d92e8     storage_manager.obj
 0002:00082300       ??_C@_0BP@DPMCMHCK@directory_iterator?3?3operator?$CL?$CL@ 00000001800d9300     storage_manager.obj
 0002:00082320       ??_C@_13BBDEGPLJ@?$AA?$CK@ 00000001800d9320     storage_manager.obj
 0002:00082330       ??_7?$_Ref_count_obj2@U_Dir_enum_impl@filesystem@std@@@std@@6B@ 00000001800d9330     storage_manager.obj
 0002:00082350       ??_C@_0CH@GANCNKKD@directory_iterator?3?3directory_i@ 00000001800d9350     storage_manager.obj
 0002:00082378       ??_C@_06OGCODMJI@exists@   00000001800d9378     storage_manager.obj
 0002:00082380       ??_C@_03NONCDIOG@?3?5?$CC@ 00000001800d9380     storage_manager.obj
 0002:00082384       ??_C@_04PHMHGEMA@?$CC?0?5?$CC@ 00000001800d9384     storage_manager.obj
 0002:00082398       ??_7filesystem_error@filesystem@std@@6B@ 00000001800d9398     storage_manager.obj
 0002:000823a8       ??_C@_06DJIHEMFI@status@   00000001800d93a8     storage_manager.obj
 0002:000823b0       ??_C@_0BD@FGIAGBIG@bad?5variant?5access@ 00000001800d93b0     storage_manager.obj
 0002:000823d0       ??_7bad_variant_access@std@@6B@ 00000001800d93d0     storage_manager.obj
 0002:000823e0       ??_C@_13JOFGPIOO@?$AA?4@   00000001800d93e0     storage_manager.obj
 0002:000823e4       ??_C@_15DDHGOCBH@?$AA?4?$AA?4@ 00000001800d93e4     storage_manager.obj
 0002:000823f0       ??_C@_0BO@ELAFCPOP@RtlDisownModuleHeapAllocation@ 00000001800d93f0     stdafx.obj
 0002:00082410       ??_C@_0BH@EEDPADAA@RaiseFailFastException@ 00000001800d9410     stdafx.obj
 0002:00082428       ??_C@_0O@KIMGFJMA@WIL?5Exception@ 00000001800d9428     stdafx.obj
 0002:00082438       ??_C@_03KGBNGMMC@wil@      00000001800d9438     stdafx.obj
 0002:00082440       ??_C@_17ONNCDEJM@?$AA_?$AAp?$AA0@ 00000001800d9440     stdafx.obj
 0002:00082448       ??_C@_13CACJPPAP@?$AAh@    00000001800d9448     stdafx.obj
 0002:00082450       ??_C@_0M@BENCEGID@WilError_03@ 00000001800d9450     stdafx.obj
 0002:00082460       ??_C@_1CM@DFICJNGJ@?$AAL?$AAo?$AAc?$AAa?$AAl?$AA?2?$AAS?$AAM?$AA0?$AA?3?$AA?$CF?$AAl?$AAu?$AA?3?$AA?$CF@ 00000001800d9460     stdafx.obj
 0002:00082498       ??_7ResultException@wil@@6B@ 00000001800d9498     stdafx.obj
 0002:000824a8       ??_C@_1BK@LEFPDCAJ@?$AAo?$AAl?$AAe?$AAa?$AAu?$AAt?$AA3?$AA2?$AA?4?$AAd?$AAl?$AAl@ 00000001800d94a8     symbol_enum.obj
 0002:000824c8       ??_C@_0O@HGGCANLK@SysFreeString@ 00000001800d94c8     symbol_enum.obj
 0002:000824d8       ??_C@_0BA@BMHIEGEI@MySysFreeString@ 00000001800d94d8     symbol_enum.obj
 0002:000824f0       ??_C@_1GE@LFJMGENG@?$AA?$FL?$AAW?$AAH?$AA?$FN?$AA?5?$AA?$FL?$AA?$CF?$AAS?$AA?$FN?$AA?3?$AA?5?$AAF?$AAa?$AAi?$AAl@ 00000001800d94f0     symbol_enum.obj
 0002:00082560       ??_C@_1FI@FKNELKHO@?$AAh?$AAt?$AAt?$AAp?$AAs?$AA?3?$AA?1?$AA?1?$AAm?$AAs?$AAd?$AAl?$AA?4?$AAm?$AAi@ 00000001800d9560     symbol_enum.obj
 0002:000825b8       ??_C@_19PNIKJOHJ@?$AAs?$AAr?$AAv?$AA?$CK@ 00000001800d95b8     symbol_enum.obj
 0002:000825c8       ??_C@_0CM@OKJEFOLI@?$GAanonymous?9namespace?8?3?3LogSymbo@ 00000001800d95c8     symbol_enum.obj
 0002:000825f8       ??_C@_1CC@FFLFECJ@?$AA?$FL?$AAW?$AAH?$AA?$FN?$AA?5?$AA?$FL?$AA?$CF?$AAS?$AA?$FN?$AA?3?$AA?5?$AA?$CF?$AA?4?$AA?$CK?$AAS@ 00000001800d95f8     symbol_enum.obj
 0002:00082620       ??_C@_1BA@ICANLBCA@?$AAs?$AAu?$AAc?$AAc?$AAe?$AAs?$AAs@ 00000001800d9620     symbol_enum.obj
 0002:00082630       ??_C@_1M@BAIGDEFI@?$AAe?$AAr?$AAr?$AAo?$AAr@ 00000001800d9630     symbol_enum.obj
 0002:00082640       ??_C@_0DG@GICDKMFB@?$GAanonymous?9namespace?8?3?3DiaLoadC@ 00000001800d9640     symbol_enum.obj
 0002:00082680       ??_C@_1FE@CBJGICIH@?$AA?$FL?$AAW?$AAH?$AA?$FN?$AA?5?$AA?$FL?$AA?$CF?$AAS?$AA?$FN?$AA?3?$AA?5?$AAO?$AAp?$AAe?$AAn@ 00000001800d9680     symbol_enum.obj
 0002:000826d8       ??_C@_0DG@MOKCOEGO@?$GAanonymous?9namespace?8?3?3DiaLoadC@ 00000001800d96d8     symbol_enum.obj
 0002:00082710       ??_C@_1FE@ODOBHGHE@?$AA?$FL?$AAW?$AAH?$AA?$FN?$AA?5?$AA?$FL?$AA?$CF?$AAS?$AA?$FN?$AA?3?$AA?5?$AAO?$AAp?$AAe?$AAn@ 00000001800d9710     symbol_enum.obj
 0002:00082768       ??_C@_1BG@MIBKINDJ@?$AAS?$AAY?$AAM?$AAS?$AAR?$AAV?$AA?4?$AAD?$AAL?$AAL@ 00000001800d9768     symbol_enum.obj
 0002:00082780       ??_C@_1CI@IMOANIOL@?$AAs?$AAy?$AAm?$AAs?$AAr?$AAv?$AA_?$AAw?$AAi?$AAn?$AAd?$AAh?$AAa?$AAw?$AAk@ 00000001800d9780     symbol_enum.obj
 0002:000827a8       ??_C@_0CP@OIMKFLMF@?$GAanonymous?9namespace?8?3?3MsdiaLoa@ 00000001800d97a8     symbol_enum.obj
 0002:000827e0       ??_C@_1EK@NPJGDDOB@?$AA?$FL?$AAW?$AAH?$AA?$FN?$AA?5?$AA?$FL?$AA?$CF?$AAS?$AA?$FN?$AA?3?$AA?5?$AAC?$AAo?$AAu?$AAl@ 00000001800d97e0     symbol_enum.obj
 0002:00082830       ??_C@_0BH@DMJEJMEL@SymbolServerSetOptions@ 00000001800d9830     symbol_enum.obj
 0002:00082850       ??_C@_1GC@CKMMNEL@?$AA?$FL?$AAW?$AAH?$AA?$FN?$AA?5?$AA?$FL?$AA?$CF?$AAS?$AA?$FN?$AA?3?$AA?5?$AAC?$AAo?$AAu?$AAl@ 00000001800d9850     symbol_enum.obj
 0002:000828c0       ??_C@_1EK@OGDNFMK@?$AA?$FL?$AAW?$AAH?$AA?$FN?$AA?5?$AA?$FL?$AA?$CF?$AAS?$AA?$FN?$AA?3?$AA?5?$AAC?$AAo?$AAu?$AAl@ 00000001800d98c0     symbol_enum.obj
 0002:00082910       ??_C@_0BH@IJJDHMF@engine?2symbol_enum?4cpp@ 00000001800d9910     symbol_enum.obj
 0002:00082928       ??_C@_1BE@LDDABGGM@?$AAa?$AAr?$AAc?$AAh?$AA?$DN?$AAx?$AA8?$AA6?$AA?2@ 00000001800d9928     symbol_enum.obj
 0002:00082940       ??_C@_1BI@HCCCELJM@?$AAa?$AAr?$AAc?$AAh?$AA?$DN?$AAA?$AAR?$AAM?$AA6?$AA4?$AA?2@ 00000001800d9940     symbol_enum.obj
 0002:00082958       ??_C@_1BM@PJADIINF@?$AAa?$AAr?$AAc?$AAh?$AA?$DN?$AAA?$AAR?$AAM?$AA6?$AA4?$AAE?$AAC?$AA?2@ 00000001800d9958     symbol_enum.obj
 0002:00082978       ??_C@_1BA@PGNKGJN@?$AAa?$AAr?$AAc?$AAh?$AA?$DN?$AA3?$AA?2@ 00000001800d9978     symbol_enum.obj
 0002:00082988       ??_C@_17IFEONEPG@?$AA$?$AA$?$AAh@ 00000001800d9988     symbol_enum.obj
 0002:00082990       ??_C@_1BK@LGJFFBAN@?$AAt?$AAa?$AAg?$AA?$DN?$AAA?$AAR?$AAM?$AA6?$AA4?$AAE?$AAC?$AA?2@ 00000001800d9990     symbol_enum.obj
 0002:000829b0       ??_C@_1CM@OBDFBEHC@?$AAm?$AAs?$AAd?$AAi?$AAa?$AA1?$AA4?$AA0?$AA_?$AAw?$AAi?$AAn?$AAd?$AAh?$AAa@ 00000001800d99b0     symbol_enum.obj
 0002:000829e0       ??_C@_0P@HECBOJPO@LoadLibraryExW@ 00000001800d99e0     symbol_enum.obj
 0002:000829f0       ??_C@_0N@MDJJJHMB@kernel32?4dll@ 00000001800d99f0     symbol_enum.obj
 0002:00082a08       ??_7?$_Func_impl_no_alloc@U?$default_delete@PEAUCallbacks@SymbolEnum@@@std@@XPEAPEAUCallbacks@SymbolEnum@@@std@@6B@ 00000001800d9a08     symbol_enum.obj
 0002:00082a40       ??_7?$_Func_impl_no_alloc@V<lambda_5_>@?0???0?$ThreadLocal@PEAUCallbacks@SymbolEnum@@@@QEAA@XZ@PEAPEAUCallbacks@SymbolEnum@@$$V@std@@6B@ 00000001800d9a40     symbol_enum.obj
 0002:00082a70       _GUID_79f1bb5f_b66e_48e5_b6a9_1545c323ca3d 00000001800d9a70     symbol_enum.obj
 0002:00082a80       _GUID_4688a074_5a4d_4486_aea8_7b90711d9f7c 00000001800d9a80     symbol_enum.obj
 0002:00082a90       _GUID_c32adb82_73f4_421b_95d5_a4706edf5dbe 00000001800d9a90     symbol_enum.obj
 0002:00082aa0       _GUID_00000000_0000_0000_c000_000000000046 00000001800d9aa0     symbol_enum.obj
 0002:00082b18       ?kSymTags@SymbolEnum@@0QBW4SymTagEnum@@B 00000001800d9b18     symbol_enum.obj
 0002:00082b28       ??_C@_0CG@JODCHHNK@ThreadPoolInject?3?3FindAlertable@ 00000001800d9b28     thread_pool_inject.obj
 0002:00082b50       ??_C@_1II@ODDMCDNN@?$AA?$FL?$AAW?$AAH?$AA?$FN?$AA?5?$AA?$FL?$AA?$CF?$AAS?$AA?$FN?$AA?3?$AA?5?$AAP?$AAh?$AAa?$AAn@ 00000001800d9b50     thread_pool_inject.obj
 0002:00082be0       ??_C@_1JI@KMICFAKG@?$AA?$FL?$AAW?$AAH?$AA?$FN?$AA?5?$AA?$FL?$AA?$CF?$AAS?$AA?$FN?$AA?3?$AA?5?$AAP?$AAh?$AAa?$AAn@ 00000001800d9be0     thread_pool_inject.obj
 0002:00082c78       ??_C@_1BG@CEGPHGFI@?$AAM?$AAo?$AAv?$AAe?$AAI?$AAm?$AAa?$AAg?$AAe?$AAs@ 00000001800d9c78     Memory.obj
 0002:00082c90       ??_C@_1KK@PJBACOMO@?$AA?2?$AAR?$AAe?$AAg?$AAi?$AAs?$AAt?$AAr?$AAy?$AA?2?$AAM?$AAa?$AAc?$AAh?$AAi@ 00000001800d9c90     Memory.obj
 0002:00082d3c       ??_C@_01MIFGBAGJ@?$CL@     00000001800d9d3c     Zydis.obj
 0002:00082d40       ??_C@_01JOAMLHOP@?9@       00000001800d9d40     Zydis.obj
 0002:00082d44       ??_C@_02MDDDDAID@0x@       00000001800d9d44     Zydis.obj
 0002:00082d48       ??_C@_01BDACAMKP@h@        00000001800d9d48     Zydis.obj
 0002:00082d4c       ??_C@_01EPMOAMKG@$@        00000001800d9d4c     Zydis.obj
 0002:00082d50       ??_C@_07JAILIFAG@?5?$HL1to2?$HN@ 00000001800d9d50     Zydis.obj
 0002:00082d58       ??_C@_07JEAGPJLE@?5?$HL1to4?$HN@ 00000001800d9d58     Zydis.obj
 0002:00082d60       ??_C@_07JNBMAANA@?5?$HL1to8?$HN@ 00000001800d9d60     Zydis.obj
 0002:00082d68       ??_C@_08BNBIOEME@?5?$HL1to16?$HN@ 00000001800d9d68     Zydis.obj
 0002:00082d78       ??_C@_08LABIIEJD@?5?$HL1to32?$HN@ 00000001800d9d78     Zydis.obj
 0002:00082d88       ??_C@_08IDELAIBD@?5?$HL1to64?$HN@ 00000001800d9d88     Zydis.obj
 0002:00082d98       ??_C@_07MNNBJBGD@?5?$HL4to8?$HN@ 00000001800d9d98     Zydis.obj
 0002:00082da0       ??_C@_08EPCAMLGD@?5?$HL4to16?$HN@ 00000001800d9da0     Zydis.obj
 0002:00082db0       ??_C@_08IIIAKBBH@?5?$HL8to16?$HN@ 00000001800d9db0     Zydis.obj
 0002:00082dc0       ??_C@_07LKCAHCNJ@?5?$HLaaaa?$HN@ 00000001800d9dc0     Zydis.obj
 0002:00082dc8       ??_C@_07IOOCECL@?5?$HLbadc?$HN@ 00000001800d9dc8     Zydis.obj
 0002:00082dd0       ??_C@_07GLOHGLBA@?5?$HLbbbb?$HN@ 00000001800d9dd0     Zydis.obj
 0002:00082dd8       ??_C@_02PEDIMADA@?5?$HL@   00000001800d9dd8     Zydis.obj
 0002:00082de0       ??_C@_07CEKFJMFH@?5?$HLcccc?$HN@ 00000001800d9de0     Zydis.obj
 0002:00082de8       ??_C@_07DNEOOCPL@?5?$HLcdab?$HN@ 00000001800d9de8     Zydis.obj
 0002:00082df0       ??_C@_07ECKCJFLI@?5?$HLdacb?$HN@ 00000001800d9df0     Zydis.obj
 0002:00082df8       ??_C@_07BDBIFOMD@?5?$HLdddd?$HN@ 00000001800d9df8     Zydis.obj
 0002:00082e00       ??_C@_05BHDOBAKG@?5?$HLeh?$HN@ 00000001800d9e00     Zydis.obj
 0002:00082e08       ??_C@_01CELHOKLL@?$HN@     00000001800d9e08     Zydis.obj
 0002:00082e10       ??_C@_0L@PEJEFFNA@?5?$HLfloat16?$HN@ 00000001800d9e10     Zydis.obj
 0002:00082e1c       ??_C@_05NDOKIGOE@?5?$HLrd?$HN@ 00000001800d9e1c     Zydis.obj
 0002:00082e28       ??_C@_09OCAFCFKL@?5?$HLrd?9sae?$HN@ 00000001800d9e28     Zydis.obj
 0002:00082e34       ??_C@_05NOHNADDC@?5?$HLrn?$HN@ 00000001800d9e34     Zydis.obj
 0002:00082e40       ??_C@_09EGHFHKOF@?5?$HLrn?9sae?$HN@ 00000001800d9e40     Zydis.obj
 0002:00082e4c       ??_C@_05MOAOEPKD@?5?$HLru?$HN@ 00000001800d9e4c     Zydis.obj
 0002:00082e58       ??_C@_09CDKMLCNB@?5?$HLru?9sae?$HN@ 00000001800d9e58     Zydis.obj
 0002:00082e64       ??_C@_05MFFCAIJO@?5?$HLrz?$HN@ 00000001800d9e64     Zydis.obj
 0002:00082e70       ??_C@_09NFOEMCDI@?5?$HLrz?9sae?$HN@ 00000001800d9e70     Zydis.obj
 0002:00082e7c       ??_C@_06CFKOOABG@?5?$HLsae?$HN@ 00000001800d9e7c     Zydis.obj
 0002:00082e88       ??_C@_08OKPADNGE@?5?$HLsint8?$HN@ 00000001800d9e88     Zydis.obj
 0002:00082e98       ??_C@_09NBGDHPGM@?5?$HLsint16?$HN@ 00000001800d9e98     Zydis.obj
 0002:00082ea8       ??_C@_08IJCAAIFO@?5?$HLuint8?$HN@ 00000001800d9ea8     Zydis.obj
 0002:00082eb8       ??_C@_09BHAMHGOL@?5?$HLuint16?$HN@ 00000001800d9eb8     Zydis.obj
 0002:00082ec4       ??_C@_04IHNFOKEG@?5?$HLz?$HN@ 00000001800d9ec4     Zydis.obj
 0002:00082ecc       ??_C@_01IHBHIGKO@?0@       00000001800d9ecc     Zydis.obj
 0002:00082ed0       ??_C@_01CLKCMJKC@?5@       00000001800d9ed0     Zydis.obj
 0002:00082ed4       ??_C@_02KEGNLNML@?0?5@     00000001800d9ed4     Zydis.obj
 0002:00082ed8       ??_C@_01JLIPDDHJ@?3@       00000001800d9ed8     Zydis.obj
 0002:00082edc       ??_C@_04LCENDFFK@?5far@    00000001800d9edc     Zydis.obj
 0002:00082ee4       ??_C@_01HHGOMJKL@l@        00000001800d9ee4     Zydis.obj
 0002:00082ee8       ??_C@_07MALOAKCI@invalid@  00000001800d9ee8     Zydis.obj
 0002:00082ef0       ??_C@_01ODHLEDKK@?$CI@     00000001800d9ef0     Zydis.obj
 0002:00082ef4       ??_C@_01OHGJGJJP@?$FL@     00000001800d9ef4     Zydis.obj
 0002:00082ef8       ??_C@_01PKGAHCOL@?$CJ@     00000001800d9ef8     Zydis.obj
 0002:00082efc       ??_C@_01LBDDMOBJ@?$FN@     00000001800d9efc     Zydis.obj
 0002:00082f00       ??_C@_01NBENCBCI@?$CK@     00000001800d9f00     Zydis.obj
 0002:00082f04       ??_C@_05DHHHCPBE@?5near@   00000001800d9f04     Zydis.obj
 0002:00082f0c       ??_C@_04NLIMOLKB@bnd?5@    00000001800d9f0c     Zydis.obj
 0002:00082f14       ??_C@_05NCPMCJGP@lock?5@   00000001800d9f14     Zydis.obj
 0002:00082f1c       ??_C@_04HHECPAIO@rep?5@    00000001800d9f1c     Zydis.obj
 0002:00082f24       ??_C@_05OJKCIHFO@repe?5@   00000001800d9f24     Zydis.obj
 0002:00082f2c       ??_C@_06LIOODCPM@repne?5@  00000001800d9f2c     Zydis.obj
 0002:00082f38       ??_C@_07NCIEOJP@rex?4wx?5@ 00000001800d9f38     Zydis.obj
 0002:00082f40       ??_C@_08IGCHNLJH@rex?4wxb?5@ 00000001800d9f40     Zydis.obj
 0002:00082f50       ??_C@_07LPMLEJ@rex?4wr?5@  00000001800d9f50     Zydis.obj
 0002:00082f58       ??_C@_08OJJKDLPD@rex?4wrb?5@ 00000001800d9f58     Zydis.obj
 0002:00082f68       ??_C@_08PICLBNFF@rex?4wrx?5@ 00000001800d9f68     Zydis.obj
 0002:00082f78       ??_C@_09PNGDPDGK@rex?4wrxb?5@ 00000001800d9f78     Zydis.obj
 0002:00082f84       ??_C@_04HJFBKBDG@rex?5@    00000001800d9f84     Zydis.obj
 0002:00082f8c       ??_C@_06BGMFDHIF@rex?4b?5@ 00000001800d9f8c     Zydis.obj
 0002:00082f94       ??_C@_06HHEBBCD@rex?4x?5@  00000001800d9f94     Zydis.obj
 0002:00082fa0       ??_C@_07EEPKHIGP@rex?4xb?5@ 00000001800d9fa0     Zydis.obj
 0002:00082fa8       ??_C@_06KODJEPF@rex?4r?5@  00000001800d9fa8     Zydis.obj
 0002:00082fb0       ??_C@_07CLEHJIAL@rex?4rb?5@ 00000001800d9fb0     Zydis.obj
 0002:00082fb8       ??_C@_07DKPGLOKN@rex?4rx?5@ 00000001800d9fb8     Zydis.obj
 0002:00082fc0       ??_C@_08EOMHFEOH@rex?4rxb?5@ 00000001800d9fc0     Zydis.obj
 0002:00082fcc       ??_C@_06MCIFGBO@rex?4w?5@  00000001800d9fcc     Zydis.obj
 0002:00082fd8       ??_C@_07BMJJGIDJ@rex?4wb?5@ 00000001800d9fd8     Zydis.obj
 0002:00082fe0       ??_C@_03DEBLIKKF@cs?5@     00000001800d9fe0     Zydis.obj
 0002:00082fe4       ??_C@_03KJMMLCBM@ds?5@     00000001800d9fe4     Zydis.obj
 0002:00082fe8       ??_C@_03BBHANFHJ@es?5@     00000001800d9fe8     Zydis.obj
 0002:00082fec       ??_C@_03DMFHKJH@fs?5@      00000001800d9fec     Zydis.obj
 0002:00082ff0       ??_C@_03LLHJBNPC@gs?5@     00000001800d9ff0     Zydis.obj
 0002:00082ff4       ??_C@_03GEACNNDK@ss?5@     00000001800d9ff4     Zydis.obj
 0002:00082ff8       ??_C@_09HDOLHHPF@xacquire?5@ 00000001800d9ff8     Zydis.obj
 0002:00083008       ??_C@_09KNNKNDPH@xrelease?5@ 00000001800da008     Zydis.obj
 0002:00083018       ??_C@_08IGJGFNPB@notrack?5@ 00000001800da018     Zydis.obj
 0002:00083024       ??_C@_01FGNFDNOH@?$CF@     00000001800da024     Zydis.obj
 0002:00083028       ??_C@_06PGLJLNGH@?5short@  00000001800da028     Zydis.obj
 0002:00083030       ??_C@_01OJONOECF@b@        00000001800da030     Zydis.obj
 0002:00083038       ??_C@_09LMCBIAMM@byte?5ptr?5@ 00000001800da038     Zydis.obj
 0002:00083044       ??_C@_01NOFIACDB@w@        00000001800da044     Zydis.obj
 0002:00083048       ??_C@_09MCGEPDKI@word?5ptr?5@ 00000001800da048     Zydis.obj
 0002:00083058       ??_C@_0L@KKGEMPII@dword?5ptr?5@ 00000001800da058     Zydis.obj
 0002:00083068       ??_C@_0L@PCAIHGEJ@fword?5ptr?5@ 00000001800da068     Zydis.obj
 0002:00083074       ??_C@_01IIACKFLH@q@        00000001800da074     Zydis.obj
 0002:00083078       ??_C@_0L@HFMFKHAB@qword?5ptr?5@ 00000001800da078     Zydis.obj
 0002:00083088       ??_C@_0L@HKNHHICH@tbyte?5ptr?5@ 00000001800da088     Zydis.obj
 0002:00083094       ??_C@_01FJMABOPO@x@        00000001800da094     Zydis.obj
 0002:00083098       ??_C@_0N@ODNAMEGM@xmmword?5ptr?5@ 00000001800da098     Zydis.obj
 0002:000830a8       ??_C@_01EANLCPLP@y@        00000001800da0a8     Zydis.obj
 0002:000830b0       ??_C@_0N@DOEGBNOJ@ymmword?5ptr?5@ 00000001800da0b0     Zydis.obj
 0002:000830c0       ??_C@_01GLPGHMHM@z@        00000001800da0c0     Zydis.obj
 0002:000830c8       ??_C@_0N@IDIMHBCH@zmmword?5ptr?5@ 00000001800da0c8     Zydis.obj
 0002:000830d8       ??_C@_03GINCELHE@aaa@      00000001800da0d8     Zydis.obj
 0002:000830dc       ??_C@_03BFKFLPDB@aad@      00000001800da0dc     Zydis.obj
 0002:000830e0       ??_C@_04FAFKALCG@aadd@     00000001800da0e0     Zydis.obj
 0002:000830e8       ??_C@_03MEGHAEHI@aam@      00000001800da0e8     Zydis.obj
 0002:000830ec       ??_C@_04FNMNIOPA@aand@     00000001800da0ec     Zydis.obj
 0002:000830f4       ??_C@_03BACGDLKH@aas@      00000001800da0f4     Zydis.obj
 0002:000830f8       ??_C@_03FMCPOLBN@adc@      00000001800da0f8     Zydis.obj
 0002:000830fc       ??_C@_04IELMLAMM@adcx@     00000001800da0fc     Zydis.obj
 0002:00083104       ??_C@_03BDGOHNNK@add@      00000001800da104     Zydis.obj
 0002:00083108       ??_C@_05DPFIJ@addpd@       00000001800da108     Zydis.obj
 0002:00083110       ??_C@_05FIAHBBP@addps@     00000001800da110     Zydis.obj
 0002:00083118       ??_C@_05CEFELNA@addsd@     00000001800da118     Zydis.obj
 0002:00083120       ??_C@_05HMGMPEG@addss@     00000001800da120     Zydis.obj
 0002:00083128       ??_C@_08BHNFBKK@addsubpd@  00000001800da128     Zydis.obj
 0002:00083138       ??_C@_08EPONFDM@addsubps@  00000001800da138     Zydis.obj
 0002:00083144       ??_C@_04INKGEJKI@adox@     00000001800da144     Zydis.obj
 0002:0008314c       ??_C@_06BNJBDCNN@aesdec@   00000001800da14c     Zydis.obj
 0002:00083158       ??_C@_0M@IEGINKND@aesdec128kl@ 00000001800da158     Zydis.obj
 0002:00083168       ??_C@_0M@FAADADFO@aesdec256kl@ 00000001800da168     Zydis.obj
 0002:00083178       ??_C@_0L@DKDBOHOJ@aesdeclast@ 00000001800da178     Zydis.obj
 0002:00083188       ??_C@_0BA@BBLPBFHE@aesdecwide128kl@ 00000001800da188     Zydis.obj
 0002:00083198       ??_C@_0BA@MFNEMMPJ@aesdecwide256kl@ 00000001800da198     Zydis.obj
 0002:000831a8       ??_C@_06KJHILKFJ@aesenc@   00000001800da1a8     Zydis.obj
 0002:000831b0       ??_C@_0M@MOHJNCMG@aesenc128kl@ 00000001800da1b0     Zydis.obj
 0002:000831c0       ??_C@_0M@BKBCALEL@aesenc256kl@ 00000001800da1c0     Zydis.obj
 0002:000831d0       ??_C@_0L@PEJMLDIN@aesenclast@ 00000001800da1d0     Zydis.obj
 0002:000831e0       ??_C@_0BA@LNLLGIPP@aesencwide128kl@ 00000001800da1e0     Zydis.obj
 0002:000831f0       ??_C@_0BA@GJNALBHC@aesencwide256kl@ 00000001800da1f0     Zydis.obj
 0002:00083200       ??_C@_06OBOILLLI@aesimc@   00000001800da200     Zydis.obj
 0002:00083208       ??_C@_0BA@BKBPMOOB@aeskeygenassist@ 00000001800da208     Zydis.obj
 0002:00083218       ??_C@_03BOPJPIAM@and@      00000001800da218     Zydis.obj
 0002:0008321c       ??_C@_04PCNGPDPK@andn@     00000001800da21c     Zydis.obj
 0002:00083224       ??_C@_06JPIHJOLE@andnpd@   00000001800da224     Zydis.obj
 0002:0008322c       ??_C@_06JKAEBKCC@andnps@   00000001800da22c     Zydis.obj
 0002:00083234       ??_C@_05EKLDONCI@andpd@    00000001800da234     Zydis.obj
 0002:0008323c       ??_C@_05EPDAGJLO@andps@    00000001800da23c     Zydis.obj
 0002:00083244       ??_C@_03DKDCHOM@aor@       00000001800da244     Zydis.obj
 0002:00083248       ??_C@_04MBAAHCPD@arpl@     00000001800da248     Zydis.obj
 0002:00083250       ??_C@_04GNIGEJAF@axor@     00000001800da250     Zydis.obj
 0002:00083258       ??_C@_05LKKJFLLL@bextr@    00000001800da258     Zydis.obj
 0002:00083260       ??_C@_07BCLMPALO@blcfill@  00000001800da260     Zydis.obj
 0002:00083268       ??_C@_04FFHBMBOD@blci@     00000001800da268     Zydis.obj
 0002:00083270       ??_C@_05HHIGPKGH@blcic@    00000001800da270     Zydis.obj
 0002:00083278       ??_C@_06MGOMPEEK@blcmsk@   00000001800da278     Zydis.obj
 0002:00083280       ??_C@_04OFFMDLDI@blcs@     00000001800da280     Zydis.obj
 0002:00083288       ??_C@_07NLBKFAKD@blendpd@  00000001800da288     Zydis.obj
 0002:00083290       ??_C@_07NOJJNEDF@blendps@  00000001800da290     Zydis.obj
 0002:00083298       ??_C@_08HANBBCNB@blendvpd@ 00000001800da298     Zydis.obj
 0002:000832a8       ??_C@_08HFFCJGEH@blendvps@ 00000001800da2a8     Zydis.obj
 0002:000832b8       ??_C@_07BBGKPCCF@blsfill@  00000001800da2b8     Zydis.obj
 0002:000832c0       ??_C@_04EJFHGCJD@blsi@     00000001800da2c0     Zydis.obj
 0002:000832c8       ??_C@_05CHJPKNPI@blsic@    00000001800da2c8     Zydis.obj
 0002:000832d0       ??_C@_06KGAMGDMI@blsmsk@   00000001800da2d0     Zydis.obj
 0002:000832d8       ??_C@_04OAGBKJAJ@blsr@     00000001800da2d8     Zydis.obj
 0002:000832e0       ??_C@_05BKJOAIKH@bndcl@    00000001800da2e0     Zydis.obj
 0002:000832e8       ??_C@_05CIKIGKCF@bndcn@    00000001800da2e8     Zydis.obj
 0002:000832f0       ??_C@_05IBJOKBLP@bndcu@    00000001800da2f0     Zydis.obj
 0002:000832f8       ??_C@_06PJDOBKFD@bndldx@   00000001800da2f8     Zydis.obj
 0002:00083300       ??_C@_05FPEBLDGK@bndmk@    00000001800da300     Zydis.obj
 0002:00083308       ??_C@_06NDFELPFJ@bndmov@   00000001800da308     Zydis.obj
 0002:00083310       ??_C@_06ONGCPOOK@bndstx@   00000001800da310     Zydis.obj
 0002:00083318       ??_C@_05PFKAILG@bound@     00000001800da318     Zydis.obj
 0002:00083320       ??_C@_03CKIEAFED@bsf@      00000001800da320     Zydis.obj
 0002:00083324       ??_C@_03ECKNCBG@bsr@       00000001800da324     Zydis.obj
 0002:00083328       ??_C@_05CFLBCKNG@bswap@    00000001800da328     Zydis.obj
 0002:00083330       ??_C@_02LOIFFB@bt@         00000001800da330     Zydis.obj
 0002:00083334       ??_C@_03FCLMOHID@btc@      00000001800da334     Zydis.obj
 0002:00083338       ??_C@_03BGFMEJD@btr@       00000001800da338     Zydis.obj
 0002:0008333c       ??_C@_03BIHOPFNC@bts@      00000001800da33c     Zydis.obj
 0002:00083340       ??_C@_04CMFGCGEB@bzhi@     00000001800da340     Zydis.obj
 0002:00083348       ??_C@_04OMFAIDPG@call@     00000001800da348     Zydis.obj
 0002:00083350       ??_C@_03NMAFIIHB@cbw@      00000001800da350     Zydis.obj
 0002:00083354       ??_C@_03IONCFDEF@cdq@      00000001800da354     Zydis.obj
 0002:00083358       ??_C@_04BOLCPIKO@cdqe@     00000001800da358     Zydis.obj
 0002:00083360       ??_C@_04JBHKNELH@clac@     00000001800da360     Zydis.obj
 0002:00083368       ??_C@_03PIDFHCCO@clc@      00000001800da368     Zydis.obj
 0002:0008336c       ??_C@_03LHHEOEOJ@cld@      00000001800da36c     Zydis.obj
 0002:00083370       ??_C@_08JFAJBOBM@cldemote@ 00000001800da370     Zydis.obj
 0002:00083380       ??_C@_08MOKGNFPE@clevict0@ 00000001800da380     Zydis.obj
 0002:00083390       ??_C@_08NHLNOELF@clevict1@ 00000001800da390     Zydis.obj
 0002:000833a0       ??_C@_07KNLCLAFM@clflush@  00000001800da3a0     Zydis.obj
 0002:000833a8       ??_C@_0L@NIOLJIJG@clflushopt@ 00000001800da3a8     Zydis.obj
 0002:000833b4       ??_C@_04GPBIEAIP@clgi@     00000001800da3b4     Zydis.obj
 0002:000833bc       ??_C@_03CNKJKKE@cli@       00000001800da3bc     Zydis.obj
 0002:000833c0       ??_C@_08IKAKOMII@clrssbsy@ 00000001800da3c0     Zydis.obj
 0002:000833cc       ??_C@_04MBFFKHHN@clts@     00000001800da3cc     Zydis.obj
 0002:000833d4       ??_C@_04HALKDHJB@clui@     00000001800da3d4     Zydis.obj
 0002:000833dc       ??_C@_04JAMKDKDE@clwb@     00000001800da3dc     Zydis.obj
 0002:000833e4       ??_C@_06KNHBINNB@clzero@   00000001800da3e4     Zydis.obj
 0002:000833ec       ??_C@_03PJPHBIBJ@cmc@      00000001800da3ec     Zydis.obj
 0002:000833f0       ??_C@_05MFANGKMG@cmovb@    00000001800da3f0     Zydis.obj
 0002:000833f8       ??_C@_06GKEIPFAN@cmovbe@   00000001800da3f8     Zydis.obj
 0002:00083400       ??_C@_05FLIOEHEI@cmovl@    00000001800da400     Zydis.obj
 0002:00083408       ??_C@_06GANGNIAH@cmovle@   00000001800da408     Zydis.obj
 0002:00083410       ??_C@_06CMBDJKKO@cmovnb@   00000001800da410     Zydis.obj
 0002:00083418       ??_C@_07CJMIACJH@cmovnbe@  00000001800da418     Zydis.obj
 0002:00083420       ??_C@_06LCJALHCA@cmovnl@   00000001800da420     Zydis.obj
 0002:00083428       ??_C@_07CDFGCPJN@cmovnle@  00000001800da428     Zydis.obj
 0002:00083430       ??_C@_06JJLNOEOD@cmovno@   00000001800da430     Zydis.obj
 0002:00083438       ??_C@_06FEOHOKHN@cmovnp@   00000001800da438     Zydis.obj
 0002:00083440       ??_C@_06HPMKLJLO@cmovns@   00000001800da440     Zydis.obj
 0002:00083448       ??_C@_06KOAIACPH@cmovnz@   00000001800da448     Zydis.obj
 0002:00083450       ??_C@_05HAKDBEIL@cmovo@    00000001800da450     Zydis.obj
 0002:00083458       ??_C@_05LNPJBKBF@cmovp@    00000001800da458     Zydis.obj
 0002:00083460       ??_C@_05JGNEEJNG@cmovs@    00000001800da460     Zydis.obj
 0002:00083468       ??_C@_05EHBGPCJP@cmovz@    00000001800da468     Zydis.obj
 0002:00083470       ??_C@_03JIBIFJIL@cmp@      00000001800da470     Zydis.obj
 0002:00083474       ??_C@_05JPKAPGDL@cmppd@    00000001800da474     Zydis.obj
 0002:0008347c       ??_C@_05JKCDHCKN@cmpps@    00000001800da47c     Zydis.obj
 0002:00083484       ??_C@_05MLLMOPOE@cmpsb@    00000001800da484     Zydis.obj
 0002:0008348c       ??_C@_05JNOGEIGC@cmpsd@    00000001800da48c     Zydis.obj
 0002:00083494       ??_C@_05KKFDKOHG@cmpsq@    00000001800da494     Zydis.obj
 0002:0008349c       ??_C@_05JIGFMMPE@cmpss@    00000001800da49c     Zydis.obj
 0002:000834a4       ??_C@_05PMAJAJPA@cmpsw@    00000001800da4a4     Zydis.obj
 0002:000834b0       ??_C@_07KJLDDDDB@cmpxchg@  00000001800da4b0     Zydis.obj
 0002:000834b8       ??_C@_0L@LMBAAHML@cmpxchg16b@ 00000001800da4b8     Zydis.obj
 0002:000834c8       ??_C@_09EDOHCBK@cmpxchg8b@ 00000001800da4c8     Zydis.obj
 0002:000834d4       ??_C@_06FBMFLIKJ@comisd@   00000001800da4d4     Zydis.obj
 0002:000834dc       ??_C@_06FEEGDMDP@comiss@   00000001800da4dc     Zydis.obj
 0002:000834e4       ??_C@_05CDPJMNMF@cpuid@    00000001800da4e4     Zydis.obj
 0002:000834ec       ??_C@_03EAHOANAB@cqo@      00000001800da4ec     Zydis.obj
 0002:000834f0       ??_C@_05KBIBMHFC@crc32@    00000001800da4f0     Zydis.obj
 0002:000834f8       ??_C@_08FGJFEIPF@cvtdq2pd@ 00000001800da4f8     Zydis.obj
 0002:00083508       ??_C@_08FDBGMMGD@cvtdq2ps@ 00000001800da508     Zydis.obj
 0002:00083518       ??_C@_08EKEIPNDC@cvtpd2dq@ 00000001800da518     Zydis.obj
 0002:00083528       ??_C@_08NDHMGOMH@cvtpd2pi@ 00000001800da528     Zydis.obj
 0002:00083538       ??_C@_08GDFBJEBM@cvtpd2ps@ 00000001800da538     Zydis.obj
 0002:00083548       ??_C@_08JOECNEDL@cvtpi2pd@ 00000001800da548     Zydis.obj
 0002:00083558       ??_C@_08JLMBFAKN@cvtpi2ps@ 00000001800da558     Zydis.obj
 0002:00083568       ??_C@_08JIIILGKA@cvtps2dq@ 00000001800da568     Zydis.obj
 0002:00083578       ??_C@_08LEBCFLBI@cvtps2pd@ 00000001800da578     Zydis.obj
 0002:00083588       ??_C@_08BLMCFFF@cvtps2pi@  00000001800da588     Zydis.obj
 0002:00083598       ??_C@_08FHKOKCDA@cvtsd2si@ 00000001800da598     Zydis.obj
 0002:000835a8       ??_C@_08OHIDFIOL@cvtsd2ss@ 00000001800da5a8     Zydis.obj
 0002:000835b8       ??_C@_08BKJABIMM@cvtsi2sd@ 00000001800da5b8     Zydis.obj
 0002:000835c8       ??_C@_08BPBDJMFK@cvtsi2ss@ 00000001800da5c8     Zydis.obj
 0002:000835d8       ??_C@_08DAMAJHOP@cvtss2sd@ 00000001800da5d8     Zydis.obj
 0002:000835e8       ??_C@_08IFGOOJKC@cvtss2si@ 00000001800da5e8     Zydis.obj
 0002:000835f8       ??_C@_09NBGJDONK@cvttpd2dq@ 00000001800da5f8     Zydis.obj
 0002:00083608       ??_C@_09EIFNKNCP@cvttpd2pi@ 00000001800da608     Zydis.obj
 0002:00083618       ??_C@_09DKJHFEI@cvttps2dq@ 00000001800da618     Zydis.obj
 0002:00083628       ??_C@_09JKJNOGLN@cvttps2pi@ 00000001800da628     Zydis.obj
 0002:00083638       ??_C@_09MMIPGBNI@cvttsd2si@ 00000001800da638     Zydis.obj
 0002:00083648       ??_C@_09BOEPCKEK@cvttss2si@ 00000001800da648     Zydis.obj
 0002:00083654       ??_C@_03KHAHKIHI@cwd@      00000001800da654     Zydis.obj
 0002:00083658       ??_C@_04EGPDGBEE@cwde@     00000001800da658     Zydis.obj
 0002:00083660       ??_C@_03FPAMLLEG@daa@      00000001800da660     Zydis.obj
 0002:00083664       ??_C@_03CHPIMLJF@das@      00000001800da664     Zydis.obj
 0002:00083668       ??_C@_03GKDDHBBI@dec@      00000001800da668     Zydis.obj
 0002:0008366c       ??_C@_05EKJCMADO@delay@    00000001800da66c     Zydis.obj
 0002:00083674       ??_C@_03FEJMGOGI@div@      00000001800da674     Zydis.obj
 0002:00083678       ??_C@_05FCEODPJP@divpd@    00000001800da678     Zydis.obj
 0002:00083680       ??_C@_05FHMNLLAJ@divps@    00000001800da680     Zydis.obj
 0002:00083688       ??_C@_05FAAIIBMG@divsd@    00000001800da688     Zydis.obj
 0002:00083690       ??_C@_05FFILAFFA@divss@    00000001800da690     Zydis.obj
 0002:00083698       ??_C@_04GLDALPAA@dppd@     00000001800da698     Zydis.obj
 0002:000836a0       ??_C@_04GOLDDLJG@dpps@     00000001800da6a0     Zydis.obj
 0002:000836a8       ??_C@_04OFFOKNEH@emms@     00000001800da6a8     Zydis.obj
 0002:000836b0       ??_C@_05FMEKEJAF@encls@    00000001800da6b0     Zydis.obj
 0002:000836b8       ??_C@_05KBAOOID@enclu@     00000001800da6b8     Zydis.obj
 0002:000836c0       ??_C@_05CBDNLNEA@enclv@    00000001800da6c0     Zydis.obj
 0002:000836c8       ??_C@_0N@PMHKIBM@encodekey128@ 00000001800da6c8     Zydis.obj
 0002:000836d8       ??_C@_0N@IGLODMPJ@encodekey256@ 00000001800da6d8     Zydis.obj
 0002:000836e8       ??_C@_07KDKDLHDP@endbr32@  00000001800da6e8     Zydis.obj
 0002:000836f0       ??_C@_07PDDCNCFC@endbr64@  00000001800da6f0     Zydis.obj
 0002:000836f8       ??_C@_06CFFMEKKL@enqcmd@   00000001800da6f8     Zydis.obj
 0002:00083700       ??_C@_07EFDDAMBP@enqcmds@  00000001800da700     Zydis.obj
 0002:00083708       ??_C@_05IHEOCMON@enter@    00000001800da708     Zydis.obj
 0002:00083710       ??_C@_09JKKJMDNE@extractps@ 00000001800da710     Zydis.obj
 0002:0008371c       ??_C@_05FKKKKIPJ@extrq@    00000001800da71c     Zydis.obj
 0002:00083724       ??_C@_05GDKIIOEP@f2xm1@    00000001800da724     Zydis.obj
 0002:0008372c       ??_C@_04ODHECPBC@fabs@     00000001800da72c     Zydis.obj
 0002:00083734       ??_C@_04OCHKNHDG@fadd@     00000001800da734     Zydis.obj
 0002:0008373c       ??_C@_05OAGHJGLI@faddp@    00000001800da73c     Zydis.obj
 0002:00083744       ??_C@_04PONMCJGA@fbld@     00000001800da744     Zydis.obj
 0002:0008374c       ??_C@_05HGCPCADO@fbstp@    00000001800da74c     Zydis.obj
 0002:00083754       ??_C@_04EEOKGCEP@fchs@     00000001800da754     Zydis.obj
 0002:0008375c       ??_C@_06BMFGNME@fcmovb@    00000001800da75c     Zydis.obj
 0002:00083768       ??_C@_07IEICFMCG@fcmovbe@  00000001800da768     Zydis.obj
 0002:00083770       ??_C@_06EOIEPLAD@fcmove@   00000001800da770     Zydis.obj
 0002:00083778       ??_C@_07MCNJDDIF@fcmovnb@  00000001800da778     Zydis.obj
 0002:00083780       ??_C@_08IFJKDBHO@fcmovnbe@ 00000001800da780     Zydis.obj
 0002:00083790       ??_C@_07INJIKFEC@fcmovne@  00000001800da790     Zydis.obj
 0002:00083798       ??_C@_07MHFKLHBD@fcmovnu@  00000001800da798     Zydis.obj
 0002:000837a0       ??_C@_06EEGOJFC@fcmovu@    00000001800da7a0     Zydis.obj
 0002:000837a8       ??_C@_04JFOEELBF@fcom@     00000001800da7a8     Zydis.obj
 0002:000837b0       ??_C@_05NJHHNAEO@fcomi@    00000001800da7b0     Zydis.obj
 0002:000837b8       ??_C@_06LOICGCLB@fcomip@   00000001800da7b8     Zydis.obj
 0002:000837c0       ??_C@_05ECHHHJFG@fcomp@    00000001800da7c0     Zydis.obj
 0002:000837c8       ??_C@_06KNHFPKEO@fcompp@   00000001800da7c8     Zydis.obj
 0002:000837d0       ??_C@_04EBKFHEMK@fcos@     00000001800da7d0     Zydis.obj
 0002:000837d8       ??_C@_07HAEGMECA@fdecstp@  00000001800da7d8     Zydis.obj
 0002:000837e0       ??_C@_0O@PEABHPOI@fdisi8087_nop@ 00000001800da7e0     Zydis.obj
 0002:000837f0       ??_C@_04KFIIMEIE@fdiv@     00000001800da7f0     Zydis.obj
 0002:000837f8       ??_C@_05MFEPLGAL@fdivp@    00000001800da7f8     Zydis.obj
 0002:00083800       ??_C@_05PHHJNEIJ@fdivr@    00000001800da800     Zydis.obj
 0002:00083808       ??_C@_06LLKMDLKG@fdivrp@   00000001800da808     Zydis.obj
 0002:00083810       ??_C@_05EMBDBHLO@femms@    00000001800da810     Zydis.obj
 0002:00083818       ??_C@_0N@FOOFPFDE@feni8087_nop@ 00000001800da818     Zydis.obj
 0002:00083828       ??_C@_05BBECMOMI@ffree@    00000001800da828     Zydis.obj
 0002:00083830       ??_C@_06LKJBHBLK@ffreep@   00000001800da830     Zydis.obj
 0002:00083838       ??_C@_05MJGHPKBO@fiadd@    00000001800da838     Zydis.obj
 0002:00083840       ??_C@_05LOPJGGDN@ficom@    00000001800da840     Zydis.obj
 0002:00083848       ??_C@_06HHOJMMIB@ficomp@   00000001800da848     Zydis.obj
 0002:00083850       ??_C@_05IOJFOJKM@fidiv@    00000001800da850     Zydis.obj
 0002:00083858       ??_C@_06MCOHGBFO@fidivr@   00000001800da858     Zydis.obj
 0002:00083860       ??_C@_04CJNNKOGB@fild@     00000001800da860     Zydis.obj
 0002:00083868       ??_C@_05FGIMAGOJ@fimul@    00000001800da868     Zydis.obj
 0002:00083870       ??_C@_07HLFGFFCD@fincstp@  00000001800da870     Zydis.obj
 0002:00083878       ??_C@_04HEGFFIHN@fist@     00000001800da878     Zydis.obj
 0002:00083880       ??_C@_05BPPBBCP@fistp@     00000001800da880     Zydis.obj
 0002:00083888       ??_C@_06IDOGBDGC@fisttp@   00000001800da888     Zydis.obj
 0002:00083890       ??_C@_05HIMJALML@fisub@    00000001800da890     Zydis.obj
 0002:00083898       ??_C@_06BBMHMJEH@fisubr@   00000001800da898     Zydis.obj
 0002:000838a0       ??_C@_03IAKKBENL@fld@      00000001800da8a0     Zydis.obj
 0002:000838a4       ??_C@_04NHNMKGPK@fld1@     00000001800da8a4     Zydis.obj
 0002:000838ac       ??_C@_05FCPJNCEL@fldcw@    00000001800da8ac     Zydis.obj
 0002:000838b4       ??_C@_06KOKFHIJJ@fldenv@   00000001800da8b4     Zydis.obj
 0002:000838bc       ??_C@_06NHOEKBFF@fldl2e@   00000001800da8bc     Zydis.obj
 0002:000838c4       ??_C@_06IEDNICEF@fldl2t@   00000001800da8c4     Zydis.obj
 0002:000838cc       ??_C@_06EIGJIGJN@fldlg2@   00000001800da8cc     Zydis.obj
 0002:000838d4       ??_C@_06EHLILNBC@fldln2@   00000001800da8d4     Zydis.obj
 0002:000838dc       ??_C@_05JINIPALN@fldpi@    00000001800da8dc     Zydis.obj
 0002:000838e4       ??_C@_04MEFBDADE@fldz@     00000001800da8e4     Zydis.obj
 0002:000838ec       ??_C@_04HNJBCLMB@fmul@     00000001800da8ec     Zydis.obj
 0002:000838f4       ??_C@_05MDCBBKPL@fmulp@    00000001800da8f4     Zydis.obj
 0002:000838fc       ??_C@_06LOJDIIGH@fnclex@   00000001800da8fc     Zydis.obj
 0002:00083904       ??_C@_06PLIFOOCF@fninit@   00000001800da904     Zydis.obj
 0002:0008390c       ??_C@_04JIOCPPNE@fnop@     00000001800da90c     Zydis.obj
 0002:00083914       ??_C@_06MNBFLGAN@fnsave@   00000001800da914     Zydis.obj
 0002:0008391c       ??_C@_06MIMLAAOI@fnstcw@   00000001800da91c     Zydis.obj
 0002:00083928       ??_C@_07OBOALIBJ@fnstenv@  00000001800da928     Zydis.obj
 0002:00083930       ??_C@_06NEONKDJI@fnstsw@   00000001800da930     Zydis.obj
 0002:00083938       ??_C@_06HDLDNKJH@fpatan@   00000001800da938     Zydis.obj
 0002:00083940       ??_C@_05DGDLCGOC@fprem@    00000001800da940     Zydis.obj
 0002:00083948       ??_C@_06IIGPLPMA@fprem1@   00000001800da948     Zydis.obj
 0002:00083950       ??_C@_05DPHEICCB@fptan@    00000001800da950     Zydis.obj
 0002:00083958       ??_C@_07OGNGBFFO@frndint@  00000001800da958     Zydis.obj
 0002:00083960       ??_C@_06MILCMPCJ@frstor@   00000001800da960     Zydis.obj
 0002:00083968       ??_C@_06DAMBGGM@fscale@    00000001800da968     Zydis.obj
 0002:00083970       ??_C@_0O@LABPCOAO@fsetpm287_nop@ 00000001800da970     Zydis.obj
 0002:00083980       ??_C@_04OKFNDDPL@fsin@     00000001800da980     Zydis.obj
 0002:00083988       ??_C@_07DGCKCKGH@fsincos@  00000001800da988     Zydis.obj
 0002:00083990       ??_C@_05OBEHOPDB@fsqrt@    00000001800da990     Zydis.obj
 0002:00083998       ??_C@_03NNBCOCMH@fst@      00000001800da998     Zydis.obj
 0002:0008399c       ??_C@_04CKOCDMAH@fstp@     00000001800da99c     Zydis.obj
 0002:000839a8       ??_C@_07LBFKIGKP@fstpnce@  00000001800da9a8     Zydis.obj
 0002:000839b0       ??_C@_04FDNECGOD@fsub@     00000001800da9b0     Zydis.obj
 0002:000839b8       ??_C@_05BGGPBOBC@fsubp@    00000001800da9b8     Zydis.obj
 0002:000839c0       ??_C@_05CEFJHMJA@fsubr@    00000001800da9c0     Zydis.obj
 0002:000839c8       ??_C@_06NPBELDMO@fsubrp@   00000001800da9c8     Zydis.obj
 0002:000839d0       ??_C@_04NGBGNHDP@ftst@     00000001800da9d0     Zydis.obj
 0002:000839d8       ??_C@_05BLOJBMLO@fucom@    00000001800da9d8     Zydis.obj
 0002:000839e0       ??_C@_06JIPNKHHJ@fucomi@   00000001800da9e0     Zydis.obj
 0002:000839e8       ??_C@_07GHOENMJ@fucomip@   00000001800da9e8     Zydis.obj
 0002:000839f0       ??_C@_06DPNAOGB@fucomp@    00000001800da9f0     Zydis.obj
 0002:000839f8       ??_C@_07BFIJNFDG@fucompp@  00000001800da9f8     Zydis.obj
 0002:00083a00       ??_C@_05FEKNFCPP@fwait@    00000001800daa00     Zydis.obj
 0002:00083a08       ??_C@_04BIGCLGIB@fxam@     00000001800daa08     Zydis.obj
 0002:00083a10       ??_C@_04GGJBJGKK@fxch@     00000001800daa10     Zydis.obj
 0002:00083a18       ??_C@_07BBJJIBJB@fxrstor@  00000001800daa18     Zydis.obj
 0002:00083a20       ??_C@_09GJCJHDKB@fxrstor64@ 00000001800daa20     Zydis.obj
 0002:00083a2c       ??_C@_06BIJKFHIL@fxsave@   00000001800daa2c     Zydis.obj
 0002:00083a38       ??_C@_08LGLEPHJI@fxsave64@ 00000001800daa38     Zydis.obj
 0002:00083a48       ??_C@_07MCCHLCHD@fxtract@  00000001800daa48     Zydis.obj
 0002:00083a50       ??_C@_05NFKLLKBO@fyl2x@    00000001800daa50     Zydis.obj
 0002:00083a58       ??_C@_07GNFJNPAE@fyl2xp1@  00000001800daa58     Zydis.obj
 0002:00083a60       ??_C@_06BKPLENB@getsec@    00000001800daa60     Zydis.obj
 0002:00083a68       ??_C@_0BB@KCJGNBIA@gf2p8affineinvqb@ 00000001800daa68     Zydis.obj
 0002:00083a80       ??_C@_0O@KGFFEADP@gf2p8affineqb@ 00000001800daa80     Zydis.obj
 0002:00083a90       ??_C@_09OINLKJHG@gf2p8mulb@ 00000001800daa90     Zydis.obj
 0002:00083a9c       ??_C@_06JEPEIJNG@haddpd@   00000001800daa9c     Zydis.obj
 0002:00083aa4       ??_C@_06JBHHANEA@haddps@   00000001800daaa4     Zydis.obj
 0002:00083aac       ??_C@_03CKLHHBLJ@hlt@      00000001800daaac     Zydis.obj
 0002:00083ab0       ??_C@_06LBDHMMLP@hreset@   00000001800daab0     Zydis.obj
 0002:00083ab8       ??_C@_06KCABMLKI@hsubpd@   00000001800daab8     Zydis.obj
 0002:00083ac0       ??_C@_06KHICEPDO@hsubps@   00000001800daac0     Zydis.obj
 0002:00083ac8       ??_C@_04CHNIFDFF@idiv@     00000001800daac8     Zydis.obj
 0002:00083ad0       ??_C@_04PPMBLMBA@imul@     00000001800daad0     Zydis.obj
 0002:00083ad8       ??_C@_02LMMGJAGL@in@       00000001800daad8     Zydis.obj
 0002:00083adc       ??_C@_03JEAMEGCE@inc@      00000001800daadc     Zydis.obj
 0002:00083ae0       ??_C@_07JCAIICNE@incsspd@  00000001800daae0     Zydis.obj
 0002:00083ae8       ??_C@_07KFLNGEMA@incsspq@  00000001800daae8     Zydis.obj
 0002:00083af0       ??_C@_04HHHKECMC@insb@     00000001800daaf0     Zydis.obj
 0002:00083af8       ??_C@_04CBCAOFEE@insd@     00000001800daaf8     Zydis.obj
 0002:00083b00       ??_C@_08JOECPMHJ@insertps@ 00000001800dab00     Zydis.obj
 0002:00083b10       ??_C@_07PGHOMLMA@insertq@  00000001800dab10     Zydis.obj
 0002:00083b18       ??_C@_04EAMPKENG@insw@     00000001800dab18     Zydis.obj
 0002:00083b20       ??_C@_03JBIPMCLC@int@      00000001800dab20     Zydis.obj
 0002:00083b24       ??_C@_04ODKDFKNA@int1@     00000001800dab24     Zydis.obj
 0002:00083b2c       ??_C@_04NBJFDIFC@int3@     00000001800dab2c     Zydis.obj
 0002:00083b34       ??_C@_04MHJLCKAK@into@     00000001800dab34     Zydis.obj
 0002:00083b3c       ??_C@_04CHOLCHKP@invd@     00000001800dab3c     Zydis.obj
 0002:00083b44       ??_C@_06CLILIBGB@invept@   00000001800dab44     Zydis.obj
 0002:00083b4c       ??_C@_06DHGMIPHJ@invlpg@   00000001800dab4c     Zydis.obj
 0002:00083b58       ??_C@_07FFAIPPPB@invlpga@  00000001800dab58     Zydis.obj
 0002:00083b60       ??_C@_07HOCFKMDC@invlpgb@  00000001800dab60     Zydis.obj
 0002:00083b68       ??_C@_07MFFNKEEM@invpcid@  00000001800dab68     Zydis.obj
 0002:00083b70       ??_C@_07ILBKJJN@invvpid@   00000001800dab70     Zydis.obj
 0002:00083b78       ??_C@_04GJIGMAPA@iret@     00000001800dab78     Zydis.obj
 0002:00083b80       ??_C@_05LMEFNKHP@iretd@    00000001800dab80     Zydis.obj
 0002:00083b88       ??_C@_05ILPADMGL@iretq@    00000001800dab88     Zydis.obj
 0002:00083b90       ??_C@_02BCDFGBDO@jb@       00000001800dab90     Zydis.obj
 0002:00083b94       ??_C@_03NJPJLHCI@jbe@      00000001800dab94     Zydis.obj
 0002:00083b98       ??_C@_04EMPOJHHH@jcxz@     00000001800dab98     Zydis.obj
 0002:00083ba0       ??_C@_05BACBHKCE@jecxz@    00000001800daba0     Zydis.obj
 0002:00083ba8       ??_C@_05IKLOPHCJ@jknzd@    00000001800daba8     Zydis.obj
 0002:00083bb0       ??_C@_04FOIPFECJ@jkzd@     00000001800dabb0     Zydis.obj
 0002:00083bb8       ??_C@_02IMLGEMLA@jl@       00000001800dabb8     Zydis.obj
 0002:00083bbc       ??_C@_03NDGHJKCC@jle@      00000001800dabbc     Zydis.obj
 0002:00083bc0       ??_C@_03OFBABGAB@jmp@      00000001800dabc0     Zydis.obj
 0002:00083bc4       ??_C@_03JPKCNIIL@jnb@      00000001800dabc4     Zydis.obj
 0002:00083bc8       ??_C@_04GCHPGHJC@jnbe@     00000001800dabc8     Zydis.obj
 0002:00083bd0       ??_C@_03BCBPFAF@jnl@       00000001800dabd0     Zydis.obj
 0002:00083bd4       ??_C@_04GIOBEKJI@jnle@     00000001800dabd4     Zydis.obj
 0002:00083bdc       ??_C@_03CKAMKGMG@jno@      00000001800dabdc     Zydis.obj
 0002:00083be0       ??_C@_03OHFGKIFI@jnp@      00000001800dabe0     Zydis.obj
 0002:00083be4       ??_C@_03MMHLPLJL@jns@      00000001800dabe4     Zydis.obj
 0002:00083be8       ??_C@_03BNLJEANC@jnz@      00000001800dabe8     Zydis.obj
 0002:00083bec       ??_C@_02KHJLBPHD@jo@       00000001800dabec     Zydis.obj
 0002:00083bf0       ??_C@_02GKMBBBON@jp@       00000001800dabf0     Zydis.obj
 0002:00083bf4       ??_C@_05MCOBDBLG@jrcxz@    00000001800dabf4     Zydis.obj
 0002:00083bfc       ??_C@_02EBOMECCO@js@       00000001800dabfc     Zydis.obj
 0002:00083c00       ??_C@_02JACOPJGH@jz@       00000001800dac00     Zydis.obj
 0002:00083c04       ??_C@_05CEANPFLF@kaddb@    00000001800dac04     Zydis.obj
 0002:00083c0c       ??_C@_05HCFHFCDD@kaddd@    00000001800dac0c     Zydis.obj
 0002:00083c14       ??_C@_05EFOCLECH@kaddq@    00000001800dac14     Zydis.obj
 0002:00083c1c       ??_C@_05BDLIBDKB@kaddw@    00000001800dac1c     Zydis.obj
 0002:00083c24       ??_C@_04BHHNJGFB@kand@     00000001800dac24     Zydis.obj
 0002:00083c2c       ??_C@_05ELLABFNB@kandb@    00000001800dac2c     Zydis.obj
 0002:00083c34       ??_C@_05BNOKLCFH@kandd@    00000001800dac34     Zydis.obj
 0002:00083c3c       ??_C@_05OHAFFKNN@kandn@    00000001800dac3c     Zydis.obj
 0002:00083c44       ??_C@_06KPEOKCBG@kandnb@   00000001800dac44     Zydis.obj
 0002:00083c4c       ??_C@_06PJBEAFJA@kandnd@   00000001800dac4c     Zydis.obj
 0002:00083c54       ??_C@_06MOKBODIE@kandnq@   00000001800dac54     Zydis.obj
 0002:00083c5c       ??_C@_06OFIMLAEH@kandnr@   00000001800dac5c     Zydis.obj
 0002:00083c64       ??_C@_06JIPLEEAC@kandnw@   00000001800dac64     Zydis.obj
 0002:00083c6c       ??_C@_05CKFPFEED@kandq@    00000001800dac6c     Zydis.obj
 0002:00083c74       ??_C@_05HMAFPDMF@kandw@    00000001800dac74     Zydis.obj
 0002:00083c80       ??_C@_08HFHALNIO@kconcath@ 00000001800dac80     Zydis.obj
 0002:00083c90       ??_C@_08BBBMHIIK@kconcatl@ 00000001800dac90     Zydis.obj
 0002:00083ca0       ??_C@_08BBLFGBCO@kextract@ 00000001800daca0     Zydis.obj
 0002:00083cb0       ??_C@_0L@PKBKDHO@kmerge2l1h@ 00000001800dacb0     Zydis.obj
 0002:00083cc0       ??_C@_0L@GLMNGGHK@kmerge2l1l@ 00000001800dacc0     Zydis.obj
 0002:00083ccc       ??_C@_04CEJNDDAN@kmov@     00000001800daccc     Zydis.obj
 0002:00083cd4       ??_C@_05CJFOOIKL@kmovb@    00000001800dacd4     Zydis.obj
 0002:00083cdc       ??_C@_05HPAEEPCN@kmovd@    00000001800dacdc     Zydis.obj
 0002:00083ce4       ??_C@_05EILBKJDJ@kmovq@    00000001800dace4     Zydis.obj
 0002:00083cec       ??_C@_05BOOLAOLP@kmovw@    00000001800dacec     Zydis.obj
 0002:00083cf4       ??_C@_04EBOPOGB@knot@      00000001800dacf4     Zydis.obj
 0002:00083cfc       ??_C@_05GNHKEGBF@knotb@    00000001800dacfc     Zydis.obj
 0002:00083d04       ??_C@_05DLCAOBJD@knotd@    00000001800dad04     Zydis.obj
 0002:00083d0c       ??_C@_05MJFAHIH@knotq@     00000001800dad0c     Zydis.obj
 0002:00083d14       ??_C@_05FKMPKAAB@knotw@    00000001800dad14     Zydis.obj
 0002:00083d1c       ??_C@_03GMBOMHII@kor@      00000001800dad1c     Zydis.obj
 0002:00083d20       ??_C@_04LEMEBMPA@korb@     00000001800dad20     Zydis.obj
 0002:00083d28       ??_C@_04OCJOLLHG@kord@     00000001800dad28     Zydis.obj
 0002:00083d30       ??_C@_04NFCLFNGC@korq@     00000001800dad30     Zydis.obj
 0002:00083d38       ??_C@_07DBAGCHHI@kortest@  00000001800dad38     Zydis.obj
 0002:00083d40       ??_C@_08JCEPGAM@kortestb@  00000001800dad40     Zydis.obj
 0002:00083d50       ??_C@_08FPHOFBIK@kortestd@ 00000001800dad50     Zydis.obj
 0002:00083d60       ??_C@_08GIMLLHJO@kortestq@ 00000001800dad60     Zydis.obj
 0002:00083d70       ??_C@_08DOJBBABI@kortestw@ 00000001800dad70     Zydis.obj
 0002:00083d7c       ??_C@_04IDHBPKOE@korw@     00000001800dad7c     Zydis.obj
 0002:00083d88       ??_C@_08JGJELAAM@kshiftlb@ 00000001800dad88     Zydis.obj
 0002:00083d98       ??_C@_08MAMOBHIK@kshiftld@ 00000001800dad98     Zydis.obj
 0002:00083da8       ??_C@_08PHHLPBJO@kshiftlq@ 00000001800dada8     Zydis.obj
 0002:00083db8       ??_C@_08KBCBFGBI@kshiftlw@ 00000001800dadb8     Zydis.obj
 0002:00083dc8       ??_C@_08IACMDOHG@kshiftrb@ 00000001800dadc8     Zydis.obj
 0002:00083dd8       ??_C@_08NGHGJJPA@kshiftrd@ 00000001800dadd8     Zydis.obj
 0002:00083de8       ??_C@_08OBMDHPOE@kshiftrq@ 00000001800dade8     Zydis.obj
 0002:00083df8       ??_C@_08LHJJNIGC@kshiftrw@ 00000001800dadf8     Zydis.obj
 0002:00083e04       ??_C@_06FHPKEJKP@ktestb@   00000001800dae04     Zydis.obj
 0002:00083e0c       ??_C@_06BKAOOCJ@ktestd@    00000001800dae0c     Zydis.obj
 0002:00083e14       ??_C@_06DGBFAIDN@ktestq@   00000001800dae14     Zydis.obj
 0002:00083e1c       ??_C@_06GAEPKPLL@ktestw@   00000001800dae1c     Zydis.obj
 0002:00083e28       ??_C@_08OKEDNMEF@kunpckbw@ 00000001800dae28     Zydis.obj
 0002:00083e38       ??_C@_08LIJEAHHB@kunpckdq@ 00000001800dae38     Zydis.obj
 0002:00083e48       ??_C@_08JBEBPMEM@kunpckwd@ 00000001800dae48     Zydis.obj
 0002:00083e54       ??_C@_05GANHBNJC@kxnor@    00000001800dae54     Zydis.obj
 0002:00083e5c       ??_C@_06EJKKCMFA@kxnorb@   00000001800dae5c     Zydis.obj
 0002:00083e64       ??_C@_06BPPAILNG@kxnord@   00000001800dae64     Zydis.obj
 0002:00083e6c       ??_C@_06CIEFGNMC@kxnorq@   00000001800dae6c     Zydis.obj
 0002:00083e74       ??_C@_06HOBPMKEE@kxnorw@   00000001800dae74     Zydis.obj
 0002:00083e7c       ??_C@_04CHDGFBKE@kxor@     00000001800dae7c     Zydis.obj
 0002:00083e84       ??_C@_05IGFHFIIF@kxorb@    00000001800dae84     Zydis.obj
 0002:00083e8c       ??_C@_05NAANPPAD@kxord@    00000001800dae8c     Zydis.obj
 0002:00083e94       ??_C@_05OHLIBJBH@kxorq@    00000001800dae94     Zydis.obj
 0002:00083e9c       ??_C@_05LBOCLOJB@kxorw@    00000001800dae9c     Zydis.obj
 0002:00083ea4       ??_C@_04JDOGFEHB@lahf@     00000001800daea4     Zydis.obj
 0002:00083eac       ??_C@_03PLFHNCDL@lar@      00000001800daeac     Zydis.obj
 0002:00083eb0       ??_C@_05OOIGKPHA@lddqu@    00000001800daeb0     Zydis.obj
 0002:00083eb8       ??_C@_07HNIFNPIO@ldmxcsr@  00000001800daeb8     Zydis.obj
 0002:00083ec0       ??_C@_03OEIHCBJB@lds@      00000001800daec0     Zydis.obj
 0002:00083ec8       ??_C@_09IBIEBAIA@ldtilecfg@ 00000001800daec8     Zydis.obj
 0002:00083ed4       ??_C@_03JNLBDLHF@lea@      00000001800daed4     Zydis.obj
 0002:00083ed8       ??_C@_05KLLFHCCG@leave@    00000001800daed8     Zydis.obj
 0002:00083ee0       ??_C@_03OFEFELKG@les@      00000001800daee0     Zydis.obj
 0002:00083ee4       ??_C@_06CIBIHIMB@lfence@   00000001800daee4     Zydis.obj
 0002:00083eec       ??_C@_03OHADPFPP@lfs@      00000001800daeec     Zydis.obj
 0002:00083ef0       ??_C@_04MHGDICBK@lgdt@     00000001800daef0     Zydis.obj
 0002:00083ef8       ??_C@_03OGMBJPMI@lgs@      00000001800daef8     Zydis.obj
 0002:00083efc       ??_C@_04CHLMPFCJ@lidt@     00000001800daefc     Zydis.obj
 0002:00083f04       ??_C@_04BAGCAFBL@lldt@     00000001800daf04     Zydis.obj
 0002:00083f0c       ??_C@_06GMCECJCO@llwpcb@   00000001800daf0c     Zydis.obj
 0002:00083f14       ??_C@_04JKJKIEEI@lmsw@     00000001800daf14     Zydis.obj
 0002:00083f20       ??_C@_09PADCMOK@loadiwkey@ 00000001800daf20     Zydis.obj
 0002:00083f2c       ??_C@_05JPFBMOJJ@lodsb@    00000001800daf2c     Zydis.obj
 0002:00083f34       ??_C@_05MJALGJBP@lodsd@    00000001800daf34     Zydis.obj
 0002:00083f3c       ??_C@_05POLOIPAL@lodsq@    00000001800daf3c     Zydis.obj
 0002:00083f44       ??_C@_05KIOECIIN@lodsw@    00000001800daf44     Zydis.obj
 0002:00083f4c       ??_C@_04GKOOIABA@loop@     00000001800daf4c     Zydis.obj
 0002:00083f54       ??_C@_05FFHGBAG@loope@     00000001800daf54     Zydis.obj
 0002:00083f5c       ??_C@_06PNLJICFH@loopne@   00000001800daf5c     Zydis.obj
 0002:00083f64       ??_C@_03DALEJKPK@lsl@      00000001800daf64     Zydis.obj
 0002:00083f68       ??_C@_03PNOOJEGE@lss@      00000001800daf68     Zydis.obj
 0002:00083f6c       ??_C@_03OBLKLDKA@ltr@      00000001800daf6c     Zydis.obj
 0002:00083f70       ??_C@_06MBAFKPDA@lwpins@   00000001800daf70     Zydis.obj
 0002:00083f78       ??_C@_06PHJKBFK@lwpval@    00000001800daf78     Zydis.obj
 0002:00083f80       ??_C@_05KCOAGLCG@lzcnt@    00000001800daf80     Zydis.obj
 0002:00083f88       ??_C@_0L@KDNMNDNK@maskmovdqu@ 00000001800daf88     Zydis.obj
 0002:00083f98       ??_C@_08HDJHBAFE@maskmovq@ 00000001800daf98     Zydis.obj
 0002:00083fa4       ??_C@_05KFOOFCKF@maxpd@    00000001800dafa4     Zydis.obj
 0002:00083fac       ??_C@_05KAGNNGDD@maxps@    00000001800dafac     Zydis.obj
 0002:00083fb4       ??_C@_05KHKIOMPM@maxsd@    00000001800dafb4     Zydis.obj
 0002:00083fbc       ??_C@_05KCCLGIGK@maxss@    00000001800dafbc     Zydis.obj
 0002:00083fc8       ??_C@_07DGHEKOHE@mcommit@  00000001800dafc8     Zydis.obj
 0002:00083fd0       ??_C@_06IOGPHDHF@mfence@   00000001800dafd0     Zydis.obj
 0002:00083fd8       ??_C@_05OAOMBBCH@minpd@    00000001800dafd8     Zydis.obj
 0002:00083fe0       ??_C@_05OFGPJFLB@minps@    00000001800dafe0     Zydis.obj
 0002:00083fe8       ??_C@_05OCKKKPHO@minsd@    00000001800dafe8     Zydis.obj
 0002:00083ff0       ??_C@_05OHCJCLOI@minss@    00000001800daff0     Zydis.obj
 0002:00083ff8       ??_C@_07LAMOHCEE@monitor@  00000001800daff8     Zydis.obj
 0002:00084000       ??_C@_08JGOHLIAF@monitorx@ 00000001800db000     Zydis.obj
 0002:00084010       ??_C@_07MAFPCABL@montmul@  00000001800db010     Zydis.obj
 0002:00084018       ??_C@_03CNBJFNFA@mov@      00000001800db018     Zydis.obj
 0002:0008401c       ??_C@_06NBDIPDNB@movapd@   00000001800db01c     Zydis.obj
 0002:00084024       ??_C@_06NELLHHEH@movaps@   00000001800db024     Zydis.obj
 0002:0008402c       ??_C@_05PMLINNKI@movbe@    00000001800db02c     Zydis.obj
 0002:00084034       ??_C@_04GKNHOGAK@movd@     00000001800db034     Zydis.obj
 0002:00084040       ??_C@_07NEEFCFLI@movddup@  00000001800db040     Zydis.obj
 0002:00084048       ??_C@_09KDHAKIPE@movdir64b@ 00000001800db048     Zydis.obj
 0002:00084058       ??_C@_07LIGAECPI@movdiri@  00000001800db058     Zydis.obj
 0002:00084060       ??_C@_07NPEMCIBB@movdq2q@  00000001800db060     Zydis.obj
 0002:00084068       ??_C@_06JKFDJNJB@movdqa@   00000001800db068     Zydis.obj
 0002:00084070       ??_C@_06LEPNEKME@movdqu@   00000001800db070     Zydis.obj
 0002:00084078       ??_C@_07PJOHHBHO@movhlps@  00000001800db078     Zydis.obj
 0002:00084080       ??_C@_06KMDALMFL@movhpd@   00000001800db080     Zydis.obj
 0002:00084088       ??_C@_06KJLDDIMN@movhps@   00000001800db088     Zydis.obj
 0002:00084090       ??_C@_07IDAFEAOJ@movlhps@  00000001800db090     Zydis.obj
 0002:00084098       ??_C@_06CDFCCLAM@movlpd@   00000001800db098     Zydis.obj
 0002:000840a0       ??_C@_06CGNBKPJK@movlps@   00000001800db0a0     Zydis.obj
 0002:000840a8       ??_C@_08IBPGOKMO@movmskpd@ 00000001800db0a8     Zydis.obj
 0002:000840b8       ??_C@_08IEHFGOFI@movmskps@ 00000001800db0b8     Zydis.obj
 0002:000840c8       ??_C@_07MKBDJCIA@movntdq@  00000001800db0c8     Zydis.obj
 0002:000840d0       ??_C@_08JBJEMKFE@movntdqa@ 00000001800db0d0     Zydis.obj
 0002:000840dc       ??_C@_06DLPMDFBG@movnti@   00000001800db0dc     Zydis.obj
 0002:000840e8       ??_C@_07OGIJHPDI@movntpd@  00000001800db0e8     Zydis.obj
 0002:000840f0       ??_C@_07ODAKPLKO@movntps@  00000001800db0f0     Zydis.obj
 0002:000840f8       ??_C@_06LJOHKNEP@movntq@   00000001800db0f8     Zydis.obj
 0002:00084100       ??_C@_07OEMPMBGB@movntsd@  00000001800db100     Zydis.obj
 0002:00084108       ??_C@_07OBEMEFPH@movntss@  00000001800db108     Zydis.obj
 0002:00084110       ??_C@_04FNGCAABO@movq@     00000001800db110     Zydis.obj
 0002:00084118       ??_C@_07JGNMJFDC@movq2dq@  00000001800db118     Zydis.obj
 0002:00084120       ??_C@_05KOBNICCI@movsb@    00000001800db120     Zydis.obj
 0002:00084128       ??_C@_05PIEHCFKO@movsd@    00000001800db128     Zydis.obj
 0002:00084130       ??_C@_08NPBMCKFO@movshdup@ 00000001800db130     Zydis.obj
 0002:00084140       ??_C@_08CKJMIMJO@movsldup@ 00000001800db140     Zydis.obj
 0002:0008414c       ??_C@_05MPPCMDLK@movsq@    00000001800db14c     Zydis.obj
 0002:00084154       ??_C@_05PNMEKBDI@movss@    00000001800db154     Zydis.obj
 0002:0008415c       ??_C@_05JJKIGEDM@movsw@    00000001800db15c     Zydis.obj
 0002:00084164       ??_C@_05BODAHIPD@movsx@    00000001800db164     Zydis.obj
 0002:0008416c       ??_C@_06CFDLDNHN@movsxd@   00000001800db16c     Zydis.obj
 0002:00084174       ??_C@_06OEDDDBJ@movupd@    00000001800db174     Zydis.obj
 0002:0008417c       ??_C@_06LMALHIP@movups@    00000001800db17c     Zydis.obj
 0002:00084184       ??_C@_05BBOBEDHM@movzx@    00000001800db184     Zydis.obj
 0002:00084190       ??_C@_07ILNGPEGO@mpsadbw@  00000001800db190     Zydis.obj
 0002:00084198       ??_C@_03IMIFIBCN@mul@      00000001800db198     Zydis.obj
 0002:0008419c       ??_C@_05OPPFKDCP@mulpd@    00000001800db19c     Zydis.obj
 0002:000841a4       ??_C@_05OKHGCHLJ@mulps@    00000001800db1a4     Zydis.obj
 0002:000841ac       ??_C@_05ONLDBNHG@mulsd@    00000001800db1ac     Zydis.obj
 0002:000841b4       ??_C@_05OIDAJJOA@mulss@    00000001800db1b4     Zydis.obj
 0002:000841bc       ??_C@_04KCLFCKAK@mulx@     00000001800db1bc     Zydis.obj
 0002:000841c4       ??_C@_05DOGKKCDM@mwait@    00000001800db1c4     Zydis.obj
 0002:000841cc       ??_C@_06MILHOFNL@mwaitx@   00000001800db1cc     Zydis.obj
 0002:000841d4       ??_C@_03GBOCFEHI@neg@      00000001800db1d4     Zydis.obj
 0002:000841d8       ??_C@_03GJPGFFDI@nop@      00000001800db1d8     Zydis.obj
 0002:000841dc       ??_C@_03NJKJADM@not@       00000001800db1dc     Zydis.obj
 0002:000841e0       ??_C@_02FODMLBIE@or@       00000001800db1e0     Zydis.obj
 0002:000841e4       ??_C@_04LGOJEGJK@orpd@     00000001800db1e4     Zydis.obj
 0002:000841ec       ??_C@_04LDGKMCAM@orps@     00000001800db1ec     Zydis.obj
 0002:000841f4       ??_C@_03KEJHNBPP@out@      00000001800db1f4     Zydis.obj
 0002:000841f8       ??_C@_05GDIMGEIL@outsb@    00000001800db1f8     Zydis.obj
 0002:00084200       ??_C@_05DFNGMDAN@outsd@    00000001800db200     Zydis.obj
 0002:00084208       ??_C@_05FEDJICJP@outsw@    00000001800db208     Zydis.obj
 0002:00084210       ??_C@_05HBBOONME@pabsb@    00000001800db210     Zydis.obj
 0002:00084218       ??_C@_05CHEEEKEC@pabsd@    00000001800db218     Zydis.obj
 0002:00084220       ??_C@_05EGKLALNA@pabsw@    00000001800db220     Zydis.obj
 0002:00084228       ??_C@_08MFCBDIOA@packssdw@ 00000001800db228     Zydis.obj
 0002:00084238       ??_C@_08OMPEMDNN@packsswb@ 00000001800db238     Zydis.obj
 0002:00084248       ??_C@_08EKGBMNEA@packusdw@ 00000001800db248     Zydis.obj
 0002:00084258       ??_C@_08GDLEDGHN@packuswb@ 00000001800db258     Zydis.obj
 0002:00084264       ??_C@_05ENBMAHON@paddb@    00000001800db264     Zydis.obj
 0002:0008426c       ??_C@_05BLEGKAGL@paddd@    00000001800db26c     Zydis.obj
 0002:00084274       ??_C@_05CMPDEGHP@paddq@    00000001800db274     Zydis.obj
 0002:0008427c       ??_C@_06JENJECKA@paddsb@   00000001800db27c     Zydis.obj
 0002:00084284       ??_C@_06KDGMKELE@paddsw@   00000001800db284     Zydis.obj
 0002:00084290       ??_C@_07LJAGOFBE@paddusb@  00000001800db290     Zydis.obj
 0002:00084298       ??_C@_07IOLDADAA@paddusw@  00000001800db298     Zydis.obj
 0002:000842a0       ??_C@_05HKKJOBPJ@paddw@    00000001800db2a0     Zydis.obj
 0002:000842a8       ??_C@_07JOJBOKO@palignr@   00000001800db2a8     Zydis.obj
 0002:000842b0       ??_C@_04ENDAMC@pand@       00000001800db2b0     Zydis.obj
 0002:000842b8       ??_C@_05IOBEKIIF@pandn@    00000001800db2b8     Zydis.obj
 0002:000842c0       ??_C@_05PDJBBECF@pause@    00000001800db2c0     Zydis.obj
 0002:000842c8       ??_C@_05LFEKCGKA@pavgb@    00000001800db2c8     Zydis.obj
 0002:000842d0       ??_C@_07LALIDMFE@pavgusb@  00000001800db2d0     Zydis.obj
 0002:000842d8       ??_C@_05ICPPMALE@pavgw@    00000001800db2d8     Zydis.obj
 0002:000842e0       ??_C@_08PKEFIDIF@pblendvb@ 00000001800db2e0     Zydis.obj
 0002:000842f0       ??_C@_07PABJNHCL@pblendw@  00000001800db2f0     Zydis.obj
 0002:000842f8       ??_C@_06EKMINKGH@pbndkb@   00000001800db2f8     Zydis.obj
 0002:00084300       ??_C@_09EPKDNNCN@pclmulqdq@ 00000001800db300     Zydis.obj
 0002:00084310       ??_C@_07MPGLBHEG@pcmpeqb@  00000001800db310     Zydis.obj
 0002:00084318       ??_C@_07JJDBLAMA@pcmpeqd@  00000001800db318     Zydis.obj
 0002:00084320       ??_C@_07KOIEFGNE@pcmpeqq@  00000001800db320     Zydis.obj
 0002:00084328       ??_C@_07PINOPBFC@pcmpeqw@  00000001800db328     Zydis.obj
 0002:00084330       ??_C@_09MJAIJFNM@pcmpestri@ 00000001800db330     Zydis.obj
 0002:00084340       ??_C@_09KNGEFANI@pcmpestrm@ 00000001800db340     Zydis.obj
 0002:00084350       ??_C@_07GDKJBNCG@pcmpgtb@  00000001800db350     Zydis.obj
 0002:00084358       ??_C@_07DFPDLKKA@pcmpgtd@  00000001800db358     Zydis.obj
 0002:00084360       ??_C@_07CEGFMLE@pcmpgtq@   00000001800db360     Zydis.obj
 0002:00084368       ??_C@_07FEBMPLDC@pcmpgtw@  00000001800db368     Zydis.obj
 0002:00084370       ??_C@_09LOMKFFKH@pcmpistri@ 00000001800db370     Zydis.obj
 0002:00084380       ??_C@_09NKKGJAKD@pcmpistrm@ 00000001800db380     Zydis.obj
 0002:00084390       ??_C@_07NBMKIKIO@pcommit@  00000001800db390     Zydis.obj
 0002:00084398       ??_C@_07CAIEDGMN@pconfig@  00000001800db398     Zydis.obj
 0002:000843a0       ??_C@_04BFGIPIEE@pdep@     00000001800db3a0     Zydis.obj
 0002:000843a8       ??_C@_04NNEGGKAG@pext@     00000001800db3a8     Zydis.obj
 0002:000843b0       ??_C@_06PLIDEHJN@pextrb@   00000001800db3b0     Zydis.obj
 0002:000843b8       ??_C@_06KNNJOABL@pextrd@   00000001800db3b8     Zydis.obj
 0002:000843c0       ??_C@_06JKGMAGAP@pextrq@   00000001800db3c0     Zydis.obj
 0002:000843c8       ??_C@_06MMDGKBIJ@pextrw@   00000001800db3c8     Zydis.obj
 0002:000843d0       ??_C@_05EPNILPFG@pf2id@    00000001800db3d0     Zydis.obj
 0002:000843d8       ??_C@_05CODHPOME@pf2iw@    00000001800db3d8     Zydis.obj
 0002:000843e0       ??_C@_05NELGAMAL@pfacc@    00000001800db3e0     Zydis.obj
 0002:000843e8       ??_C@_05JOLIIMEJ@pfadd@    00000001800db3e8     Zydis.obj
 0002:000843f0       ??_C@_07CCCOOHDB@pfcmpeq@  00000001800db3f0     Zydis.obj
 0002:000843f8       ??_C@_07PAEOEAK@pfcmpge@   00000001800db3f8     Zydis.obj
 0002:00084400       ??_C@_07FMNNMHBK@pfcmpgt@  00000001800db400     Zydis.obj
 0002:00084408       ??_C@_07HKNCCKFF@pfcpit1@  00000001800db408     Zydis.obj
 0002:00084410       ??_C@_05DENCKMEH@pfmax@    00000001800db410     Zydis.obj
 0002:00084418       ??_C@_05CGFJEICI@pfmin@    00000001800db418     Zydis.obj
 0002:00084420       ??_C@_05BFDHALO@pfmul@     00000001800db420     Zydis.obj
 0002:00084428       ??_C@_06PBIPAILK@pfnacc@   00000001800db428     Zydis.obj
 0002:00084430       ??_C@_07HEBANBEP@pfpnacc@  00000001800db430     Zydis.obj
 0002:00084438       ??_C@_05PHPFLFOI@pfrcp@    00000001800db438     Zydis.obj
 0002:00084440       ??_C@_08LDCPBPF@pfrcpit2@  00000001800db440     Zydis.obj
 0002:00084450       ??_C@_08BOKJIJBN@pfrsqit1@ 00000001800db450     Zydis.obj
 0002:0008445c       ??_C@_06CBIBEBMH@pfsqrt@   00000001800db45c     Zydis.obj
 0002:00084464       ??_C@_05CPBGHNJM@pfsub@    00000001800db464     Zydis.obj
 0002:0008446c       ??_C@_06OEJPNCGG@pfsubr@   00000001800db46c     Zydis.obj
 0002:00084474       ??_C@_06DEAFIOGL@phaddd@   00000001800db474     Zydis.obj
 0002:00084480       ??_C@_07KDEDOHJK@phaddsw@  00000001800db480     Zydis.obj
 0002:00084488       ??_C@_06FFOKMPPJ@phaddw@   00000001800db488     Zydis.obj
 0002:00084490       ??_C@_0L@EKOFBFBK@phminposuw@ 00000001800db490     Zydis.obj
 0002:0008449c       ??_C@_06MCANAGMB@phsubd@   00000001800db49c     Zydis.obj
 0002:000844a8       ??_C@_07JFLGKFOE@phsubsw@  00000001800db4a8     Zydis.obj
 0002:000844b0       ??_C@_06KDOCEHFD@phsubw@   00000001800db4b0     Zydis.obj
 0002:000844b8       ??_C@_05MGNEGPLK@pi2fd@    00000001800db4b8     Zydis.obj
 0002:000844c0       ??_C@_05KHDLCOCI@pi2fw@    00000001800db4c0     Zydis.obj
 0002:000844c8       ??_C@_06PODGNNHN@pinsrb@   00000001800db4c8     Zydis.obj
 0002:000844d0       ??_C@_06KIGMHKPL@pinsrd@   00000001800db4d0     Zydis.obj
 0002:000844d8       ??_C@_06JPNJJMOP@pinsrq@   00000001800db4d8     Zydis.obj
 0002:000844e0       ??_C@_06MJIDDLGJ@pinsrw@   00000001800db4e0     Zydis.obj
 0002:000844e8       ??_C@_09CBBJJIHC@pmaddubsw@ 00000001800db4e8     Zydis.obj
 0002:000844f8       ??_C@_07JHJNCBHD@pmaddwd@  00000001800db4f8     Zydis.obj
 0002:00084500       ??_C@_06DBDEOFIM@pmaxsb@   00000001800db500     Zydis.obj
 0002:00084508       ??_C@_06GHGOECAK@pmaxsd@   00000001800db508     Zydis.obj
 0002:00084510       ??_C@_06GIBADJI@pmaxsw@    00000001800db510     Zydis.obj
 0002:00084518       ??_C@_06DFLJJJDO@pmaxub@   00000001800db518     Zydis.obj
 0002:00084520       ??_C@_06GDODDOLI@pmaxud@   00000001800db520     Zydis.obj
 0002:00084528       ??_C@_06CAMHPCK@pmaxuw@    00000001800db528     Zydis.obj
 0002:00084530       ??_C@_06HEDGKGAO@pminsb@   00000001800db530     Zydis.obj
 0002:00084538       ??_C@_06CCGMABII@pminsd@   00000001800db538     Zydis.obj
 0002:00084540       ??_C@_06EDIDEABK@pminsw@   00000001800db540     Zydis.obj
 0002:00084548       ??_C@_06HALLNKLM@pminub@   00000001800db548     Zydis.obj
 0002:00084550       ??_C@_06CGOBHNDK@pminud@   00000001800db550     Zydis.obj
 0002:00084558       ??_C@_06EHAODMKI@pminuw@   00000001800db558     Zydis.obj
 0002:00084560       ??_C@_08JFPNOFE@pmovmskb@  00000001800db560     Zydis.obj
 0002:00084570       ??_C@_08FIAFOMLP@pmovsxbd@ 00000001800db570     Zydis.obj
 0002:00084580       ??_C@_08GPLAAKKL@pmovsxbq@ 00000001800db580     Zydis.obj
 0002:00084590       ??_C@_08DJOKKNCN@pmovsxbw@ 00000001800db590     Zydis.obj
 0002:000845a0       ??_C@_08GLDNHGBJ@pmovsxdq@ 00000001800db5a0     Zydis.obj
 0002:000845b0       ??_C@_08ECOIINCE@pmovsxwd@ 00000001800db5b0     Zydis.obj
 0002:000845c0       ??_C@_08HFFNGLDA@pmovsxwq@ 00000001800db5c0     Zydis.obj
 0002:000845d0       ??_C@_08FFBFIOMO@pmovzxbd@ 00000001800db5d0     Zydis.obj
 0002:000845e0       ??_C@_08GCKAGINK@pmovzxbq@ 00000001800db5e0     Zydis.obj
 0002:000845f0       ??_C@_08DEPKMPFM@pmovzxbw@ 00000001800db5f0     Zydis.obj
 0002:00084600       ??_C@_08GGCNBEGI@pmovzxdq@ 00000001800db600     Zydis.obj
 0002:00084610       ??_C@_08EPPIOPFF@pmovzxwd@ 00000001800db610     Zydis.obj
 0002:00084620       ??_C@_08HIENAJEB@pmovzxwq@ 00000001800db620     Zydis.obj
 0002:0008462c       ??_C@_06DKJOAGB@pmuldq@    00000001800db62c     Zydis.obj
 0002:00084638       ??_C@_08DNGAMAOA@pmulhrsw@ 00000001800db638     Zydis.obj
 0002:00084648       ??_C@_07BCFIBGPO@pmulhrw@  00000001800db648     Zydis.obj
 0002:00084650       ??_C@_07BHBHAAHL@pmulhuw@  00000001800db650     Zydis.obj
 0002:00084658       ??_C@_06FMOJLOID@pmulhw@   00000001800db658     Zydis.obj
 0002:00084660       ??_C@_06DKAPFHMN@pmulld@   00000001800db660     Zydis.obj
 0002:00084668       ??_C@_06FLOABGFP@pmullw@   00000001800db668     Zydis.obj
 0002:00084670       ??_C@_07PONKOBPI@pmuludq@  00000001800db670     Zydis.obj
 0002:00084678       ??_C@_03NJDAHFJE@pop@      00000001800db678     Zydis.obj
 0002:0008467c       ??_C@_04ILFNDNMO@popa@     00000001800db67c     Zydis.obj
 0002:00084684       ??_C@_05HNMGBMCJ@popad@    00000001800db684     Zydis.obj
 0002:0008468c       ??_C@_06KOACKPNP@popcnt@   00000001800db68c     Zydis.obj
 0002:00084694       ??_C@_04MEBMKLAJ@popf@     00000001800db694     Zydis.obj
 0002:0008469c       ??_C@_05HIIJAKKM@popfd@    00000001800db69c     Zydis.obj
 0002:000846a4       ??_C@_05EPDMOMLI@popfq@    00000001800db6a4     Zydis.obj
 0002:000846ac       ??_C@_03OLAGBHBG@por@      00000001800db6ac     Zydis.obj
 0002:000846b0       ??_C@_08FCDJGKEM@prefetch@ 00000001800db6b0     Zydis.obj
 0002:000846c0       ??_C@_0M@HDAHDBCF@prefetchit0@ 00000001800db6c0     Zydis.obj
 0002:000846d0       ??_C@_0M@GKBMAAGE@prefetchit1@ 00000001800db6d0     Zydis.obj
 0002:000846e0       ??_C@_0M@ENHAGFIJ@prefetchnta@ 00000001800db6e0     Zydis.obj
 0002:000846f0       ??_C@_0L@HNBFCMAJ@prefetcht0@ 00000001800db6f0     Zydis.obj
 0002:00084700       ??_C@_0L@GEAOBNEI@prefetcht1@ 00000001800db700     Zydis.obj
 0002:00084710       ??_C@_0L@EPCDEOIL@prefetcht2@ 00000001800db710     Zydis.obj
 0002:00084720       ??_C@_09BPEGNLOA@prefetchw@ 00000001800db720     Zydis.obj
 0002:00084730       ??_C@_0M@NKNKCAMI@prefetchwt1@ 00000001800db730     Zydis.obj
 0002:0008473c       ??_C@_06DIHGEBBD@psadbw@   00000001800db73c     Zydis.obj
 0002:00084744       ??_C@_06ONHPFNFA@pshufb@   00000001800db744     Zydis.obj
 0002:0008474c       ??_C@_06LLCFPKNG@pshufd@   00000001800db74c     Zydis.obj
 0002:00084758       ??_C@_07GGPEEEO@pshufhw@   00000001800db758     Zydis.obj
 0002:00084760       ??_C@_07BGGOMJC@pshuflw@   00000001800db760     Zydis.obj
 0002:00084768       ??_C@_06NKMKLLEE@pshufw@   00000001800db768     Zydis.obj
 0002:00084770       ??_C@_06CEBMLKEM@psignb@   00000001800db770     Zydis.obj
 0002:00084778       ??_C@_06HCEGBNMK@psignd@   00000001800db778     Zydis.obj
 0002:00084780       ??_C@_06BDKJFMFI@psignw@   00000001800db780     Zydis.obj
 0002:00084788       ??_C@_05MKMBBNNO@pslld@    00000001800db788     Zydis.obj
 0002:00084790       ??_C@_06FHIFHGHJ@pslldq@   00000001800db790     Zydis.obj
 0002:00084798       ??_C@_05PNHEPLMK@psllq@    00000001800db798     Zydis.obj
 0002:000847a0       ??_C@_05KLCOFMEM@psllw@    00000001800db7a0     Zydis.obj
 0002:000847a8       ??_C@_06BKOGJLPJ@psmash@   00000001800db7a8     Zydis.obj
 0002:000847b0       ??_C@_05HCNPKOCB@psrad@    00000001800db7b0     Zydis.obj
 0002:000847b8       ??_C@_05BDDAOPLD@psraw@    00000001800db7b8     Zydis.obj
 0002:000847c0       ??_C@_05HKAHDNHC@psrld@    00000001800db7c0     Zydis.obj
 0002:000847c8       ??_C@_06IIFFFPJK@psrldq@   00000001800db7c8     Zydis.obj
 0002:000847d0       ??_C@_05ENLCNLGG@psrlq@    00000001800db7d0     Zydis.obj
 0002:000847d8       ??_C@_05BLOIHMOA@psrlw@    00000001800db7d8     Zydis.obj
 0002:000847e0       ??_C@_05LLBEIPEH@psubb@    00000001800db7e0     Zydis.obj
 0002:000847e8       ??_C@_05ONEOCIMB@psubd@    00000001800db7e8     Zydis.obj
 0002:000847f0       ??_C@_05NKPLMONF@psubq@    00000001800db7f0     Zydis.obj
 0002:000847f8       ??_C@_06KCCMAANO@psubsb@   00000001800db7f8     Zydis.obj
 0002:00084800       ??_C@_06JFJJOGMK@psubsw@   00000001800db800     Zydis.obj
 0002:00084808       ??_C@_07OINEMGN@psubusb@   00000001800db808     Zydis.obj
 0002:00084810       ??_C@_07DJDIKKHJ@psubusw@  00000001800db810     Zydis.obj
 0002:00084818       ??_C@_05IMKBGJFD@psubw@    00000001800db818     Zydis.obj
 0002:00084820       ??_C@_06JOEFOFIP@pswapd@   00000001800db820     Zydis.obj
 0002:00084828       ??_C@_05FIFBHIFI@ptest@    00000001800db828     Zydis.obj
 0002:00084830       ??_C@_07LGMDCMAP@ptwrite@  00000001800db830     Zydis.obj
 0002:00084838       ??_C@_09MMDMOCBC@punpckhbw@ 00000001800db838     Zydis.obj
 0002:00084848       ??_C@_09JOOLDJCG@punpckhdq@ 00000001800db848     Zydis.obj
 0002:00084858       ??_C@_0L@JJJNOAEF@punpckhqdq@ 00000001800db858     Zydis.obj
 0002:00084868       ??_C@_09LHDOMCBL@punpckhwd@ 00000001800db868     Zydis.obj
 0002:00084878       ??_C@_09EDFOHFEF@punpcklbw@ 00000001800db878     Zydis.obj
 0002:00084888       ??_C@_09BBIJKOHB@punpckldq@ 00000001800db888     Zydis.obj
 0002:00084898       ??_C@_0L@GMBNEGIF@punpcklqdq@ 00000001800db898     Zydis.obj
 0002:000848a8       ??_C@_09DIFMFFEM@punpcklwd@ 00000001800db8a8     Zydis.obj
 0002:000848b4       ??_C@_04GHHNIPCF@push@     00000001800db8b4     Zydis.obj
 0002:000848bc       ??_C@_05DHIFPDCO@pusha@    00000001800db8bc     Zydis.obj
 0002:000848c4       ??_C@_06NNHACGJP@pushad@   00000001800db8c4     Zydis.obj
 0002:000848cc       ??_C@_05HIMEGFOJ@pushf@    00000001800db8cc     Zydis.obj
 0002:000848d4       ??_C@_06NIDPDABK@pushfd@   00000001800db8d4     Zydis.obj
 0002:000848dc       ??_C@_06OPIKNGAO@pushfq@   00000001800db8dc     Zydis.obj
 0002:000848e8       ??_C@_09LCHDGOON@pvalidate@ 00000001800db8e8     Zydis.obj
 0002:000848f4       ??_C@_04DAAGPHDH@pxor@     00000001800db8f4     Zydis.obj
 0002:000848fc       ??_C@_03JMFEBJCG@rcl@      00000001800db8fc     Zydis.obj
 0002:00084900       ??_C@_05ONJJBNPC@rcpps@    00000001800db900     Zydis.obj
 0002:00084908       ??_C@_05OPNPKDKL@rcpss@    00000001800db908     Zydis.obj
 0002:00084910       ??_C@_03EIBFCGPJ@rcr@      00000001800db910     Zydis.obj
 0002:00084918       ??_C@_08NIIHFFFD@rdfsbase@ 00000001800db918     Zydis.obj
 0002:00084928       ??_C@_08HOPAFOOH@rdgsbase@ 00000001800db928     Zydis.obj
 0002:00084934       ??_C@_05OGJHMBLI@rdmsr@    00000001800db934     Zydis.obj
 0002:00084940       ??_C@_09DIMKIJKM@rdmsrlist@ 00000001800db940     Zydis.obj
 0002:0008494c       ??_C@_05EJMNNNIL@rdpid@    00000001800db94c     Zydis.obj
 0002:00084954       ??_C@_06JKMJANIP@rdpkru@   00000001800db954     Zydis.obj
 0002:0008495c       ??_C@_05BIFODJA@rdpmc@     00000001800db95c     Zydis.obj
 0002:00084964       ??_C@_05KGHLCAK@rdpru@     00000001800db964     Zydis.obj
 0002:0008496c       ??_C@_06MJFBMHIP@rdrand@   00000001800db96c     Zydis.obj
 0002:00084974       ??_C@_06HHAGJGIJ@rdseed@   00000001800db974     Zydis.obj
 0002:0008497c       ??_C@_06BIJJPPFB@rdsspd@   00000001800db97c     Zydis.obj
 0002:00084984       ??_C@_06CPCMBJEF@rdsspq@   00000001800db984     Zydis.obj
 0002:0008498c       ??_C@_05JIFPPKLN@rdtsc@    00000001800db98c     Zydis.obj
 0002:00084994       ??_C@_06JKHHOJDN@rdtscp@   00000001800db994     Zydis.obj
 0002:0008499c       ??_C@_03BKMCPNMN@ret@      00000001800db99c     Zydis.obj
 0002:000849a0       ??_C@_09MDJGGKOL@rmpadjust@ 00000001800db9a0     Zydis.obj
 0002:000849b0       ??_C@_09POJNNJIH@rmpupdate@ 00000001800db9b0     Zydis.obj
 0002:000849bc       ??_C@_03JFEOOAEC@rol@      00000001800db9bc     Zydis.obj
 0002:000849c0       ??_C@_03EBAPNPJN@ror@      00000001800db9c0     Zydis.obj
 0002:000849c4       ??_C@_04GJBJBDNI@rorx@     00000001800db9c4     Zydis.obj
 0002:000849d0       ??_C@_07JFJPHJIO@roundpd@  00000001800db9d0     Zydis.obj
 0002:000849d8       ??_C@_07JABMPNBI@roundps@  00000001800db9d8     Zydis.obj
 0002:000849e0       ??_C@_07JHNJMHNH@roundsd@  00000001800db9e0     Zydis.obj
 0002:000849e8       ??_C@_07JCFKEDEB@roundss@  00000001800db9e8     Zydis.obj
 0002:000849f0       ??_C@_03JJGJILBH@rsm@      00000001800db9f0     Zydis.obj
 0002:000849f8       ??_C@_07FOPKGEKI@rsqrtps@  00000001800db9f8     Zydis.obj
 0002:00084a00       ??_C@_07FMLMNKPB@rsqrtss@  00000001800dba00     Zydis.obj
 0002:00084a08       ??_C@_08IHOJMMOE@rstorssp@ 00000001800dba08     Zydis.obj
 0002:00084a14       ??_C@_04HBFGFECC@sahf@     00000001800dba14     Zydis.obj
 0002:00084a1c       ??_C@_04LCIAILL@salc@      00000001800dba1c     Zydis.obj
 0002:00084a24       ??_C@_03PDCNJFPC@sar@      00000001800dba24     Zydis.obj
 0002:00084a28       ??_C@_04LEKGENFL@sarx@     00000001800dba28     Zydis.obj
 0002:00084a30       ??_C@_0M@FCAJGJMB@saveprevssp@ 00000001800dba30     Zydis.obj
 0002:00084a3c       ??_C@_03LLKJDJPK@sbb@      00000001800dba3c     Zydis.obj
 0002:00084a40       ??_C@_05JPPPGDOE@scasb@    00000001800dba40     Zydis.obj
 0002:00084a48       ??_C@_05MJKFMEGC@scasd@    00000001800dba48     Zydis.obj
 0002:00084a50       ??_C@_05POBACCHG@scasq@    00000001800dba50     Zydis.obj
 0002:00084a58       ??_C@_05KIEKIFPA@scasw@    00000001800dba58     Zydis.obj
 0002:00084a60       ??_C@_08EPFGKFP@seamcall@  00000001800dba60     Zydis.obj
 0002:00084a70       ??_C@_07PACABPJE@seamops@  00000001800dba70     Zydis.obj
 0002:00084a78       ??_C@_07HPPGHIK@seamret@   00000001800dba78     Zydis.obj
 0002:00084a80       ??_C@_08JHONKPOC@senduipi@ 00000001800dba80     Zydis.obj
 0002:00084a90       ??_C@_09HPAMHOHM@serialize@ 00000001800dba90     Zydis.obj
 0002:00084a9c       ??_C@_04IPGEFMGF@setb@     00000001800dba9c     Zydis.obj
 0002:00084aa4       ??_C@_05CFNNGOGJ@setbe@    00000001800dbaa4     Zydis.obj
 0002:00084aac       ??_C@_04BBOHHBOL@setl@     00000001800dbaac     Zydis.obj
 0002:00084ab4       ??_C@_05CPEDEDGD@setle@    00000001800dbab4     Zydis.obj
 0002:00084abc       ??_C@_05GDIGABMK@setnb@    00000001800dbabc     Zydis.obj
 0002:00084ac4       ??_C@_06GDFIDCEN@setnbe@   00000001800dbac4     Zydis.obj
 0002:00084acc       ??_C@_05PNAFCMEE@setnl@    00000001800dbacc     Zydis.obj
 0002:00084ad4       ??_C@_06GJMGBPEH@setnle@   00000001800dbad4     Zydis.obj
 0002:00084adc       ??_C@_05NGCIHPIH@setno@    00000001800dbadc     Zydis.obj
 0002:00084ae4       ??_C@_05BLHCHBBJ@setnp@    00000001800dbae4     Zydis.obj
 0002:00084aec       ??_C@_05DAFPCCNK@setns@    00000001800dbaec     Zydis.obj
 0002:00084af4       ??_C@_05OBJNJJJD@setnz@    00000001800dbaf4     Zydis.obj
 0002:00084afc       ??_C@_04DKMKCCCI@seto@     00000001800dbafc     Zydis.obj
 0002:00084b04       ??_C@_04PHJACMLG@setp@     00000001800dbb04     Zydis.obj
 0002:00084b0c       ??_C@_04NMLNHPHF@sets@     00000001800dbb0c     Zydis.obj
 0002:00084b18       ??_C@_08FKFFIAOI@setssbsy@ 00000001800dbb18     Zydis.obj
 0002:00084b24       ??_C@_04NHPMEDM@setz@      00000001800dbb24     Zydis.obj
 0002:00084b2c       ??_C@_06LJIOJEOG@sfence@   00000001800dbb2c     Zydis.obj
 0002:00084b34       ??_C@_04CFNDICEJ@sgdt@     00000001800dbb34     Zydis.obj
 0002:00084b40       ??_C@_08KCNMFKIP@sha1msg1@ 00000001800dbb40     Zydis.obj
 0002:00084b50       ??_C@_08IJPBAJEM@sha1msg2@ 00000001800dbb50     Zydis.obj
 0002:00084b60       ??_C@_09HCDAMFGH@sha1nexte@ 00000001800dbb60     Zydis.obj
 0002:00084b70       ??_C@_09MNNEKECB@sha1rnds4@ 00000001800dbb70     Zydis.obj
 0002:00084b80       ??_C@_0L@GONPHFO@sha256msg1@ 00000001800dbb80     Zydis.obj
 0002:00084b90       ??_C@_0L@CNMAKEJN@sha256msg2@ 00000001800dbb90     Zydis.obj
 0002:00084ba0       ??_C@_0M@GKPONAEI@sha256rnds2@ 00000001800dbba0     Zydis.obj
 0002:00084bac       ??_C@_03CILNJBKC@shl@      00000001800dbbac     Zydis.obj
 0002:00084bb0       ??_C@_04DJGBNBPG@shld@     00000001800dbbb0     Zydis.obj
 0002:00084bb8       ??_C@_04NPBGIMKL@shlx@     00000001800dbbb8     Zydis.obj
 0002:00084bc0       ??_C@_03PMPMKOHN@shr@      00000001800dbbc0     Zydis.obj
 0002:00084bc4       ??_C@_04CPNJFPIM@shrd@     00000001800dbbc4     Zydis.obj
 0002:00084bcc       ??_C@_04MJKOACNB@shrx@     00000001800dbbcc     Zydis.obj
 0002:00084bd4       ??_C@_06CBKLGGJD@shufpd@   00000001800dbbd4     Zydis.obj
 0002:00084bdc       ??_C@_06CECIOCAF@shufps@   00000001800dbbdc     Zydis.obj
 0002:00084be4       ??_C@_04MFAMPFHK@sidt@     00000001800dbbe4     Zydis.obj
 0002:00084bec       ??_C@_06JOKOMMPP@skinit@   00000001800dbbec     Zydis.obj
 0002:00084bf4       ??_C@_04PCNCAFEI@sldt@     00000001800dbbf4     Zydis.obj
 0002:00084bfc       ??_C@_06PNLCMFAJ@slwpcb@   00000001800dbbfc     Zydis.obj
 0002:00084c04       ??_C@_04HICKIEBL@smsw@     00000001800dbc04     Zydis.obj
 0002:00084c0c       ??_C@_05COIKOHJF@spflt@    00000001800dbc0c     Zydis.obj
 0002:00084c14       ??_C@_06ENECHGME@sqrtpd@   00000001800dbc14     Zydis.obj
 0002:00084c1c       ??_C@_06EIMBPCFC@sqrtps@   00000001800dbc1c     Zydis.obj
 0002:00084c24       ??_C@_06EPAEMIJN@sqrtsd@   00000001800dbc24     Zydis.obj
 0002:00084c2c       ??_C@_06EKIHEMAL@sqrtss@   00000001800dbc2c     Zydis.obj
 0002:00084c34       ??_C@_04GEDHDMEF@stac@     00000001800dbc34     Zydis.obj
 0002:00084c3c       ??_C@_03LKBJNHHJ@stc@      00000001800dbc3c     Zydis.obj
 0002:00084c40       ??_C@_03PFFIEBLO@std@      00000001800dbc40     Zydis.obj
 0002:00084c44       ??_C@_04JKFFKIHN@stgi@     00000001800dbc44     Zydis.obj
 0002:00084c4c       ??_C@_03EAPGDPPD@sti@      00000001800dbc4c     Zydis.obj
 0002:00084c50       ??_C@_07LPMAGAMH@stmxcsr@  00000001800dbc50     Zydis.obj
 0002:00084c58       ??_C@_05KNOAFPEF@stosb@    00000001800dbc58     Zydis.obj
 0002:00084c60       ??_C@_05PLLKPIMD@stosd@    00000001800dbc60     Zydis.obj
 0002:00084c68       ??_C@_05MMAPBONH@stosq@    00000001800dbc68     Zydis.obj
 0002:00084c70       ??_C@_05JKFFLJFB@stosw@    00000001800dbc70     Zydis.obj
 0002:00084c78       ??_C@_03OJMAPEGJ@str@      00000001800dbc78     Zydis.obj
 0002:00084c80       ??_C@_09PLOBIIJE@sttilecfg@ 00000001800dbc80     Zydis.obj
 0002:00084c8c       ??_C@_04IFPHNPGD@stui@     00000001800dbc8c     Zydis.obj
 0002:00084c94       ??_C@_03KCMAIMAP@sub@      00000001800dbc94     Zydis.obj
 0002:00084c98       ??_C@_05DGPGLHPH@subpd@    00000001800dbc98     Zydis.obj
 0002:00084ca0       ??_C@_05DDHFDDGB@subps@    00000001800dbca0     Zydis.obj
 0002:00084ca8       ??_C@_05DELAAJKO@subsd@    00000001800dbca8     Zydis.obj
 0002:00084cb0       ??_C@_05DBDDINDI@subss@    00000001800dbcb0     Zydis.obj
 0002:00084cb8       ??_C@_06CPNDNOLP@swapgs@   00000001800dbcb8     Zydis.obj
 0002:00084cc0       ??_C@_07JJMJNHGG@syscall@  00000001800dbcc0     Zydis.obj
 0002:00084cc8       ??_C@_08HHDECGPN@sysenter@ 00000001800dbcc8     Zydis.obj
 0002:00084cd8       ??_C@_07LPEIGAGB@sysexit@  00000001800dbcd8     Zydis.obj
 0002:00084ce0       ??_C@_06OJDFPBAP@sysret@   00000001800dbce0     Zydis.obj
 0002:00084ce8       ??_C@_06KHOIKAJK@t1mskc@   00000001800dbce8     Zydis.obj
 0002:00084cf0       ??_C@_06DMFMBCOB@tdcall@   00000001800dbcf0     Zydis.obj
 0002:00084cf8       ??_C@_09JFGODGPG@tdpbf16ps@ 00000001800dbcf8     Zydis.obj
 0002:00084d08       ??_C@_07LECIJDO@tdpbssd@   00000001800dbd08     Zydis.obj
 0002:00084d10       ??_C@_07PMPPFIM@tdpbsud@   00000001800dbd10     Zydis.obj
 0002:00084d18       ??_C@_07COCJNGOC@tdpbusd@  00000001800dbd18     Zydis.obj
 0002:00084d20       ??_C@_07CKKEKKFA@tdpbuud@  00000001800dbd20     Zydis.obj
 0002:00084d28       ??_C@_09LEKOPDGD@tdpfp16ps@ 00000001800dbd28     Zydis.obj
 0002:00084d34       ??_C@_04CEJDCDCH@test@     00000001800dbd34     Zydis.obj
 0002:00084d3c       ??_C@_06JOKHJNNB@testui@   00000001800dbd3c     Zydis.obj
 0002:00084d48       ??_C@_09OEFMCBKG@tileloadd@ 00000001800dbd48     Zydis.obj
 0002:00084d58       ??_C@_0M@CBJBCIFD@tileloaddt1@ 00000001800dbd58     Zydis.obj
 0002:00084d68       ??_C@_0M@IBGIBAIN@tilerelease@ 00000001800dbd68     Zydis.obj
 0002:00084d78       ??_C@_0L@NMHDGDF@tilestored@ 00000001800dbd78     Zydis.obj
 0002:00084d88       ??_C@_08GFLIEOGJ@tilezero@ 00000001800dbd88     Zydis.obj
 0002:00084d98       ??_C@_07BPDBJMHL@tlbsync@  00000001800dbd98     Zydis.obj
 0002:00084da0       ??_C@_06MHBIJOMA@tpause@   00000001800dbda0     Zydis.obj
 0002:00084da8       ??_C@_05ENGFOLNA@tzcnt@    00000001800dbda8     Zydis.obj
 0002:00084db0       ??_C@_06DCKBGHNB@tzcnti@   00000001800dbdb0     Zydis.obj
 0002:00084db8       ??_C@_05HEBOKCFO@tzmsk@    00000001800dbdb8     Zydis.obj
 0002:00084dc0       ??_C@_07ENDLCHEK@ucomisd@  00000001800dbdc0     Zydis.obj
 0002:00084dc8       ??_C@_07EILIKDNM@ucomiss@  00000001800dbdc8     Zydis.obj
 0002:00084dd0       ??_C@_03BCMCCFEC@ud0@      00000001800dbdd0     Zydis.obj
 0002:00084dd4       ??_C@_03LNJBEAD@ud1@       00000001800dbdd4     Zydis.obj
 0002:00084dd8       ??_C@_03CAPEEHMA@ud2@      00000001800dbdd8     Zydis.obj
 0002:00084ddc       ??_C@_05EFIJAKDM@uiret@    00000001800dbddc     Zydis.obj
 0002:00084de8       ??_C@_08IJNBDPBJ@umonitor@ 00000001800dbde8     Zydis.obj
 0002:00084df4       ??_C@_06KMJECDGN@umwait@   00000001800dbdf4     Zydis.obj
 0002:00084e00       ??_C@_08EBLLCNNO@unpckhpd@ 00000001800dbe00     Zydis.obj
 0002:00084e10       ??_C@_08EEDIKJEI@unpckhps@ 00000001800dbe10     Zydis.obj
 0002:00084e20       ??_C@_08MONJLKIJ@unpcklpd@ 00000001800dbe20     Zydis.obj
 0002:00084e30       ??_C@_08MLFKDOBP@unpcklps@ 00000001800dbe30     Zydis.obj
 0002:00084e40       ??_C@_09CDKHFINC@v4fmaddps@ 00000001800dbe40     Zydis.obj
 0002:00084e50       ??_C@_09CBOBOGIL@v4fmaddss@ 00000001800dbe50     Zydis.obj
 0002:00084e60       ??_C@_0L@KIDDLMCA@v4fnmaddps@ 00000001800dbe60     Zydis.obj
 0002:00084e70       ??_C@_0L@KKHFACHJ@v4fnmaddss@ 00000001800dbe70     Zydis.obj
 0002:00084e80       ??_C@_07KMGNCFNC@vaddnpd@  00000001800dbe80     Zydis.obj
 0002:00084e88       ??_C@_07KJOOKBEE@vaddnps@  00000001800dbe88     Zydis.obj
 0002:00084e90       ??_C@_06KDBFGOEF@vaddpd@   00000001800dbe90     Zydis.obj
 0002:00084e98       ??_C@_06PKACBEJ@vaddph@    00000001800dbe98     Zydis.obj
 0002:00084ea0       ??_C@_06KGJGOKND@vaddps@   00000001800dbea0     Zydis.obj
 0002:00084ea8       ??_C@_06KBFDNABM@vaddsd@   00000001800dbea8     Zydis.obj
 0002:00084eb0       ??_C@_0L@EJGGJIED@vaddsetsps@ 00000001800dbeb0     Zydis.obj
 0002:00084ebc       ??_C@_06NOGJPBA@vaddsh@    00000001800dbebc     Zydis.obj
 0002:00084ec4       ??_C@_06KENAFEIK@vaddss@   00000001800dbec4     Zydis.obj
 0002:00084ed0       ??_C@_09PPKJNIKN@vaddsubpd@ 00000001800dbed0     Zydis.obj
 0002:00084ee0       ??_C@_09PKCKFMDL@vaddsubps@ 00000001800dbee0     Zydis.obj
 0002:00084ef0       ??_C@_07IPOAKKNN@vaesdec@  00000001800dbef0     Zydis.obj
 0002:00084ef8       ??_C@_0M@OBBELEHO@vaesdeclast@ 00000001800dbef8     Zydis.obj
 0002:00084f08       ??_C@_07DLAJCCFJ@vaesenc@  00000001800dbf08     Zydis.obj
 0002:00084f10       ??_C@_0M@CPLJOABK@vaesenclast@ 00000001800dbf10     Zydis.obj
 0002:00084f20       ??_C@_07HDJJCDLI@vaesimc@  00000001800dbf20     Zydis.obj
 0002:00084f28       ??_C@_0BB@PMMLANHC@vaeskeygenassist@ 00000001800dbf28     Zydis.obj
 0002:00084f40       ??_C@_07NDBOKCPO@valignd@  00000001800dbf40     Zydis.obj
 0002:00084f48       ??_C@_07OEKLEEOK@valignq@  00000001800dbf48     Zydis.obj
 0002:00084f50       ??_C@_07NPGAGLE@vandnpd@   00000001800dbf50     Zydis.obj
 0002:00084f58       ??_C@_07IHFICCC@vandnps@   00000001800dbf58     Zydis.obj
 0002:00084f60       ??_C@_06OJKFHGOE@vandpd@   00000001800dbf60     Zydis.obj
 0002:00084f68       ??_C@_06OMCGPCHC@vandps@   00000001800dbf68     Zydis.obj
 0002:00084f70       ??_C@_0P@IHNLLIHH@vbcstnebf162ps@ 00000001800dbf70     Zydis.obj
 0002:00084f80       ??_C@_0N@GFCOFEKP@vbcstnesh2ps@ 00000001800dbf80     Zydis.obj
 0002:00084f90       ??_C@_09JBNELEI@vblendmpd@ 00000001800dbf90     Zydis.obj
 0002:00084fa0       ??_C@_09MJOMPNO@vblendmps@ 00000001800dbfa0     Zydis.obj
 0002:00084fb0       ??_C@_08NLIICBDL@vblendpd@ 00000001800dbfb0     Zydis.obj
 0002:00084fc0       ??_C@_08NOALKFKN@vblendps@ 00000001800dbfc0     Zydis.obj
 0002:00084fd0       ??_C@_09IOAFJLNG@vblendvpd@ 00000001800dbfd0     Zydis.obj
 0002:00084fe0       ??_C@_09ILIGBPEA@vblendvps@ 00000001800dbfe0     Zydis.obj
 0002:00084ff0       ??_C@_0P@PCAIGGIP@vbroadcastf128@ 00000001800dbff0     Zydis.obj
 0002:00085000       ??_C@_0BA@JKNPBMAG@vbroadcastf32x2@ 00000001800dc000     Zydis.obj
 0002:00085010       ??_C@_0BA@MMIFLLIA@vbroadcastf32x4@ 00000001800dc010     Zydis.obj
 0002:00085020       ??_C@_0BA@GADAPEIM@vbroadcastf32x8@ 00000001800dc020     Zydis.obj
 0002:00085030       ??_C@_0BA@HHFEMMKK@vbroadcastf64x2@ 00000001800dc030     Zydis.obj
 0002:00085040       ??_C@_0BA@CBAOGLCM@vbroadcastf64x4@ 00000001800dc040     Zydis.obj
 0002:00085050       ??_C@_0P@HAFIPBFO@vbroadcasti128@ 00000001800dc050     Zydis.obj
 0002:00085060       ??_C@_0BA@GLIJKOND@vbroadcasti32x2@ 00000001800dc060     Zydis.obj
 0002:00085070       ??_C@_0BA@DNNDAJFF@vbroadcasti32x4@ 00000001800dc070     Zydis.obj
 0002:00085080       ??_C@_0BA@JBGGEGFJ@vbroadcasti32x8@ 00000001800dc080     Zydis.obj
 0002:00085090       ??_C@_0BA@IGACHOHP@vbroadcasti64x2@ 00000001800dc090     Zydis.obj
 0002:000850a0       ??_C@_0BA@NAFINJPJ@vbroadcasti64x4@ 00000001800dc0a0     Zydis.obj
 0002:000850b0       ??_C@_0N@MDBHDICD@vbroadcastsd@ 00000001800dc0b0     Zydis.obj
 0002:000850c0       ??_C@_0N@MGJELMLF@vbroadcastss@ 00000001800dc0c0     Zydis.obj
 0002:000850d0       ??_C@_06DMLGGNPH@vcmppd@   00000001800dc0d0     Zydis.obj
 0002:000850d8       ??_C@_06JAADCCPL@vcmpph@   00000001800dc0d8     Zydis.obj
 0002:000850e0       ??_C@_06DJDFOJGB@vcmpps@   00000001800dc0e0     Zydis.obj
 0002:000850e8       ??_C@_06DOPANDKO@vcmpsd@   00000001800dc0e8     Zydis.obj
 0002:000850f0       ??_C@_06JCEFJMKC@vcmpsh@   00000001800dc0f0     Zydis.obj
 0002:000850f8       ??_C@_06DLHDFHDI@vcmpss@   00000001800dc0f8     Zydis.obj
 0002:00085100       ??_C@_07MDLECAKJ@vcomisd@  00000001800dc100     Zydis.obj
 0002:00085108       ??_C@_07GPABGPKF@vcomish@  00000001800dc108     Zydis.obj
 0002:00085110       ??_C@_07MGDHKEDP@vcomiss@  00000001800dc110     Zydis.obj
 0002:00085118       ??_C@_0M@BGKNEJFG@vcompresspd@ 00000001800dc118     Zydis.obj
 0002:00085128       ??_C@_0M@BDCOMNMA@vcompressps@ 00000001800dc128     Zydis.obj
 0002:00085138       ??_C@_09KIEBMBPC@vcvtdq2pd@ 00000001800dc138     Zydis.obj
 0002:00085148       ??_C@_09EPEIOPO@vcvtdq2ph@ 00000001800dc148     Zydis.obj
 0002:00085158       ??_C@_09KNMCEFGE@vcvtdq2ps@ 00000001800dc158     Zydis.obj
 0002:00085168       ??_C@_0P@OMGHKLGJ@vcvtfxpntdq2ps@ 00000001800dc168     Zydis.obj
 0002:00085178       ??_C@_0P@PFDJJKDI@vcvtfxpntpd2dq@ 00000001800dc178     Zydis.obj
 0002:00085188       ??_C@_0BA@OMJLJINC@vcvtfxpntpd2udq@ 00000001800dc188     Zydis.obj
 0002:00085198       ??_C@_0P@CHPJNBKK@vcvtfxpntps2dq@ 00000001800dc198     Zydis.obj
 0002:000851a8       ??_C@_0BA@PCEIKKPB@vcvtfxpntps2udq@ 00000001800dc1a8     Zydis.obj
 0002:000851b8       ??_C@_0BA@IOCKJMEG@vcvtfxpntudq2ps@ 00000001800dc1b8     Zydis.obj
 0002:000851c8       ??_C@_0P@JNKILEJI@vcvtne2ps2bf16@ 00000001800dc1c8     Zydis.obj
 0002:000851d8       ??_C@_0P@HDNNMCPP@vcvtneebf162ps@ 00000001800dc1d8     Zydis.obj
 0002:000851e8       ??_C@_0N@CBOGMNCH@vcvtneeph2ps@ 00000001800dc1e8     Zydis.obj
 0002:000851f8       ??_C@_0P@OGPDEIGB@vcvtneobf162ps@ 00000001800dc1f8     Zydis.obj
 0002:00085208       ??_C@_0N@IFJGJCGJ@vcvtneoph2ps@ 00000001800dc208     Zydis.obj
 0002:00085218       ??_C@_0O@LKOOFCLG@vcvtneps2bf16@ 00000001800dc218     Zydis.obj
 0002:00085228       ??_C@_09LEJMHEDF@vcvtpd2dq@ 00000001800dc228     Zydis.obj
 0002:00085238       ??_C@_09DELDNGIB@vcvtpd2ph@ 00000001800dc238     Zydis.obj
 0002:00085248       ??_C@_09JNIFBNBL@vcvtpd2ps@ 00000001800dc248     Zydis.obj
 0002:00085258       ??_C@_09KOHBBFKO@vcvtpd2qq@ 00000001800dc258     Zydis.obj
 0002:00085268       ??_C@_0L@JCGLEBIB@vcvtpd2udq@ 00000001800dc268     Zydis.obj
 0002:00085278       ??_C@_0L@IIIGCABK@vcvtpd2uqq@ 00000001800dc278     Zydis.obj
 0002:00085288       ??_C@_09HBGMJJDE@vcvtph2dq@ 00000001800dc288     Zydis.obj
 0002:00085298       ??_C@_09FNPGHEIM@vcvtph2pd@ 00000001800dc298     Zydis.obj
 0002:000852a8       ??_C@_09FIHFPABK@vcvtph2ps@ 00000001800dc2a8     Zydis.obj
 0002:000852b8       ??_C@_0L@BKNMHPHE@vcvtph2psx@ 00000001800dc2b8     Zydis.obj
 0002:000852c8       ??_C@_09GLIBPIKP@vcvtph2qq@ 00000001800dc2c8     Zydis.obj
 0002:000852d8       ??_C@_0L@OFKJIBPK@vcvtph2udq@ 00000001800dc2d8     Zydis.obj
 0002:000852e8       ??_C@_0L@PPEEOAGB@vcvtph2uqq@ 00000001800dc2e8     Zydis.obj
 0002:000852f8       ??_C@_09DKNCPHPF@vcvtph2uw@ 00000001800dc2f8     Zydis.obj
 0002:00085308       ??_C@_08JLPBLNHM@vcvtph2w@ 00000001800dc308     Zydis.obj
 0002:00085318       ??_C@_09GGFMDPKH@vcvtps2dq@ 00000001800dc318     Zydis.obj
 0002:00085328       ??_C@_09EKMGNCBP@vcvtps2pd@ 00000001800dc328     Zydis.obj
 0002:00085338       ??_C@_09OGHDJNBD@vcvtps2ph@ 00000001800dc338     Zydis.obj
 0002:00085348       ??_C@_0L@GDLOMBLN@vcvtps2phx@ 00000001800dc348     Zydis.obj
 0002:00085358       ??_C@_09HMLBFODM@vcvtps2qq@ 00000001800dc358     Zydis.obj
 0002:00085368       ??_C@_0L@IMLIHDKC@vcvtps2udq@ 00000001800dc368     Zydis.obj
 0002:00085378       ??_C@_0L@JGFFBCDJ@vcvtps2uqq@ 00000001800dc378     Zydis.obj
 0002:00085388       ??_C@_09PLFKFCNK@vcvtqq2pd@ 00000001800dc388     Zydis.obj
 0002:00085398       ??_C@_09FHOPBNNG@vcvtqq2ph@ 00000001800dc398     Zydis.obj
 0002:000853a8       ??_C@_09PONJNGEM@vcvtqq2ps@ 00000001800dc3a8     Zydis.obj
 0002:000853b8       ??_C@_09LAGBBKHG@vcvtsd2sh@ 00000001800dc3b8     Zydis.obj
 0002:000853c8       ??_C@_09KJHKCLDH@vcvtsd2si@ 00000001800dc3c8     Zydis.obj
 0002:000853d8       ??_C@_09BJFHNBOM@vcvtsd2ss@ 00000001800dc3d8     Zydis.obj
 0002:000853e8       ??_C@_0L@DIPBHGLA@vcvtsd2usi@ 00000001800dc3e8     Zydis.obj
 0002:000853f8       ??_C@_09NJCELIHL@vcvtsh2sd@ 00000001800dc3f8     Zydis.obj
 0002:00085408       ??_C@_09GMIKMGDG@vcvtsh2si@ 00000001800dc408     Zydis.obj
 0002:00085418       ??_C@_09NMKHDMON@vcvtsh2ss@ 00000001800dc418     Zydis.obj
 0002:00085428       ??_C@_0L@EPDDLGML@vcvtsh2usi@ 00000001800dc428     Zydis.obj
 0002:00085438       ??_C@_09OEEEJBML@vcvtsi2sd@ 00000001800dc438     Zydis.obj
 0002:00085448       ??_C@_09EIPBNOMH@vcvtsi2sh@ 00000001800dc448     Zydis.obj
 0002:00085458       ??_C@_09OBMHBFFN@vcvtsi2ss@ 00000001800dc458     Zydis.obj
 0002:00085468       ??_C@_09MOBEBOOI@vcvtss2sd@ 00000001800dc468     Zydis.obj
 0002:00085478       ??_C@_09GCKBFBOE@vcvtss2sh@ 00000001800dc478     Zydis.obj
 0002:00085488       ??_C@_09HLLKGAKF@vcvtss2si@ 00000001800dc488     Zydis.obj
 0002:00085498       ??_C@_0L@CGCCEEJD@vcvtss2usi@ 00000001800dc498     Zydis.obj
 0002:000854a8       ??_C@_0L@EPPDHPPA@vcvttpd2dq@ 00000001800dc4a8     Zydis.obj
 0002:000854b8       ??_C@_0L@FFBOBOGL@vcvttpd2qq@ 00000001800dc4b8     Zydis.obj
 0002:000854c8       ??_C@_0M@HJJOBILF@vcvttpd2udq@ 00000001800dc4c8     Zydis.obj
 0002:000854d8       ??_C@_0M@GDHDHJCO@vcvttpd2uqq@ 00000001800dc4d8     Zydis.obj
 0002:000854e8       ??_C@_0L@IKADJCPB@vcvttph2dq@ 00000001800dc4e8     Zydis.obj
 0002:000854f8       ??_C@_0L@JAOOPDGK@vcvttph2qq@ 00000001800dc4f8     Zydis.obj
 0002:00085508       ??_C@_0M@OFMNIMO@vcvttph2udq@ 00000001800dc508     Zydis.obj
 0002:00085518       ??_C@_0M@BELBLJFF@vcvttph2uqq@ 00000001800dc518     Zydis.obj
 0002:00085528       ??_C@_0L@MBLNPMDA@vcvttph2uw@ 00000001800dc528     Zydis.obj
 0002:00085538       ??_C@_09CALGBNCD@vcvttph2w@ 00000001800dc538     Zydis.obj
 0002:00085548       ??_C@_0L@JNDDDEGC@vcvttps2dq@ 00000001800dc548     Zydis.obj
 0002:00085558       ??_C@_0L@IHNOFFPJ@vcvttps2qq@ 00000001800dc558     Zydis.obj
 0002:00085568       ??_C@_0M@GHENCKJG@vcvttps2udq@ 00000001800dc568     Zydis.obj
 0002:00085578       ??_C@_0M@HNKAELAN@vcvttps2uqq@ 00000001800dc578     Zydis.obj
 0002:00085588       ??_C@_0L@FCBFCAPC@vcvttsd2si@ 00000001800dc588     Zydis.obj
 0002:00085598       ??_C@_0M@NDAECPIE@vcvttsd2usi@ 00000001800dc598     Zydis.obj
 0002:000855a8       ??_C@_0L@JHOFMNPD@vcvttsh2si@ 00000001800dc5a8     Zydis.obj
 0002:000855b8       ??_C@_0M@KEMGOPPP@vcvttsh2usi@ 00000001800dc5b8     Zydis.obj
 0002:000855c8       ??_C@_0L@IANFGLGA@vcvttss2si@ 00000001800dc5c8     Zydis.obj
 0002:000855d8       ??_C@_0M@MNNHBNKH@vcvttss2usi@ 00000001800dc5d8     Zydis.obj
 0002:000855e8       ??_C@_0L@PFFJMBID@vcvtudq2pd@ 00000001800dc5e8     Zydis.obj
 0002:000855f8       ??_C@_0L@FJOMIOIP@vcvtudq2ph@ 00000001800dc5f8     Zydis.obj
 0002:00085608       ??_C@_0L@PANKEFBF@vcvtudq2ps@ 00000001800dc608     Zydis.obj
 0002:00085618       ??_C@_0L@KGECFCKL@vcvtuqq2pd@ 00000001800dc618     Zydis.obj
 0002:00085628       ??_C@_0L@KPHBNKH@vcvtuqq2ph@ 00000001800dc628     Zydis.obj
 0002:00085638       ??_C@_0L@KDMBNGDN@vcvtuqq2ps@ 00000001800dc638     Zydis.obj
 0002:00085648       ??_C@_0L@LJFMJBLK@vcvtusi2sd@ 00000001800dc648     Zydis.obj
 0002:00085658       ??_C@_0L@BFOJNOLG@vcvtusi2sh@ 00000001800dc658     Zydis.obj
 0002:00085668       ??_C@_0L@LMNPBFCM@vcvtusi2ss@ 00000001800dc668     Zydis.obj
 0002:00085678       ??_C@_09EDDOKKGA@vcvtuw2ph@ 00000001800dc678     Zydis.obj
 0002:00085688       ??_C@_08DDCFNJJK@vcvtw2ph@ 00000001800dc688     Zydis.obj
 0002:00085698       ??_C@_09COIGHEKK@vdbpsadbw@ 00000001800dc698     Zydis.obj
 0002:000856a4       ??_C@_06PBFIKEFD@vdivpd@   00000001800dc6a4     Zydis.obj
 0002:000856ac       ??_C@_06FNONOLFP@vdivph@   00000001800dc6ac     Zydis.obj
 0002:000856b4       ??_C@_06PENLCAMF@vdivps@   00000001800dc6b4     Zydis.obj
 0002:000856bc       ??_C@_06PDBOBKAK@vdivsd@   00000001800dc6bc     Zydis.obj
 0002:000856c4       ??_C@_06FPKLFFAG@vdivsh@   00000001800dc6c4     Zydis.obj
 0002:000856cc       ??_C@_06PGJNJOJM@vdivss@   00000001800dc6cc     Zydis.obj
 0002:000856d8       ??_C@_09JBJLOGML@vdpbf16ps@ 00000001800dc6d8     Zydis.obj
 0002:000856e4       ??_C@_05MBKLAHGC@vdppd@    00000001800dc6e4     Zydis.obj
 0002:000856ec       ??_C@_05MECIIDPE@vdpps@    00000001800dc6ec     Zydis.obj
 0002:000856f4       ??_C@_04JMLLNPG@verr@      00000001800dc6f4     Zydis.obj
 0002:000856fc       ??_C@_04HELMEJLD@verw@     00000001800dc6fc     Zydis.obj
 0002:00085708       ??_C@_09ECCFKENJ@vexp223ps@ 00000001800dc708     Zydis.obj
 0002:00085718       ??_C@_07DIINECHJ@vexp2pd@  00000001800dc718     Zydis.obj
 0002:00085720       ??_C@_07DNAOMGOP@vexp2ps@  00000001800dc720     Zydis.obj
 0002:00085728       ??_C@_09GGIFEPMH@vexpandpd@ 00000001800dc728     Zydis.obj
 0002:00085738       ??_C@_09GDAGMLFB@vexpandps@ 00000001800dc738     Zydis.obj
 0002:00085748       ??_C@_0N@GHEEFFJN@vextractf128@ 00000001800dc748     Zydis.obj
 0002:00085758       ??_C@_0O@DPKJIGPL@vextractf32x4@ 00000001800dc758     Zydis.obj
 0002:00085768       ??_C@_0O@JDBMMJPH@vextractf32x8@ 00000001800dc768     Zydis.obj
 0002:00085778       ??_C@_0O@IEHIPBNB@vextractf64x2@ 00000001800dc778     Zydis.obj
 0002:00085788       ??_C@_0O@NCCCFGFH@vextractf64x4@ 00000001800dc788     Zydis.obj
 0002:00085798       ??_C@_0N@OFBEMCEM@vextracti128@ 00000001800dc798     Zydis.obj
 0002:000857a8       ??_C@_0O@MOPPDECO@vextracti32x4@ 00000001800dc7a8     Zydis.obj
 0002:000857b8       ??_C@_0O@GCEKHLCC@vextracti32x8@ 00000001800dc7b8     Zydis.obj
 0002:000857c8       ??_C@_0O@HFCOEDAE@vextracti64x2@ 00000001800dc7c8     Zydis.obj
 0002:000857d8       ??_C@_0O@CDHEOEIC@vextracti64x4@ 00000001800dc7d8     Zydis.obj
 0002:000857e8       ??_C@_0L@EDDICPO@vextractps@ 00000001800dc7e8     Zydis.obj
 0002:000857f8       ??_C@_0L@HCEGKABN@vfcmaddcph@ 00000001800dc7f8     Zydis.obj
 0002:00085808       ??_C@_0L@HAAABOEE@vfcmaddcsh@ 00000001800dc808     Zydis.obj
 0002:00085818       ??_C@_09KLDFMHCJ@vfcmulcph@ 00000001800dc818     Zydis.obj
 0002:00085828       ??_C@_09KJHDHJHA@vfcmulcsh@ 00000001800dc828     Zydis.obj
 0002:00085838       ??_C@_0M@ELBIEEBE@vfixupimmpd@ 00000001800dc838     Zydis.obj
 0002:00085848       ??_C@_0M@EOJLMAIC@vfixupimmps@ 00000001800dc848     Zydis.obj
 0002:00085858       ??_C@_0M@EJFOPKEN@vfixupimmsd@ 00000001800dc858     Zydis.obj
 0002:00085868       ??_C@_0M@EMNNHONL@vfixupimmss@ 00000001800dc868     Zydis.obj
 0002:00085878       ??_C@_0M@IBFIDGED@vfixupnanpd@ 00000001800dc878     Zydis.obj
 0002:00085888       ??_C@_0M@IENLLCNF@vfixupnanps@ 00000001800dc888     Zydis.obj
 0002:00085898       ??_C@_0M@JFIAHNOI@vfmadd132pd@ 00000001800dc898     Zydis.obj
 0002:000858a8       ??_C@_0M@DJDFDCOE@vfmadd132ph@ 00000001800dc8a8     Zydis.obj
 0002:000858b8       ??_C@_0M@JAADPJHO@vfmadd132ps@ 00000001800dc8b8     Zydis.obj
 0002:000858c8       ??_C@_0M@JHMGMDLB@vfmadd132sd@ 00000001800dc8c8     Zydis.obj
 0002:000858d8       ??_C@_0M@DLHDIMLN@vfmadd132sh@ 00000001800dc8d8     Zydis.obj
 0002:000858e8       ??_C@_0M@JCEFEHCH@vfmadd132ss@ 00000001800dc8e8     Zydis.obj
 0002:000858f8       ??_C@_0M@NBGIDLED@vfmadd213pd@ 00000001800dc8f8     Zydis.obj
 0002:00085908       ??_C@_0M@HNNNHEEP@vfmadd213ph@ 00000001800dc908     Zydis.obj
 0002:00085918       ??_C@_0M@NEOLLPNF@vfmadd213ps@ 00000001800dc918     Zydis.obj
 0002:00085928       ??_C@_0M@NDCOIFBK@vfmadd213sd@ 00000001800dc928     Zydis.obj
 0002:00085938       ??_C@_0M@HPJLMKBG@vfmadd213sh@ 00000001800dc938     Zydis.obj
 0002:00085948       ??_C@_0M@NGKNABIM@vfmadd213ss@ 00000001800dc948     Zydis.obj
 0002:00085958       ??_C@_0M@BKBKAKI@vfmadd231pd@ 00000001800dc958     Zydis.obj
 0002:00085968       ??_C@_0M@KNBEOPKE@vfmadd231ph@ 00000001800dc968     Zydis.obj
 0002:00085978       ??_C@_0M@ECCCEDO@vfmadd231ps@ 00000001800dc978     Zydis.obj
 0002:00085988       ??_C@_0M@DOHBOPB@vfmadd231sd@ 00000001800dc988     Zydis.obj
 0002:00085998       ??_C@_0M@KPFCFBPN@vfmadd231sh@ 00000001800dc998     Zydis.obj
 0002:000859a8       ??_C@_0M@GGEJKGH@vfmadd231ss@ 00000001800dc9a8     Zydis.obj
 0002:000859b8       ??_C@_0M@KOCLOMLF@vfmadd233ps@ 00000001800dc9b8     Zydis.obj
 0002:000859c8       ??_C@_09IBOFCFJA@vfmaddcph@ 00000001800dc9c8     Zydis.obj
 0002:000859d8       ??_C@_09IDKDJLMJ@vfmaddcsh@ 00000001800dc9d8     Zydis.obj
 0002:000859e8       ??_C@_08CIJEHOMC@vfmaddpd@ 00000001800dc9e8     Zydis.obj
 0002:000859f8       ??_C@_08CNBHPKFE@vfmaddps@ 00000001800dc9f8     Zydis.obj
 0002:00085a08       ??_C@_08CKNCMAJL@vfmaddsd@ 00000001800dca08     Zydis.obj
 0002:00085a18       ??_C@_08CPFBEEAN@vfmaddss@ 00000001800dca18     Zydis.obj
 0002:00085a28       ??_C@_0P@KNOODAIB@vfmaddsub132pd@ 00000001800dca28     Zydis.obj
 0002:00085a38       ??_C@_0P@BFLHPIN@vfmaddsub132ph@ 00000001800dca38     Zydis.obj
 0002:00085a48       ??_C@_0P@KIGNLEBH@vfmaddsub132ps@ 00000001800dca48     Zydis.obj
 0002:00085a58       ??_C@_0P@OJAGHGCK@vfmaddsub213pd@ 00000001800dca58     Zydis.obj
 0002:00085a68       ??_C@_0P@EFLDDJCG@vfmaddsub213ph@ 00000001800dca68     Zydis.obj
 0002:00085a78       ??_C@_0P@OMIFPCLM@vfmaddsub213ps@ 00000001800dca78     Zydis.obj
 0002:00085a88       ??_C@_0P@DJMPONMB@vfmaddsub231pd@ 00000001800dca88     Zydis.obj
 0002:00085a98       ??_C@_0P@JFHKKCMN@vfmaddsub231ph@ 00000001800dca98     Zydis.obj
 0002:00085aa8       ??_C@_0P@DMEMGJFH@vfmaddsub231ps@ 00000001800dcaa8     Zydis.obj
 0002:00085ab8       ??_C@_0M@MLKOHEME@vfmaddsubpd@ 00000001800dcab8     Zydis.obj
 0002:00085ac8       ??_C@_0M@MOCNPAFC@vfmaddsubps@ 00000001800dcac8     Zydis.obj
 0002:00085ad8       ??_C@_0M@MEHHBDJA@vfmsub132pd@ 00000001800dcad8     Zydis.obj
 0002:00085ae8       ??_C@_0M@GIMCFMJM@vfmsub132ph@ 00000001800dcae8     Zydis.obj
 0002:00085af8       ??_C@_0M@MBPEJHAG@vfmsub132ps@ 00000001800dcaf8     Zydis.obj
 0002:00085b08       ??_C@_0M@MGDBKNMJ@vfmsub132sd@ 00000001800dcb08     Zydis.obj
 0002:00085b18       ??_C@_0M@GKIEOCMF@vfmsub132sh@ 00000001800dcb18     Zydis.obj
 0002:00085b28       ??_C@_0M@MDLCCJFP@vfmsub132ss@ 00000001800dcb28     Zydis.obj
 0002:00085b38       ??_C@_0M@IAJPFFDL@vfmsub213pd@ 00000001800dcb38     Zydis.obj
 0002:00085b48       ??_C@_0M@CMCKBKDH@vfmsub213ph@ 00000001800dcb48     Zydis.obj
 0002:00085b58       ??_C@_0M@IFBMNBKN@vfmsub213ps@ 00000001800dcb58     Zydis.obj
 0002:00085b68       ??_C@_0M@ICNJOLGC@vfmsub213sd@ 00000001800dcb68     Zydis.obj
 0002:00085b78       ??_C@_0M@COGMKEGO@vfmsub213sh@ 00000001800dcb78     Zydis.obj
 0002:00085b88       ??_C@_0M@IHFKGPPE@vfmsub213ss@ 00000001800dcb88     Zydis.obj
 0002:00085b98       ??_C@_0M@FAFGMONA@vfmsub231pd@ 00000001800dcb98     Zydis.obj
 0002:00085ba8       ??_C@_0M@PMODIBNM@vfmsub231ph@ 00000001800dcba8     Zydis.obj
 0002:00085bb8       ??_C@_0M@FFNFEKEG@vfmsub231ps@ 00000001800dcbb8     Zydis.obj
 0002:00085bc8       ??_C@_0M@FCBAHAIJ@vfmsub231sd@ 00000001800dcbc8     Zydis.obj
 0002:00085bd8       ??_C@_0M@POKFDPIF@vfmsub231sh@ 00000001800dcbd8     Zydis.obj
 0002:00085be8       ??_C@_0M@FHJDPEBP@vfmsub231ss@ 00000001800dcbe8     Zydis.obj
 0002:00085bf8       ??_C@_0P@HOFMEGNG@vfmsubadd132pd@ 00000001800dcbf8     Zydis.obj
 0002:00085c08       ??_C@_0P@NCOJAJNK@vfmsubadd132ph@ 00000001800dcc08     Zydis.obj
 0002:00085c18       ??_C@_0P@HLNPMCEA@vfmsubadd132ps@ 00000001800dcc18     Zydis.obj
 0002:00085c28       ??_C@_0P@DKLEAAHN@vfmsubadd213pd@ 00000001800dcc28     Zydis.obj
 0002:00085c38       ??_C@_0P@JGABEPHB@vfmsubadd213ph@ 00000001800dcc38     Zydis.obj
 0002:00085c48       ??_C@_0P@DPDHIEOL@vfmsubadd213ps@ 00000001800dcc48     Zydis.obj
 0002:00085c58       ??_C@_0P@OKHNJLJG@vfmsubadd231pd@ 00000001800dcc58     Zydis.obj
 0002:00085c68       ??_C@_0P@EGMINEJK@vfmsubadd231ph@ 00000001800dcc68     Zydis.obj
 0002:00085c78       ??_C@_0P@OPPOBPAA@vfmsubadd231ps@ 00000001800dcc78     Zydis.obj
 0002:00085c88       ??_C@_0M@KMKMFIMC@vfmsubaddpd@ 00000001800dcc88     Zydis.obj
 0002:00085c98       ??_C@_0M@KJCPNMFE@vfmsubaddps@ 00000001800dcc98     Zydis.obj
 0002:00085ca8       ??_C@_08BOGBDMLM@vfmsubpd@ 00000001800dcca8     Zydis.obj
 0002:00085cb8       ??_C@_08BLOCLICK@vfmsubps@ 00000001800dccb8     Zydis.obj
 0002:00085cc8       ??_C@_08BMCHICOF@vfmsubsd@ 00000001800dccc8     Zydis.obj
 0002:00085cd8       ??_C@_08BJKEAGHD@vfmsubss@ 00000001800dccd8     Zydis.obj
 0002:00085ce8       ??_C@_08LBMBACDL@vfmulcph@ 00000001800dcce8     Zydis.obj
 0002:00085cf8       ??_C@_08LDIHLMGC@vfmulcsh@ 00000001800dccf8     Zydis.obj
 0002:00085d08       ??_C@_0N@ENOLFCOF@vfnmadd132pd@ 00000001800dcd08     Zydis.obj
 0002:00085d18       ??_C@_0N@OBFOBNOJ@vfnmadd132ph@ 00000001800dcd18     Zydis.obj
 0002:00085d28       ??_C@_0N@EIGINGHD@vfnmadd132ps@ 00000001800dcd28     Zydis.obj
 0002:00085d38       ??_C@_0N@EPKNOMLM@vfnmadd132sd@ 00000001800dcd38     Zydis.obj
 0002:00085d48       ??_C@_0N@ODBIKDLA@vfnmadd132sh@ 00000001800dcd48     Zydis.obj
 0002:00085d58       ??_C@_0N@EKCOGICK@vfnmadd132ss@ 00000001800dcd58     Zydis.obj
 0002:00085d68       ??_C@_0N@JADBEEO@vfnmadd213pd@ 00000001800dcd68     Zydis.obj
 0002:00085d78       ??_C@_0N@KFLGFLEC@vfnmadd213ph@ 00000001800dcd78     Zydis.obj
 0002:00085d88       ??_C@_0N@MIAJANI@vfnmadd213ps@ 00000001800dcd88     Zydis.obj
 0002:00085d98       ??_C@_0N@LEFKKBH@vfnmadd213sd@ 00000001800dcd98     Zydis.obj
 0002:00085da8       ??_C@_0N@KHPAOFBL@vfnmadd213sh@ 00000001800dcda8     Zydis.obj
 0002:00085db8       ??_C@_0N@OMGCOIB@vfnmadd213ss@ 00000001800dcdb8     Zydis.obj
 0002:00085dc8       ??_C@_0N@NJMKIPKF@vfnmadd231pd@ 00000001800dcdc8     Zydis.obj
 0002:00085dd8       ??_C@_0N@HFHPMAKJ@vfnmadd231ph@ 00000001800dcdd8     Zydis.obj
 0002:00085de8       ??_C@_0N@NMEJALDD@vfnmadd231ps@ 00000001800dcde8     Zydis.obj
 0002:00085df8       ??_C@_0N@NLIMDBPM@vfnmadd231sd@ 00000001800dcdf8     Zydis.obj
 0002:00085e08       ??_C@_0N@HHDJHOPA@vfnmadd231sh@ 00000001800dce08     Zydis.obj
 0002:00085e18       ??_C@_0N@NOAPLFGK@vfnmadd231ss@ 00000001800dce18     Zydis.obj
 0002:00085e28       ??_C@_09KJGFKOAB@vfnmaddpd@ 00000001800dce28     Zydis.obj
 0002:00085e38       ??_C@_09KMOGCKJH@vfnmaddps@ 00000001800dce38     Zydis.obj
 0002:00085e48       ??_C@_09KLCDBAFI@vfnmaddsd@ 00000001800dce48     Zydis.obj
 0002:00085e58       ??_C@_09KOKAJEMO@vfnmaddss@ 00000001800dce58     Zydis.obj
 0002:00085e68       ??_C@_0N@BMBMDMJN@vfnmsub132pd@ 00000001800dce68     Zydis.obj
 0002:00085e78       ??_C@_0N@LAKJHDJB@vfnmsub132ph@ 00000001800dce78     Zydis.obj
 0002:00085e88       ??_C@_0N@BJJPLIAL@vfnmsub132ps@ 00000001800dce88     Zydis.obj
 0002:00085e98       ??_C@_0N@BOFKICME@vfnmsub132sd@ 00000001800dce98     Zydis.obj
 0002:00085ea8       ??_C@_0N@LCOPMNMI@vfnmsub132sh@ 00000001800dcea8     Zydis.obj
 0002:00085eb8       ??_C@_0N@BLNJAGFC@vfnmsub132ss@ 00000001800dceb8     Zydis.obj
 0002:00085ec8       ??_C@_0N@FIPEHKDG@vfnmsub213pd@ 00000001800dcec8     Zydis.obj
 0002:00085ed8       ??_C@_0N@PEEBDFDK@vfnmsub213ph@ 00000001800dced8     Zydis.obj
 0002:00085ee8       ??_C@_0N@FNHHPOKA@vfnmsub213ps@ 00000001800dcee8     Zydis.obj
 0002:00085ef8       ??_C@_0N@FKLCMEGP@vfnmsub213sd@ 00000001800dcef8     Zydis.obj
 0002:00085f08       ??_C@_0N@PGAHILGD@vfnmsub213sh@ 00000001800dcf08     Zydis.obj
 0002:00085f18       ??_C@_0N@FPDBEAPJ@vfnmsub213ss@ 00000001800dcf18     Zydis.obj
 0002:00085f28       ??_C@_0N@IIDNOBNN@vfnmsub231pd@ 00000001800dcf28     Zydis.obj
 0002:00085f38       ??_C@_0N@CEIIKONB@vfnmsub231ph@ 00000001800dcf38     Zydis.obj
 0002:00085f48       ??_C@_0N@INLOGFEL@vfnmsub231ps@ 00000001800dcf48     Zydis.obj
 0002:00085f58       ??_C@_0N@IKHLFPIE@vfnmsub231sd@ 00000001800dcf58     Zydis.obj
 0002:00085f68       ??_C@_0N@CGMOBAII@vfnmsub231sh@ 00000001800dcf68     Zydis.obj
 0002:00085f78       ??_C@_0N@IPPINLBC@vfnmsub231ss@ 00000001800dcf78     Zydis.obj
 0002:00085f88       ??_C@_09JPJAOMHP@vfnmsubpd@ 00000001800dcf88     Zydis.obj
 0002:00085f98       ??_C@_09JKBDGIOJ@vfnmsubps@ 00000001800dcf98     Zydis.obj
 0002:00085fa8       ??_C@_09JNNGFCCG@vfnmsubsd@ 00000001800dcfa8     Zydis.obj
 0002:00085fb8       ??_C@_09JIFFNGLA@vfnmsubss@ 00000001800dcfb8     Zydis.obj
 0002:00085fc8       ??_C@_0L@ONPHGPOJ@vfpclasspd@ 00000001800dcfc8     Zydis.obj
 0002:00085fd8       ??_C@_0L@EBECCAOF@vfpclassph@ 00000001800dcfd8     Zydis.obj
 0002:00085fe8       ??_C@_0L@OIHEOLHP@vfpclassps@ 00000001800dcfe8     Zydis.obj
 0002:00085ff8       ??_C@_0L@OPLBNBLA@vfpclasssd@ 00000001800dcff8     Zydis.obj
 0002:00086008       ??_C@_0L@EDAEJOLM@vfpclasssh@ 00000001800dd008     Zydis.obj
 0002:00086018       ??_C@_0L@OKDCFFCG@vfpclassss@ 00000001800dd018     Zydis.obj
 0002:00086028       ??_C@_07NBBOOGAC@vfrczpd@  00000001800dd028     Zydis.obj
 0002:00086030       ??_C@_07NEJNGCJE@vfrczps@  00000001800dd030     Zydis.obj
 0002:00086038       ??_C@_07NDFIFIFL@vfrczsd@  00000001800dd038     Zydis.obj
 0002:00086040       ??_C@_07NGNLNMMN@vfrczss@  00000001800dd040     Zydis.obj
 0002:00086048       ??_C@_0L@FAIAEKEE@vgatherdpd@ 00000001800dd048     Zydis.obj
 0002:00086058       ??_C@_0L@FFADMONC@vgatherdps@ 00000001800dd058     Zydis.obj
 0002:00086068       ??_C@_0O@PKBEJHBE@vgatherpf0dpd@ 00000001800dd068     Zydis.obj
 0002:00086078       ??_C@_0O@PPJHBDIC@vgatherpf0dps@ 00000001800dd078     Zydis.obj
 0002:00086088       ??_C@_0BC@LNOFKNHG@vgatherpf0hintdpd@ 00000001800dd088     Zydis.obj
 0002:000860a0       ??_C@_0BC@LIGGCJOA@vgatherpf0hintdps@ 00000001800dd0a0     Zydis.obj
 0002:000860b8       ??_C@_0O@JNNDDALJ@vgatherpf0qpd@ 00000001800dd0b8     Zydis.obj
 0002:000860c8       ??_C@_0O@JIFALECP@vgatherpf0qps@ 00000001800dd0c8     Zydis.obj
 0002:000860d8       ??_C@_0O@MHHELOKE@vgatherpf1dpd@ 00000001800dd0d8     Zydis.obj
 0002:000860e8       ??_C@_0O@MCPHDKDC@vgatherpf1dps@ 00000001800dd0e8     Zydis.obj
 0002:000860f8       ??_C@_0O@KALDBJAJ@vgatherpf1qpd@ 00000001800dd0f8     Zydis.obj
 0002:00086108       ??_C@_0O@KFDAJNJP@vgatherpf1qps@ 00000001800dd108     Zydis.obj
 0002:00086118       ??_C@_0L@DHEHONOJ@vgatherqpd@ 00000001800dd118     Zydis.obj
 0002:00086128       ??_C@_0L@DCMEGJHP@vgatherqps@ 00000001800dd128     Zydis.obj
 0002:00086138       ??_C@_09PAMIIHFE@vgetexppd@ 00000001800dd138     Zydis.obj
 0002:00086148       ??_C@_09FMHNMIFI@vgetexpph@ 00000001800dd148     Zydis.obj
 0002:00086158       ??_C@_09PFELADMC@vgetexpps@ 00000001800dd158     Zydis.obj
 0002:00086168       ??_C@_09PCIODJAN@vgetexpsd@ 00000001800dd168     Zydis.obj
 0002:00086178       ??_C@_09FODLHGAB@vgetexpsh@ 00000001800dd178     Zydis.obj
 0002:00086188       ??_C@_09PHANLNJL@vgetexpss@ 00000001800dd188     Zydis.obj
 0002:00086198       ??_C@_0L@DBMMFLOF@vgetmantpd@ 00000001800dd198     Zydis.obj
 0002:000861a8       ??_C@_0L@JNHJBEOJ@vgetmantph@ 00000001800dd1a8     Zydis.obj
 0002:000861b8       ??_C@_0L@DEEPNPHD@vgetmantps@ 00000001800dd1b8     Zydis.obj
 0002:000861c8       ??_C@_0L@DDIKOFLM@vgetmantsd@ 00000001800dd1c8     Zydis.obj
 0002:000861d8       ??_C@_0L@JPDPKKLA@vgetmantsh@ 00000001800dd1d8     Zydis.obj
 0002:000861e8       ??_C@_0L@DGAJGBCK@vgetmantss@ 00000001800dd1e8     Zydis.obj
 0002:000861f8       ??_C@_0BC@MLHGMHLN@vgf2p8affineinvqb@ 00000001800dd1f8     Zydis.obj
 0002:00086210       ??_C@_0P@IEJLDEEB@vgf2p8affineqb@ 00000001800dd210     Zydis.obj
 0002:00086220       ??_C@_0L@HGEBOIFM@vgf2p8mulb@ 00000001800dd220     Zydis.obj
 0002:00086230       ??_C@_0L@NGANCEPF@vgmaxabsps@ 00000001800dd230     Zydis.obj
 0002:00086240       ??_C@_07FFCAMGBD@vgmaxpd@  00000001800dd240     Zydis.obj
 0002:00086248       ??_C@_07FAKDECIF@vgmaxps@  00000001800dd248     Zydis.obj
 0002:00086250       ??_C@_07BACCIFJB@vgminpd@  00000001800dd250     Zydis.obj
 0002:00086258       ??_C@_07BFKBABAH@vgminps@  00000001800dd258     Zydis.obj
 0002:00086260       ??_C@_07GIFBBNG@vhaddpd@   00000001800dd260     Zydis.obj
 0002:00086268       ??_C@_07DAGJFEA@vhaddps@   00000001800dd268     Zydis.obj
 0002:00086270       ??_C@_07DAHAFDKI@vhsubpd@  00000001800dd270     Zydis.obj
 0002:00086278       ??_C@_07DFPDNHDO@vhsubps@  00000001800dd278     Zydis.obj
 0002:00086280       ??_C@_0M@HPBOMOMM@vinsertf128@ 00000001800dd280     Zydis.obj
 0002:00086290       ??_C@_0N@CDNNLNAC@vinsertf32x4@ 00000001800dd290     Zydis.obj
 0002:000862a0       ??_C@_0N@IPGIPCAO@vinsertf32x8@ 00000001800dd2a0     Zydis.obj
 0002:000862b0       ??_C@_0N@JIAMMKCI@vinsertf64x2@ 00000001800dd2b0     Zydis.obj
 0002:000862c0       ??_C@_0N@MOFGGNKO@vinsertf64x4@ 00000001800dd2c0     Zydis.obj
 0002:000862d0       ??_C@_0M@PNEOFJBN@vinserti128@ 00000001800dd2d0     Zydis.obj
 0002:000862e0       ??_C@_0N@NCILAPNH@vinserti32x4@ 00000001800dd2e0     Zydis.obj
 0002:000862f0       ??_C@_0N@HODOEANL@vinserti32x8@ 00000001800dd2f0     Zydis.obj
 0002:00086300       ??_C@_0N@GJFKHIPN@vinserti64x2@ 00000001800dd300     Zydis.obj
 0002:00086310       ??_C@_0N@DPAANPHL@vinserti64x4@ 00000001800dd310     Zydis.obj
 0002:00086320       ??_C@_09GAJGHFHO@vinsertps@ 00000001800dd320     Zydis.obj
 0002:0008632c       ??_C@_06ENJADELM@vlddqu@   00000001800dd32c     Zydis.obj
 0002:00086338       ??_C@_08HNBHKOBG@vldmxcsr@ 00000001800dd338     Zydis.obj
 0002:00086348       ??_C@_0O@JOEFHCIG@vloadunpackhd@ 00000001800dd348     Zydis.obj
 0002:00086358       ??_C@_0P@BOPLMGGI@vloadunpackhpd@ 00000001800dd358     Zydis.obj
 0002:00086368       ??_C@_0P@BLHIECPO@vloadunpackhps@ 00000001800dd368     Zydis.obj
 0002:00086378       ??_C@_0O@KJPAJEJC@vloadunpackhq@ 00000001800dd378     Zydis.obj
 0002:00086388       ??_C@_0O@JJEMNKFK@vloadunpackld@ 00000001800dd388     Zydis.obj
 0002:00086398       ??_C@_0P@JBJJFBDP@vloadunpacklpd@ 00000001800dd398     Zydis.obj
 0002:000863a8       ??_C@_0P@JEBKNFKJ@vloadunpacklps@ 00000001800dd3a8     Zydis.obj
 0002:000863b8       ??_C@_0O@KOPJDMEO@vloadunpacklq@ 00000001800dd3b8     Zydis.obj
 0002:000863c8       ??_C@_07GEIFPKIN@vlog2ps@  00000001800dd3c8     Zydis.obj
 0002:000863d0       ??_C@_0M@HIPJIAEN@vmaskmovdqu@ 00000001800dd3d0     Zydis.obj
 0002:000863e0       ??_C@_0L@PCLMIHED@vmaskmovpd@ 00000001800dd3e0     Zydis.obj
 0002:000863f0       ??_C@_0L@PHDPADNF@vmaskmovps@ 00000001800dd3f0     Zydis.obj
 0002:000863fc       ??_C@_06GPIMJGJ@vmaxpd@    00000001800dd3fc     Zydis.obj
 0002:00086404       ??_C@_06KKENIGGF@vmaxph@   00000001800dd404     Zydis.obj
 0002:0008640c       ??_C@_06DHLENPP@vmaxps@    00000001800dd40c     Zydis.obj
 0002:00086414       ??_C@_06ELOHHDA@vmaxsd@    00000001800dd414     Zydis.obj
 0002:0008641c       ??_C@_06KIALDIDM@vmaxsh@   00000001800dd41c     Zydis.obj
 0002:00086424       ??_C@_06BDNPDKG@vmaxss@    00000001800dd424     Zydis.obj
 0002:0008642c       ??_C@_06IMMMFCAA@vmcall@   00000001800dd42c     Zydis.obj
 0002:00086438       ??_C@_07JAMFMPEO@vmclear@  00000001800dd438     Zydis.obj
 0002:00086440       ??_C@_06BPELNFBJ@vmfunc@   00000001800dd440     Zydis.obj
 0002:00086448       ??_C@_06EDPKIKOL@vminpd@   00000001800dd448     Zydis.obj
 0002:00086450       ??_C@_06OPEPMFOH@vminph@   00000001800dd450     Zydis.obj
 0002:00086458       ??_C@_06EGHJAOHN@vminps@   00000001800dd458     Zydis.obj
 0002:00086460       ??_C@_06EBLMDELC@vminsd@   00000001800dd460     Zydis.obj
 0002:00086468       ??_C@_06ONAJHLLO@vminsh@   00000001800dd468     Zydis.obj
 0002:00086470       ??_C@_06EEDPLACE@vminss@   00000001800dd470     Zydis.obj
 0002:00086478       ??_C@_08FDGBGFFD@vmlaunch@ 00000001800dd478     Zydis.obj
 0002:00086484       ??_C@_06COECKLLJ@vmload@   00000001800dd484     Zydis.obj
 0002:00086490       ??_C@_07HLGEACDE@vmmcall@  00000001800dd490     Zydis.obj
 0002:00086498       ??_C@_07EDEJGLNB@vmovapd@  00000001800dd498     Zydis.obj
 0002:000864a0       ??_C@_07EGMKOPEH@vmovaps@  00000001800dd4a0     Zydis.obj
 0002:000864a8       ??_C@_05MAEMFOGI@vmovd@    00000001800dd4a8     Zydis.obj
 0002:000864b0       ??_C@_08NENHFECA@vmovddup@ 00000001800dd4b0     Zydis.obj
 0002:000864c0       ??_C@_07ICCAFJB@vmovdqa@   00000001800dd4c0     Zydis.obj
 0002:000864c8       ??_C@_09NDGNEIEO@vmovdqa32@ 00000001800dd4c8     Zydis.obj
 0002:000864d8       ??_C@_09IDPMCNCD@vmovdqa64@ 00000001800dd4d8     Zydis.obj
 0002:000864e8       ??_C@_07CGIMNCME@vmovdqu@  00000001800dd4e8     Zydis.obj
 0002:000864f0       ??_C@_09GLPOJJOM@vmovdqu16@ 00000001800dd4f0     Zydis.obj
 0002:00086500       ??_C@_09MBGIIIG@vmovdqu32@ 00000001800dd500     Zydis.obj
 0002:00086510       ??_C@_09FMIHONOL@vmovdqu64@ 00000001800dd510     Zydis.obj
 0002:00086520       ??_C@_08ILLADGIA@vmovdqu8@ 00000001800dd520     Zydis.obj
 0002:00086530       ??_C@_08PJHFAAOG@vmovhlps@ 00000001800dd530     Zydis.obj
 0002:00086540       ??_C@_07DOEBCEFL@vmovhpd@  00000001800dd540     Zydis.obj
 0002:00086548       ??_C@_07DLMCKAMN@vmovhps@  00000001800dd548     Zydis.obj
 0002:00086550       ??_C@_08IDJHDBHB@vmovlhps@ 00000001800dd550     Zydis.obj
 0002:00086560       ??_C@_07LBCDLDAM@vmovlpd@  00000001800dd560     Zydis.obj
 0002:00086568       ??_C@_07LEKADHJK@vmovlps@  00000001800dd568     Zydis.obj
 0002:00086570       ??_C@_09HPCCGDMJ@vmovmskpd@ 00000001800dd570     Zydis.obj
 0002:00086580       ??_C@_09HKKBOHFP@vmovmskps@ 00000001800dd580     Zydis.obj
 0002:00086590       ??_C@_09KLGLNILD@vmovnrapd@ 00000001800dd590     Zydis.obj
 0002:000865a0       ??_C@_09KOOIFMCF@vmovnraps@ 00000001800dd5a0     Zydis.obj
 0002:000865b0       ??_C@_0N@BNCIJCGL@vmovnrngoapd@ 00000001800dd5b0     Zydis.obj
 0002:000865c0       ??_C@_0N@BIKLBGPN@vmovnrngoaps@ 00000001800dd5c0     Zydis.obj
 0002:000865d0       ??_C@_08MKIBODBI@vmovntdq@ 00000001800dd5d0     Zydis.obj
 0002:000865e0       ??_C@_09GPEAEDFD@vmovntdqa@ 00000001800dd5e0     Zydis.obj
 0002:000865f0       ??_C@_08OGBLAOKA@vmovntpd@ 00000001800dd5f0     Zydis.obj
 0002:00086600       ??_C@_08ODJIIKDG@vmovntps@ 00000001800dd600     Zydis.obj
 0002:0008660c       ??_C@_05PHPJLIHM@vmovq@    00000001800dd60c     Zydis.obj
 0002:00086614       ??_C@_06FLFBLOGC@vmovsd@   00000001800dd614     Zydis.obj
 0002:0008661c       ??_C@_06PHOEPBGO@vmovsh@   00000001800dd61c     Zydis.obj
 0002:00086628       ??_C@_09CBMIKDFJ@vmovshdup@ 00000001800dd628     Zydis.obj
 0002:00086638       ??_C@_09NEEIAFJJ@vmovsldup@ 00000001800dd638     Zydis.obj
 0002:00086644       ??_C@_06FONCDKPE@vmovss@   00000001800dd644     Zydis.obj
 0002:00086650       ??_C@_07JMDCKLBJ@vmovupd@  00000001800dd650     Zydis.obj
 0002:00086658       ??_C@_07JJLBCPIP@vmovups@  00000001800dd658     Zydis.obj
 0002:00086660       ??_C@_05KBKDBPPK@vmovw@    00000001800dd660     Zydis.obj
 0002:00086668       ??_C@_08ILEEIFPG@vmpsadbw@ 00000001800dd668     Zydis.obj
 0002:00086678       ??_C@_07JMJJCKJK@vmptrld@  00000001800dd678     Zydis.obj
 0002:00086680       ??_C@_07MBCBNMIG@vmptrst@  00000001800dd680     Zydis.obj
 0002:00086688       ??_C@_06JOCPGCDO@vmread@   00000001800dd688     Zydis.obj
 0002:00086690       ??_C@_08EIHJLGKP@vmresume@ 00000001800dd690     Zydis.obj
 0002:0008669c       ??_C@_05JKJGIHPJ@vmrun@    00000001800dd69c     Zydis.obj
 0002:000866a4       ??_C@_06CMFPFIGN@vmsave@   00000001800dd6a4     Zydis.obj
 0002:000866ac       ??_C@_06EMODDIOD@vmulpd@   00000001800dd6ac     Zydis.obj
 0002:000866b4       ??_C@_06OAFGHHOP@vmulph@   00000001800dd6b4     Zydis.obj
 0002:000866bc       ??_C@_06EJGALMHF@vmulps@   00000001800dd6bc     Zydis.obj
 0002:000866c4       ??_C@_06EOKFIGLK@vmulsd@   00000001800dd6c4     Zydis.obj
 0002:000866cc       ??_C@_06OCBAMJLG@vmulsh@   00000001800dd6cc     Zydis.obj
 0002:000866d4       ??_C@_06ELCGACCM@vmulss@   00000001800dd6d4     Zydis.obj
 0002:000866e0       ??_C@_07ICOKPMJF@vmwrite@  00000001800dd6e0     Zydis.obj
 0002:000866e8       ??_C@_06IMFLOOPM@vmxoff@   00000001800dd6e8     Zydis.obj
 0002:000866f0       ??_C@_05OEJKEBDL@vmxon@    00000001800dd6f0     Zydis.obj
 0002:000866f8       ??_C@_05BMHCPOPI@vorpd@    00000001800dd6f8     Zydis.obj
 0002:00086700       ??_C@_05BJPBHKGO@vorps@    00000001800dd700     Zydis.obj
 0002:00086708       ??_C@_0O@HDJFHKDO@vp2intersectd@ 00000001800dd708     Zydis.obj
 0002:00086718       ??_C@_0O@EECAJMCK@vp2intersectq@ 00000001800dd718     Zydis.obj
 0002:00086728       ??_C@_09HIDNCDE@vp4dpwssd@ 00000001800dd728     Zydis.obj
 0002:00086738       ??_C@_0L@CFKBFNFC@vp4dpwssds@ 00000001800dd738     Zydis.obj
 0002:00086744       ??_C@_06NCAIHGAI@vpabsb@   00000001800dd744     Zydis.obj
 0002:0008674c       ??_C@_06IEFCNBIO@vpabsd@   00000001800dd74c     Zydis.obj
 0002:00086754       ??_C@_06LDOHDHJK@vpabsq@   00000001800dd754     Zydis.obj
 0002:0008675c       ??_C@_06OFLNJABM@vpabsw@   00000001800dd75c     Zydis.obj
 0002:00086768       ??_C@_09DLPFLBOH@vpackssdw@ 00000001800dd768     Zydis.obj
 0002:00086778       ??_C@_09BCCAEKNK@vpacksswb@ 00000001800dd778     Zydis.obj
 0002:00086788       ??_C@_0N@LAIJCNED@vpackstorehd@ 00000001800dd788     Zydis.obj
 0002:00086798       ??_C@_0O@PFNLDMAI@vpackstorehpd@ 00000001800dd798     Zydis.obj
 0002:000867a8       ??_C@_0O@PAFILIJO@vpackstorehps@ 00000001800dd7a8     Zydis.obj
 0002:000867b8       ??_C@_0N@IHDMMLFH@vpackstorehq@ 00000001800dd7b8     Zydis.obj
 0002:000867c8       ??_C@_0N@LHIAIFJP@vpackstoreld@ 00000001800dd7c8     Zydis.obj
 0002:000867d8       ??_C@_0O@HKLJKLFP@vpackstorelpd@ 00000001800dd7d8     Zydis.obj
 0002:000867e8       ??_C@_0O@HPDKCPMJ@vpackstorelps@ 00000001800dd7e8     Zydis.obj
 0002:000867f8       ??_C@_0N@IADFGDIL@vpackstorelq@ 00000001800dd7f8     Zydis.obj
 0002:00086808       ??_C@_09LELFEEEH@vpackusdw@ 00000001800dd808     Zydis.obj
 0002:00086818       ??_C@_09JNGALPHK@vpackuswb@ 00000001800dd818     Zydis.obj
 0002:00086824       ??_C@_06LNBPCNCC@vpadcd@   00000001800dd824     Zydis.obj
 0002:0008682c       ??_C@_06OOAKJMCB@vpaddb@   00000001800dd82c     Zydis.obj
 0002:00086834       ??_C@_06LIFADLKH@vpaddd@   00000001800dd834     Zydis.obj
 0002:0008683c       ??_C@_06IPOFNNLD@vpaddq@   00000001800dd83c     Zydis.obj
 0002:00086848       ??_C@_07GKINKKA@vpaddsb@   00000001800dd848     Zydis.obj
 0002:00086850       ??_C@_0L@GHNPGLCI@vpaddsetcd@ 00000001800dd850     Zydis.obj
 0002:00086860       ??_C@_0L@HLPJMIFI@vpaddsetsd@ 00000001800dd860     Zydis.obj
 0002:00086870       ??_C@_07DBBNDMLE@vpaddsw@  00000001800dd870     Zydis.obj
 0002:00086878       ??_C@_08LJJEJEIM@vpaddusb@ 00000001800dd878     Zydis.obj
 0002:00086888       ??_C@_08IOCBHCJI@vpaddusw@ 00000001800dd888     Zydis.obj
 0002:00086894       ??_C@_06NJLPHKDF@vpaddw@   00000001800dd894     Zydis.obj
 0002:000868a0       ??_C@_08JHLGPDG@vpalignr@  00000001800dd8a0     Zydis.obj
 0002:000868ac       ??_C@_05KKNGIIKA@vpand@    00000001800dd8ac     Zydis.obj
 0002:000868b4       ??_C@_06NHONNLMD@vpandd@   00000001800dd8b4     Zydis.obj
 0002:000868bc       ??_C@_06CNACDDEJ@vpandn@   00000001800dd8bc     Zydis.obj
 0002:000868c8       ??_C@_07OLMFFKE@vpandnd@   00000001800dd8c8     Zydis.obj
 0002:000868d0       ??_C@_07DJAJLDLA@vpandnq@  00000001800dd8d0     Zydis.obj
 0002:000868d8       ??_C@_06OAFIDNNH@vpandq@   00000001800dd8d8     Zydis.obj
 0002:000868e0       ??_C@_06BGFMLNGM@vpavgb@   00000001800dd8e0     Zydis.obj
 0002:000868e8       ??_C@_06CBOJFLHI@vpavgw@   00000001800dd8e8     Zydis.obj
 0002:000868f0       ??_C@_08JBGEOHCB@vpblendd@ 00000001800dd8f0     Zydis.obj
 0002:00086900       ??_C@_09BEOCEGBD@vpblendmb@ 00000001800dd900     Zydis.obj
 0002:00086910       ??_C@_09ECLIOBJF@vpblendmd@ 00000001800dd910     Zydis.obj
 0002:00086920       ??_C@_09HFANAHIB@vpblendmq@ 00000001800dd920     Zydis.obj
 0002:00086930       ??_C@_09CDFHKAAH@vpblendmw@ 00000001800dd930     Zydis.obj
 0002:00086940       ??_C@_09EJBAKIC@vpblendvb@ 00000001800dd940     Zydis.obj
 0002:00086950       ??_C@_08PAILKGLD@vpblendw@ 00000001800dd950     Zydis.obj
 0002:00086960       ??_C@_0N@IDDNICPI@vpbroadcastb@ 00000001800dd960     Zydis.obj
 0002:00086970       ??_C@_0N@NFGHCFHO@vpbroadcastd@ 00000001800dd970     Zydis.obj
 0002:00086980       ??_C@_0BA@OILOEFCD@vpbroadcastmb2q@ 00000001800dd980     Zydis.obj
 0002:00086990       ??_C@_0BA@LIMMAEJK@vpbroadcastmw2d@ 00000001800dd990     Zydis.obj
 0002:000869a0       ??_C@_0N@OCNCMDGK@vpbroadcastq@ 00000001800dd9a0     Zydis.obj
 0002:000869b0       ??_C@_0N@LEIIGEOM@vpbroadcastw@ 00000001800dd9b0     Zydis.obj
 0002:000869c0       ??_C@_0L@NBDJJMAH@vpclmulqdq@ 00000001800dd9c0     Zydis.obj
 0002:000869cc       ??_C@_06MLDJLIHP@vpcmov@   00000001800dd9cc     Zydis.obj
 0002:000869d4       ??_C@_06PCONILGH@vpcmpb@   00000001800dd9d4     Zydis.obj
 0002:000869dc       ??_C@_06KELHCMOB@vpcmpd@   00000001800dd9dc     Zydis.obj
 0002:000869e8       ??_C@_08MPPJGGNO@vpcmpeqb@ 00000001800dd9e8     Zydis.obj
 0002:000869f8       ??_C@_08JJKDMBFI@vpcmpeqd@ 00000001800dd9f8     Zydis.obj
 0002:00086a08       ??_C@_08KOBGCHEM@vpcmpeqq@ 00000001800dda08     Zydis.obj
 0002:00086a18       ??_C@_08PIEMIAMK@vpcmpeqw@ 00000001800dda18     Zydis.obj
 0002:00086a28       ??_C@_0L@FHJCNEPG@vpcmpestri@ 00000001800dda28     Zydis.obj
 0002:00086a38       ??_C@_0L@DDPOBBPC@vpcmpestrm@ 00000001800dda38     Zydis.obj
 0002:00086a48       ??_C@_08GDDLGMLO@vpcmpgtb@ 00000001800dda48     Zydis.obj
 0002:00086a58       ??_C@_08DFGBMLDI@vpcmpgtd@ 00000001800dda58     Zydis.obj
 0002:00086a68       ??_C@_08CNECNCM@vpcmpgtq@  00000001800dda68     Zydis.obj
 0002:00086a78       ??_C@_08FEIOIKKK@vpcmpgtw@ 00000001800dda78     Zydis.obj
 0002:00086a88       ??_C@_0L@CAFABEIN@vpcmpistri@ 00000001800dda88     Zydis.obj
 0002:00086a98       ??_C@_0L@EEDMNBIJ@vpcmpistrm@ 00000001800dda98     Zydis.obj
 0002:00086aa8       ??_C@_08OCGAEMDJ@vpcmpltd@ 00000001800ddaa8     Zydis.obj
 0002:00086ab4       ??_C@_06JDACMKPF@vpcmpq@   00000001800ddab4     Zydis.obj
 0002:00086ac0       ??_C@_07JNIGKFKA@vpcmpub@  00000001800ddac0     Zydis.obj
 0002:00086ac8       ??_C@_07MLNMACCG@vpcmpud@  00000001800ddac8     Zydis.obj
 0002:00086ad0       ??_C@_07PMGJOEDC@vpcmpuq@  00000001800ddad0     Zydis.obj
 0002:00086ad8       ??_C@_07KKDDEDLE@vpcmpuw@  00000001800ddad8     Zydis.obj
 0002:00086ae0       ??_C@_06MFFIGNHD@vpcmpw@   00000001800ddae0     Zydis.obj
 0002:00086ae8       ??_C@_06EMBKHDMP@vpcomb@   00000001800ddae8     Zydis.obj
 0002:00086af0       ??_C@_06BKEANEEJ@vpcomd@   00000001800ddaf0     Zydis.obj
 0002:00086af8       ??_C@_0M@MADNFPJJ@vpcompressb@ 00000001800ddaf8     Zydis.obj
 0002:00086b08       ??_C@_0M@JGGHPIBP@vpcompressd@ 00000001800ddb08     Zydis.obj
 0002:00086b18       ??_C@_0M@KBNCBOAL@vpcompressq@ 00000001800ddb18     Zydis.obj
 0002:00086b28       ??_C@_0M@PHIILJIN@vpcompressw@ 00000001800ddb28     Zydis.obj
 0002:00086b34       ??_C@_06CNPFDCFN@vpcomq@   00000001800ddb34     Zydis.obj
 0002:00086b40       ??_C@_07EFDFHJIC@vpcomub@  00000001800ddb40     Zydis.obj
 0002:00086b48       ??_C@_07BDGPNOAE@vpcomud@  00000001800ddb48     Zydis.obj
 0002:00086b50       ??_C@_07CENKDIBA@vpcomuq@  00000001800ddb50     Zydis.obj
 0002:00086b58       ??_C@_07HCIAJPJG@vpcomuw@  00000001800ddb58     Zydis.obj
 0002:00086b60       ??_C@_06HLKPJFNL@vpcomw@   00000001800ddb60     Zydis.obj
 0002:00086b68       ??_C@_0M@LFJMJJPI@vpconflictd@ 00000001800ddb68     Zydis.obj
 0002:00086b78       ??_C@_0M@ICCJHPOM@vpconflictq@ 00000001800ddb78     Zydis.obj
 0002:00086b88       ??_C@_08IPJKPGFM@vpdpbssd@ 00000001800ddb88     Zydis.obj
 0002:00086b98       ??_C@_09GGEAKNBM@vpdpbssds@ 00000001800ddb98     Zydis.obj
 0002:00086ba8       ??_C@_08ILBHIKOO@vpdpbsud@ 00000001800ddba8     Zydis.obj
 0002:00086bb8       ??_C@_09EDCLPCMA@vpdpbsuds@ 00000001800ddbb8     Zydis.obj
 0002:00086bc8       ??_C@_08KKPBKJIA@vpdpbusd@ 00000001800ddbc8     Zydis.obj
 0002:00086bd8       ??_C@_09OJAAFILM@vpdpbusds@ 00000001800ddbd8     Zydis.obj
 0002:00086be8       ??_C@_08KOHMNFDC@vpdpbuud@ 00000001800ddbe8     Zydis.obj
 0002:00086bf8       ??_C@_09MMGLAHGA@vpdpbuuds@ 00000001800ddbf8     Zydis.obj
 0002:00086c08       ??_C@_08CHJKOOKO@vpdpwssd@ 00000001800ddc08     Zydis.obj
 0002:00086c18       ??_C@_09DFFLDODE@vpdpwssds@ 00000001800ddc18     Zydis.obj
 0002:00086c28       ??_C@_08CDBHJCBM@vpdpwsud@ 00000001800ddc28     Zydis.obj
 0002:00086c38       ??_C@_09BADAGBOI@vpdpwsuds@ 00000001800ddc38     Zydis.obj
 0002:00086c48       ??_C@_08CPBLBHC@vpdpwusd@  00000001800ddc48     Zydis.obj
 0002:00086c58       ??_C@_09LKBLMLJE@vpdpwusds@ 00000001800ddc58     Zydis.obj
 0002:00086c68       ??_C@_08GHMMNMA@vpdpwuud@  00000001800ddc68     Zydis.obj
 0002:00086c78       ??_C@_09JPHAJEEI@vpdpwuuds@ 00000001800ddc78     Zydis.obj
 0002:00086c88       ??_C@_0L@EBGBBKJC@vperm2f128@ 00000001800ddc88     Zydis.obj
 0002:00086c98       ??_C@_0L@MDDBINED@vperm2i128@ 00000001800ddc98     Zydis.obj
 0002:00086ca4       ??_C@_06GBCJAJCN@vpermb@   00000001800ddca4     Zydis.obj
 0002:00086cac       ??_C@_06DHHDKOKL@vpermd@   00000001800ddcac     Zydis.obj
 0002:00086cb8       ??_C@_0L@OFIAPIDM@vpermf32x4@ 00000001800ddcb8     Zydis.obj
 0002:00086cc8       ??_C@_08PONDDMLI@vpermi2b@ 00000001800ddcc8     Zydis.obj
 0002:00086cd8       ??_C@_08KIIJJLDO@vpermi2d@ 00000001800ddcd8     Zydis.obj
 0002:00086ce8       ??_C@_09NLHHDBDP@vpermi2pd@ 00000001800ddce8     Zydis.obj
 0002:00086cf8       ??_C@_09NOPELFKJ@vpermi2ps@ 00000001800ddcf8     Zydis.obj
 0002:00086d08       ??_C@_08JPDMHNCK@vpermi2q@ 00000001800ddd08     Zydis.obj
 0002:00086d18       ??_C@_08MJGGNKKM@vpermi2w@ 00000001800ddd18     Zydis.obj
 0002:00086d28       ??_C@_0L@BKDNBOBP@vpermil2pd@ 00000001800ddd28     Zydis.obj
 0002:00086d38       ??_C@_0L@BPLOJKIJ@vpermil2ps@ 00000001800ddd38     Zydis.obj
 0002:00086d48       ??_C@_09PAKFEJKO@vpermilpd@ 00000001800ddd48     Zydis.obj
 0002:00086d58       ??_C@_09PFCGMNDI@vpermilps@ 00000001800ddd58     Zydis.obj
 0002:00086d68       ??_C@_07FLINKMMB@vpermpd@  00000001800ddd68     Zydis.obj
 0002:00086d70       ??_C@_07FOAOCIFH@vpermps@  00000001800ddd70     Zydis.obj
 0002:00086d78       ??_C@_06MGEILP@vpermq@     00000001800ddd78     Zydis.obj
 0002:00086d80       ??_C@_08FMKALDPK@vpermt2b@ 00000001800ddd80     Zydis.obj
 0002:00086d90       ??_C@_08KPKBEHM@vpermt2d@  00000001800ddd90     Zydis.obj
 0002:00086da0       ??_C@_09EDAHGCAM@vpermt2pd@ 00000001800ddda0     Zydis.obj
 0002:00086db0       ??_C@_09EGIEOGJK@vpermt2ps@ 00000001800dddb0     Zydis.obj
 0002:00086dc0       ??_C@_08DNEPPCGI@vpermt2q@ 00000001800dddc0     Zydis.obj
 0002:00086dd0       ??_C@_08GLBFFFOO@vpermt2w@ 00000001800dddd0     Zydis.obj
 0002:00086ddc       ??_C@_06FGJMOPDJ@vpermw@   00000001800ddddc     Zydis.obj
 0002:00086de8       ??_C@_09DMJBCIMF@vpexpandb@ 00000001800ddde8     Zydis.obj
 0002:00086df8       ??_C@_09GKMLIPED@vpexpandd@ 00000001800dddf8     Zydis.obj
 0002:00086e08       ??_C@_09FNHOGJFH@vpexpandq@ 00000001800dde08     Zydis.obj
 0002:00086e18       ??_C@_09LCEMONB@vpexpandw@ 00000001800dde18     Zydis.obj
 0002:00086e28       ??_C@_07GJPCNPJN@vpextrb@  00000001800dde28     Zydis.obj
 0002:00086e30       ??_C@_07DPKIHIBL@vpextrd@  00000001800dde30     Zydis.obj
 0002:00086e38       ??_C@_07IBNJOAP@vpextrq@   00000001800dde38     Zydis.obj
 0002:00086e40       ??_C@_07FOEHDJIJ@vpextrw@  00000001800dde40     Zydis.obj
 0002:00086e48       ??_C@_0L@HCMODLAJ@vpgatherdd@ 00000001800dde48     Zydis.obj
 0002:00086e58       ??_C@_0L@EFHLNNBN@vpgatherdq@ 00000001800dde58     Zydis.obj
 0002:00086e68       ??_C@_0L@GICDFKJC@vpgatherqd@ 00000001800dde68     Zydis.obj
 0002:00086e78       ??_C@_0L@FPJGLMIG@vpgatherqq@ 00000001800dde78     Zydis.obj
 0002:00086e88       ??_C@_08NPNKBONH@vphaddbd@ 00000001800dde88     Zydis.obj
 0002:00086e98       ??_C@_08OIGPPIMD@vphaddbq@ 00000001800dde98     Zydis.obj
 0002:00086ea8       ??_C@_08LODFFPEF@vphaddbw@ 00000001800ddea8     Zydis.obj
 0002:00086eb8       ??_C@_07KGHEBGGL@vphaddd@  00000001800ddeb8     Zydis.obj
 0002:00086ec0       ??_C@_08OMOCIEHB@vphadddq@ 00000001800ddec0     Zydis.obj
 0002:00086ed0       ??_C@_08KDNBJGAC@vphaddsw@ 00000001800dded0     Zydis.obj
 0002:00086ee0       ??_C@_09NALKCAFO@vphaddubd@ 00000001800ddee0     Zydis.obj
 0002:00086ef0       ??_C@_09OHAPMGEK@vphaddubq@ 00000001800ddef0     Zydis.obj
 0002:00086f00       ??_C@_09LBFFGBMM@vphaddubw@ 00000001800ddf00     Zydis.obj
 0002:00086f10       ??_C@_09ODICLKPI@vphaddudq@ 00000001800ddf10     Zydis.obj
 0002:00086f20       ??_C@_09MKFHEBMF@vphadduwd@ 00000001800ddf20     Zydis.obj
 0002:00086f30       ??_C@_09PNOCKHNB@vphadduwq@ 00000001800ddf30     Zydis.obj
 0002:00086f40       ??_C@_07MHJLFHPJ@vphaddw@  00000001800ddf40     Zydis.obj
 0002:00086f48       ??_C@_08MFDHHPEM@vphaddwd@ 00000001800ddf48     Zydis.obj
 0002:00086f58       ??_C@_08PCICJJFI@vphaddwq@ 00000001800ddf58     Zydis.obj
 0002:00086f68       ??_C@_0M@JBMAEGIN@vphminposuw@ 00000001800ddf68     Zydis.obj
 0002:00086f78       ??_C@_08IIMABNDL@vphsubbw@ 00000001800ddf78     Zydis.obj
 0002:00086f88       ??_C@_07FAHMJOMB@vphsubd@  00000001800ddf88     Zydis.obj
 0002:00086f90       ??_C@_08NKBHMGAP@vphsubdq@ 00000001800ddf90     Zydis.obj
 0002:00086fa0       ??_C@_08JFCENEHM@vphsubsw@ 00000001800ddfa0     Zydis.obj
 0002:00086fb0       ??_C@_07DBJDNPFD@vphsubw@  00000001800ddfb0     Zydis.obj
 0002:00086fb8       ??_C@_08PDMCDNDC@vphsubwd@ 00000001800ddfb8     Zydis.obj
 0002:00086fc8       ??_C@_07GMEHEFHN@vpinsrb@  00000001800ddfc8     Zydis.obj
 0002:00086fd0       ??_C@_07DKBNOCPL@vpinsrd@  00000001800ddfd0     Zydis.obj
 0002:00086fd8       ??_C@_07NKIAEOP@vpinsrq@   00000001800ddfd8     Zydis.obj
 0002:00086fe0       ??_C@_07FLPCKDGJ@vpinsrw@  00000001800ddfe0     Zydis.obj
 0002:00086fe8       ??_C@_08IHLCCLCK@vplzcntd@ 00000001800ddfe8     Zydis.obj
 0002:00086ff8       ??_C@_08LAAHMNDO@vplzcntq@ 00000001800ddff8     Zydis.obj
 0002:00087008       ??_C@_08PGIBPOPE@vpmacsdd@ 00000001800de008     Zydis.obj
 0002:00087018       ??_C@_09NOPDHMP@vpmacsdqh@ 00000001800de018     Zydis.obj
 0002:00087028       ??_C@_09GJIDPCML@vpmacsdql@ 00000001800de028     Zydis.obj
 0002:00087038       ??_C@_09HGHJHGHO@vpmacssdd@ 00000001800de038     Zydis.obj
 0002:00087048       ??_C@_0L@CKFHJ@vpmacssdqh@ 00000001800de048     Zydis.obj
 0002:00087058       ??_C@_0L@GEGOGAHN@vpmacssdql@ 00000001800de058     Zydis.obj
 0002:00087068       ??_C@_09GIBJGLFH@vpmacsswd@ 00000001800de068     Zydis.obj
 0002:00087078       ??_C@_09JPGCKMF@vpmacssww@ 00000001800de078     Zydis.obj
 0002:00087088       ??_C@_08OIOBODNN@vpmacswd@ 00000001800de088     Zydis.obj
 0002:00087098       ??_C@_08IJAOKCEP@vpmacsww@ 00000001800de098     Zydis.obj
 0002:000870a8       ??_C@_0L@KDIFMFPE@vpmadcsswd@ 00000001800de0a8     Zydis.obj
 0002:000870b8       ??_C@_09BFPMMMGN@vpmadcswd@ 00000001800de0b8     Zydis.obj
 0002:000870c8       ??_C@_0L@DEBACNPK@vpmadd231d@ 00000001800de0c8     Zydis.obj
 0002:000870d8       ??_C@_0L@DHJEPJJE@vpmadd233d@ 00000001800de0d8     Zydis.obj
 0002:000870e8       ??_C@_0M@OAPMNDPP@vpmadd52huq@ 00000001800de0e8     Zydis.obj
 0002:000870f8       ??_C@_0M@GPJOEEKI@vpmadd52luq@ 00000001800de0f8     Zydis.obj
 0002:00087108       ??_C@_0L@LPIDNJFI@vpmaddubsw@ 00000001800de108     Zydis.obj
 0002:00087118       ??_C@_08JHAPFAOL@vpmaddwd@ 00000001800de118     Zydis.obj
 0002:00087128       ??_C@_0L@CJHCEOCK@vpmaskmovd@ 00000001800de128     Zydis.obj
 0002:00087138       ??_C@_0L@BOMHKIDO@vpmaskmovq@ 00000001800de138     Zydis.obj
 0002:00087148       ??_C@_07KDEFHNIM@vpmaxsb@  00000001800de148     Zydis.obj
 0002:00087150       ??_C@_07PFBPNKAK@vpmaxsd@  00000001800de150     Zydis.obj
 0002:00087158       ??_C@_07MCKKDMBO@vpmaxsq@  00000001800de158     Zydis.obj
 0002:00087160       ??_C@_07JEPAJLJI@vpmaxsw@  00000001800de160     Zydis.obj
 0002:00087168       ??_C@_07KHMIABDO@vpmaxub@  00000001800de168     Zydis.obj
 0002:00087170       ??_C@_07PBJCKGLI@vpmaxud@  00000001800de170     Zydis.obj
 0002:00087178       ??_C@_07MGCHEAKM@vpmaxuq@  00000001800de178     Zydis.obj
 0002:00087180       ??_C@_07JAHNOHCK@vpmaxuw@  00000001800de180     Zydis.obj
 0002:00087188       ??_C@_07OGEHDOAO@vpminsb@  00000001800de188     Zydis.obj
 0002:00087190       ??_C@_07LABNJJII@vpminsd@  00000001800de190     Zydis.obj
 0002:00087198       ??_C@_07IHKIHPJM@vpminsq@  00000001800de198     Zydis.obj
 0002:000871a0       ??_C@_07NBPCNIBK@vpminsw@  00000001800de1a0     Zydis.obj
 0002:000871a8       ??_C@_07OCMKECLM@vpminub@  00000001800de1a8     Zydis.obj
 0002:000871b0       ??_C@_07LEJAOFDK@vpminud@  00000001800de1b0     Zydis.obj
 0002:000871b8       ??_C@_07IDCFADCO@vpminuq@  00000001800de1b8     Zydis.obj
 0002:000871c0       ??_C@_07NFHPKEKI@vpminuw@  00000001800de1c0     Zydis.obj
 0002:000871c8       ??_C@_08DFNNFOMH@vpmovb2m@ 00000001800de1c8     Zydis.obj
 0002:000871d8       ??_C@_08BALGABBL@vpmovd2m@ 00000001800de1d8     Zydis.obj
 0002:000871e8       ??_C@_07OFMDABCL@vpmovdb@  00000001800de1e8     Zydis.obj
 0002:000871f0       ??_C@_07NCHGOHDP@vpmovdw@  00000001800de1f0     Zydis.obj
 0002:000871f8       ??_C@_08OKCGFCFO@vpmovm2b@ 00000001800de1f8     Zydis.obj
 0002:00087208       ??_C@_08LMHMPFNI@vpmovm2d@ 00000001800de208     Zydis.obj
 0002:00087218       ??_C@_08ILMJBDMM@vpmovm2q@ 00000001800de218     Zydis.obj
 0002:00087228       ??_C@_08NNJDLEEK@vpmovm2w@ 00000001800de228     Zydis.obj
 0002:00087238       ??_C@_09PHILFHFD@vpmovmskb@ 00000001800de238     Zydis.obj
 0002:00087248       ??_C@_08HHHBKGLG@vpmovq2m@ 00000001800de248     Zydis.obj
 0002:00087258       ??_C@_07PPCOGALA@vpmovqb@  00000001800de258     Zydis.obj
 0002:00087260       ??_C@_07KJHEMHDG@vpmovqd@  00000001800de260     Zydis.obj
 0002:00087268       ??_C@_07MIJLIGKE@vpmovqw@  00000001800de268     Zydis.obj
 0002:00087270       ??_C@_08DCNBCAPA@vpmovsdb@ 00000001800de270     Zydis.obj
 0002:00087280       ??_C@_08FGEMGOE@vpmovsdw@  00000001800de280     Zydis.obj
 0002:00087290       ??_C@_08CIDMEBGL@vpmovsqb@ 00000001800de290     Zydis.obj
 0002:000872a0       ??_C@_08HOGGOGON@vpmovsqd@ 00000001800de2a0     Zydis.obj
 0002:000872b0       ??_C@_08BPIJKHHP@vpmovsqw@ 00000001800de2b0     Zydis.obj
 0002:000872c0       ??_C@_08CMLBDNNJ@vpmovswb@ 00000001800de2c0     Zydis.obj
 0002:000872d0       ??_C@_09KGNBGFLI@vpmovsxbd@ 00000001800de2d0     Zydis.obj
 0002:000872e0       ??_C@_09JBGEIDKM@vpmovsxbq@ 00000001800de2e0     Zydis.obj
 0002:000872f0       ??_C@_09MHDOCECK@vpmovsxbw@ 00000001800de2f0     Zydis.obj
 0002:00087300       ??_C@_09JFOJPPBO@vpmovsxdq@ 00000001800de300     Zydis.obj
 0002:00087310       ??_C@_09LMDMAECD@vpmovsxwd@ 00000001800de310     Zydis.obj
 0002:00087320       ??_C@_09ILIJOCDH@vpmovsxwq@ 00000001800de320     Zydis.obj
 0002:00087330       ??_C@_09KMEHMMCN@vpmovusdb@ 00000001800de330     Zydis.obj
 0002:00087340       ??_C@_09JLPCCKDJ@vpmovusdw@ 00000001800de340     Zydis.obj
 0002:00087350       ??_C@_09LGKKKNLG@vpmovusqb@ 00000001800de350     Zydis.obj
 0002:00087360       ??_C@_09OAPAAKDA@vpmovusqd@ 00000001800de360     Zydis.obj
 0002:00087370       ??_C@_09IBBPELKC@vpmovusqw@ 00000001800de370     Zydis.obj
 0002:00087380       ??_C@_09LCCHNBAE@vpmovuswb@ 00000001800de380     Zydis.obj
 0002:00087390       ??_C@_08FCBKPJGK@vpmovw2m@ 00000001800de390     Zydis.obj
 0002:000873a0       ??_C@_07PLKDBMAC@vpmovwb@  00000001800de3a0     Zydis.obj
 0002:000873a8       ??_C@_09KLMBAHMJ@vpmovzxbd@ 00000001800de3a8     Zydis.obj
 0002:000873b8       ??_C@_09JMHEOBNN@vpmovzxbq@ 00000001800de3b8     Zydis.obj
 0002:000873c8       ??_C@_09MKCOEGFL@vpmovzxbw@ 00000001800de3c8     Zydis.obj
 0002:000873d8       ??_C@_09JIPJJNGP@vpmovzxdq@ 00000001800de3d8     Zydis.obj
 0002:000873e8       ??_C@_09LBCMGGFC@vpmovzxwd@ 00000001800de3e8     Zydis.obj
 0002:000873f8       ??_C@_09IGJJIAEG@vpmovzxwq@ 00000001800de3f8     Zydis.obj
 0002:00087408       ??_C@_07JBNIHIGB@vpmuldq@  00000001800de408     Zydis.obj
 0002:00087410       ??_C@_07KPHHGHBB@vpmulhd@  00000001800de410     Zydis.obj
 0002:00087418       ??_C@_09MDLEEJOH@vpmulhrsw@ 00000001800de418     Zydis.obj
 0002:00087428       ??_C@_08HGGKDAHB@vpmulhud@ 00000001800de428     Zydis.obj
 0002:00087438       ??_C@_08BHIFHBOD@vpmulhuw@ 00000001800de438     Zydis.obj
 0002:00087448       ??_C@_07MOJICGID@vpmulhw@  00000001800de448     Zydis.obj
 0002:00087450       ??_C@_07KIHOMPMN@vpmulld@  00000001800de450     Zydis.obj
 0002:00087458       ??_C@_07JPMLCJNJ@vpmullq@  00000001800de458     Zydis.obj
 0002:00087460       ??_C@_07MJJBIOFP@vpmullw@  00000001800de460     Zydis.obj
 0002:00087468       ??_C@_0P@DNFGPCC@vpmultishiftqb@ 00000001800de468     Zydis.obj
 0002:00087478       ??_C@_08POEIJAGA@vpmuludq@ 00000001800de478     Zydis.obj
 0002:00087488       ??_C@_08EBJLLFFH@vpopcntb@ 00000001800de488     Zydis.obj
 0002:00087498       ??_C@_08BHMBBCNB@vpopcntd@ 00000001800de498     Zydis.obj
 0002:000874a8       ??_C@_08CAHEPEMF@vpopcntq@ 00000001800de4a8     Zydis.obj
 0002:000874b8       ??_C@_08HGCOFDED@vpopcntw@ 00000001800de4b8     Zydis.obj
 0002:000874c4       ??_C@_04HKPCCKHI@vpor@     00000001800de4c4     Zydis.obj
 0002:000874cc       ??_C@_05FPDFKFIH@vpord@    00000001800de4cc     Zydis.obj
 0002:000874d4       ??_C@_05GIIAEDJD@vporq@    00000001800de4d4     Zydis.obj
 0002:000874dc       ??_C@_06JEAFIGHL@vpperm@   00000001800de4dc     Zydis.obj
 0002:000874e8       ??_C@_0L@DOOEEDAI@vprefetch0@ 00000001800de4e8     Zydis.obj
 0002:000874f8       ??_C@_0L@CHPPHCEJ@vprefetch1@ 00000001800de4f8     Zydis.obj
 0002:00087508       ??_C@_0L@MNCCBIK@vprefetch2@ 00000001800de508     Zydis.obj
 0002:00087518       ??_C@_0M@LLNELGNJ@vprefetche0@ 00000001800de518     Zydis.obj
 0002:00087528       ??_C@_0M@KCMPIHJI@vprefetche1@ 00000001800de528     Zydis.obj
 0002:00087538       ??_C@_0M@IJOCNEFL@vprefetche2@ 00000001800de538     Zydis.obj
 0002:00087548       ??_C@_0O@HGDEDBMA@vprefetchenta@ 00000001800de548     Zydis.obj
 0002:00087558       ??_C@_0N@CDMAEGDN@vprefetchnta@ 00000001800de558     Zydis.obj
 0002:00087568       ??_C@_06EGACAAEM@vprold@   00000001800de568     Zydis.obj
 0002:00087570       ??_C@_06HBLHOGFI@vprolq@   00000001800de570     Zydis.obj
 0002:00087578       ??_C@_07GBBPNGAG@vprolvd@  00000001800de578     Zydis.obj
 0002:00087580       ??_C@_07FGKKDABC@vprolvq@  00000001800de580     Zydis.obj
 0002:00087588       ??_C@_06FALKIODG@vprord@   00000001800de588     Zydis.obj
 0002:00087590       ??_C@_06GHAPGICC@vprorq@   00000001800de590     Zydis.obj
 0002:00087598       ??_C@_07NBNJPGKK@vprorvd@  00000001800de598     Zydis.obj
 0002:000875a0       ??_C@_07OGGMBALO@vprorvq@  00000001800de5a0     Zydis.obj
 0002:000875a8       ??_C@_06CGNFFAC@vprotb@    00000001800de5a8     Zydis.obj
 0002:000875b0       ??_C@_06FEDHPCIE@vprotd@   00000001800de5b0     Zydis.obj
 0002:000875b8       ??_C@_06GDICBEJA@vprotq@   00000001800de5b8     Zydis.obj
 0002:000875c0       ??_C@_06DFNILDBG@vprotw@   00000001800de5c0     Zydis.obj
 0002:000875c8       ??_C@_07KKAHNJBD@vpsadbw@  00000001800de5c8     Zydis.obj
 0002:000875d0       ??_C@_06IDJGNMCL@vpsbbd@   00000001800de5d0     Zydis.obj
 0002:000875d8       ??_C@_07LFAFBOPN@vpsbbrd@  00000001800de5d8     Zydis.obj
 0002:000875e0       ??_C@_0M@IDJBIKDC@vpscatterdd@ 00000001800de5e0     Zydis.obj
 0002:000875f0       ??_C@_0M@LECEGMCG@vpscatterdq@ 00000001800de5f0     Zydis.obj
 0002:00087600       ??_C@_0M@JJHMOLKJ@vpscatterqd@ 00000001800de600     Zydis.obj
 0002:00087610       ??_C@_0M@KOMJANLN@vpscatterqq@ 00000001800de610     Zydis.obj
 0002:0008761c       ??_C@_06LIDHCFJA@vpshab@   00000001800de61c     Zydis.obj
 0002:00087624       ??_C@_06OOGNICBG@vpshad@   00000001800de624     Zydis.obj
 0002:0008762c       ??_C@_06NJNIGEAC@vpshaq@   00000001800de62c     Zydis.obj
 0002:00087634       ??_C@_06IPICMDIE@vpshaw@   00000001800de634     Zydis.obj
 0002:0008763c       ??_C@_06LAOPLGMD@vpshlb@   00000001800de63c     Zydis.obj
 0002:00087644       ??_C@_06OGLFBBEF@vpshld@   00000001800de644     Zydis.obj
 0002:00087650       ??_C@_07HMBKOKN@vpshldd@   00000001800de650     Zydis.obj
 0002:00087658       ??_C@_07DAHEEILJ@vpshldq@  00000001800de658     Zydis.obj
 0002:00087660       ??_C@_08LGFDMHEG@vpshldvd@ 00000001800de660     Zydis.obj
 0002:00087670       ??_C@_08IBOGCBFC@vpshldvq@ 00000001800de670     Zydis.obj
 0002:00087680       ??_C@_08NHLMIGNE@vpshldvw@ 00000001800de680     Zydis.obj
 0002:00087690       ??_C@_07GGCOOPDP@vpshldw@  00000001800de690     Zydis.obj
 0002:00087698       ??_C@_06NBAAPHFB@vpshlq@   00000001800de698     Zydis.obj
 0002:000876a0       ??_C@_06IHFKFANH@vpshlw@   00000001800de6a0     Zydis.obj
 0002:000876a8       ??_C@_07LHAHIOAB@vpshrdd@  00000001800de6a8     Zydis.obj
 0002:000876b0       ??_C@_07IALCGIBF@vpshrdq@  00000001800de6b0     Zydis.obj
 0002:000876b8       ??_C@_08GJIDOOKF@vpshrdvd@ 00000001800de6b8     Zydis.obj
 0002:000876c8       ??_C@_08FODGAILB@vpshrdvq@ 00000001800de6c8     Zydis.obj
 0002:000876d8       ??_C@_08IGMKPDH@vpshrdvw@  00000001800de6d8     Zydis.obj
 0002:000876e8       ??_C@_07NGOIMPJD@vpshrdw@  00000001800de6e8     Zydis.obj
 0002:000876f0       ??_C@_07HPAOMFFA@vpshufb@  00000001800de6f0     Zydis.obj
 0002:000876f8       ??_C@_0N@DMFHBHPO@vpshufbitqmb@ 00000001800de6f8     Zydis.obj
 0002:00087708       ??_C@_07CJFEGCNG@vpshufd@  00000001800de708     Zydis.obj
 0002:00087710       ??_C@_08GPNDFNG@vpshufhw@  00000001800de710     Zydis.obj
 0002:00087720       ??_C@_08BPEJNAK@vpshuflw@  00000001800de720     Zydis.obj
 0002:00087730       ??_C@_07LGGNCCEM@vpsignb@  00000001800de730     Zydis.obj
 0002:00087738       ??_C@_07OADHIFMK@vpsignd@  00000001800de738     Zydis.obj
 0002:00087740       ??_C@_07IBNIMEFI@vpsignw@  00000001800de740     Zydis.obj
 0002:00087748       ??_C@_06GJNHIGBC@vpslld@   00000001800de748     Zydis.obj
 0002:00087750       ??_C@_07MFPEOOHJ@vpslldq@  00000001800de750     Zydis.obj
 0002:00087758       ??_C@_06FOGCGAAG@vpsllq@   00000001800de758     Zydis.obj
 0002:00087760       ??_C@_07ONODHPHD@vpsllvd@  00000001800de760     Zydis.obj
 0002:00087768       ??_C@_07NKFGJJGH@vpsllvq@  00000001800de768     Zydis.obj
 0002:00087770       ??_C@_07IMAMDOOB@vpsllvw@  00000001800de770     Zydis.obj
 0002:00087778       ??_C@_06IDIMHIA@vpsllw@    00000001800de778     Zydis.obj
 0002:00087780       ??_C@_06NBMJDFON@vpsrad@   00000001800de780     Zydis.obj
 0002:00087788       ??_C@_06OGHMNDPJ@vpsraq@   00000001800de788     Zydis.obj
 0002:00087790       ??_C@_07MAFJIOEN@vpsravd@  00000001800de790     Zydis.obj
 0002:00087798       ??_C@_07PHOMGIFJ@vpsravq@  00000001800de798     Zydis.obj
 0002:000877a0       ??_C@_07KBLGMPNP@vpsravw@  00000001800de7a0     Zydis.obj
 0002:000877a8       ??_C@_06LACGHEHP@vpsraw@   00000001800de7a8     Zydis.obj
 0002:000877b0       ??_C@_06NJBBKGLO@vpsrld@   00000001800de7b0     Zydis.obj
 0002:000877b8       ??_C@_07BKCEMHJK@vpsrldq@  00000001800de7b8     Zydis.obj
 0002:000877c0       ??_C@_06OOKEEAKK@vpsrlq@   00000001800de7c0     Zydis.obj
 0002:000877c8       ??_C@_07DCDDFGJA@vpsrlvd@  00000001800de7c8     Zydis.obj
 0002:000877d0       ??_C@_07FIGLAIE@vpsrlvq@   00000001800de7d0     Zydis.obj
 0002:000877d8       ??_C@_07FDNMBHAC@vpsrlvw@  00000001800de7d8     Zydis.obj
 0002:000877e0       ??_C@_06LIPOOHCM@vpsrlw@   00000001800de7e0     Zydis.obj
 0002:000877e8       ??_C@_06BIACBEIL@vpsubb@   00000001800de7e8     Zydis.obj
 0002:000877f0       ??_C@_06EOFILDAN@vpsubd@   00000001800de7f0     Zydis.obj
 0002:000877f8       ??_C@_06HJONFFBJ@vpsubq@   00000001800de7f8     Zydis.obj
 0002:00087800       ??_C@_07GHMFFFGP@vpsubrd@  00000001800de800     Zydis.obj
 0002:00087808       ??_C@_0M@INPHJAMG@vpsubrsetbd@ 00000001800de808     Zydis.obj
 0002:00087818       ??_C@_07DAFNJINO@vpsubsb@  00000001800de818     Zydis.obj
 0002:00087820       ??_C@_0L@DHOKGPGH@vpsubsetbd@ 00000001800de820     Zydis.obj
 0002:00087830       ??_C@_07HOIHOMK@vpsubsw@   00000001800de830     Zydis.obj
 0002:00087838       ??_C@_08OBPDNPF@vpsubusb@  00000001800de838     Zydis.obj
 0002:00087848       ??_C@_08DJKKNLOB@vpsubusw@ 00000001800de848     Zydis.obj
 0002:00087854       ??_C@_06CPLHPCJP@vpsubw@   00000001800de854     Zydis.obj
 0002:00087860       ??_C@_0L@HLGFMOAK@vpternlogd@ 00000001800de860     Zydis.obj
 0002:00087870       ??_C@_0L@EMNACIBO@vpternlogq@ 00000001800de870     Zydis.obj
 0002:0008787c       ??_C@_06PLEHODJE@vptest@   00000001800de87c     Zydis.obj
 0002:00087888       ??_C@_08DLOKFGMN@vptestmb@ 00000001800de888     Zydis.obj
 0002:00087898       ??_C@_08GNLAPBEL@vptestmd@ 00000001800de898     Zydis.obj
 0002:000878a8       ??_C@_08FKAFBHFP@vptestmq@ 00000001800de8a8     Zydis.obj
 0002:000878b8       ??_C@_08MFPLANJ@vptestmw@  00000001800de8b8     Zydis.obj
 0002:000878c8       ??_C@_09KLMMLFKN@vptestnmb@ 00000001800de8c8     Zydis.obj
 0002:000878d8       ??_C@_09PNJGBCCL@vptestnmd@ 00000001800de8d8     Zydis.obj
 0002:000878e8       ??_C@_09MKCDPEDP@vptestnmq@ 00000001800de8e8     Zydis.obj
 0002:000878f8       ??_C@_09JMHJFDLJ@vptestnmw@ 00000001800de8f8     Zydis.obj
 0002:00087908       ??_C@_0L@FCKGKDDI@vpunpckhbw@ 00000001800de908     Zydis.obj
 0002:00087918       ??_C@_0L@HBHIAM@vpunpckhdq@ 00000001800de918     Zydis.obj
 0002:00087928       ??_C@_0M@ECLILDNC@vpunpckhqdq@ 00000001800de928     Zydis.obj
 0002:00087938       ??_C@_0L@CJKEIDDB@vpunpckhwd@ 00000001800de938     Zydis.obj
 0002:00087948       ??_C@_0L@NNMEDEGP@vpunpcklbw@ 00000001800de948     Zydis.obj
 0002:00087958       ??_C@_0L@IPBDOPFL@vpunpckldq@ 00000001800de958     Zydis.obj
 0002:00087968       ??_C@_0M@LHDIBFBC@vpunpcklqdq@ 00000001800de968     Zydis.obj
 0002:00087978       ??_C@_0L@KGMGBEGG@vpunpcklwd@ 00000001800de978     Zydis.obj
 0002:00087984       ??_C@_05JKJNEPFF@vpxor@    00000001800de984     Zydis.obj
 0002:0008798c       ??_C@_06BKAKJGJH@vpxord@   00000001800de98c     Zydis.obj
 0002:00087994       ??_C@_06CNLPHAID@vpxorq@   00000001800de994     Zydis.obj
 0002:000879a0       ??_C@_08BJIPIEAH@vrangepd@ 00000001800de9a0     Zydis.obj
 0002:000879b0       ??_C@_08BMAMAAJB@vrangeps@ 00000001800de9b0     Zydis.obj
 0002:000879c0       ??_C@_08BLMJDKFO@vrangesd@ 00000001800de9c0     Zydis.obj
 0002:000879d0       ??_C@_08BOEKLOMI@vrangess@ 00000001800de9d0     Zydis.obj
 0002:000879e0       ??_C@_08HDCOKEGJ@vrcp14pd@ 00000001800de9e0     Zydis.obj
 0002:000879f0       ??_C@_08HGKNCAPP@vrcp14ps@ 00000001800de9f0     Zydis.obj
 0002:00087a00       ??_C@_08HBGIBKDA@vrcp14sd@ 00000001800dea00     Zydis.obj
 0002:00087a10       ??_C@_08HEOLJOKG@vrcp14ss@ 00000001800dea10     Zydis.obj
 0002:00087a20       ??_C@_08KMNKGCJG@vrcp23ps@ 00000001800dea20     Zydis.obj
 0002:00087a30       ??_C@_08HOFIGBAB@vrcp28pd@ 00000001800dea30     Zydis.obj
 0002:00087a40       ??_C@_08HLNLOFJH@vrcp28ps@ 00000001800dea40     Zydis.obj
 0002:00087a50       ??_C@_08HMBONPFI@vrcp28sd@ 00000001800dea50     Zydis.obj
 0002:00087a60       ??_C@_08HJJNFLMO@vrcp28ss@ 00000001800dea60     Zydis.obj
 0002:00087a6c       ??_C@_06OHLJENKE@vrcpph@   00000001800dea6c     Zydis.obj
 0002:00087a74       ??_C@_06EOIPIGDO@vrcpps@   00000001800dea74     Zydis.obj
 0002:00087a7c       ??_C@_06OFPPPDPN@vrcpsh@   00000001800dea7c     Zydis.obj
 0002:00087a84       ??_C@_06EMMJDIGH@vrcpss@   00000001800dea84     Zydis.obj
 0002:00087a90       ??_C@_09CGABPAB@vreducepd@ 00000001800dea90     Zydis.obj
 0002:00087aa0       ??_C@_09KONFFAAN@vreduceph@ 00000001800deaa0     Zydis.obj
 0002:00087ab0       ??_C@_09HODJLJH@vreduceps@ 00000001800deab0     Zydis.obj
 0002:00087ac0       ??_C@_09CGKBFI@vreducesd@  00000001800deac0     Zydis.obj
 0002:00087ad0       ??_C@_09KMJDOOFE@vreducesh@ 00000001800dead0     Zydis.obj
 0002:00087ae0       ??_C@_09FKFCFMO@vreducess@ 00000001800deae0     Zydis.obj
 0002:00087af0       ??_C@_0M@HCKMBAHI@vrndfxpntpd@ 00000001800deaf0     Zydis.obj
 0002:00087b00       ??_C@_0M@HHCPJEOO@vrndfxpntps@ 00000001800deb00     Zydis.obj
 0002:00087b10       ??_C@_0M@HJMBFFKH@vrndscalepd@ 00000001800deb10     Zydis.obj
 0002:00087b20       ??_C@_0M@NFHEBKKL@vrndscaleph@ 00000001800deb20     Zydis.obj
 0002:00087b30       ??_C@_0M@HMECNBDB@vrndscaleps@ 00000001800deb30     Zydis.obj
 0002:00087b40       ??_C@_0M@HLIHOLPO@vrndscalesd@ 00000001800deb40     Zydis.obj
 0002:00087b50       ??_C@_0M@NHDCKEPC@vrndscalesh@ 00000001800deb50     Zydis.obj
 0002:00087b60       ??_C@_0M@HOAEGPGI@vrndscaless@ 00000001800deb60     Zydis.obj
 0002:00087b70       ??_C@_08JFANAIBG@vroundpd@ 00000001800deb70     Zydis.obj
 0002:00087b80       ??_C@_08JAIOIMIA@vroundps@ 00000001800deb80     Zydis.obj
 0002:00087b90       ??_C@_08JHELLGEP@vroundsd@ 00000001800deb90     Zydis.obj
 0002:00087ba0       ??_C@_08JCMIDCNJ@vroundss@ 00000001800deba0     Zydis.obj
 0002:00087bb0       ??_C@_0L@IEKLFLPO@vrsqrt14pd@ 00000001800debb0     Zydis.obj
 0002:00087bc0       ??_C@_0L@IBCINPGI@vrsqrt14ps@ 00000001800debc0     Zydis.obj
 0002:00087bd0       ??_C@_0L@IGONOFKH@vrsqrt14sd@ 00000001800debd0     Zydis.obj
 0002:00087be0       ??_C@_0L@IDGOGBDB@vrsqrt14ss@ 00000001800debe0     Zydis.obj
 0002:00087bf0       ??_C@_0L@FLFPJNAB@vrsqrt23ps@ 00000001800debf0     Zydis.obj
 0002:00087c00       ??_C@_0L@IJNNJOJG@vrsqrt28pd@ 00000001800dec00     Zydis.obj
 0002:00087c10       ??_C@_0L@IMFOBKAA@vrsqrt28ps@ 00000001800dec10     Zydis.obj
 0002:00087c20       ??_C@_0L@ILJLCAMP@vrsqrt28sd@ 00000001800dec20     Zydis.obj
 0002:00087c30       ??_C@_0L@IOBIKEFJ@vrsqrt28ss@ 00000001800dec30     Zydis.obj
 0002:00087c40       ??_C@_08PHFONOKK@vrsqrtph@ 00000001800dec40     Zydis.obj
 0002:00087c50       ??_C@_08FOGIBFDA@vrsqrtps@ 00000001800dec50     Zydis.obj
 0002:00087c60       ??_C@_08PFBIGAPD@vrsqrtsh@ 00000001800dec60     Zydis.obj
 0002:00087c70       ??_C@_08FMCOKLGJ@vrsqrtss@ 00000001800dec70     Zydis.obj
 0002:00087c80       ??_C@_09DIGACEHP@vscalefpd@ 00000001800dec80     Zydis.obj
 0002:00087c90       ??_C@_09JENFGLHD@vscalefph@ 00000001800dec90     Zydis.obj
 0002:00087ca0       ??_C@_09DNODKAOJ@vscalefps@ 00000001800deca0     Zydis.obj
 0002:00087cb0       ??_C@_09DKCGJKCG@vscalefsd@ 00000001800decb0     Zydis.obj
 0002:00087cc0       ??_C@_09JGJDNFCK@vscalefsh@ 00000001800decc0     Zydis.obj
 0002:00087cd0       ??_C@_09DPKFBOLA@vscalefss@ 00000001800decd0     Zydis.obj
 0002:00087ce0       ??_C@_08MBLPJCOC@vscaleps@ 00000001800dece0     Zydis.obj
 0002:00087cf0       ??_C@_0M@FDGHODFB@vscatterdpd@ 00000001800decf0     Zydis.obj
 0002:00087d00       ??_C@_0M@FGOEGHMH@vscatterdps@ 00000001800ded00     Zydis.obj
 0002:00087d10       ??_C@_0P@KBFCIGPH@vscatterpf0dpd@ 00000001800ded10     Zydis.obj
 0002:00087d20       ??_C@_0P@KENBACGB@vscatterpf0dps@ 00000001800ded20     Zydis.obj
 0002:00087d30       ??_C@_0BD@DOFBOKBI@vscatterpf0hintdpd@ 00000001800ded30     Zydis.obj
 0002:00087d48       ??_C@_0BD@DLNCGOIO@vscatterpf0hintdps@ 00000001800ded48     Zydis.obj
 0002:00087d60       ??_C@_0P@MGJFCBFK@vscatterpf0qpd@ 00000001800ded60     Zydis.obj
 0002:00087d70       ??_C@_0P@MDBGKFMM@vscatterpf0qps@ 00000001800ded70     Zydis.obj
 0002:00087d80       ??_C@_0P@JMDCKPEH@vscatterpf1dpd@ 00000001800ded80     Zydis.obj
 0002:00087d90       ??_C@_0P@JJLBCLNB@vscatterpf1dps@ 00000001800ded90     Zydis.obj
 0002:00087da0       ??_C@_0P@PLPFAIOK@vscatterpf1qpd@ 00000001800deda0     Zydis.obj
 0002:00087db0       ??_C@_0P@POHGIMHM@vscatterpf1qps@ 00000001800dedb0     Zydis.obj
 0002:00087dc0       ??_C@_0M@DEKAEEPM@vscatterqpd@ 00000001800dedc0     Zydis.obj
 0002:00087dd0       ??_C@_0M@DBCDMAGK@vscatterqps@ 00000001800dedd0     Zydis.obj
 0002:00087de0       ??_C@_0M@LINDMLNF@vsha512msg1@ 00000001800dede0     Zydis.obj
 0002:00087df0       ??_C@_0M@JDPOJIBG@vsha512msg2@ 00000001800dedf0     Zydis.obj
 0002:00087e00       ??_C@_0N@BACKLENM@vsha512rnds2@ 00000001800dee00     Zydis.obj
 0002:00087e10       ??_C@_0L@PHDKPJIL@vshuff32x4@ 00000001800dee10     Zydis.obj
 0002:00087e20       ??_C@_0L@EMOLIOKB@vshuff64x2@ 00000001800dee20     Zydis.obj
 0002:00087e30       ??_C@_0L@GGMELFO@vshufi32x4@ 00000001800dee30     Zydis.obj
 0002:00087e40       ??_C@_0L@LNLNDMHE@vshufi64x2@ 00000001800dee40     Zydis.obj
 0002:00087e50       ??_C@_07LDNKPOJD@vshufpd@  00000001800dee50     Zydis.obj
 0002:00087e58       ??_C@_07LGFJHKAF@vshufps@  00000001800dee58     Zydis.obj
 0002:00087e60       ??_C@_08EDPCPJMC@vsm3msg1@ 00000001800dee60     Zydis.obj
 0002:00087e70       ??_C@_08GINPKKAB@vsm3msg2@ 00000001800dee70     Zydis.obj
 0002:00087e80       ??_C@_09JDACBACJ@vsm3rnds2@ 00000001800dee80     Zydis.obj
 0002:00087e90       ??_C@_08MPAKEOKG@vsm4key4@ 00000001800dee90     Zydis.obj
 0002:00087ea0       ??_C@_09PPIJCB@vsm4rnds4@  00000001800deea0     Zydis.obj
 0002:00087eb0       ??_C@_07NPDDOOME@vsqrtpd@  00000001800deeb0     Zydis.obj
 0002:00087eb8       ??_C@_07HDIGKBMI@vsqrtph@  00000001800deeb8     Zydis.obj
 0002:00087ec0       ??_C@_07NKLAGKFC@vsqrtps@  00000001800deec0     Zydis.obj
 0002:00087ec8       ??_C@_07NNHFFAJN@vsqrtsd@  00000001800deec8     Zydis.obj
 0002:00087ed0       ??_C@_07HBMABPJB@vsqrtsh@  00000001800deed0     Zydis.obj
 0002:00087ed8       ??_C@_07NIPGNEAL@vsqrtss@  00000001800deed8     Zydis.obj
 0002:00087ee0       ??_C@_08LPFCBBFP@vstmxcsr@ 00000001800deee0     Zydis.obj
 0002:00087eec       ??_C@_06JFOACMDL@vsubpd@   00000001800deeec     Zydis.obj
 0002:00087ef4       ??_C@_06DJFFGDDH@vsubph@   00000001800deef4     Zydis.obj
 0002:00087efc       ??_C@_06JAGDKIKN@vsubps@   00000001800deefc     Zydis.obj
 0002:00087f08       ??_C@_07BCJGEIM@vsubrpd@   00000001800def08     Zydis.obj
 0002:00087f10       ??_C@_07EKKOABK@vsubrps@   00000001800def10     Zydis.obj
 0002:00087f18       ??_C@_06JHKGJCGC@vsubsd@   00000001800def18     Zydis.obj
 0002:00087f20       ??_C@_06DLBDNNGO@vsubsh@   00000001800def20     Zydis.obj
 0002:00087f28       ??_C@_06JCCFBGPE@vsubss@   00000001800def28     Zydis.obj
 0002:00087f30       ??_C@_07LPLDLJHH@vtestpd@  00000001800def30     Zydis.obj
 0002:00087f38       ??_C@_07LKDADNOB@vtestps@  00000001800def38     Zydis.obj
 0002:00087f40       ??_C@_08ENKJFGNC@vucomisd@ 00000001800def40     Zydis.obj
 0002:00087f50       ??_C@_08OBBMBJNO@vucomish@ 00000001800def50     Zydis.obj
 0002:00087f60       ??_C@_08EICKNCEE@vucomiss@ 00000001800def60     Zydis.obj
 0002:00087f70       ??_C@_09LPGPKENJ@vunpckhpd@ 00000001800def70     Zydis.obj
 0002:00087f80       ??_C@_09LKOMCAEP@vunpckhps@ 00000001800def80     Zydis.obj
