 windhawk

 Timestamp is 69b87481 (Mon Mar 16 21:22:09 2026)

 Preferred load address is 0000000140000000

 Start         Length     Name                   Class
 0001:00000000 00001570H .text$di                CODE
 0001:00001570 0007ece0H .text$mn                CODE
 0001:00080250 00000060H .text$mn$00             CODE
 0001:000802b0 00000d20H .text$mn$21             CODE
 0001:00080fd0 00004b30H .text$x                 CODE
 0001:00085b00 00000490H .text$yd                CODE
 0002:00000000 00000ae8H .idata$5                DATA
 0002:00000ae8 00000038H .00cfg                  DATA
 0002:00000b20 00000008H .CRT$XCA                DATA
 0002:00000b28 00000008H .CRT$XCAA               DATA
 0002:00000b30 00000018H .CRT$XCC                DATA
 0002:00000b48 00000018H .CRT$XCL                DATA
 0002:00000b60 00000060H .CRT$XCU                DATA
 0002:00000bc0 00000008H .CRT$XCZ                DATA
 0002:00000bc8 00000008H .CRT$XIA                DATA
 0002:00000bd0 00000008H .CRT$XIAA               DATA
 0002:00000bd8 00000008H .CRT$XIAC               DATA
 0002:00000be0 00000030H .CRT$XIC                DATA
 0002:00000c10 00000008H .CRT$XIZ                DATA
 0002:00000c18 00000008H .CRT$XLA                DATA
 0002:00000c20 00000008H .CRT$XLZ                DATA
 0002:00000c28 00000008H .CRT$XPA                DATA
 0002:00000c30 00000010H .CRT$XPX                DATA
 0002:00000c40 00000008H .CRT$XPXA               DATA
 0002:00000c48 00000008H .CRT$XPZ                DATA
 0002:00000c50 00000008H .CRT$XTA                DATA
 0002:00000c58 00000008H .CRT$XTZ                DATA
 0002:00000c60 00000000H .gehcont$y              DATA
 0002:00000c60 00000000H .gfids$y                DATA
 0002:00000c60 00000000H .giats$y                DATA
 0002:00000c60 00014690H .rdata                  DATA
 0002:000152f0 00000190H .rdata$00               DATA
 0002:00015480 00000000H .rdata$CastGuardVftablesA DATA
 0002:00015480 00000000H .rdata$CastGuardVftablesC DATA
 0002:00015480 00000030H .rdata$T                DATA
 0002:000154b0 00003e8cH .rdata$r                DATA
 0002:0001933c 0000042cH .rdata$voltmd           DATA
 0002:00019768 00000468H .rdata$zzzdbg           DATA
 0002:00019bd0 00000008H .rtc$IAA                DATA
 0002:00019bd8 00000008H .rtc$IZZ                DATA
 0002:00019be0 00000008H .rtc$TAA                DATA
 0002:00019be8 00000008H .rtc$TZZ                DATA
 0002:00019bf0 00000004H .tls                    DATA
 0002:00019bf4 00000004H .tls$                   DATA
 0002:00019bf8 00000008H .tls$ZZZ                DATA
 0002:00019c00 0000a5f0H .xdata                  DATA
 0002:000241f0 00000938H .xdata$x                DATA
 0002:00024b28 00000008H ATL$__a                 DATA
 0002:00024b30 00000008H ATL$__z                 DATA
 0002:00024b38 00000000H .edata                  DATA
 0002:00024b38 00000104H .idata$2                DATA
 0002:00024c3c 00000014H .idata$3                DATA
 0002:00024c50 00000ae8H .idata$4                DATA
 0002:00025738 000018dcH .idata$6                DATA
 0003:00000000 00000f60H .data                   DATA
 0003:00000f60 00000850H .data$r                 DATA
 0003:000017b0 00001f60H .data$rs                DATA
 0003:00003710 00001b6cH .bss                    DATA
 0004:00000000 00006060H .pdata                  DATA
 0005:00000000 00000100H .fptable                DATA
 0006:00000000 00001e10H .rsrc$01                DATA
 0006:00001e10 00029cb0H .rsrc$02                DATA

  Address         Publics by Value              Rva+Base               Lib:Object

 0000:00000000       __AbsoluteZero             0000000000000000     <absolute>
 0000:00000000       ___safe_se_handler_count   0000000000000000     <absolute>
 0000:00000000       ___safe_se_handler_table   0000000000000000     <absolute>
 0000:00000000       __arm64x_extra_rfe_table   0000000000000000     <absolute>
 0000:00000000       __arm64x_extra_rfe_table_size 0000000000000000     <absolute>
 0000:00000000       __arm64x_native_entrypoint 0000000000000000     <absolute>
 0000:00000000       __arm64x_redirection_metadata 0000000000000000     <absolute>
 0000:00000000       __arm64x_redirection_metadata_count 0000000000000000     <absolute>
 0000:00000000       __dynamic_value_reloc_table 0000000000000000     <absolute>
 0000:00000000       __enclave_config           0000000000000000     <absolute>
 0000:00000000       __guard_check_icall_a64n_fptr 0000000000000000     <absolute>
 0000:00000000       __guard_eh_cont_count      0000000000000000     <absolute>
 0000:00000000       __guard_eh_cont_table      0000000000000000     <absolute>
 0000:00000000       __guard_fids_count         0000000000000000     <absolute>
 0000:00000000       __guard_fids_table         0000000000000000     <absolute>
 0000:00000000       __guard_iat_count          0000000000000000     <absolute>
 0000:00000000       __guard_iat_table          0000000000000000     <absolute>
 0000:00000000       __guard_longjmp_count      0000000000000000     <absolute>
 0000:00000000       __guard_longjmp_table      0000000000000000     <absolute>
 0000:00000000       __hybrid_auxiliary_delayload_iat 0000000000000000     <absolute>
 0000:00000000       __hybrid_auxiliary_delayload_iat_copy 0000000000000000     <absolute>
 0000:00000000       __hybrid_auxiliary_iat     0000000000000000     <absolute>
 0000:00000000       __hybrid_auxiliary_iat_copy 0000000000000000     <absolute>
 0000:00000000       __hybrid_code_map          0000000000000000     <absolute>
 0000:00000000       __hybrid_code_map_count    0000000000000000     <absolute>
 0000:00000000       __hybrid_image_info_bitfield 0000000000000000     <absolute>
 0000:00000000       __x64_code_ranges_to_entry_points 0000000000000000     <absolute>
 0000:00000000       __x64_code_ranges_to_entry_points_count 0000000000000000     <absolute>
 0000:00000100       __guard_flags              0000000000000100     <absolute>
 0000:00000000       __ImageBase                0000000140000000     <linker-defined>
 0001:00001570       ??0CAtlException@ATL@@QEAA@J@Z 0000000140002570 f   app.obj
 0001:00001570       ??0LoggerBase@@QEAA@W4Verbosity@0@@Z 0000000140002570 f   logger_base.obj
 0001:00001580       ?GetVerbosity@LoggerBase@@QEAA?AW4Verbosity@1@XZ 0000000140002580 f   logger_base.obj
 0001:00001590       ?LogLine@LoggerBase@@QEAAXPEB_WZZ 0000000140002590 f   logger_base.obj
 0001:00001680       __local_stdio_printf_options 0000000140002680 f i logger_base.obj
 0001:00001690       ??$?0V?$tuple@V?$basic_string@_WU?$char_traits@_W@std@@V?$allocator@_W@2@@std@@V12@KK@std@@$0A@@?$optional@V?$tuple@V?$basic_string@_WU?$char_traits@_W@std@@V?$allocator@_W@2@@std@@V12@KK@std@@@std@@QEAA@$$QEAV?$tuple@V?$basic_string@_WU?$char_traits@_W@std@@V?$allocator@_W@2@@std@@V12@KK@1@@Z 0000000140002690 f i portable_settings.obj
 0001:00001710       ??$ReportFailure_Base@$01$0A@@details@wil@@YAXPEAXIPEBD110AEBUResultStatus@01@PEB_WW4ReportFailureOptions@01@W4FailureFlags@1@@Z 0000000140002710 f i portable_settings.obj
 0001:00001720       ??$ReportFailure_Base@$0A@$0A@@details@wil@@YAXPEAXIPEBD110AEBUResultStatus@01@PEB_WW4ReportFailureOptions@01@W4FailureFlags@1@@Z 0000000140002720 f i portable_settings.obj
 0001:00001770       ??$ReportFailure_Hr@$01@details@wil@@YAXPEAXIPEBD110JW4FailureFlags@1@@Z 0000000140002770 f i portable_settings.obj
 0001:00001810       ??$ReportFailure_Hr@$0A@@details@wil@@YAXPEAXIPEBD110JW4FailureFlags@1@@Z 0000000140002810 f i portable_settings.obj
 0001:000018a0       ??$ReportFailure_NoReturn@$0A@@details@wil@@YAXPEAXIPEBD110AEBUResultStatus@01@PEB_WW4ReportFailureOptions@01@@Z 00000001400028a0 f i portable_settings.obj
 0001:00001ba0       ??$ReportFailure_Return@$01@details@wil@@YAXPEAXIPEBD110AEBUResultStatus@01@PEB_WW4ReportFailureOptions@01@W4FailureFlags@1@@Z 0000000140002ba0 f i portable_settings.obj
 0001:00001c80       ??$ReportFailure_Win32@$0A@@details@wil@@YAJPEAXIPEBD110K@Z 0000000140002c80 f i portable_settings.obj
 0001:00001d20       ??$_Allocate@$0BA@U_Default_allocate_traits@std@@@std@@YAPEAX_K@Z 0000000140002d20 f i portable_settings.obj
 0001:00001d90       ??$_Construct@$00PEB_W@?$basic_string@_WU?$char_traits@_W@std@@V?$allocator@_W@2@@std@@AEAAXQEB_W_K@Z 0000000140002d90 f i portable_settings.obj
 0001:00001e80       ??$_Integral_to_string@_WH@std@@YA?AV?$basic_string@_WU?$char_traits@_W@std@@V?$allocator@_W@2@@0@H@Z 0000000140002e80 f i portable_settings.obj
 0001:00002060       ??$_Reallocate_grow_by@V<lambda_1>@?1??append@?$basic_string@_WU?$char_traits@_W@std@@V?$allocator@_W@2@@std@@QEAAAEAV34@QEB_W_K@Z@PEB_W_K@?$basic_string@_WU?$char_traits@_W@std@@V?$allocator@_W@2@@std@@AEAAAEAV01@_KV<lambda_1>@?1??append@01@QEAAAEAV01@QEB_W0@Z@PEB_W_K@Z 0000000140003060 f i portable_settings.obj
 0001:000021b0       ??$_Reallocate_grow_by@V<lambda_1>@?1??append@?$basic_string@_WU?$char_traits@_W@std@@V?$allocator@_W@2@@std@@QEAAAEAV34@_K_W@Z@_K_W@?$basic_string@_WU?$char_traits@_W@std@@V?$allocator@_W@2@@std@@AEAAAEAV01@_KV<lambda_1>@?1??append@01@QEAAAEAV01@0_W@Z@_K_W@Z 00000001400031b0 f i portable_settings.obj
 0001:000022f0       ??$assign@PEBE$0A@@?$vector@EV?$allocator@E@std@@@std@@QEAAXPEBE0@Z 00000001400032f0 f i portable_settings.obj
 0001:00002450       ??0?$EnumIteratorIniFileBase@H@@QEAA@PEBVIniFileSettings@@@Z 0000000140003450 f i portable_settings.obj
 0001:00002600       ??0?$EnumIteratorIniFileBase@V?$basic_string@_WU?$char_traits@_W@std@@V?$allocator@_W@2@@std@@@@QEAA@PEBVIniFileSettings@@@Z 0000000140003600 f i portable_settings.obj
 0001:000027d0       ??0?$basic_string@_WU?$char_traits@_W@std@@V?$allocator@_W@2@@std@@QEAA@AEBV01@@Z 00000001400037d0 f i portable_settings.obj
 0001:000028c0       ??0EnumIteratorRegistryInt@@QEAA@PEAUHKEY__@@@Z 00000001400038c0 f i portable_settings.obj
 0001:00002aa0       ??0IniFileSettings@@QEAA@PEB_W0_N@Z 0000000140003aa0 f   portable_settings.obj
 0001:00002ba0       ??0RegistrySettings@@QEAA@PEAUHKEY__@@PEB_W_N@Z 0000000140003ba0 f   portable_settings.obj
 0001:00002c30       ??0bad_alloc@std@@QEAA@AEBV01@@Z 0000000140003c30 f i portable_settings.obj
 0001:00002c70       ??0bad_array_new_length@std@@QEAA@AEBV01@@Z 0000000140003c70 f i portable_settings.obj
 0001:00002cb0       ??0bad_array_new_length@std@@QEAA@XZ 0000000140003cb0 f i portable_settings.obj
 0001:00002ce0       ??0exception@std@@QEAA@AEBV01@@Z 0000000140003ce0 f i portable_settings.obj
 0001:00002d20       ??0invalid_argument@std@@QEAA@AEBV01@@Z 0000000140003d20 f i portable_settings.obj
 0001:00002d60       ??0invalid_argument@std@@QEAA@PEBD@Z 0000000140003d60 f i portable_settings.obj
 0001:00002db0       ??0logic_error@std@@QEAA@AEBV01@@Z 0000000140003db0 f i portable_settings.obj
 0001:00002df0       ??1?$EnumIteratorImpl@H@@UEAA@XZ 0000000140003df0 f i portable_settings.obj
 0001:00002df0       ??1?$EnumIteratorRegistryBase@H@@UEAA@XZ 0000000140003df0 f i portable_settings.obj
 0001:00002e00       ??1?$EnumIteratorImpl@V?$basic_string@_WU?$char_traits@_W@std@@V?$allocator@_W@2@@std@@@@UEAA@XZ 0000000140003e00 f i portable_settings.obj
 0001:00002e00       ??1?$EnumIteratorRegistryBase@V?$basic_string@_WU?$char_traits@_W@std@@V?$allocator@_W@2@@std@@@@UEAA@XZ 0000000140003e00 f i portable_settings.obj
 0001:00002e20       ??1?$EnumIteratorIniFileBase@H@@UEAA@XZ 0000000140003e20 f i portable_settings.obj
 0001:00002e40       ??1?$EnumIteratorIniFileBase@V?$basic_string@_WU?$char_traits@_W@std@@V?$allocator@_W@2@@std@@@@UEAA@XZ 0000000140003e40 f i portable_settings.obj
 0001:00002e70       ??1?$basic_string@_WU?$char_traits@_W@std@@V?$allocator@_W@2@@std@@QEAA@XZ 0000000140003e70 f i portable_settings.obj
 0001:00002e70       ??1path@filesystem@std@@QEAA@XZ 0000000140003e70 f i app.obj
 0001:00002e80       ??1?$optional@URawData@RegistrySettings@@@std@@QEAA@XZ 0000000140003e80 f i portable_settings.obj
 0001:00002e90       ??1?$optional@V?$basic_string@_WU?$char_traits@_W@std@@V?$allocator@_W@2@@std@@@std@@QEAA@XZ 0000000140003e90 f i portable_settings.obj
 0001:00002ea0       ??1?$optional@V?$tuple@V?$basic_string@_WU?$char_traits@_W@std@@V?$allocator@_W@2@@std@@V12@KK@std@@@std@@QEAA@XZ 0000000140003ea0 f i portable_settings.obj
 0001:00002ed0       ??1?$unique_any_t@V?$unique_storage@U?$resource_policy@PEAUHKEY__@@P6AJPEAU1@@Z$1?RegCloseKey@@YAJ0@ZU?$integral_constant@_K$0A@@wistd@@PEAU1@PEAU1@$0A@$$T@details@wil@@@details@wil@@@wil@@QEAA@XZ 0000000140003ed0 f i portable_settings.obj
 0001:00002ee0       ??1?$vector@DV?$allocator@D@std@@@std@@QEAA@XZ 0000000140003ee0 f i ui_control.obj
 0001:00002ee0       ??1?$vector@EV?$allocator@E@std@@@std@@QEAA@XZ 0000000140003ee0 f i portable_settings.obj
 0001:00002ee0       ?_Tidy@?$vector@EV?$allocator@E@std@@@std@@AEAAXXZ 0000000140003ee0 f i ui_control.obj
 0001:00002f50       ??1bad_alloc@std@@UEAA@XZ  0000000140003f50 f i libcpmt:xthrow.obj
 0001:00002f50       ??1bad_array_new_length@std@@UEAA@XZ 0000000140003f50 f i portable_settings.obj
 0001:00002f50       ??1bad_cast@std@@UEAA@XZ   0000000140003f50 f i ui_control.obj
 0001:00002f50       ??1bad_exception@std@@UEAA@XZ 0000000140003f50 f i libvcruntime:frame.obj
 0001:00002f50       ??1bad_function_call@std@@UEAA@XZ 0000000140003f50 f i libcpmt:xthrow.obj
 0001:00002f50       ??1bad_optional_access@std@@UEAA@XZ 0000000140003f50 f i app.obj
 0001:00002f50       ??1bad_variant_access@std@@UEAA@XZ 0000000140003f50 f i storage_manager.obj
 0001:00002f50       ??1failure@ios_base@std@@UEAA@XZ 0000000140003f50 f i ui_control.obj
 0001:00002f50       ??1invalid_argument@std@@UEAA@XZ 0000000140003f50 f i portable_settings.obj
 0001:00002f50       ??1length_error@std@@UEAA@XZ 0000000140003f50 f i libcpmt:xthrow.obj
 0001:00002f50       ??1logic_error@std@@UEAA@XZ 0000000140003f50 f i event_viewer_crash_monitor.obj
 0001:00002f50       ??1out_of_range@std@@UEAA@XZ 0000000140003f50 f i libcpmt:xthrow.obj
 0001:00002f50       ??1runtime_error@std@@UEAA@XZ 0000000140003f50 f i engine_control.obj
 0001:00002f50       ??1system_error@std@@UEAA@XZ 0000000140003f50 f i storage_manager.obj
 0001:00002f70       ??4?$basic_string@_WU?$char_traits@_W@std@@V?$allocator@_W@2@@std@@QEAAAEAV01@$$QEAV01@@Z 0000000140003f70 f i portable_settings.obj
 0001:00003020       ??_E?$EnumIteratorImpl@H@@UEAAPEAXI@Z 0000000140004020 f i portable_settings.obj
 0001:00003020       ??_G?$EnumIteratorImpl@H@@UEAAPEAXI@Z 0000000140004020 f i portable_settings.obj
 0001:00003060       ??_E?$EnumIteratorImpl@V?$basic_string@_WU?$char_traits@_W@std@@V?$allocator@_W@2@@std@@@@UEAAPEAXI@Z 0000000140004060 f i portable_settings.obj
 0001:00003060       ??_G?$EnumIteratorImpl@V?$basic_string@_WU?$char_traits@_W@std@@V?$allocator@_W@2@@std@@@@UEAAPEAXI@Z 0000000140004060 f i portable_settings.obj
 0001:000030b0       ??_E?$EnumIteratorIniFileBase@H@@UEAAPEAXI@Z 00000001400040b0 f i portable_settings.obj
 0001:000030b0       ??_EEnumIteratorIniFileInt@@UEAAPEAXI@Z 00000001400040b0 f i portable_settings.obj
 0001:000030b0       ??_G?$EnumIteratorIniFileBase@H@@UEAAPEAXI@Z 00000001400040b0 f i portable_settings.obj
 0001:000030b0       ??_GEnumIteratorIniFileInt@@UEAAPEAXI@Z 00000001400040b0 f i portable_settings.obj
 0001:00003100       ??_E?$EnumIteratorIniFileBase@V?$basic_string@_WU?$char_traits@_W@std@@V?$allocator@_W@2@@std@@@@UEAAPEAXI@Z 0000000140004100 f i portable_settings.obj
 0001:00003100       ??_EEnumIteratorIniFileString@@UEAAPEAXI@Z 0000000140004100 f i portable_settings.obj
 0001:00003100       ??_G?$EnumIteratorIniFileBase@V?$basic_string@_WU?$char_traits@_W@std@@V?$allocator@_W@2@@std@@@@UEAAPEAXI@Z 0000000140004100 f i portable_settings.obj
 0001:00003100       ??_GEnumIteratorIniFileString@@UEAAPEAXI@Z 0000000140004100 f i portable_settings.obj
 0001:00003160       ??_E?$EnumIteratorRegistryBase@H@@UEAAPEAXI@Z 0000000140004160 f i portable_settings.obj
 0001:00003160       ??_EEnumIteratorRegistryInt@@UEAAPEAXI@Z 0000000140004160 f i portable_settings.obj
 0001:00003160       ??_G?$EnumIteratorRegistryBase@H@@UEAAPEAXI@Z 0000000140004160 f i portable_settings.obj
 0001:00003160       ??_GEnumIteratorRegistryInt@@UEAAPEAXI@Z 0000000140004160 f i portable_settings.obj
 0001:000031a0       ??_E?$EnumIteratorRegistryBase@V?$basic_string@_WU?$char_traits@_W@std@@V?$allocator@_W@2@@std@@@@UEAAPEAXI@Z 00000001400041a0 f i portable_settings.obj
 0001:000031a0       ??_EEnumIteratorRegistryString@@UEAAPEAXI@Z 00000001400041a0 f i portable_settings.obj
 0001:000031a0       ??_G?$EnumIteratorRegistryBase@V?$basic_string@_WU?$char_traits@_W@std@@V?$allocator@_W@2@@std@@@@UEAAPEAXI@Z 00000001400041a0 f i portable_settings.obj
 0001:000031a0       ??_GEnumIteratorRegistryString@@UEAAPEAXI@Z 00000001400041a0 f i portable_settings.obj
 0001:000031f0       ??_EIniFileSettings@@UEAAPEAXI@Z 00000001400041f0 f i portable_settings.obj
 0001:000031f0       ??_GIniFileSettings@@UEAAPEAXI@Z 00000001400041f0 f i portable_settings.obj
 0001:00003240       ??_ERegistrySettings@@UEAAPEAXI@Z 0000000140004240 f i portable_settings.obj
 0001:00003240       ??_GRegistrySettings@@UEAAPEAXI@Z 0000000140004240 f i portable_settings.obj
 0001:00003280       ??_Ebad_alloc@std@@UEAAPEAXI@Z 0000000140004280 f i portable_settings.obj
 0001:00003280       ??_Ebad_array_new_length@std@@UEAAPEAXI@Z 0000000140004280 f i portable_settings.obj
 0001:00003280       ??_Ebad_cast@std@@UEAAPEAXI@Z 0000000140004280 f i ui_control.obj
 0001:00003280       ??_Ebad_exception@std@@UEAAPEAXI@Z 0000000140004280 f i libvcruntime:frame.obj
 0001:00003280       ??_Ebad_function_call@std@@UEAAPEAXI@Z 0000000140004280 f i libcpmt:xthrow.obj
 0001:00003280       ??_Ebad_optional_access@std@@UEAAPEAXI@Z 0000000140004280 f i app.obj
 0001:00003280       ??_Ebad_variant_access@std@@UEAAPEAXI@Z 0000000140004280 f i storage_manager.obj
 0001:00003280       ??_Eexception@std@@UEAAPEAXI@Z 0000000140004280 f i portable_settings.obj
 0001:00003280       ??_Einvalid_argument@std@@UEAAPEAXI@Z 0000000140004280 f i portable_settings.obj
 0001:00003280       ??_Elength_error@std@@UEAAPEAXI@Z 0000000140004280 f i libcpmt:xthrow.obj
 0001:00003280       ??_Elogic_error@std@@UEAAPEAXI@Z 0000000140004280 f i portable_settings.obj
 0001:00003280       ??_Eout_of_range@std@@UEAAPEAXI@Z 0000000140004280 f i libcpmt:xthrow.obj
 0001:00003280       ??_Eruntime_error@std@@UEAAPEAXI@Z 0000000140004280 f i engine_control.obj
 0001:00003280       ??_Gbad_alloc@std@@UEAAPEAXI@Z 0000000140004280 f i portable_settings.obj
 0001:00003280       ??_Gbad_array_new_length@std@@UEAAPEAXI@Z 0000000140004280 f i portable_settings.obj
 0001:00003280       ??_Gbad_cast@std@@UEAAPEAXI@Z 0000000140004280 f i ui_control.obj
 0001:00003280       ??_Gbad_exception@std@@UEAAPEAXI@Z 0000000140004280 f i libvcruntime:frame.obj
 0001:00003280       ??_Gbad_function_call@std@@UEAAPEAXI@Z 0000000140004280 f i libcpmt:xthrow.obj
 0001:00003280       ??_Gbad_optional_access@std@@UEAAPEAXI@Z 0000000140004280 f i app.obj
 0001:00003280       ??_Gbad_variant_access@std@@UEAAPEAXI@Z 0000000140004280 f i storage_manager.obj
 0001:00003280       ??_Gexception@std@@UEAAPEAXI@Z 0000000140004280 f i portable_settings.obj
 0001:00003280       ??_Ginvalid_argument@std@@UEAAPEAXI@Z 0000000140004280 f i portable_settings.obj
 0001:00003280       ??_Glength_error@std@@UEAAPEAXI@Z 0000000140004280 f i libcpmt:xthrow.obj
 0001:00003280       ??_Glogic_error@std@@UEAAPEAXI@Z 0000000140004280 f i portable_settings.obj
 0001:00003280       ??_Gout_of_range@std@@UEAAPEAXI@Z 0000000140004280 f i libcpmt:xthrow.obj
 0001:00003280       ??_Gruntime_error@std@@UEAAPEAXI@Z 0000000140004280 f i engine_control.obj
 0001:000032d0       ?EnumIntValues@IniFileSettings@@UEBA?AV?$EnumIterator@H@PortableSettings@@XZ 00000001400042d0 f   portable_settings.obj
 0001:00003340       ?EnumIntValues@RegistrySettings@@UEBA?AV?$EnumIterator@H@PortableSettings@@XZ 0000000140004340 f   portable_settings.obj
 0001:000033a0       ?EnumStringValues@IniFileSettings@@UEBA?AV?$EnumIterator@V?$basic_string@_WU?$char_traits@_W@std@@V?$allocator@_W@2@@std@@@PortableSettings@@XZ 00000001400043a0 f   portable_settings.obj
 0001:00003410       ?EnumStringValues@RegistrySettings@@UEBA?AV?$EnumIterator@V?$basic_string@_WU?$char_traits@_W@std@@V?$allocator@_W@2@@std@@@PortableSettings@@XZ 0000000140004410 f   portable_settings.obj
 0001:000034c0       ?FromResult@ResultStatus@details@wil@@SA?AU123@J@Z 00000001400044c0 f i portable_settings.obj
 0001:000034f0       ?GetBinary@IniFileSettings@@UEBA?AV?$optional@V?$vector@EV?$allocator@E@std@@@std@@@std@@PEB_W@Z 00000001400044f0 f   portable_settings.obj
 0001:00003860       ?GetBinary@RegistrySettings@@UEBA?AV?$optional@V?$vector@EV?$allocator@E@std@@@std@@@std@@PEB_W@Z 0000000140004860 f   portable_settings.obj
 0001:000039a0       ?GetFailureLogString@wil@@YAJPEA_W_KAEBUFailureInfo@1@@Z 00000001400049a0 f i portable_settings.obj
 0001:00003c60       ?GetInt@IniFileSettings@@UEBA?AV?$optional@H@std@@PEB_W@Z 0000000140004c60 f   portable_settings.obj
 0001:00003d20       ?GetInt@RegistrySettings@@UEBA?AV?$optional@H@std@@PEB_W@Z 0000000140004d20 f   portable_settings.obj
 0001:00003e00       ?GetRaw@RegistrySettings@@AEBA?AV?$optional@URawData@RegistrySettings@@@std@@PEB_W@Z 0000000140004e00 f   portable_settings.obj
 0001:00003fc0       ?GetString@IniFileSettings@@UEBA?AV?$optional@V?$basic_string@_WU?$char_traits@_W@std@@V?$allocator@_W@2@@std@@@std@@PEB_W@Z 0000000140004fc0 f   portable_settings.obj
 0001:00004250       ?GetString@RegistrySettings@@UEBA?AV?$optional@V?$basic_string@_WU?$char_traits@_W@std@@V?$allocator@_W@2@@std@@@std@@PEB_W@Z 0000000140005250 f   portable_settings.obj
 0001:00004410       ?HrToNtStatus@details@wil@@YAJJ@Z 0000000140005410 f i portable_settings.obj
 0001:000046b0       ?LogFailure@details@wil@@YAXPEAXIPEBD110W4FailureType@2@AEBUResultStatus@12@PEB_W_NPEA_W_KPEAD7W4FailureFlags@2@PEAUFailureInfo@2@@Z 00000001400056b0 f i portable_settings.obj
 0001:000049e0       ?LogStringPrintf@details@wil@@YAPEA_WPEA_WPEB_W1ZZ 00000001400059e0 f i portable_settings.obj
 0001:00004e30       ?RecordException@details@wil@@YAHJ@Z 0000000140005e30 f i portable_settings.obj
 0001:00004e50       ?RecordFailFast@details@wil@@YAHJ@Z 0000000140005e50 f i portable_settings.obj
 0001:00004e60       ?RecordLog@details@wil@@YAHJ@Z 0000000140005e60 f i portable_settings.obj
 0001:00004e80       ?RecordReturn@details@wil@@YAHJ@Z 0000000140005e80 f i portable_settings.obj
 0001:00004ea0       ?Remove@IniFileSettings@@UEAAXPEB_W@Z 0000000140005ea0 f   portable_settings.obj
 0001:00004f20       ?Remove@RegistrySettings@@UEAAXPEB_W@Z 0000000140005f20 f   portable_settings.obj
 0001:00004f60       ?RethrowCaughtException@wil@@YAXXZ 0000000140005f60 f i portable_settings.obj
 0001:00004f70       ?SetBinary@IniFileSettings@@UEAAXPEB_WPEBE_K@Z 0000000140005f70 f   portable_settings.obj
 0001:000052f0       ?SetBinary@RegistrySettings@@UEAAXPEB_WPEBE_K@Z 00000001400062f0 f   portable_settings.obj
 0001:00005370       ?SetInt@IniFileSettings@@UEAAXPEB_WH@Z 0000000140006370 f   portable_settings.obj
 0001:00005440       ?SetInt@RegistrySettings@@UEAAXPEB_WH@Z 0000000140006440 f   portable_settings.obj
 0001:000054a0       ?SetString@IniFileSettings@@UEAAXPEB_W0@Z 00000001400064a0 f   portable_settings.obj
 0001:00005c20       ?SetString@RegistrySettings@@UEAAXPEB_W0@Z 0000000140006c20 f   portable_settings.obj
 0001:00005cd0       ?ThrowResultException@wil@@YAXAEBUFailureInfo@1@@Z 0000000140006cd0 f i portable_settings.obj
 0001:00005ce0       ?Throw_Win32@in1diag3@details@wil@@YAXPEAXIPEBDK@Z 0000000140006ce0 f i portable_settings.obj
 0001:00005d10       ?WilFailFast@details@wil@@YAXAEBUFailureInfo@2@@Z 0000000140006d10 f i portable_settings.obj
 0001:00005df0       ?WilRaiseFailFastException@details@wil@@YAXPEAU_EXCEPTION_RECORD@@PEAU_CONTEXT@@K@Z 0000000140006df0 f i portable_settings.obj
 0001:00005e10       ?_Deallocate_for_capacity@?$basic_string@_WU?$char_traits@_W@std@@V?$allocator@_W@2@@std@@CAXAEAV?$allocator@_W@2@QEA_W_K@Z 0000000140006e10 f i portable_settings.obj
 0001:00005e70       ?_FailFastImmediate_Unexpected@in1diag3@details@wil@@YAXXZ 0000000140006e70 f i portable_settings.obj
 0001:00005e70       ?__throw_bad_function_call@wistd@@YAXXZ 0000000140006e70 f i app.obj
 0001:00005e80       ?_Throw_Hr@in1diag3@details@wil@@YAXPEAXIPEBDJ@Z 0000000140006e80 f i portable_settings.obj
 0001:00005eb0       ?_Throw_bad_array_new_length@std@@YAXXZ 0000000140006eb0 f i portable_settings.obj
 0001:00005eb0       ?__scrt_throw_std_bad_array_new_length@@YAXXZ 0000000140006eb0 f i LIBCMT:throw_bad_alloc.obj
 0001:00005ed0       ?_Tidy_deallocate@?$basic_string@_WU?$char_traits@_W@std@@V?$allocator@_W@2@@std@@AEAAXXZ 0000000140006ed0 f i portable_settings.obj
 0001:00005f50       ?_Xlen_string@std@@YAXXZ   0000000140006f50 f i portable_settings.obj
 0001:00005f70       ?_Xlength@?$vector@DV?$allocator@D@std@@@std@@CAXXZ 0000000140006f70 f i ui_control.obj
 0001:00005f70       ?_Xlength@?$vector@EV?$allocator@E@std@@@std@@CAXXZ 0000000140006f70 f i portable_settings.obj
 0001:00005f70       ?_Xlength@?$vector@IV?$allocator@I@std@@@std@@CAXXZ 0000000140006f70 f i ui_control.obj
 0001:00005f70       ?_Xlength@?$vector@PEAUHWND__@@V?$allocator@PEAUHWND__@@@std@@@std@@CAXXZ 0000000140006f70 f i ui_control.obj
 0001:00005f70       ?_Xlength@?$vector@PEAV?$basic_json@Uordered_map@nlohmann@@Vvector@std@@V?$basic_string@DU?$char_traits@D@std@@V?$allocator@D@2@@4@_N_J_KNVallocator@4@Uadl_serializer@2@V?$vector@EV?$allocator@E@std@@@4@@nlohmann@@V?$allocator@PEAV?$basic_json@Uordered_map@nlohmann@@Vvector@std@@V?$basic_string@DU?$char_traits@D@std@@V?$allocator@D@2@@4@_N_J_KNVallocator@4@Uadl_serializer@2@V?$vector@EV?$allocator@E@std@@@4@@nlohmann@@@std@@@std@@CAXXZ 0000000140006f70 f i ui_control.obj
 0001:00005f70       ?_Xlength@?$vector@PEAV?$basic_json@Vmap@std@@Vvector@2@V?$basic_string@DU?$char_traits@D@std@@V?$allocator@D@2@@2@_N_J_KNVallocator@2@Uadl_serializer@nlohmann@@V?$vector@EV?$allocator@E@std@@@2@@nlohmann@@V?$allocator@PEAV?$basic_json@Vmap@std@@Vvector@2@V?$basic_string@DU?$char_traits@D@std@@V?$allocator@D@2@@2@_N_J_KNVallocator@2@Uadl_serializer@nlohmann@@V?$vector@EV?$allocator@E@std@@@2@@nlohmann@@@std@@@std@@CAXXZ 0000000140006f70 f i userprofile.obj
 0001:00005f70       ?_Xlength@?$vector@PEB_WV?$allocator@PEB_W@std@@@std@@CAXXZ 0000000140006f70 f i update_checker.obj
 0001:00005f70       ?_Xlength@?$vector@U?$pair@$$CBV?$basic_string@DU?$char_traits@D@std@@V?$allocator@D@2@@std@@V?$basic_json@Uordered_map@nlohmann@@Vvector@std@@V?$basic_string@DU?$char_traits@D@std@@V?$allocator@D@2@@4@_N_J_KNVallocator@4@Uadl_serializer@2@V?$vector@EV?$allocator@E@std@@@4@@nlohmann@@@std@@V?$allocator@U?$pair@$$CBV?$basic_string@DU?$char_traits@D@std@@V?$allocator@D@2@@std@@V?$basic_json@Uordered_map@nlohmann@@Vvector@std@@V?$basic_string@DU?$char_traits@D@std@@V?$allocator@D@2@@4@_N_J_KNVallocator@4@Uadl_serializer@2@V?$vector@EV?$allocator@E@std@@@4@@nlohmann@@@std@@@2@@std@@CAXXZ 0000000140006f70 f i ui_control.obj
 0001:00005f70       ?_Xlength@?$vector@V?$basic_json@Uordered_map@nlohmann@@Vvector@std@@V?$basic_string@DU?$char_traits@D@std@@V?$allocator@D@2@@4@_N_J_KNVallocator@4@Uadl_serializer@2@V?$vector@EV?$allocator@E@std@@@4@@nlohmann@@V?$allocator@V?$basic_json@Uordered_map@nlohmann@@Vvector@std@@V?$basic_string@DU?$char_traits@D@std@@V?$allocator@D@2@@4@_N_J_KNVallocator@4@Uadl_serializer@2@V?$vector@EV?$allocator@E@std@@@4@@nlohmann@@@std@@@std@@CAXXZ 0000000140006f70 f i ui_control.obj
 0001:00005f70       ?_Xlength@?$vector@V?$basic_json@Vmap@std@@Vvector@2@V?$basic_string@DU?$char_traits@D@std@@V?$allocator@D@2@@2@_N_J_KNVallocator@2@Uadl_serializer@nlohmann@@V?$vector@EV?$allocator@E@std@@@2@@nlohmann@@V?$allocator@V?$basic_json@Vmap@std@@Vvector@2@V?$basic_string@DU?$char_traits@D@std@@V?$allocator@D@2@@2@_N_J_KNVallocator@2@Uadl_serializer@nlohmann@@V?$vector@EV?$allocator@E@std@@@2@@nlohmann@@@std@@@std@@CAXXZ 0000000140006f70 f i userprofile.obj
 0001:00005f70       ?_Xlength@?$vector@V?$basic_string@_WU?$char_traits@_W@std@@V?$allocator@_W@2@@std@@V?$allocator@V?$basic_string@_WU?$char_traits@_W@std@@V?$allocator@_W@2@@std@@@2@@std@@CAXXZ 0000000140006f70 f i functions.obj
 0001:00005f70       ?_Xlength@?$vector@V?$basic_string_view@_WU?$char_traits@_W@std@@@std@@V?$allocator@V?$basic_string_view@_WU?$char_traits@_W@std@@@std@@@2@@std@@CAXXZ 0000000140006f70 f i functions.obj
 0001:00005f90       ?_Xran@?$_String_val@U?$_Simple_types@_W@std@@@std@@SAXXZ 0000000140006f90 f i portable_settings.obj
 0001:00005fb0       ?clone@EnumIteratorIniFileInt@@UEBA?AV?$unique_ptr@V?$EnumIteratorImpl@H@@U?$default_delete@V?$EnumIteratorImpl@H@@@std@@@std@@XZ 0000000140006fb0 f i portable_settings.obj
 0001:00006050       ?clone@EnumIteratorIniFileString@@UEBA?AV?$unique_ptr@V?$EnumIteratorImpl@V?$basic_string@_WU?$char_traits@_W@std@@V?$allocator@_W@2@@std@@@@U?$default_delete@V?$EnumIteratorImpl@V?$basic_string@_WU?$char_traits@_W@std@@V?$allocator@_W@2@@std@@@@@std@@@std@@XZ 0000000140007050 f i portable_settings.obj
 0001:00006100       ?clone@EnumIteratorRegistryInt@@UEBA?AV?$unique_ptr@V?$EnumIteratorImpl@H@@U?$default_delete@V?$EnumIteratorImpl@H@@@std@@@std@@XZ 0000000140007100 f i portable_settings.obj
 0001:000061a0       ?clone@EnumIteratorRegistryString@@UEBA?AV?$unique_ptr@V?$EnumIteratorImpl@V?$basic_string@_WU?$char_traits@_W@std@@V?$allocator@_W@2@@std@@@@U?$default_delete@V?$EnumIteratorImpl@V?$basic_string@_WU?$char_traits@_W@std@@V?$allocator@_W@2@@std@@@@@std@@@std@@XZ 00000001400071a0 f i portable_settings.obj
 0001:00006250       ?erase@?$basic_string@_WU?$char_traits@_W@std@@V?$allocator@_W@2@@std@@QEAAAEAV12@_K0@Z 0000000140007250 f i portable_settings.obj
 0001:000062c0       ?get_next_item_raw@?$EnumIteratorRegistryBase@H@@IEAA?AV?$optional@V?$tuple@V?$basic_string@_WU?$char_traits@_W@std@@V?$allocator@_W@2@@std@@V12@KK@std@@@std@@XZ 00000001400072c0 f i portable_settings.obj
 0001:00006590       ?get_next_item_raw@?$EnumIteratorRegistryBase@V?$basic_string@_WU?$char_traits@_W@std@@V?$allocator@_W@2@@std@@@@IEAA?AV?$optional@V?$tuple@V?$basic_string@_WU?$char_traits@_W@std@@V?$allocator@_W@2@@std@@V12@KK@std@@@std@@XZ 0000000140007590 f i portable_settings.obj
 0001:00006860       ?next@EnumIteratorIniFileInt@@UEAAXXZ 0000000140007860 f i portable_settings.obj
 0001:00006a50       ?next@EnumIteratorIniFileString@@UEAAXXZ 0000000140007a50 f i portable_settings.obj
 0001:00006cb0       ?next@EnumIteratorRegistryInt@@UEAAXXZ 0000000140007cb0 f i portable_settings.obj
 0001:00006df0       ?next@EnumIteratorRegistryString@@UEAAXXZ 0000000140007df0 f i portable_settings.obj
 0001:00007010       ?push_back@?$basic_string@_WU?$char_traits@_W@std@@V?$allocator@_W@2@@std@@QEAAX_W@Z 0000000140008010 f i portable_settings.obj
 0001:00007170       ?reserve@?$basic_string@_WU?$char_traits@_W@std@@V?$allocator@_W@2@@std@@QEAAX_K@Z 0000000140008170 f i portable_settings.obj
 0001:00007280       ?resize@?$basic_string@_WU?$char_traits@_W@std@@V?$allocator@_W@2@@std@@QEAAX_K_W@Z 0000000140008280 f i portable_settings.obj
 0001:00007310       ?what@exception@std@@UEBAPEBDXZ 0000000140008310 f i portable_settings.obj
 0001:00007330       wmemchr                    0000000140008330 f i portable_settings.obj
 0001:000074a0       ?Lock@CAtlModule@ATL@@UEAAJXZ 00000001400084a0 f i app.obj
 0001:000074b0       ?Unlock@CAtlModule@ATL@@UEAAJXZ 00000001400084b0 f i app.obj
 0001:000074c0       ?GetLockCount@CAtlModule@ATL@@UEAAJXZ 00000001400084c0 f i app.obj
 0001:000074d0       ?GetGITPtr@CAtlModule@ATL@@UEAAJPEAPEAUIGlobalInterfaceTable@@@Z 00000001400084d0 f i app.obj
 0001:00007550       ?AddCommonRGSReplacements@?$CAtlModuleT@VCComModule@ATL@@@ATL@@UEAAJPEAUIRegistrarBase@@@Z 0000000140008550 f i app.obj
 0001:00007580       ?UpdateRegistryFromResourceD@CComModule@ATL@@UEAAJIHPEAU_ATL_REGMAP_ENTRY@2@@Z 0000000140008580 f i app.obj
 0001:00007580       ?UpdateRegistryFromResourceD@CComModule@ATL@@UEAAJPEB_WHPEAU_ATL_REGMAP_ENTRY@2@@Z 0000000140008580 f i app.obj
 0001:00007590       ?UpdateRegistryFromResource@CComModule@ATL@@UEAAJPEB_WHPEAU_ATL_REGMAP_ENTRY@2@@Z 0000000140008590 f i app.obj
 0001:000075a0       ?UpdateRegistryFromResource@CComModule@ATL@@UEAAJIHPEAU_ATL_REGMAP_ENTRY@2@@Z 00000001400085a0 f i app.obj
 0001:000075b0       ??_ECComModule@ATL@@UEAAPEAXI@Z 00000001400085b0 f i app.obj
 0001:000075b0       ??_GCComModule@ATL@@UEAAPEAXI@Z 00000001400085b0 f i app.obj
 0001:000075f0       ??_ECAppModule@WTL@@UEAAPEAXI@Z 00000001400085f0 f i app.obj
 0001:000075f0       ??_GCAppModule@WTL@@UEAAPEAXI@Z 00000001400085f0 f i app.obj
 0001:00007630       ?OnCallbackComplete@CHandle@WinHTTPWrappers@@MEAAJJPEAXK0K@Z 0000000140008630 f i app.obj
 0001:00007630       ?QueryInterface@CRegObject@ATL@@UEAAJAEBU_GUID@@PEAPEAX@Z 0000000140008630 f i app.obj
 0001:00007640       ?AddRef@CRegObject@ATL@@UEAAKXZ 0000000140008640 f i app.obj
 0001:00007640       ?OnCallback@CHandle@WinHTTPWrappers@@MEAAJPEAXK0K@Z 0000000140008640 f i app.obj
 0001:00007640       ?do_encoding@codecvt_base@std@@MEBAHXZ 0000000140008640 f i ui_control.obj
 0001:00007640       ?do_max_length@codecvt_base@std@@MEBAHXZ 0000000140008640 f i ui_control.obj
 0001:00007640       _get_startup_argv_mode     0000000140008640 f i LIBCMT:argv_mode.obj
 0001:00007650       ?LVCompareCustom@?$CSortListViewImpl@VCSortListViewCtrl@WTL@@@WTL@@SAH_J00@Z 0000000140008650 f i task_manager_dlg.obj
 0001:00007650       ?Release@CRegObject@ATL@@UEAAKXZ 0000000140008650 f i app.obj
 0001:00007650       ?_Get_deleter@_Ref_count_base@std@@UEBAPEAXAEBVtype_info@@@Z 0000000140008650 f i task_manager_dlg.obj
 0001:00007650       ?showmanyc@?$basic_streambuf@DU?$char_traits@D@std@@@std@@MEAA_JXZ 0000000140008650 f i ui_control.obj
 0001:00007650       ?sync@?$basic_streambuf@DU?$char_traits@D@std@@@std@@MEAAHXZ 0000000140008650 f i ui_control.obj
 0001:00007650       __scrt_exe_initialize_mta  0000000140008650 f i LIBCMT:utility_desktop.obj
 0001:00007650       __scrt_initialize_winrt    0000000140008650 f i LIBCMT:utility_desktop.obj
 0001:00007650       __scrt_stub_for_initialize_mta 0000000140008650 f i LIBCMT:utility_desktop.obj
 0001:00007650       _get_startup_commit_mode   0000000140008650 f i LIBCMT:commit_mode.obj
 0001:00007650       _get_startup_new_mode      0000000140008650 f i LIBCMT:new_mode.obj
 0001:00007650       _get_startup_thread_locale_mode 0000000140008650 f i LIBCMT:thread_locale.obj
 0001:00007650       _matherr                   0000000140008650 f i LIBCMT:matherr.obj
 0001:00007660       ?AddReplacement@CRegObject@ATL@@UEAAJPEB_W0@Z 0000000140008660 f i app.obj
 0001:000076e0       ?ClearReplacements@CRegObject@ATL@@UEAAJXZ 00000001400086e0 f i app.obj
 0001:00007720       ??_ECRegObject@ATL@@UEAAPEAXI@Z 0000000140008720 f i app.obj
 0001:00007720       ??_GCRegObject@ATL@@UEAAPEAXI@Z 0000000140008720 f i app.obj
 0001:00007760       ?Allocate@CWin32Heap@ATL@@UEAAPEAX_K@Z 0000000140008760 f i app.obj
 0001:00007770       ?Free@CWin32Heap@ATL@@UEAAXPEAX@Z 0000000140008770 f i app.obj
 0001:00007790       ?Reallocate@CWin32Heap@ATL@@UEAAPEAXPEAX_K@Z 0000000140008790 f i app.obj
 0001:000077d0       ?GetSize@CWin32Heap@ATL@@UEAA_KPEAX@Z 00000001400087d0 f i app.obj
 0001:000077e0       ??_ECWin32Heap@ATL@@UEAAPEAXI@Z 00000001400087e0 f i app.obj
 0001:000077e0       ??_GCWin32Heap@ATL@@UEAAPEAXI@Z 00000001400087e0 f i app.obj
 0001:00007830       ?Allocate@CAtlStringMgr@ATL@@UEAAPEAUCStringData@2@HH@Z 0000000140008830 f i app.obj
 0001:000078d0       ?Free@CAtlStringMgr@ATL@@UEAAXPEAUCStringData@2@@Z 00000001400088d0 f i app.obj
 0001:000078e0       ?Reallocate@CAtlStringMgr@ATL@@UEAAPEAUCStringData@2@PEAU32@HH@Z 00000001400088e0 f i app.obj
 0001:00007950       ?GetNilString@CAtlStringMgr@ATL@@UEAAPEAUCStringData@2@XZ 0000000140008950 f i app.obj
 0001:00007960       ?Clone@CAtlStringMgr@ATL@@UEAAPEAUIAtlStringMgr@2@XZ 0000000140008960 f i app.obj
 0001:00007960       ?EnsureLinked@CAtlStringMgrStaticInitializer@ATLImplementationDetails@ATL@@QEAAPEAXXZ 0000000140008960 f i app.obj
 0001:00007960       ?setbuf@?$basic_streambuf@DU?$char_traits@D@std@@@std@@MEAAPEAV12@PEAD_J@Z 0000000140008960 f i ui_control.obj
 0001:00007970       ??_ECAtlStringMgr@ATL@@UEAAPEAXI@Z 0000000140008970 f i app.obj
 0001:00007970       ??_GCAtlStringMgr@ATL@@UEAAPEAXI@Z 0000000140008970 f i app.obj
 0001:000079b0       ??$AdaptFixedSizeToAllocatedResult@V?$basic_string@_WU?$char_traits@_W@std@@V?$allocator@_W@2@@std@@$0BAA@@wil@@YAJAEAV?$basic_string@_WU?$char_traits@_W@std@@V?$allocator@_W@2@@std@@V?$function@$$A6AJPEA_W_KPEA_K@Z@wistd@@@Z 00000001400089b0 f i app.obj
 0001:00007de0       ??$AdaptFixedSizeToAllocatedResult@V?$basic_string@_WU?$char_traits@_W@std@@V?$allocator@_W@2@@std@@$0IA@@wil@@YAJAEAV?$basic_string@_WU?$char_traits@_W@std@@V?$allocator@_W@2@@std@@V?$function@$$A6AJPEA_W_KPEA_K@Z@wistd@@@Z 0000000140008de0 f i app.obj
 0001:00008210       ??$AtlModuleRegisterWndClassInfoT@VAtlModuleRegisterWndClassInfoParamW@ATL@@@ATL@@YAGPEAU_ATL_BASE_MODULE70@0@PEAU_ATL_WIN_MODULE70@0@PEAU_ATL_WNDCLASSINFOW@0@PEAP6A_JPEAUHWND__@@I_K_J@ZVAtlModuleRegisterWndClassInfoParamW@0@@Z 0000000140009210 f i app.obj
 0001:000084b0       ??$GetModuleFileNameW@V?$basic_string@_WU?$char_traits@_W@std@@V?$allocator@_W@2@@std@@$0IA@@wil@@YA?AV?$basic_string@_WU?$char_traits@_W@std@@V?$allocator@_W@2@@std@@PEAUHINSTANCE__@@@Z 00000001400094b0 f i app.obj
 0001:00008550       ??$ReportFailure_Base@$00$0A@@details@wil@@YAXPEAXIPEBD110AEBUResultStatus@01@PEB_WW4ReportFailureOptions@01@W4FailureFlags@1@@Z 0000000140009550 f i app.obj
 0001:00008560       ??$ReportFailure_Base@$02$0A@@details@wil@@YAXPEAXIPEBD110AEBUResultStatus@01@PEB_WW4ReportFailureOptions@01@W4FailureFlags@1@@Z 0000000140009560 f i app.obj
 0001:000085b0       ??$ReportFailure_GetLastError@$02@details@wil@@YAKPEAXIPEBD110@Z 00000001400095b0 f i app.obj
 0001:00008650       ??$ReportFailure_GetLastError@$0A@@details@wil@@YAKPEAXIPEBD110@Z 0000000140009650 f i app.obj
 0001:000086f0       ??$ReportFailure_GetLastErrorHr@$00@details@wil@@YAJPEAXIPEBD110@Z 00000001400096f0 f i app.obj
 0001:000087e0       ??$ReportFailure_Hr@$00@details@wil@@YAXPEAXIPEBD110JW4FailureFlags@1@@Z 00000001400097e0 f i app.obj
 0001:00008880       ??$ReportFailure_Hr@$02@details@wil@@YAXPEAXIPEBD110JW4FailureFlags@1@@Z 0000000140009880 f i app.obj
 0001:00008910       ??$ReportFailure_NoReturn@$02@details@wil@@YAXPEAXIPEBD110AEBUResultStatus@01@PEB_WW4ReportFailureOptions@01@@Z 0000000140009910 f i app.obj
 0001:00008b90       ??$ReportFailure_Return@$00@details@wil@@YAXPEAXIPEBD110AEBUResultStatus@01@PEB_WW4ReportFailureOptions@01@W4FailureFlags@1@@Z 0000000140009b90 f i app.obj
 0001:00008e40       ??$_Insert_counted_range@PEBE@?$vector@EV?$allocator@E@std@@@std@@AEAAXV?$_Vector_const_iterator@V?$_Vector_val@U?$_Simple_types@E@std@@@std@@@1@PEBE_K@Z 0000000140009e40 f i app.obj
 0001:00009020       ??$_Move_unchecked@PEAEPEAE@std@@YAPEAEPEAE00@Z 000000014000a020 f i app.obj
 0001:00009020       ??$_Uninitialized_move@PEAEV?$allocator@E@std@@@std@@YAPEAEQEAE0PEAEAEAV?$allocator@E@0@@Z 000000014000a020 f i app.obj
 0001:00009050       ??$_Reallocate_grow_by@V<lambda_1>@?1??insert@?$basic_string@_WU?$char_traits@_W@std@@V?$allocator@_W@2@@std@@QEAAAEAV34@_KQEB_W0@Z@_KPEB_W_K@?$basic_string@_WU?$char_traits@_W@std@@V?$allocator@_W@2@@std@@AEAAAEAV01@_KV<lambda_1>@?1??insert@01@QEAAAEAV01@0QEB_W0@Z@_KPEB_W3@Z 000000014000a050 f i app.obj
 0001:000091e0       ??0?$unique_any_t@V?$unique_storage@U?$handle_null_only_resource_policy@P6AHPEAX@Z$1?CloseHandle@@YAH0@Z@details@wil@@@details@wil@@@wil@@QEAA@XZ 000000014000a1e0 f i app.obj
 0001:000091f0       ??0bad_optional_access@std@@QEAA@AEBV01@@Z 000000014000a1f0 f i app.obj
 0001:00009230       ??0bad_optional_access@std@@QEAA@XZ 000000014000a230 f i app.obj
 0001:00009250       ??1?$CAtlSafeAllocBufferManager@VCCRTAllocator@ATL@@@_ATL_SAFE_ALLOCA_IMPL@ATL@@QEAA@XZ 000000014000a250 f i app.obj
 0001:00009280       ??1?$CAutoVectorPtr@_W@ATL@@QEAA@XZ 000000014000a280 f i app.obj
 0001:000092a0       ??1?$CSimpleStringT@D$0A@@ATL@@QEAA@XZ 000000014000a2a0 f i storage_manager.obj
 0001:000092a0       ??1?$CSimpleStringT@_W$0A@@ATL@@QEAA@XZ 000000014000a2a0 f i app.obj
 0001:000092a0       ??1?$CStringT@DV?$StrTraitATL@DV?$ChTraitsCRT@D@ATL@@@ATL@@@ATL@@QEAA@XZ 000000014000a2a0 f i storage_manager.obj
 0001:000092a0       ??1?$CStringT@_WV?$StrTraitATL@_WV?$ChTraitsCRT@_W@ATL@@@ATL@@@ATL@@QEAA@XZ 000000014000a2a0 f i app.obj
 0001:000092d0       ??1?$CTempBuffer@E$0BAA@VCCRTAllocator@ATL@@@ATL@@QEAA@XZ 000000014000a2d0 f i app.obj
 0001:000092d0       ??1?$CTempBuffer@_W$0BAA@VCCRTAllocator@ATL@@@ATL@@QEAA@XZ 000000014000a2d0 f i app.obj
 0001:000092d0       ??1?$CTempBuffer@_W$0EAA@VCCRTAllocator@ATL@@@ATL@@QEAA@XZ 000000014000a2d0 f i app.obj
 0001:000092e0       ??1?$unique_any_t@V?$event_t@V?$unique_storage@U?$resource_policy@PEAXP6AXPEAX@_E$1?CloseHandle@details@wil@@YAX0@ZU?$integral_constant@_K$0A@@wistd@@PEAXPEAX$0A@$$T@details@wil@@@details@wil@@Uerr_exception_policy@3@@wil@@@wil@@QEAA@XZ 000000014000a2e0 f i app.obj
 0001:000092e0       ??1?$unique_any_t@V?$mutex_t@V?$unique_storage@U?$resource_policy@PEAXP6AXPEAX@_E$1?CloseHandle@details@wil@@YAX0@ZU?$integral_constant@_K$0A@@wistd@@PEAXPEAX$0A@$$T@details@wil@@@details@wil@@Uerr_returncode_policy@3@@wil@@@wil@@QEAA@XZ 000000014000a2e0 f i app.obj
 0001:00009320       ??1?$unique_any_t@V?$unique_storage@U?$handle_invalid_resource_policy@P6AHPEAX@Z$1?CloseHandle@@YAH0@Z@details@wil@@@details@wil@@@wil@@QEAA@XZ 000000014000a320 f i app.obj
 0001:00009340       ??1?$unique_any_t@V?$unique_storage@U?$handle_null_only_resource_policy@P6AHPEAX@Z$1?CloseHandle@@YAH0@Z@details@wil@@@details@wil@@@wil@@QEAA@XZ 000000014000a340 f i app.obj
 0001:00009350       ??1?$unique_any_t@V?$unique_storage@U?$resource_policy@PEAXP6AXPEAX@_E$1?ReleaseMutex@details@wil@@YAX0@ZU?$integral_constant@_K$01@wistd@@PEAXPEAX$0A@$$T@details@wil@@@details@wil@@@wil@@QEAA@XZ 000000014000a350 f i app.obj
 0001:00009390       ??1?$unique_ptr@U_WTS_SESSION_INFOW@@U?$function_deleter@P6AXPEAX@Z$1?WTSFreeMemory@@YAX0@Z@wil@@@wistd@@QEAA@XZ 000000014000a390 f i app.obj
 0001:00009390       ??1?$unique_ptr@_WU?$function_deleter@P6AXPEAX@Z$1?WTSFreeMemory@@YAX0@Z@wil@@@wistd@@QEAA@XZ 000000014000a390 f i app.obj
 0001:000093b0       ??1?$unique_ptr@VPortableSettings@@U?$default_delete@VPortableSettings@@@std@@@std@@QEAA@XZ 000000014000a3b0 f i app.obj
 0001:000093b0       ??1?$unique_ptr@V_Facet_base@std@@U?$default_delete@V_Facet_base@std@@@2@@std@@QEAA@XZ 000000014000a3b0 f i ui_control.obj
 0001:000093d0       ??1?$unique_struct@U_PROCESS_INFORMATION@@P6AXPEAU1@@Z$1?CloseProcessInformation@details@wil@@YAX0@Z$$T$0A@@wil@@QEAA@XZ 000000014000a3d0 f i app.obj
 0001:000093e0       ??1?$_Hash_vec@V?$allocator@V?$_List_unchecked_iterator@V?$_List_val@U?$_List_simple_types@U?$pair@$$CBV?$basic_string_view@_WU?$char_traits@_W@std@@@std@@I@std@@@std@@@std@@@std@@@std@@@std@@QEAA@XZ 000000014000a3e0 f i task_manager_dlg.obj
 0001:000093e0       ??1?$vector@PEAUHWND__@@V?$allocator@PEAUHWND__@@@std@@@std@@QEAA@XZ 000000014000a3e0 f i app.obj
 0001:000093e0       ??1?$vector@PEAV?$basic_json@Uordered_map@nlohmann@@Vvector@std@@V?$basic_string@DU?$char_traits@D@std@@V?$allocator@D@2@@4@_N_J_KNVallocator@4@Uadl_serializer@2@V?$vector@EV?$allocator@E@std@@@4@@nlohmann@@V?$allocator@PEAV?$basic_json@Uordered_map@nlohmann@@Vvector@std@@V?$basic_string@DU?$char_traits@D@std@@V?$allocator@D@2@@4@_N_J_KNVallocator@4@Uadl_serializer@2@V?$vector@EV?$allocator@E@std@@@4@@nlohmann@@@std@@@std@@QEAA@XZ 000000014000a3e0 f i ui_control.obj
 0001:000093e0       ??1?$vector@PEAV?$basic_json@Vmap@std@@Vvector@2@V?$basic_string@DU?$char_traits@D@std@@V?$allocator@D@2@@2@_N_J_KNVallocator@2@Uadl_serializer@nlohmann@@V?$vector@EV?$allocator@E@std@@@2@@nlohmann@@V?$allocator@PEAV?$basic_json@Vmap@std@@Vvector@2@V?$basic_string@DU?$char_traits@D@std@@V?$allocator@D@2@@2@_N_J_KNVallocator@2@Uadl_serializer@nlohmann@@V?$vector@EV?$allocator@E@std@@@2@@nlohmann@@@std@@@std@@QEAA@XZ 000000014000a3e0 f i userprofile.obj
 0001:000093e0       ??1?$vector@PEB_WV?$allocator@PEB_W@std@@@std@@QEAA@XZ 000000014000a3e0 f i update_checker.obj
 0001:000093e0       ?_Tidy@?$vector@PEAUHWND__@@V?$allocator@PEAUHWND__@@@std@@@std@@AEAAXXZ 000000014000a3e0 f i ui_control.obj
 0001:00009450       ??1CAsyncDownloader@WinHTTPWrappers@@UEAA@XZ 000000014000a450 f i app.obj
 0001:00009560       ??1CCritSecLock@ATL@@QEAA@XZ 000000014000a560 f i app.obj
 0001:00009560       ??1CStaticDataInitCriticalSectionLock@WTL@@QEAA@XZ 000000014000a560 f i app.obj
 0001:00009590       ??1CMainWindow@@UEAA@XZ    000000014000a590 f i app.obj
 0001:000097e0       ??1CParseBuffer@CRegParser@ATL@@QEAA@XZ 000000014000a7e0 f i app.obj
 0001:000097f0       ??1CRegKey@ATL@@QEAA@XZ    000000014000a7f0 f i app.obj
 0001:00009820       ??1CRegObject@ATL@@UEAA@XZ 000000014000a820 f i app.obj
 0001:000098b0       ??1CSimpleWinHTTPDownloader@CWinHTTPSimple@@UEAA@XZ 000000014000a8b0 f i app.obj
 0001:00009950       ??1CWinHTTPSimple@@QEAA@XZ 000000014000a950 f i app.obj
 0001:000099c0       ??1UpdateChecker@@QEAA@XZ  000000014000a9c0 f i app.obj
 0001:00009a90       ??1_Vaporization_guard@?$vector@EV?$allocator@E@std@@@std@@QEAA@XZ 000000014000aa90 f i app.obj
 0001:00009ab0       ??R?$__func@V<lambda_1>@?1???$K32GetModuleFileNameExW@V?$basic_string@_WU?$char_traits@_W@std@@V?$allocator@_W@2@@std@@$0IA@@wil@@YAJPEAXPEAUHINSTANCE__@@AEAV?$basic_string@_WU?$char_traits@_W@std@@V?$allocator@_W@2@@std@@@Z@$$A6AJPEA_W_KPEA_K@Z@__function@wistd@@UEAAJ$$QEAPEA_W$$QEA_K$$QEAPEA_K@Z 000000014000aab0 f i app.obj
 0001:00009b60       ??R?$__func@V<lambda_1>@?1???$QueryFullProcessImageNameW@V?$basic_string@_WU?$char_traits@_W@std@@V?$allocator@_W@2@@std@@$0BAA@@wil@@YAJPEAXKAEAV?$basic_string@_WU?$char_traits@_W@std@@V?$allocator@_W@2@@std@@@Z@$$A6AJPEA_W_KPEA_K@Z@__function@wistd@@UEAAJ$$QEAPEA_W$$QEA_K$$QEAPEA_K@Z 000000014000ab60 f i app.obj
 0001:00009be0       ??_E?$__base@$$A6AJPEA_W_KPEA_K@Z@__function@wistd@@UEAAPEAXI@Z 000000014000abe0 f i app.obj
 0001:00009be0       ??_G?$__base@$$A6AJPEA_W_KPEA_K@Z@__function@wistd@@UEAAPEAXI@Z 000000014000abe0 f i app.obj
 0001:00009c10       ??_E?$__func@V<lambda_1>@?1???$K32GetModuleFileNameExW@V?$basic_string@_WU?$char_traits@_W@std@@V?$allocator@_W@2@@std@@$0IA@@wil@@YAJPEAXPEAUHINSTANCE__@@AEAV?$basic_string@_WU?$char_traits@_W@std@@V?$allocator@_W@2@@std@@@Z@$$A6AJPEA_W_KPEA_K@Z@__function@wistd@@UEAAPEAXI@Z 000000014000ac10 f i app.obj
 0001:00009c10       ??_E?$__func@V<lambda_1>@?1???$QueryFullProcessImageNameW@V?$basic_string@_WU?$char_traits@_W@std@@V?$allocator@_W@2@@std@@$0BAA@@wil@@YAJPEAXKAEAV?$basic_string@_WU?$char_traits@_W@std@@V?$allocator@_W@2@@std@@@Z@$$A6AJPEA_W_KPEA_K@Z@__function@wistd@@UEAAPEAXI@Z 000000014000ac10 f i app.obj
 0001:00009c10       ??_G?$__func@V<lambda_1>@?1???$K32GetModuleFileNameExW@V?$basic_string@_WU?$char_traits@_W@std@@V?$allocator@_W@2@@std@@$0IA@@wil@@YAJPEAXPEAUHINSTANCE__@@AEAV?$basic_string@_WU?$char_traits@_W@std@@V?$allocator@_W@2@@std@@@Z@$$A6AJPEA_W_KPEA_K@Z@__function@wistd@@UEAAPEAXI@Z 000000014000ac10 f i app.obj
 0001:00009c10       ??_G?$__func@V<lambda_1>@?1???$QueryFullProcessImageNameW@V?$basic_string@_WU?$char_traits@_W@std@@V?$allocator@_W@2@@std@@$0BAA@@wil@@YAJPEAXKAEAV?$basic_string@_WU?$char_traits@_W@std@@V?$allocator@_W@2@@std@@@Z@$$A6AJPEA_W_KPEA_K@Z@__function@wistd@@UEAAPEAXI@Z 000000014000ac10 f i app.obj
 0001:00009c40       ??_ECAsyncDownloader@WinHTTPWrappers@@UEAAPEAXI@Z 000000014000ac40 f i app.obj
 0001:00009c40       ??_GCAsyncDownloader@WinHTTPWrappers@@UEAAPEAXI@Z 000000014000ac40 f i app.obj
 0001:00009c80       ??_ECConnection@WinHTTPWrappers@@UEAAPEAXI@Z 000000014000ac80 f i update_checker.obj
 0001:00009c80       ??_ECHandle@WinHTTPWrappers@@UEAAPEAXI@Z 000000014000ac80 f i app.obj
 0001:00009c80       ??_ECSession@WinHTTPWrappers@@UEAAPEAXI@Z 000000014000ac80 f i update_checker.obj
 0001:00009c80       ??_GCConnection@WinHTTPWrappers@@UEAAPEAXI@Z 000000014000ac80 f i update_checker.obj
 0001:00009c80       ??_GCHandle@WinHTTPWrappers@@UEAAPEAXI@Z 000000014000ac80 f i app.obj
 0001:00009c80       ??_GCSession@WinHTTPWrappers@@UEAAPEAXI@Z 000000014000ac80 f i update_checker.obj
 0001:00009ce0       ??_ECMessageLoop@WTL@@UEAAPEAXI@Z 000000014000ace0 f i app.obj
 0001:00009ce0       ??_GCMessageLoop@WTL@@UEAAPEAXI@Z 000000014000ace0 f i app.obj
 0001:00009de0       ??_ECSimpleWinHTTPDownloader@CWinHTTPSimple@@UEAAPEAXI@Z 000000014000ade0 f i app.obj
 0001:00009de0       ??_GCSimpleWinHTTPDownloader@CWinHTTPSimple@@UEAAPEAXI@Z 000000014000ade0 f i app.obj
 0001:00009e20       ?Add@CExpansionVector@ATL@@QEAAHPEB_W0@Z 000000014000ae20 f i app.obj
 0001:00009fa0       ?AddValue@CRegParser@ATL@@IEAAJAEAVCRegKey@2@PEB_WPEA_W@Z 000000014000afa0 f i app.obj
 0001:0000a540       ?AllocateHeap@?$CTempBuffer@E$0BAA@VCCRTAllocator@ATL@@@ATL@@AEAAX_K@Z 000000014000b540 f i app.obj
 0001:0000a540       ?AllocateHeap@?$CTempBuffer@_W$0BAA@VCCRTAllocator@ATL@@@ATL@@AEAAX_K@Z 000000014000b540 f i app.obj
 0001:0000a540       ?AllocateHeap@?$CTempBuffer@_W$0EAA@VCCRTAllocator@ATL@@@ATL@@AEAAX_K@Z 000000014000b540 f i app.obj
 0001:0000a570       ?Append@CParseBuffer@CRegParser@ATL@@QEAAHPEB_WH@Z 000000014000b570 f i app.obj
 0001:0000a6d0       ?AtlHresultFromLastError@ATL@@YAJXZ 000000014000b6d0 f i app.obj
 0001:0000a6f0       ?AtlHresultFromWin32@ATL@@YAJK@Z 000000014000b6f0 f i app.obj
 0001:0000a700       ?AtlThrowImpl@ATL@@YAXJ@Z  000000014000b700 f i app.obj
 0001:0000a730       ?ChooseAuthScheme@CAsyncDownloader@WinHTTPWrappers@@UEAAKKKK@Z 000000014000b730 f i app.obj
 0001:0000a770       ?ClearReplacements@CExpansionVector@ATL@@QEAAJXZ 000000014000b770 f i app.obj
 0001:0000a820       ?CloseHandle@details@wil@@YAXPEAX@Z 000000014000b820 f i app.obj
 0001:0000a850       ?CloseProcessInformation@details@wil@@YAXPEAU_PROCESS_INFORMATION@@@Z 000000014000b850 f i app.obj
 0001:0000a8c0       ?DeleteDownloadedFile@CAsyncDownloader@WinHTTPWrappers@@QEAAJXZ 000000014000b8c0 f i app.obj
 0001:0000a930       ?DeleteSubKey@CRegKey@ATL@@QEAAJPEB_W@Z 000000014000b930 f i app.obj
 0001:0000aa70       ?DoAuthentication@CAsyncDownloader@WinHTTPWrappers@@UEAAJKKK@Z 000000014000ba70 f i app.obj
 0001:0000ab20       ?DoBandwidthThrottling@CAsyncDownloader@WinHTTPWrappers@@MEAAXXZ 000000014000bb20 f i app.obj
 0001:0000aca0       ?Fork@?$CSimpleStringT@_W$0A@@ATL@@AEAAXH@Z 000000014000bca0 f i app.obj
 0001:0000ad80       ?Format@?$CStringT@_WV?$StrTraitATL@_WV?$ChTraitsCRT@_W@ATL@@@ATL@@@ATL@@QEAAXPEB_WZZ 000000014000bd80 f i app.obj
 0001:0000adb0       ?FormatV@?$CStringT@_WV?$StrTraitATL@_WV?$ChTraitsCRT@_W@ATL@@@ATL@@@ATL@@QEAAXPEB_WPEAD@Z 000000014000bdb0 f i app.obj
 0001:0000af40       ?FreeHeap@?$CTempBuffer@E$0BAA@VCCRTAllocator@ATL@@@ATL@@AEAAXXZ 000000014000bf40 f i app.obj
 0001:0000af40       ?FreeHeap@?$CTempBuffer@_W$0BAA@VCCRTAllocator@ATL@@@ATL@@AEAAXXZ 000000014000bf40 f i app.obj
 0001:0000af40       ?FreeHeap@?$CTempBuffer@_W$0EAA@VCCRTAllocator@ATL@@@ATL@@AEAAXXZ 000000014000bf40 f i app.obj
 0001:0000af50       ?GetContentLength@CAsyncDownloader@WinHTTPWrappers@@UEAAKXZ 000000014000bf50 f i app.obj
 0001:0000af80       ?GetHeaders@CAsyncDownloader@WinHTTPWrappers@@UEAA?AV?$basic_string@_WU?$char_traits@_W@std@@V?$allocator@_W@2@@std@@XZ 000000014000bf80 f i app.obj
 0001:0000b0c0       ?GetInstance@CAtlStringMgr@ATL@@SAPEAUIAtlStringMgr@2@XZ 000000014000c0c0 f i app.obj
 0001:0000b1e0       ?GetLastErrorFail@details@wil@@YAKPEAXIPEBD110@Z 000000014000c1e0 f i app.obj
 0001:0000b260       ?Init@CAppModule@WTL@@QEAAJPEAU_ATL_OBJMAP_ENTRY30@ATL@@PEAUHINSTANCE__@@PEBU_GUID@@@Z 000000014000c260 f i app.obj
 0001:0000b350       ?Init@CWndProcThunk@ATL@@QEAAHP6A_JPEAUHWND__@@I_K_J@ZPEAX@Z 000000014000c350 f i app.obj
 0001:0000b3c0       ?IsIdleMessage@CMessageLoop@WTL@@UEBAHPEAUtagMSG@@@Z 000000014000c3c0 f i app.obj
 0001:0000b3f0       ?LoadStringW@?$CStringT@_WV?$StrTraitATL@_WV?$ChTraitsCRT@_W@ATL@@@ATL@@@ATL@@QEAAHI@Z 000000014000c3f0 f i app.obj
 0001:0000b570       ?NextToken@CRegParser@ATL@@IEAAJPEA_W@Z 000000014000c570 f i app.obj
 0001:0000b720       ?On401Response@CAsyncDownloader@WinHTTPWrappers@@MEAAJXZ 000000014000c720 f i app.obj
 0001:0000b920       ?On407Response@CAsyncDownloader@WinHTTPWrappers@@MEAAJXZ 000000014000c920 f i app.obj
 0001:0000bb00       ?OnCallback@CAsyncDownloader@WinHTTPWrappers@@MEAAJPEAXK0K@Z 000000014000cb00 f i app.obj
 0001:0000bb70       ?OnCallback@CSimpleWinHTTPDownloader@CWinHTTPSimple@@MEAAJPEAXK0K@Z 000000014000cb70 f i app.obj
 0001:0000bc30       ?OnCallbackComplete@CAsyncDownloader@WinHTTPWrappers@@MEAAJJPEAXK0K@Z 000000014000cc30 f i app.obj
 0001:0000bc60       ?OnCallbackComplete@CSimpleWinHTTPDownloader@CWinHTTPSimple@@MEAAJJPEAXK0K@Z 000000014000cc60 f i app.obj
 0001:0000bcd0       ?OnCheckStatusCode@CAsyncDownloader@WinHTTPWrappers@@MEAAJXZ 000000014000ccd0 f i app.obj
 0001:0000bd30       ?OnHeadersAvailableCallback@CAsyncDownloader@WinHTTPWrappers@@MEAAJPEAXK0K@Z 000000014000cd30 f i app.obj
 0001:0000be50       ?OnIdle@CMessageLoop@WTL@@UEAAHH@Z 000000014000ce50 f i app.obj
 0001:0000bf30       ?OnReadCompleteCallback@CAsyncDownloader@WinHTTPWrappers@@MEAAJPEAXK0K@Z 000000014000cf30 f i app.obj
 0001:0000c010       ?OnReadData@CAsyncDownloader@WinHTTPWrappers@@MEAAJPEBXK@Z 000000014000d010 f i app.obj
 0001:0000c110       ?OnRequestErrorCallback@CAsyncDownloader@WinHTTPWrappers@@MEAAJPEAXK0K@Z 000000014000d110 f i app.obj
 0001:0000c280       ?OnWriteCallback@CAsyncDownloader@WinHTTPWrappers@@MEAAJPEAXK0K@Z 000000014000d280 f i app.obj
 0001:0000c2c0       ?OnWriteData@CAsyncDownloader@WinHTTPWrappers@@MEAAJXZ 000000014000d2c0 f i app.obj
 0001:0000c460       ?PreProcessBuffer@CRegParser@ATL@@QEAAJPEA_WPEAPEA_W@Z 000000014000d460 f i app.obj
 0001:0000c8a0       ?PreTranslateMessage@CMessageLoop@WTL@@UEAAHPEAUtagMSG@@@Z 000000014000d8a0 f i app.obj
 0001:0000c920       ?PrepareWrite2@?$CSimpleStringT@_W$0A@@ATL@@AEAAXH@Z 000000014000d920 f i app.obj
 0001:0000c990       ?QueryContentLength@CAsyncDownloader@WinHTTPWrappers@@IEAAJAEA_J@Z 000000014000d990 f i app.obj
 0001:0000cab0       ?Reallocate@?$CSimpleStringT@_W$0A@@ATL@@AEAAXH@Z 000000014000dab0 f i app.obj
 0001:0000cb00       ?RecurseDeleteKey@CRegKey@ATL@@QEAAJPEB_W@Z 000000014000db00 f i app.obj
 0001:0000cc90       ?RegisterBuffer@CRegParser@ATL@@QEAAJPEA_WH@Z 000000014000dc90 f i app.obj
 0001:0000d140       ?RegisterFromResource@CRegObject@ATL@@IEAAJPEB_W00H@Z 000000014000e140 f i app.obj
 0001:0000d340       ?RegisterSubkeys@CRegParser@ATL@@IEAAJPEA_WPEAUHKEY__@@HH@Z 000000014000e340 f i app.obj
 0001:0000e330       ?ReleaseResources@CAsyncDownloader@WinHTTPWrappers@@QEAAXXZ 000000014000f330 f i app.obj
 0001:0000e400       ?RemoveAt@?$CSimpleMap@KPEAVCMessageLoop@WTL@@V?$CSimpleMapEqualHelper@KPEAVCMessageLoop@WTL@@@ATL@@@ATL@@QEAAHH@Z 000000014000f400 f i app.obj
 0001:0000e580       ?ResultFromCaughtException@wil@@YAJXZ 000000014000f580 f i app.obj
 0001:0000e5e0       ?Return_GetLastError@in1diag3@details@wil@@YAJPEAXIPEBD@Z 000000014000f5e0 f i app.obj
 0001:0000e610       ?Return_Hr@in1diag3@details@wil@@YAXPEAXIPEBDJ@Z 000000014000f610 f i app.obj
 0001:0000fbd0       ?SendRequest@CAsyncDownloader@WinHTTPWrappers@@QEAAJPEAXKAEBV?$basic_string@_WU?$char_traits@_W@std@@V?$allocator@_W@2@@std@@@Z 0000000140010bd0 f i app.obj
 0001:0000fcf0       ?SendRequestSync@CSimpleWinHTTPDownloader@CWinHTTPSimple@@UEAAJPEAXK@Z 0000000140010cf0 f i app.obj
 0001:0000fdc0       ?SendRequestSync@CSyncDownloader@WinHTTPWrappers@@UEAAJPEAXKAEBV?$basic_string@_WU?$char_traits@_W@std@@V?$allocator@_W@2@@std@@@Z 0000000140010dc0 f i app.obj
 0001:00010090       ?SetEvent@details@wil@@YAXPEAX@Z 0000000140011090 f i app.obj
 0001:00010610       ?SetString@?$CSimpleStringT@_W$0A@@ATL@@QEAAXPEB_WH@Z 0000000140011610 f i app.obj
 0001:000107b0       ?SkipAssignment@CRegParser@ATL@@IEAAJPEA_W@Z 00000001400117b0 f i app.obj
 0001:00010870       ?StartWindowProc@?$CWindowImplBaseT@VCWindow@ATL@@V?$CWinTraits@$0A@$0A@@2@@ATL@@SA_JPEAUHWND__@@I_K_J@Z 0000000140011870 f i app.obj
 0001:00010970       ?Term@CAppModule@WTL@@QEAAXXZ 0000000140011970 f i app.obj
 0001:00010ac0       ?Term@CAtlModule@ATL@@QEAAXXZ 0000000140011ac0 f i app.obj
 0001:00010b80       ?ThrowMemoryException@?$CSimpleStringT@D$0A@@ATL@@KAXXZ 0000000140011b80 f i storage_manager.obj
 0001:00010b80       ?ThrowMemoryException@?$CSimpleStringT@_W$0A@@ATL@@KAXXZ 0000000140011b80 f i app.obj
 0001:00010b90       ?Throw_GetLastError@in1diag3@details@wil@@YAXPEAXIPEBD@Z 0000000140011b90 f i app.obj
 0001:00010b90       ?_Throw_GetLastError@in1diag3@details@wil@@YAXPEAXIPEBD@Z 0000000140011b90 f i app.obj
 0001:00010bb0       ?UpdateRegistryFromResource@CAtlModule@ATL@@QEAAJIHPEAU_ATL_REGMAP_ENTRY@2@@Z 0000000140011bb0 f i app.obj
 0001:00011af0       ?UpdateRegistryFromResource@CAtlModule@ATL@@QEAAJPEB_WHPEAU_ATL_REGMAP_ENTRY@2@@Z 0000000140012af0 f i app.obj
 0001:000133d0       ?_AtlGetStringResourceImage@ATL@@YAPEBUATLSTRINGRESOURCEIMAGE@1@PEAUHINSTANCE__@@PEAUHRSRC__@@I@Z 00000001400143d0 f i app.obj
 0001:00013460       ?_AtlInitializeCriticalSectionEx@ATL@@YAHPEAU_RTL_CRITICAL_SECTION@@KK@Z 0000000140014460 f i app.obj
 0001:00013460       __acrt_InitializeCriticalSectionEx 0000000140014460 f i libucrt:winapi_thunks.obj
 0001:00013470       ?_AtlRaiseException@ATL@@YAXKK@Z 0000000140014470 f i app.obj
 0001:00013480       ?_Change_array@?$vector@EV?$allocator@E@std@@@std@@AEAAXQEAE_K1@Z 0000000140014480 f i app.obj
 0001:00013520       ?_FailFast_GetLastError@in1diag3@details@wil@@YAXPEAXIPEBD@Z 0000000140014520 f i app.obj
 0001:00013540       ?_FailFast_Hr@in1diag3@details@wil@@YAXPEAXIPEBDJ@Z 0000000140014540 f i app.obj
 0001:00013570       ?_Find_root_name_end@filesystem@std@@YAPEB_WQEB_W0@Z 0000000140014570 f i app.obj
 0001:00013680       ?_Throw_bad_optional_access@std@@YAXXZ 0000000140014680 f i app.obj
 0001:000136b0       ?__clone@?$__func@V<lambda_1>@?1???$K32GetModuleFileNameExW@V?$basic_string@_WU?$char_traits@_W@std@@V?$allocator@_W@2@@std@@$0IA@@wil@@YAJPEAXPEAUHINSTANCE__@@AEAV?$basic_string@_WU?$char_traits@_W@std@@V?$allocator@_W@2@@std@@@Z@$$A6AJPEA_W_KPEA_K@Z@__function@wistd@@UEBAXPEAV?$__base@$$A6AJPEA_W_KPEA_K@Z@23@@Z 00000001400146b0 f i app.obj
 0001:000136b0       ?__move@?$__func@V<lambda_1>@?1???$K32GetModuleFileNameExW@V?$basic_string@_WU?$char_traits@_W@std@@V?$allocator@_W@2@@std@@$0IA@@wil@@YAJPEAXPEAUHINSTANCE__@@AEAV?$basic_string@_WU?$char_traits@_W@std@@V?$allocator@_W@2@@std@@@Z@$$A6AJPEA_W_KPEA_K@Z@__function@wistd@@UEAAXPEAV?$__base@$$A6AJPEA_W_KPEA_K@Z@23@@Z 00000001400146b0 f i app.obj
 0001:000136d0       ?__clone@?$__func@V<lambda_1>@?1???$QueryFullProcessImageNameW@V?$basic_string@_WU?$char_traits@_W@std@@V?$allocator@_W@2@@std@@$0BAA@@wil@@YAJPEAXKAEAV?$basic_string@_WU?$char_traits@_W@std@@V?$allocator@_W@2@@std@@@Z@$$A6AJPEA_W_KPEA_K@Z@__function@wistd@@UEBAXPEAV?$__base@$$A6AJPEA_W_KPEA_K@Z@23@@Z 00000001400146d0 f i app.obj
 0001:000136d0       ?__move@?$__func@V<lambda_1>@?1???$QueryFullProcessImageNameW@V?$basic_string@_WU?$char_traits@_W@std@@V?$allocator@_W@2@@std@@$0BAA@@wil@@YAJPEAXKAEAV?$basic_string@_WU?$char_traits@_W@std@@V?$allocator@_W@2@@std@@@Z@$$A6AJPEA_W_KPEA_K@Z@__function@wistd@@UEAAXPEAV?$__base@$$A6AJPEA_W_KPEA_K@Z@23@@Z 00000001400146d0 f i app.obj
 0001:000136f0       ?append@?$basic_string@_WU?$char_traits@_W@std@@V?$allocator@_W@2@@std@@QEAAAEAV12@QEB_W@Z 00000001400146f0 f i app.obj
 0001:00013790       ??1?$CIconT@$0A@@WTL@@QEAA@XZ 0000000140014790 f i task_manager_dlg.obj
 0001:00013790       ?OnFinalMessage@?$CWindowImplBaseT@V?$CListViewCtrlT@VCWindow@ATL@@@WTL@@V?$CWinTraits@$0FGAAAAAJ@$0CAA@@ATL@@@ATL@@UEAAXPEAUHWND__@@@Z 0000000140014790 f i task_manager_dlg.obj
 0001:00013790       ?OnFinalMessage@?$CWindowImplBaseT@VCWindow@ATL@@V?$CWinTraits@$0A@$0A@@2@@ATL@@UEAAXPEAUHWND__@@@Z 0000000140014790 f i main_window.obj
 0001:00013790       ?_Lock@?$basic_streambuf@DU?$char_traits@D@std@@@std@@UEAAXXZ 0000000140014790 f i ui_control.obj
 0001:00013790       ?_Unlock@?$basic_streambuf@DU?$char_traits@D@std@@@std@@UEAAXXZ 0000000140014790 f i ui_control.obj
 0001:00013790       ?destroy@?$__func@V<lambda_1>@?1???$ExpandEnvironmentStringsW@V?$basic_string@_WU?$char_traits@_W@std@@V?$allocator@_W@2@@std@@$0BAA@@wil@@YAJPEB_WAEAV?$basic_string@_WU?$char_traits@_W@std@@V?$allocator@_W@2@@std@@@Z@$$A6AJPEA_W_KPEA_K@Z@__function@wistd@@UEAAXXZ 0000000140014790 f i storage_manager.obj
 0001:00013790       ?destroy@?$__func@V<lambda_1>@?1???$GetWindowsDirectoryW@V?$basic_string@_WU?$char_traits@_W@std@@V?$allocator@_W@2@@std@@$0BAA@@wil@@YAJAEAV?$basic_string@_WU?$char_traits@_W@std@@V?$allocator@_W@2@@std@@@Z@$$A6AJPEA_W_KPEA_K@Z@__function@wistd@@UEAAXXZ 0000000140014790 f i main_window.obj
 0001:00013790       ?destroy@?$__func@V<lambda_1>@?1???$K32GetModuleFileNameExW@V?$basic_string@_WU?$char_traits@_W@std@@V?$allocator@_W@2@@std@@$0IA@@wil@@YAJPEAXPEAUHINSTANCE__@@AEAV?$basic_string@_WU?$char_traits@_W@std@@V?$allocator@_W@2@@std@@@Z@$$A6AJPEA_W_KPEA_K@Z@__function@wistd@@UEAAXXZ 0000000140014790 f i app.obj
 0001:00013790       ?destroy@?$__func@V<lambda_1>@?1???$QueryFullProcessImageNameW@V?$basic_string@_WU?$char_traits@_W@std@@V?$allocator@_W@2@@std@@$0BAA@@wil@@YAJPEAXKAEAV?$basic_string@_WU?$char_traits@_W@std@@V?$allocator@_W@2@@std@@@Z@$$A6AJPEA_W_KPEA_K@Z@__function@wistd@@UEAAXXZ 0000000140014790 f i app.obj
 0001:00013790       ?imbue@?$basic_streambuf@DU?$char_traits@D@std@@@std@@MEAAXAEBVlocale@2@@Z 0000000140014790 f i ui_control.obj
 0001:00013790       __sanitizer_annotate_contiguous_container 0000000140014790 f i libcpmt:asan_noop.obj
 0001:00013790       __sanitizer_annotate_contiguous_container_default 0000000140014790 f i libcpmt:asan_noop.obj
 0001:00013790       _guard_check_icall_nop     0000000140014790 f i LIBCMT:guard_support.obj
 0001:00013790       _initialize_denormal_control 0000000140014790 f i LIBCMT:denormal_control.obj
 0001:00013790       _initialize_invalid_parameter_handler 0000000140014790 f i LIBCMT:invalid_parameter_handler.obj
 0001:000137a0       ?make@?$string_maker@V?$basic_string@_WU?$char_traits@_W@std@@V?$allocator@_W@2@@std@@@details@wil@@QEAAJPEB_W_K@Z 00000001400147a0 f i app.obj
 0001:000139c0       ?reserve@?$vector@EV?$allocator@E@std@@@std@@QEAAX_K@Z 00000001400149c0 f i app.obj
 0001:00013a50       ?what@bad_optional_access@std@@UEBAPEBDXZ 0000000140014a50 f i app.obj
 0001:00013a60       swprintf_s                 0000000140014a60 f i app.obj
 0001:00013ac0       wWinMain                   0000000140014ac0 f   app.obj
 0001:00013f20       ??$?0$$BY0N@_W$0A@@path@filesystem@std@@QEAA@AEAY0N@$$CB_WW4format@012@@Z 0000000140014f20 f i engine_control.obj
 0001:00014080       ??$ReportFailure_GetLastErrorMsg@$0A@@details@wil@@YAKPEAXIPEBD1101PEAD@Z 0000000140015080 f i engine_control.obj
 0001:00014130       ??$ReportFailure_Msg@$0A@@details@wil@@YAXPEAXIPEBD110AEBUResultStatus@01@1PEAD@Z 0000000140015130 f i engine_control.obj
 0001:000141c0       ??$Throw_GetLastErrorIfNullMsg@V?$unique_any_t@V?$unique_storage@U?$resource_policy@PEAUHINSTANCE__@@P6AHPEAU1@@Z$1?FreeLibrary@@YAH0@ZU?$integral_constant@_K$0A@@wistd@@PEAU1@PEAU1@$0A@$$T@details@wil@@@details@wil@@@wil@@$0A@@in1diag3@details@wil@@YAXPEAXIPEBDAEBV?$unique_any_t@V?$unique_storage@U?$resource_policy@PEAUHINSTANCE__@@P6AHPEAU1@@Z$1?FreeLibrary@@YAH0@ZU?$integral_constant@_K$0A@@wistd@@PEAU1@PEAU1@$0A@$$T@details@wil@@@details@wil@@@2@1ZZ 00000001400151c0 f i engine_control.obj
 0001:000141f0       ??$_Reallocate_grow_by@V<lambda_1>@?1??push_back@?$basic_string@_WU?$char_traits@_W@std@@V?$allocator@_W@2@@std@@QEAAX_W@Z@_W@?$basic_string@_WU?$char_traits@_W@std@@V?$allocator@_W@2@@std@@AEAAAEAV01@_KV<lambda_1>@?1??push_back@01@QEAAX_W@Z@_W@Z 00000001400151f0 f i engine_control.obj
 0001:00014370       ??$_Reallocate_grow_by@V<lambda_1>@?4???$resize_and_overwrite@V<lambda_1>@?4???Kfilesystem@std@@YA?AVpath@23@AEBV423@0@Z@@?$basic_string@_WU?$char_traits@_W@std@@V?$allocator@_W@2@@std@@QEAAX_KV1?4???Kfilesystem@3@YA?AVpath@43@AEBV543@1@Z@@Z@$$V@?$basic_string@_WU?$char_traits@_W@std@@V?$allocator@_W@2@@std@@AEAAAEAV01@_KV<lambda_1>@?4???$resize_and_overwrite@V<lambda_1>@?4???Kfilesystem@std@@YA?AVpath@23@AEBV423@0@Z@@01@QEAAX0V2?4???Kfilesystem@1@YA?AVpath@31@AEBV431@1@Z@@Z@@Z 0000000140015370 f i engine_control.obj
 0001:000144c0       ??0EngineControl@@QEAA@XZ  00000001400154c0 f   engine_control.obj
 0001:000146e0       ??0runtime_error@std@@QEAA@AEBV01@@Z 00000001400156e0 f i engine_control.obj
 0001:00014720       ??0runtime_error@std@@QEAA@PEBD@Z 0000000140015720 f i engine_control.obj
 0001:00014770       ??1?$unique_any_t@V?$unique_storage@U?$resource_policy@PEAUHINSTANCE__@@P6AHPEAU1@@Z$1?FreeLibrary@@YAH0@ZU?$integral_constant@_K$0A@@wistd@@PEAU1@PEAU1@$0A@$$T@details@wil@@@details@wil@@@wil@@QEAA@XZ 0000000140015770 f i engine_control.obj
 0001:00014780       ??1EngineControl@@QEAA@XZ  0000000140015780 f   engine_control.obj
 0001:000147b0       ??Kfilesystem@std@@YA?AVpath@01@AEBV201@0@Z 00000001400157b0 f i engine_control.obj
 0001:00014a70       ??_0path@filesystem@std@@QEAAAEAV012@AEBV012@@Z 0000000140015a70 f i engine_control.obj
 0001:00014d40       ?HandleNewProcesses@EngineControl@@QEAAHXZ 0000000140015d40 f   engine_control.obj
 0001:00014d50       ?PrintLoggingMessage@details@wil@@YAXPEA_W_KPEBDPEAD@Z 0000000140015d50 f i engine_control.obj
 0001:00014e30       ?StringCchPrintfW@@YAJPEA_W_KPEB_WZZ 0000000140015e30 f i engine_control.obj
 0001:00014f30       ?_Throw_GetLastErrorMsg@in1diag3@details@wil@@YAXPEAXIPEBD01PEAD@Z 0000000140015f30 f i engine_control.obj
 0001:00014f60       ?assign@?$basic_string@_WU?$char_traits@_W@std@@V?$allocator@_W@2@@std@@QEAAAEAV12@QEB_W_K@Z 0000000140015f60 f i engine_control.obj
 0001:000150e0       wmemcmp                    00000001400160e0 f i engine_control.obj
 0001:00015290       ??$safe_cast@H_K$0A@@wil@@YAH_K@Z 0000000140016290 f i event_viewer_crash_monitor.obj
 0001:000152d0       ??0EventViewerCrashMonitor@@QEAA@V?$basic_string_view@_WU?$char_traits@_W@std@@@std@@@Z 00000001400162d0 f   event_viewer_crash_monitor.obj
 0001:000154a0       ??0logic_error@std@@QEAA@PEBD@Z 00000001400164a0 f i event_viewer_crash_monitor.obj
 0001:000154f0       ??1?$unique_any_t@V?$unique_storage@U?$resource_policy@PEAXP6AHPEAX@Z$1?EvtClose@@YAH0@ZU?$integral_constant@_K$0A@@wistd@@PEAXPEAX$0A@$$T@details@wil@@@details@wil@@@wil@@QEAA@XZ 00000001400164f0 f i event_viewer_crash_monitor.obj
 0001:00015500       ??1?$unique_ptr@$$BY0A@EU?$default_delete@$$BY0A@E@std@@@std@@QEAA@XZ 0000000140016500 f i event_viewer_crash_monitor.obj
 0001:00015510       ?DoesEventMatch@EventViewerCrashMonitor@@AEAA_NPEAX@Z 0000000140016510 f   event_viewer_crash_monitor.obj
 0001:00015970       ?GetAmountOfNewEvents@EventViewerCrashMonitor@@QEAAHXZ 0000000140016970 f   event_viewer_crash_monitor.obj
 0001:00015a50       ?GetEventHandle@EventViewerCrashMonitor@@QEBAPEAXXZ 0000000140016a50 f   event_viewer_crash_monitor.obj
 0001:00015c50       ??1?$_Tidy_guard@V?$vector@V?$basic_string@_WU?$char_traits@_W@std@@V?$allocator@_W@2@@std@@V?$allocator@V?$basic_string@_WU?$char_traits@_W@std@@V?$allocator@_W@2@@std@@@2@@std@@@std@@QEAA@XZ 0000000140016c50 f i functions.obj
 0001:00015c60       ??1?$_Uninitialized_backout_al@V?$allocator@V?$basic_string@_WU?$char_traits@_W@std@@V?$allocator@_W@2@@std@@@std@@@std@@QEAA@XZ 0000000140016c60 f i functions.obj
 0001:00015ca0       ??E_Iterator@?$split_view@V?$basic_string_view@_WU?$char_traits@_W@std@@@std@@V?$single_view@_W@ranges@2@@ranges@std@@QEAAAEAV0123@XZ 0000000140016ca0 f i functions.obj
 0001:00015f30       ?ApplyDialogLayoutRtl@Functions@@YAXVCWindow@ATL@@_N@Z 0000000140016f30 f   functions.obj
 0001:00015fb0       ?CreateEventForMediumIntegrity@Functions@@YAPEAXPEB_WH@Z 0000000140016fb0 f   functions.obj
 0001:00016040       ?CreateExecutionRequiredRequest@Functions@@YAJPEAXPEAPEAX@Z 0000000140017040 f   functions.obj
 0001:000161c0       ?GetDpiForWindowWithFallback@Functions@@YAIPEAUHWND__@@@Z 00000001400171c0 f   functions.obj
 0001:000162a0       ?GetNtVersionNumbers@Functions@@YAXPEAK00@Z 00000001400172a0 f   functions.obj
 0001:000163d0       ?GetSystemMetricsForDpiWithFallback@Functions@@YAHHI@Z 00000001400173d0 f   functions.obj
 0001:00016480       ?IsProcessFrozen@Functions@@YA_NPEAX@Z 0000000140017480 f   functions.obj
 0001:00016550       ?IsRightToLeftLanguage@Functions@@YA_NG@Z 0000000140017550 f   functions.obj
 0001:00016570       ?IsRunAsAdmin@Functions@@YAHXZ 0000000140017570 f   functions.obj
 0001:00016630       ?IsWindowsVersionOrGreaterWithBuildNumber@Functions@@YA_NGGG@Z 0000000140017630 f   functions.obj
 0001:000167a0       ?LoadStrFromRsrc@Functions@@YAPEB_WI@Z 00000001400177a0 f   functions.obj
 0001:000168a0       ?SetDebugPrivilege@Functions@@YAHH@Z 00000001400178a0 f   functions.obj
 0001:00016980       ?SplitString@Functions@@YA?AV?$vector@V?$basic_string@_WU?$char_traits@_W@std@@V?$allocator@_W@2@@std@@V?$allocator@V?$basic_string@_WU?$char_traits@_W@std@@V?$allocator@_W@2@@std@@@2@@std@@V?$basic_string_view@_WU?$char_traits@_W@std@@@3@_W@Z 0000000140017980 f   functions.obj
 0001:00016b10       ?_Tidy@?$vector@V?$basic_string@_WU?$char_traits@_W@std@@V?$allocator@_W@2@@std@@V?$allocator@V?$basic_string@_WU?$char_traits@_W@std@@V?$allocator@_W@2@@std@@@2@@std@@AEAAXXZ 0000000140017b10 f i functions.obj
 0001:00016bb0       ?GetInstance@Logger@@SAAEAV1@XZ 0000000140017bb0 f   logger.obj
 0001:00016d20       ??$?0PEA_W$0A@@?$basic_string@_WU?$char_traits@_W@std@@V?$allocator@_W@2@@std@@QEAA@PEA_W0AEBV?$allocator@_W@1@@Z 0000000140017d20 f i main_window.obj
 0001:00016e40       ??$?H_WU?$char_traits@_W@std@@V?$allocator@_W@1@@std@@YA?AV?$basic_string@_WU?$char_traits@_W@std@@V?$allocator@_W@2@@0@QEB_W$$QEAV10@@Z 0000000140017e40 f i main_window.obj
 0001:00016f90       ??$_Reallocate_grow_by@V<lambda_1>@?1??append@?$basic_string@DU?$char_traits@D@std@@V?$allocator@D@2@@std@@QEAAAEAV34@QEBD_K@Z@PEBD_K@?$basic_string@DU?$char_traits@D@std@@V?$allocator@D@2@@std@@AEAAAEAV01@_KV<lambda_1>@?1??append@01@QEAAAEAV01@QEBD0@Z@PEBD_K@Z 0000000140017f90 f i main_window.obj
 0001:000170e0       ??$_snwprintf_s@$0BAA@@@YAHAEAY0BAA@_W_KPEB_WZZ 00000001400180e0 f i main_window.obj
 0001:00017150       ??$emplace@UDialogOptions@CTaskManagerDlg@@@?$optional@VCTaskManagerDlg@@@std@@QEAAAEAVCTaskManagerDlg@@$$QEAUDialogOptions@2@@Z 0000000140018150 f i main_window.obj
 0001:000171f0       ??0?$function@$$A6AXPEAUHWND__@@@Z@std@@QEAA@$$QEAV01@@Z 00000001400181f0 f i main_window.obj
 0001:000171f0       ??0?$function@$$A6A_NHW4parse_event_t@detail@nlohmann@@AEAV?$basic_json@Vmap@std@@Vvector@2@V?$basic_string@DU?$char_traits@D@std@@V?$allocator@D@2@@2@_N_J_KNVallocator@2@Uadl_serializer@nlohmann@@V?$vector@EV?$allocator@E@std@@@2@@3@@Z@std@@QEAA@$$QEAV01@@Z 00000001400181f0 f i userprofile.obj
 0001:00017270       ??0CMainWindow@@QEAA@_N0@Z 0000000140018270 f   main_window.obj
 0001:00017380       ??1?$CMenuT@$00@WTL@@QEAA@XZ 0000000140018380 f i main_window.obj
 0001:000173b0       ??1?$basic_string@DU?$char_traits@D@std@@V?$allocator@D@2@@std@@QEAA@XZ 00000001400183b0 f i main_window.obj
 0001:000173b0       ?_Tidy_deallocate@?$basic_string@DU?$char_traits@D@std@@V?$allocator@D@2@@std@@AEAAXXZ 00000001400183b0 f i ui_control.obj
 0001:00017450       ??1?$unique_any_t@V?$unique_storage@U?$handle_null_resource_policy@P6AHPEAX@Z$1?CloseHandle@@YAH0@Z@details@wil@@@details@wil@@@wil@@QEAA@XZ 0000000140018450 f i main_window.obj
 0001:00017470       ??1?$unique_ptr@UServiceInfo@ServiceCommon@@Umapview_deleter@wil@@@wistd@@QEAA@XZ 0000000140018470 f i main_window.obj
 0001:00017490       ??1DialogOptions@CTaskManagerDlg@@QEAA@XZ 0000000140018490 f i main_window.obj
 0001:000174f0       ??1DialogOptions@CToolkitDlg@@QEAA@XZ 00000001400184f0 f i main_window.obj
 0001:00017be0       ??R?$__func@V<lambda_1>@?1???$GetWindowsDirectoryW@V?$basic_string@_WU?$char_traits@_W@std@@V?$allocator@_W@2@@std@@$0BAA@@wil@@YAJAEAV?$basic_string@_WU?$char_traits@_W@std@@V?$allocator@_W@2@@std@@@Z@$$A6AJPEA_W_KPEA_K@Z@__function@wistd@@UEAAJ$$QEAPEA_W$$QEA_K$$QEAPEA_K@Z 0000000140018be0 f i main_window.obj
 0001:00017c40       ??Y?$basic_string@DU?$char_traits@D@std@@V?$allocator@D@2@@std@@QEAAAEAV01@QEBD@Z 0000000140018c40 f i main_window.obj
 0001:00017cf0       ??_E?$__func@V<lambda_1>@?1???$ExpandEnvironmentStringsW@V?$basic_string@_WU?$char_traits@_W@std@@V?$allocator@_W@2@@std@@$0BAA@@wil@@YAJPEB_WAEAV?$basic_string@_WU?$char_traits@_W@std@@V?$allocator@_W@2@@std@@@Z@$$A6AJPEA_W_KPEA_K@Z@__function@wistd@@UEAAPEAXI@Z 0000000140018cf0 f i storage_manager.obj
 0001:00017cf0       ??_E?$__func@V<lambda_1>@?1???$GetWindowsDirectoryW@V?$basic_string@_WU?$char_traits@_W@std@@V?$allocator@_W@2@@std@@$0BAA@@wil@@YAJAEAV?$basic_string@_WU?$char_traits@_W@std@@V?$allocator@_W@2@@std@@@Z@$$A6AJPEA_W_KPEA_K@Z@__function@wistd@@UEAAPEAXI@Z 0000000140018cf0 f i main_window.obj
 0001:00017cf0       ??_G?$__func@V<lambda_1>@?1???$ExpandEnvironmentStringsW@V?$basic_string@_WU?$char_traits@_W@std@@V?$allocator@_W@2@@std@@$0BAA@@wil@@YAJPEB_WAEAV?$basic_string@_WU?$char_traits@_W@std@@V?$allocator@_W@2@@std@@@Z@$$A6AJPEA_W_KPEA_K@Z@__function@wistd@@UEAAPEAXI@Z 0000000140018cf0 f i storage_manager.obj
 0001:00017cf0       ??_G?$__func@V<lambda_1>@?1???$GetWindowsDirectoryW@V?$basic_string@_WU?$char_traits@_W@std@@V?$allocator@_W@2@@std@@$0BAA@@wil@@YAJAEAV?$basic_string@_WU?$char_traits@_W@std@@V?$allocator@_W@2@@std@@@Z@$$A6AJPEA_W_KPEA_K@Z@__function@wistd@@UEAAPEAXI@Z 0000000140018cf0 f i main_window.obj
 0001:00017d20       ??_ECMainWindow@@UEAAPEAXI@Z 0000000140018d20 f i main_window.obj
 0001:00017d20       ??_GCMainWindow@@UEAAPEAXI@Z 0000000140018d20 f i main_window.obj
 0001:00017d60       ?CloseUI@CMainWindow@@QEAAXXZ 0000000140018d60 f   main_window.obj
 0001:00017d70       ?Create@?$CDialogImpl@VCTaskManagerDlg@@VCWindow@ATL@@@ATL@@QEAAPEAUHWND__@@PEAU3@_J@Z 0000000140018d70 f i main_window.obj
 0001:00017e60       ?Exit@CMainWindow@@QEAAXXZ 0000000140018e60 f   main_window.obj
 0001:00017ee0       ?GetMessageLoop@CAppModule@WTL@@QEBAPEAVCMessageLoop@2@K@Z 0000000140018ee0 f i main_window.obj
 0001:00017f80       ?GetNextUpdateDelay@CMainWindow@@QEAAI_K@Z 0000000140018f80 f   main_window.obj
 0001:00017ff0       ?GetWindowProc@?$CWindowImplBaseT@V?$CListViewCtrlT@VCWindow@ATL@@@WTL@@V?$CWinTraits@$0FGAAAAAJ@$0CAA@@ATL@@@ATL@@UEAAP6A_JPEAUHWND__@@I_K_J@ZXZ 0000000140018ff0 f i task_manager_dlg.obj
 0001:00017ff0       ?GetWindowProc@?$CWindowImplBaseT@VCWindow@ATL@@V?$CWinTraits@$0A@$0A@@2@@ATL@@UEAAP6A_JPEAUHWND__@@I_K_J@ZXZ 0000000140018ff0 f i main_window.obj
 0001:00018000       ?InitForNonPortableVersion@CMainWindow@@QEAAXXZ 0000000140019000 f   main_window.obj
 0001:00018470       ?LoadSettings@CMainWindow@@QEAAXXZ 0000000140019470 f   main_window.obj
 0001:00018cf0       ?NotifyAboutAvailableUpdates@CMainWindow@@QEAAXUUpdateStatus@UserProfile@@_N@Z 0000000140019cf0 f   main_window.obj
 0001:00018e40       ?OnCreate@CMainWindow@@QEAAHPEAUtagCREATESTRUCTW@@@Z 0000000140019e40 f   main_window.obj
 0001:00019260       ?OnDestroy@CMainWindow@@QEAAXXZ 000000014001a260 f   main_window.obj
 0001:00019430       ?OnIdle@CMainWindow@@EEAAHXZ 000000014001a430 f   main_window.obj
 0001:00019820       ?OnPowerBroadcast@CMainWindow@@QEAAHK_K@Z 000000014001a820 f   main_window.obj
 0001:00019a40       ?OnTimer@CMainWindow@@QEAAX_K@Z 000000014001aa40 f   main_window.obj
 0001:00019cc0       ?OnTrayIcon@CMainWindow@@QEAA_JI_K_J@Z 000000014001acc0 f   main_window.obj
 0001:00019df0       ?PreTranslateMessage@CMainWindow@@EEAAHPEAUtagMSG@@@Z 000000014001adf0 f   main_window.obj
 0001:00019e90       ?ProcessWindowMessage@CMainWindow@@UEAAHPEAUHWND__@@I_K_JAEA_JK@Z 000000014001ae90 f i main_window.obj
 0001:00019ee0       ?ResetLastUpdateTime@CMainWindow@@QEAAXXZ 000000014001aee0 f   main_window.obj
 0001:00019f30       ?RunUI@CMainWindow@@QEAAXPEAUHWND__@@@Z 000000014001af30 f   main_window.obj
 0001:00019f70       ?SetLastUpdateTime@CMainWindow@@QEAAXXZ 000000014001af70 f   main_window.obj
 0001:0001a0f0       ?ShowLoadedModsDialog@CMainWindow@@QEAAXXZ 000000014001b0f0 f   main_window.obj
 0001:0001a310       ?ShowToolkitDialog@CMainWindow@@QEAAX_N@Z 000000014001b310 f   main_window.obj
 0001:0001a5c0       ?StartDialogProc@?$CDialogImplBaseT@VCWindow@ATL@@@ATL@@SA_JPEAUHWND__@@I_K_J@Z 000000014001b5c0 f i main_window.obj
 0001:0001a6c0       ?StopService@CMainWindow@@QEAAXPEAUHWND__@@@Z 000000014001b6c0 f   main_window.obj
 0001:0001a7f0       ?SwitchToSafeMode@CMainWindow@@QEAAXXZ 000000014001b7f0 f   main_window.obj
 0001:0001ad20       ?WindowProc@?$CWindowImplBaseT@V?$CListViewCtrlT@VCWindow@ATL@@@WTL@@V?$CWinTraits@$0FGAAAAAJ@$0CAA@@ATL@@@ATL@@SA_JPEAUHWND__@@I_K_J@Z 000000014001bd20 f i task_manager_dlg.obj
 0001:0001ad20       ?WindowProc@?$CWindowImplBaseT@VCWindow@ATL@@V?$CWinTraits@$0A@$0A@@2@@ATL@@SA_JPEAUHWND__@@I_K_J@Z 000000014001bd20 f i main_window.obj
 0001:0001afe0       ?_Deallocate_for_capacity@?$basic_string@DU?$char_traits@D@std@@V?$allocator@D@2@@std@@CAXAEAV?$allocator@D@2@QEAD_K@Z 000000014001bfe0 f i main_window.obj
 0001:0001b1c0       ?_ProcessWindowMessage@CMainWindow@@QEAAHPEAUHWND__@@I_K_JAEA_JK@Z 000000014001c1c0 f i main_window.obj
 0001:0001b4e0       ?__clone@?$__func@V<lambda_1>@?1???$GetWindowsDirectoryW@V?$basic_string@_WU?$char_traits@_W@std@@V?$allocator@_W@2@@std@@$0BAA@@wil@@YAJAEAV?$basic_string@_WU?$char_traits@_W@std@@V?$allocator@_W@2@@std@@@Z@$$A6AJPEA_W_KPEA_K@Z@__function@wistd@@UEBAXPEAV?$__base@$$A6AJPEA_W_KPEA_K@Z@23@@Z 000000014001c4e0 f i main_window.obj
 0001:0001b4e0       ?__move@?$__func@V<lambda_1>@?1???$GetWindowsDirectoryW@V?$basic_string@_WU?$char_traits@_W@std@@V?$allocator@_W@2@@std@@$0BAA@@wil@@YAJAEAV?$basic_string@_WU?$char_traits@_W@std@@V?$allocator@_W@2@@std@@@Z@$$A6AJPEA_W_KPEA_K@Z@__function@wistd@@UEAAXPEAV?$__base@$$A6AJPEA_W_KPEA_K@Z@23@@Z 000000014001c4e0 f i main_window.obj
 0001:0001b4f0       ?reset@?$_Optional_destruct_base@VCTaskManagerDlg@@$0A@@std@@QEAAXXZ 000000014001c4f0 f i main_window.obj
 0001:0001b520       ?reset@?$_Optional_destruct_base@VEventViewerCrashMonitor@@$0A@@std@@QEAAXXZ 000000014001c520 f i main_window.obj
 0001:0001b580       ?reset@?$_Optional_destruct_base@VModMetadataChangeNotification@StorageManager@@$0A@@std@@QEAAXXZ 000000014001c580 f i main_window.obj
 0001:0001b5b0       ?reset@?$unique_ptr@VUpdateChecker@@U?$default_delete@VUpdateChecker@@@std@@@std@@QEAAXPEAVUpdateChecker@@@Z 000000014001c5b0 f i main_window.obj
 0001:0001b640       ?reset@?$unique_storage@U?$resource_policy@PEAXP6AXPEAX@_E$1?CloseHandle@details@wil@@YAX0@ZU?$integral_constant@_K$0A@@wistd@@PEAXPEAX$0A@$$T@details@wil@@@details@wil@@QEAAXPEAX@Z 000000014001c640 f i main_window.obj
 0001:0001b6b0       ??$?H_WU?$char_traits@_W@std@@V?$allocator@_W@1@@std@@YA?AV?$basic_string@_WU?$char_traits@_W@std@@V?$allocator@_W@2@@0@$$QEAV10@QEB_W@Z 000000014001c6b0 f i service.obj
 0001:0001b790       ??$?H_WU?$char_traits@_W@std@@V?$allocator@_W@1@@std@@YA?AV?$basic_string@_WU?$char_traits@_W@std@@V?$allocator@_W@2@@0@QEB_WAEBV10@@Z 000000014001c790 f i service.obj
 0001:0001b910       ??1?$unique_any_t@V?$unique_storage@U?$resource_policy@PEAUSC_HANDLE__@@P6AHPEAU1@@Z$1?CloseServiceHandle@@YAH0@ZU?$integral_constant@_K$0A@@wistd@@PEAU1@PEAU1@$0A@$$T@details@wil@@@details@wil@@@wil@@QEAA@XZ 000000014001c910 f i service.obj
 0001:0001b920       ??1?$unique_any_t@V?$unique_storage@U?$resource_policy@PEAXP6AHPEAX@Z$1?DestroyEnvironmentBlock@@YAH0@ZU?$integral_constant@_K$0A@@wistd@@PEAXPEAX$0A@$$T@details@wil@@@details@wil@@@wil@@QEAA@XZ 000000014001c920 f i service.obj
 0001:0001b930       ??1?$unique_any_t@V?$unique_storage@U?$resource_policy@PEAXP6APEAXPEAX@Z$1?LocalFree@@YAPEAX0@ZU?$integral_constant@_K$0A@@wistd@@PEAXPEAX$0A@$$T@details@wil@@@details@wil@@@wil@@QEAA@XZ 000000014001c930 f i service.obj
 0001:0001b940       ??1ServiceInstance@@QEAA@XZ 000000014001c940 f i service.obj
 0001:0001be20       ?FailFast_Unexpected@in1diag3@details@wil@@YAXPEAXIPEBD@Z 000000014001ce20 f i service.obj
 0001:0001be50       ?IsRunning@Service@@YA_N_N@Z 000000014001ce50 f   service.obj
 0001:0001c090       ?ReportSvcStatus@ServiceInstance@@AEAAXKKK@Z 000000014001d090 f   service.obj
 0001:0001c110       ?Run@Service@@YAXXZ        000000014001d110 f   service.obj
 0001:0001c1b0       ?Start@Service@@YAXXZ      000000014001d1b0 f   service.obj
 0001:0001c310       ?Stop@Service@@YAX_N@Z     000000014001d310 f   service.obj
 0001:0001c4c0       ?SvcCtrlHandlerEx@ServiceInstance@@AEAAKKKPEAX@Z 000000014001d4c0 f   service.obj
 0001:0001c7c0       ?SvcCtrlHandlerExThunk@ServiceInstance@@CAKKKPEAX0@Z 000000014001d7c0 f   service.obj
 0001:0001c7e0       ?SvcInit@ServiceInstance@@AEAAXKPEAPEA_W@Z 000000014001d7e0 f   service.obj
 0001:0001cb30       ?SvcMain@@YAXKPEAPEA_W@Z   000000014001db30 f   service.obj
 0001:0001cce0       ?SvcMain@ServiceInstance@@QEAAXKPEAPEA_W@Z 000000014001dce0 f   service.obj
 0001:0001cec0       ?SvcRun@ServiceInstance@@AEAAXKPEAPEA_W@Z 000000014001dec0 f   service.obj
 0001:0001d3e0       ?reset@?$unique_storage@U?$handle_null_resource_policy@P6AHPEAX@Z$1?CloseHandle@@YAH0@Z@details@wil@@@details@wil@@QEAAXPEAX@Z 000000014001e3e0 f i service.obj
 0001:0001d450       ?what@ResultException@wil@@UEBAPEBDXZ 000000014001e450 f i stdafx.obj
 0001:0001d560       ??1ResultException@wil@@UEAA@XZ 000000014001e560 f i stdafx.obj
 0001:0001d630       ??0ResultException@wil@@QEAA@AEBV01@@Z 000000014001e630 f i stdafx.obj
 0001:0001d740       ??_EResultException@wil@@UEAAPEAXI@Z 000000014001e740 f i stdafx.obj
 0001:0001d740       ??_GResultException@wil@@UEAAPEAXI@Z 000000014001e740 f i stdafx.obj
 0001:0001d830       ??0ResultException@wil@@QEAA@AEBUFailureInfo@1@@Z 000000014001e830 f i stdafx.obj
 0001:0001d890       ??1?$ThreadLocalStorage@UThreadLocalData@details_abi@wil@@@details_abi@wil@@QEAA@XZ 000000014001e890 f i stdafx.obj
 0001:0001d910       ??1ThreadLocalData@details_abi@wil@@QEAA@XZ 000000014001e910 f i stdafx.obj
 0001:0001d9c0       ?Acquire@?$ProcessLocalStorageData@UProcessLocalData@details_abi@wil@@@details_abi@wil@@SAJPEBDPEAPEAV123@@Z 000000014001e9c0 f i stdafx.obj
 0001:0001dd30       ?CreateFromValueInternal@SemaphoreValue@details_abi@wil@@AEAAJPEB_W_N_K@Z 000000014001ed30 f i stdafx.obj
 0001:0001e030       ?DebugBreak@details@wil@@YAXXZ 000000014001f030 f i stdafx.obj
 0001:0001e040       ?GetContextAndNotifyFailure@details@wil@@YAXPEAUFailureInfo@2@PEAD_K@Z 000000014001f040 f i stdafx.obj
 0001:0001e260       ?GetCurrentModuleName@details@wil@@YAPEBDXZ 000000014001f260 f i stdafx.obj
 0001:0001e2b0       ?GetLastErrorFailHr@details@wil@@YAJPEAXIPEBD110@Z 000000014001f2b0 f i stdafx.obj
 0001:0001e330       ?GetLastErrorFailHr@details@wil@@YAJXZ 000000014001f330 f i stdafx.obj
 0001:0001e360       ?GetModuleInformation@details@wil@@YA_NPEAXPEAIPEAD_K@Z 000000014001f360 f i stdafx.obj
 0001:0001e490       ?GetThreadContext@ThreadFailureCallbackHolder@details@wil@@SA_NPEAUFailureInfo@3@PEAV123@PEAD_K@Z 000000014001f490 f i stdafx.obj
 0001:0001e5d0       ?GetThreadLocalDataCache@details_abi@wil@@YAPEAUThreadLocalData@12@_N@Z 000000014001f5d0 f i stdafx.obj
 0001:0001e740       ?GetValueFromSemaphore@SemaphoreValue@details_abi@wil@@CAJPEAXPEAJ@Z 000000014001f740 f i stdafx.obj
 0001:0001e8f0       ?ProcessHeapAlloc@details@wil@@YAPEAXK_K@Z 000000014001f8f0 f i stdafx.obj
 0001:0001e990       ?RecognizeCaughtExceptionFromCallback@details@wil@@YAJPEA_W_K@Z 000000014001f990 f i stdafx.obj
 0001:0001e9d0       ?Release@?$ProcessLocalStorageData@UProcessLocalData@details_abi@wil@@@details_abi@wil@@QEAAXXZ 000000014001f9d0 f i stdafx.obj
 0001:0001ec20       ?ResultFromCaughtExceptionInternal@details@wil@@YA?AUResultStatus@12@PEA_W_KPEA_N@Z 000000014001fc20 f i stdafx.obj
 0001:0001ed00       ?Rethrow@details@wil@@YAXXZ 000000014001fd00 f i stdafx.obj
 0001:0001ed10       ?RunFunctorWithExceptionFilter@details@wil@@YAJAEAUIFunctor@12@AEAUIFunctorHost@12@PEAX@Z 000000014001fd10 f i stdafx.obj
 0001:0001ed40       ?Set@ThreadLocalFailureInfo@details_abi@wil@@QEAAXAEBUFailureInfo@3@I@Z 000000014001fd40 f i stdafx.obj
 0001:0001efe0       ?SetFailureInfo@StoredFailureInfo@wil@@QEAAXAEBUFailureInfo@2@@Z 000000014001ffe0 f i stdafx.obj
 0001:0001f7e0       ?ThrowResultExceptionInternal@details@wil@@YAXAEBUFailureInfo@2@@Z 00000001400207e0 f i stdafx.obj
 0001:0001f810       ?TryGetValueInternal@SemaphoreValue@details_abi@wil@@CAJPEB_W_NPEA_KPEA_N@Z 0000000140020810 f i stdafx.obj
 0001:0001fcc0       ?WilDynamicLoadRaiseFailFastException@details@wil@@YAXPEAU_EXCEPTION_RECORD@@PEAU_CONTEXT@@K@Z 0000000140020cc0 f i stdafx.obj
 0001:0001fd20       ?create@shared_buffer@details@wil@@QEAA_N_K@Z 0000000140020d20 f i stdafx.obj
 0001:0001fe10       ??$?H_WU?$char_traits@_W@std@@V?$allocator@_W@1@@std@@YA?AV?$basic_string@_WU?$char_traits@_W@std@@V?$allocator@_W@2@@0@AEBV10@_W@Z 0000000140020e10 f i storage_manager.obj
 0001:0001ff10       ??$ExpandEnvironmentStringsW@V?$basic_string@_WU?$char_traits@_W@std@@V?$allocator@_W@2@@std@@$0BAA@@wil@@YA?AV?$basic_string@_WU?$char_traits@_W@std@@V?$allocator@_W@2@@std@@PEB_W@Z 0000000140020f10 f i storage_manager.obj
 0001:0001ffa0       ??$_Construct@$00PEBD@?$basic_string@DU?$char_traits@D@std@@V?$allocator@D@2@@std@@AEAAXQEBD_K@Z 0000000140020fa0 f i storage_manager.obj
 0001:00020060       ??$_Convert_wide_to_narrow_replace_chars@U?$char_traits@D@std@@V?$allocator@D@2@@filesystem@std@@YA?AV?$basic_string@DU?$char_traits@D@std@@V?$allocator@D@2@@1@W4__std_code_page@@V?$basic_string_view@_WU?$char_traits@_W@std@@@1@AEBV?$allocator@D@1@@Z 0000000140021060 f i storage_manager.obj
 0001:000201d0       ??$_Reallocate_grow_by@V<lambda_1>@?1??append@?$basic_string@DU?$char_traits@D@std@@V?$allocator@D@2@@std@@QEAAAEAV34@_KD@Z@_KD@?$basic_string@DU?$char_traits@D@std@@V?$allocator@D@2@@std@@AEAAAEAV01@_KV<lambda_1>@?1??append@01@QEAAAEAV01@0D@Z@_KD@Z 00000001400211d0 f i storage_manager.obj
 0001:00020320       ??0?$CStringT@DV?$StrTraitATL@DV?$ChTraitsCRT@D@ATL@@@ATL@@@ATL@@QEAA@PEB_W@Z 0000000140021320 f i storage_manager.obj
 0001:000204b0       ??0?$basic_string@DU?$char_traits@D@std@@V?$allocator@D@2@@std@@QEAA@AEBV01@@Z 00000001400214b0 f i storage_manager.obj
 0001:00020570       ??0?$basic_string@DU?$char_traits@D@std@@V?$allocator@D@2@@std@@QEAA@QEBD@Z 0000000140021570 f i storage_manager.obj
 0001:000205c0       ??0ModMetadataChangeNotification@StorageManager@@QEAA@PEB_W@Z 00000001400215c0 f   storage_manager.obj
 0001:00020770       ??0StorageManager@@AEAA@XZ 0000000140021770 f   storage_manager.obj
 0001:000212b0       ??0_System_error@std@@IEAA@Verror_code@1@AEBV?$basic_string@DU?$char_traits@D@std@@V?$allocator@D@2@@1@@Z 00000001400222b0 f i storage_manager.obj
 0001:00021510       ??0_System_error@std@@QEAA@AEBV01@@Z 0000000140022510 f i storage_manager.obj
 0001:00021560       ??0bad_variant_access@std@@QEAA@AEBV01@@Z 0000000140022560 f i storage_manager.obj
 0001:000215a0       ??0bad_variant_access@std@@QEAA@XZ 00000001400225a0 f i storage_manager.obj
 0001:000215c0       ??0filesystem_error@filesystem@std@@QEAA@AEBV012@@Z 00000001400225c0 f i storage_manager.obj
 0001:00021650       ??0filesystem_error@filesystem@std@@QEAA@AEBV?$basic_string@DU?$char_traits@D@std@@V?$allocator@D@2@@2@AEBVpath@12@Verror_code@2@@Z 0000000140022650 f i storage_manager.obj
 0001:00021780       ??0system_error@std@@QEAA@AEBV01@@Z 0000000140022780 f i storage_manager.obj
 0001:000217e0       ??0system_error@std@@QEAA@Verror_code@1@@Z 00000001400227e0 f i storage_manager.obj
 0001:000218e0       ??1?$unique_any_t@V?$unique_storage@U?$handle_invalid_resource_policy@P6AHPEAX@Z$1?FindCloseChangeNotification@@YAH0@Z@details@wil@@@details@wil@@@wil@@QEAA@XZ 00000001400228e0 f i storage_manager.obj
 0001:00021900       ??1?$variant@Umonostate@std@@URegistryPath@StorageManager@@UIniFilePath@4@@std@@QEAA@XZ 0000000140022900 f i storage_manager.obj
 0001:00021930       ??1?$vector@V?$basic_string_view@_WU?$char_traits@_W@std@@@std@@V?$allocator@V?$basic_string_view@_WU?$char_traits@_W@std@@@std@@@2@@std@@QEAA@XZ 0000000140022930 f i storage_manager.obj
 0001:000219a0       ??1IniFileSettings@@UEAA@XZ 00000001400229a0 f i storage_manager.obj
 0001:000219c0       ??1_System_error_message@std@@QEAA@XZ 00000001400229c0 f i storage_manager.obj
 0001:000219d0       ??1filesystem_error@filesystem@std@@UEAA@XZ 00000001400229d0 f i storage_manager.obj
 0001:00021a10       ??B?$CSimpleStringT@D$0A@@ATL@@QEBAPEBDXZ 0000000140022a10 f i storage_manager.obj
 0001:00021a10       ?GetHandle@ModMetadataChangeNotification@StorageManager@@QEAAPEAXXZ 0000000140022a10 f i storage_manager.obj
 0001:00021a20       ??HATL@@YA?AV?$CStringT@DV?$StrTraitATL@DV?$ChTraitsCRT@D@ATL@@@ATL@@@0@PEBDAEBV10@@Z 0000000140022a20 f i storage_manager.obj
 0001:00021ba0       ??R?$__func@V<lambda_1>@?1???$ExpandEnvironmentStringsW@V?$basic_string@_WU?$char_traits@_W@std@@V?$allocator@_W@2@@std@@$0BAA@@wil@@YAJPEB_WAEAV?$basic_string@_WU?$char_traits@_W@std@@V?$allocator@_W@2@@std@@@Z@$$A6AJPEA_W_KPEA_K@Z@__function@wistd@@UEAAJ$$QEAPEA_W$$QEA_K$$QEAPEA_K@Z 0000000140022ba0 f i storage_manager.obj
 0001:00021bf0       ??_E?$output_stream_adapter@D@detail@nlohmann@@UEAAPEAXI@Z 0000000140022bf0 f i ui_control.obj
 0001:00021bf0       ??_E?$output_string_adapter@DV?$basic_string@DU?$char_traits@D@std@@V?$allocator@D@2@@std@@@detail@nlohmann@@UEAAPEAXI@Z 0000000140022bf0 f i userprofile.obj
 0001:00021bf0       ??_E_Generic_error_category@std@@UEAAPEAXI@Z 0000000140022bf0 f i storage_manager.obj
 0001:00021bf0       ??_E_Iostream_error_category2@std@@UEAAPEAXI@Z 0000000140022bf0 f i ui_control.obj
 0001:00021bf0       ??_E_System_error_category@std@@UEAAPEAXI@Z 0000000140022bf0 f i storage_manager.obj
 0001:00021bf0       ??_G?$output_stream_adapter@D@detail@nlohmann@@UEAAPEAXI@Z 0000000140022bf0 f i ui_control.obj
 0001:00021bf0       ??_G?$output_string_adapter@DV?$basic_string@DU?$char_traits@D@std@@V?$allocator@D@2@@std@@@detail@nlohmann@@UEAAPEAXI@Z 0000000140022bf0 f i userprofile.obj
 0001:00021bf0       ??_G_Generic_error_category@std@@UEAAPEAXI@Z 0000000140022bf0 f i storage_manager.obj
 0001:00021bf0       ??_G_Iostream_error_category2@std@@UEAAPEAXI@Z 0000000140022bf0 f i ui_control.obj
 0001:00021bf0       ??_G_System_error_category@std@@UEAAPEAXI@Z 0000000140022bf0 f i storage_manager.obj
 0001:00021c20       ??_E_System_error@std@@UEAAPEAXI@Z 0000000140022c20 f i storage_manager.obj
 0001:00021c20       ??_Efailure@ios_base@std@@UEAAPEAXI@Z 0000000140022c20 f i ui_control.obj
 0001:00021c20       ??_Esystem_error@std@@UEAAPEAXI@Z 0000000140022c20 f i storage_manager.obj
 0001:00021c20       ??_G_System_error@std@@UEAAPEAXI@Z 0000000140022c20 f i storage_manager.obj
 0001:00021c20       ??_Gfailure@ios_base@std@@UEAAPEAXI@Z 0000000140022c20 f i ui_control.obj
 0001:00021c20       ??_Gsystem_error@std@@UEAAPEAXI@Z 0000000140022c20 f i storage_manager.obj
 0001:00021c70       ??_Efilesystem_error@filesystem@std@@UEAAPEAXI@Z 0000000140022c70 f i storage_manager.obj
 0001:00021c70       ??_Gfilesystem_error@filesystem@std@@UEAAPEAXI@Z 0000000140022c70 f i storage_manager.obj
 0001:00021cd0       ?ContinueMonitoring@ModMetadataChangeNotification@StorageManager@@QEAAXXZ 0000000140022cd0 f   storage_manager.obj
 0001:00021d00       ?FlushAppConfig@StorageManager@@QEAA_NPEB_W@Z 0000000140022d00 f   storage_manager.obj
 0001:00021ee0       ?Fork@?$CSimpleStringT@D$0A@@ATL@@AEAAXH@Z 0000000140022ee0 f i storage_manager.obj
 0001:00021fc0       ?GetAppConfig@StorageManager@@QEAA?AV?$unique_ptr@VPortableSettings@@U?$default_delete@VPortableSettings@@@std@@@std@@PEB_W_N@Z 0000000140022fc0 f   storage_manager.obj
 0001:000221e0       ?GetCompilerPath@StorageManager@@QEAA?AVpath@filesystem@std@@XZ 00000001400231e0 f   storage_manager.obj
 0001:00022200       ?GetEditorWorkspacePath@StorageManager@@QEAA?AVpath@filesystem@std@@XZ 0000000140023200 f   storage_manager.obj
 0001:000222e0       ?GetEnginePath@StorageManager@@QEAA?AVpath@filesystem@std@@G@Z 00000001400232e0 f   storage_manager.obj
 0001:00022430       ?GetInstance@StorageManager@@SAAEAV1@XZ 0000000140023430 f   storage_manager.obj
 0001:000224b0       ?GetModMetadataPath@StorageManager@@QEAA?AVpath@filesystem@std@@PEB_W@Z 00000001400234b0 f   storage_manager.obj
 0001:000226e0       ?GetUIDataPath@StorageManager@@QEAA?AVpath@filesystem@std@@XZ 00000001400236e0 f   storage_manager.obj
 0001:000227c0       ?GetUIPath@StorageManager@@QEAA?AVpath@filesystem@std@@XZ 00000001400237c0 f   storage_manager.obj
 0001:000227e0       ?GetUserProfileJsonPath@StorageManager@@QEAA?AVpath@filesystem@std@@XZ 00000001400237e0 f   storage_manager.obj
 0001:000228c0       ?IsPortable@StorageManager@@QEAA_NXZ 00000001400238c0 f   storage_manager.obj
 0001:000228d0       ?LoadStringW@?$CStringT@DV?$StrTraitATL@DV?$ChTraitsCRT@D@ATL@@@ATL@@@ATL@@QEAAHI@Z 00000001400238d0 f i storage_manager.obj
 0001:00022d10       ?PrepareWrite2@?$CSimpleStringT@D$0A@@ATL@@AEAAXH@Z 0000000140023d10 f i storage_manager.obj
 0001:00022d80       ?Reallocate@?$CSimpleStringT@D$0A@@ATL@@AEAAXH@Z 0000000140023d80 f i storage_manager.obj
 0001:00022dd0       ?_Convert_narrow_to_wide@filesystem@std@@YA?AV?$basic_string@_WU?$char_traits@_W@std@@V?$allocator@_W@2@@2@W4__std_code_page@@V?$basic_string_view@DU?$char_traits@D@std@@@2@@Z 0000000140023dd0 f i storage_manager.obj
 0001:00022f40       ?_Make_ec@std@@YA?AVerror_code@1@W4__std_win_error@@@Z 0000000140023f40 f i storage_manager.obj
 0001:00022f60       ?_Pretty_message@filesystem_error@filesystem@std@@CA?AV?$basic_string@DU?$char_traits@D@std@@V?$allocator@D@2@@3@V?$basic_string_view@DU?$char_traits@D@std@@@3@AEBVpath@23@1@Z 0000000140023f60 f i storage_manager.obj
 0001:00023370       ?_Reset@?$_Variant_base@Umonostate@std@@URegistryPath@StorageManager@@UIniFilePath@4@@std@@QEAAXXZ 0000000140024370 f i storage_manager.obj
 0001:000233b0       ?_Throw_bad_variant_access@std@@YAXXZ 00000001400243b0 f i storage_manager.obj
 0001:000233e0       ?_Throw_fs_error@filesystem@std@@YAXPEBDW4__std_win_error@@AEBVpath@12@@Z 00000001400243e0 f i storage_manager.obj
 0001:00023450       ?_Throw_system_error@std@@YAXW4errc@1@@Z 0000000140024450 f i storage_manager.obj
 0001:00023490       ?_Throw_system_error_from_std_win_error@std@@YAXW4__std_win_error@@@Z 0000000140024490 f i storage_manager.obj
 0001:000234d0       ?__clone@?$__func@V<lambda_1>@?1???$ExpandEnvironmentStringsW@V?$basic_string@_WU?$char_traits@_W@std@@V?$allocator@_W@2@@std@@$0BAA@@wil@@YAJPEB_WAEAV?$basic_string@_WU?$char_traits@_W@std@@V?$allocator@_W@2@@std@@@Z@$$A6AJPEA_W_KPEA_K@Z@__function@wistd@@UEBAXPEAV?$__base@$$A6AJPEA_W_KPEA_K@Z@23@@Z 00000001400244d0 f i storage_manager.obj
 0001:000234d0       ?__move@?$__func@V<lambda_1>@?1???$ExpandEnvironmentStringsW@V?$basic_string@_WU?$char_traits@_W@std@@V?$allocator@_W@2@@std@@$0BAA@@wil@@YAJPEB_WAEAV?$basic_string@_WU?$char_traits@_W@std@@V?$allocator@_W@2@@std@@@Z@$$A6AJPEA_W_KPEA_K@Z@__function@wistd@@UEAAXPEAV?$__base@$$A6AJPEA_W_KPEA_K@Z@23@@Z 00000001400244d0 f i storage_manager.obj
 0001:000234f0       ?append@?$basic_string@DU?$char_traits@D@std@@V?$allocator@D@2@@std@@QEAAAEAV12@QEBD_K@Z 00000001400244f0 f i storage_manager.obj
 0001:00023580       ?append@?$basic_string@_WU?$char_traits@_W@std@@V?$allocator@_W@2@@std@@QEAAAEAV12@QEB_W_K@Z 0000000140024580 f i storage_manager.obj
 0001:00023610       ?create_directories@filesystem@std@@YA_NAEBVpath@12@AEAVerror_code@2@@Z 0000000140024610 f i storage_manager.obj
 0001:000239a0       ?default_error_condition@_System_error_category@std@@UEBA?AVerror_condition@2@H@Z 00000001400249a0 f i storage_manager.obj
 0001:00023a20       ?default_error_condition@error_category@std@@UEBA?AVerror_condition@2@H@Z 0000000140024a20 f i storage_manager.obj
 0001:00023a30       ?equivalent@error_category@std@@UEBA_NAEBVerror_code@2@H@Z 0000000140024a30 f i storage_manager.obj
 0001:00023a50       ?equivalent@error_category@std@@UEBA_NHAEBVerror_condition@2@@Z 0000000140024a50 f i storage_manager.obj
 0001:00023a90       ?is_directory@filesystem@std@@YA_NAEBVpath@12@@Z 0000000140024a90 f i storage_manager.obj
 0001:00023b80       ?lexically_normal@path@filesystem@std@@QEBA?AV123@XZ 0000000140024b80 f i storage_manager.obj
 0001:000244c0       ?make_error_code@std@@YA?AVerror_code@1@W4errc@1@@Z 00000001400254c0 f i storage_manager.obj
 0001:000244e0       ?message@_Generic_error_category@std@@UEBA?AV?$basic_string@DU?$char_traits@D@std@@V?$allocator@D@2@@2@H@Z 00000001400254e0 f i storage_manager.obj
 0001:00024540       ?message@_System_error_category@std@@UEBA?AV?$basic_string@DU?$char_traits@D@std@@V?$allocator@D@2@@2@H@Z 0000000140025540 f i storage_manager.obj
 0001:00024600       ?name@_Generic_error_category@std@@UEBAPEBDXZ 0000000140025600 f i storage_manager.obj
 0001:00024610       ?name@_System_error_category@std@@UEBAPEBDXZ 0000000140025610 f i storage_manager.obj
 0001:00024620       ?replace_extension@path@filesystem@std@@QEAAAEAV123@AEBV123@@Z 0000000140025620 f i storage_manager.obj
 0001:000247a0       ?what@bad_variant_access@std@@UEBAPEBDXZ 00000001400257a0 f i storage_manager.obj
 0001:000247b0       ?what@filesystem_error@filesystem@std@@UEBAPEBDXZ 00000001400257b0 f i storage_manager.obj
 0001:000247c0       ??$_Find_last@V?$basic_string_view@_WU?$char_traits@_W@std@@@std@@@?$_Hash@V?$_Umap_traits@V?$basic_string_view@_WU?$char_traits@_W@std@@@std@@IV?$_Uhash_compare@V?$basic_string_view@_WU?$char_traits@_W@std@@@std@@U?$hash@V?$basic_string_view@_WU?$char_traits@_W@std@@@std@@@2@U?$equal_to@V?$basic_string_view@_WU?$char_traits@_W@std@@@std@@@2@@2@V?$allocator@U?$pair@$$CBV?$basic_string_view@_WU?$char_traits@_W@std@@@std@@I@std@@@2@$0A@@std@@@std@@IEBA?AU?$_Hash_find_last_result@PEAU?$_List_node@U?$pair@$$CBV?$basic_string_view@_WU?$char_traits@_W@std@@@std@@I@std@@PEAX@std@@@1@AEBV?$basic_string_view@_WU?$char_traits@_W@std@@@1@_K@Z 00000001400257c0 f i task_manager_dlg.obj
 0001:00024880       ??$_Insert_range_unchecked@PEBU?$pair@$$CBV?$basic_string_view@_WU?$char_traits@_W@std@@@std@@I@std@@PEBU12@@?$_Hash@V?$_Umap_traits@V?$basic_string_view@_WU?$char_traits@_W@std@@@std@@IV?$_Uhash_compare@V?$basic_string_view@_WU?$char_traits@_W@std@@@std@@U?$hash@V?$basic_string_view@_WU?$char_traits@_W@std@@@std@@@2@U?$equal_to@V?$basic_string_view@_WU?$char_traits@_W@std@@@std@@@2@@2@V?$allocator@U?$pair@$$CBV?$basic_string_view@_WU?$char_traits@_W@std@@@std@@I@std@@@2@$0A@@std@@@std@@IEAAXPEBU?$pair@$$CBV?$basic_string_view@_WU?$char_traits@_W@std@@@std@@I@1@QEBU21@@Z 0000000140025880 f i task_manager_dlg.obj
 0001:00024b90       ??$_snwprintf_s@$0EAA@@@YAHAEAY0EAA@_W_KPEB_WZZ 0000000140025b90 f i task_manager_dlg.obj
 0001:00024c00       ??$fill@PEAV?$_List_unchecked_iterator@V?$_List_val@U?$_List_simple_types@U?$pair@$$CBV?$basic_string_view@_WU?$char_traits@_W@std@@@std@@I@std@@@std@@@std@@@std@@V12@@std@@YAXQEAV?$_List_unchecked_iterator@V?$_List_val@U?$_List_simple_types@U?$pair@$$CBV?$basic_string_view@_WU?$char_traits@_W@std@@@std@@I@std@@@std@@@std@@@0@0AEBV10@@Z 0000000140025c00 f i task_manager_dlg.obj
 0001:00024c90       ??0CTaskManagerDlg@@QEAA@UDialogOptions@0@@Z 0000000140025c90 f   task_manager_dlg.obj
 0001:00024eb0       ??0_Dir_enum_impl@filesystem@std@@QEAA@$$QEAU_Creator@012@W4directory_options@12@@Z 0000000140025eb0 f i task_manager_dlg.obj
 0001:00024fb0       ??0directory_iterator@filesystem@std@@QEAA@AEBVpath@12@@Z 0000000140025fb0 f i task_manager_dlg.obj
 0001:00025130       ??0filesystem_error@filesystem@std@@QEAA@AEBV?$basic_string@DU?$char_traits@D@std@@V?$allocator@D@2@@2@Verror_code@2@@Z 0000000140026130 f i task_manager_dlg.obj
 0001:000251f0       ??1?$CBitmapT@$00@WTL@@QEAA@XZ 00000001400261f0 f i task_manager_dlg.obj
 0001:00025220       ??1?$CDialogImpl@VCTaskManagerDlg@@VCWindow@ATL@@@ATL@@UEAA@XZ 0000000140026220 f i task_manager_dlg.obj
 0001:00025220       ??1?$CWindowImpl@VCSortListViewCtrl@WTL@@V?$CListViewCtrlT@VCWindow@ATL@@@2@V?$CWinTraits@$0FGAAAAAJ@$0CAA@@ATL@@@ATL@@UEAA@XZ 0000000140026220 f i task_manager_dlg.obj
 0001:00025230       ??1?$CDialogResize@VCTaskManagerDlg@@@WTL@@QEAA@XZ 0000000140026230 f i task_manager_dlg.obj
 0001:00025230       ??1?$CSimpleArray@GV?$CSimpleArrayEqualHelper@G@ATL@@@ATL@@QEAA@XZ 0000000140026230 f i task_manager_dlg.obj
 0001:00025270       ??1?$CIconT@$00@WTL@@QEAA@XZ 0000000140026270 f i task_manager_dlg.obj
 0001:00025280       ??1?$_Alloc_construct_ptr@V?$allocator@U?$_List_node@U?$pair@$$CBV?$basic_string_view@_WU?$char_traits@_W@std@@@std@@I@std@@PEAX@std@@@std@@@std@@QEAA@XZ 0000000140026280 f i task_manager_dlg.obj
 0001:00025280       ??1?$_List_node_emplace_op2@V?$allocator@U?$_List_node@U?$pair@$$CBV?$basic_string_view@_WU?$char_traits@_W@std@@@std@@I@std@@PEAX@std@@@std@@@std@@QEAA@XZ 0000000140026280 f i task_manager_dlg.obj
 0001:000252a0       ??1?$_Hash@V?$_Umap_traits@V?$basic_string_view@_WU?$char_traits@_W@std@@@std@@IV?$_Uhash_compare@V?$basic_string_view@_WU?$char_traits@_W@std@@@std@@U?$hash@V?$basic_string_view@_WU?$char_traits@_W@std@@@std@@@2@U?$equal_to@V?$basic_string_view@_WU?$char_traits@_W@std@@@std@@@2@@2@V?$allocator@U?$pair@$$CBV?$basic_string_view@_WU?$char_traits@_W@std@@@std@@I@std@@@2@$0A@@std@@@std@@QEAA@XZ 00000001400262a0 f i task_manager_dlg.obj
 0001:00025360       ??1?$list@U?$pair@$$CBV?$basic_string_view@_WU?$char_traits@_W@std@@@std@@I@std@@V?$allocator@U?$pair@$$CBV?$basic_string_view@_WU?$char_traits@_W@std@@@std@@I@std@@@2@@std@@QEAA@XZ 0000000140026360 f i task_manager_dlg.obj
 0001:000253c0       ??1?$output_adapter@DV?$basic_string@DU?$char_traits@D@std@@V?$allocator@D@2@@std@@@detail@nlohmann@@QEAA@XZ 00000001400263c0 f i ui_control.obj
 0001:000253c0       ??1?$shared_ptr@U?$output_adapter_protocol@D@detail@nlohmann@@@std@@QEAA@XZ 00000001400263c0 f i ui_control.obj
 0001:000253c0       ??1?$shared_ptr@U_Dir_enum_impl@filesystem@std@@@std@@QEAA@XZ 00000001400263c0 f i task_manager_dlg.obj
 0001:000253c0       ??1directory_iterator@filesystem@std@@QEAA@XZ 00000001400263c0 f i task_manager_dlg.obj
 0001:00025410       ??1?$vector@V?$basic_string@_WU?$char_traits@_W@std@@V?$allocator@_W@2@@std@@V?$allocator@V?$basic_string@_WU?$char_traits@_W@std@@V?$allocator@_W@2@@std@@@2@@std@@QEAA@XZ 0000000140026410 f i task_manager_dlg.obj
 0001:000254b0       ??1CWaitCursor@WTL@@QEAA@XZ 00000001400264b0 f i task_manager_dlg.obj
 0001:000254e0       ??1_Creator@_Dir_enum_impl@filesystem@std@@QEAA@XZ 00000001400264e0 f i task_manager_dlg.obj
 0001:00025500       ??1_Find_file_handle@filesystem@std@@QEAA@XZ 0000000140026500 f i task_manager_dlg.obj
 0001:00025510       ??1directory_entry@filesystem@std@@QEAA@XZ 0000000140026510 f i task_manager_dlg.obj
 0001:00025520       ??_F?$CBitmapT@$00@WTL@@QEAAXXZ 0000000140026520 f i task_manager_dlg.obj
 0001:00025530       ??_E?$_Ref_count_obj2@U_Dir_enum_impl@filesystem@std@@@std@@UEAAPEAXI@Z 0000000140026530 f i task_manager_dlg.obj
 0001:00025530       ??_G?$_Ref_count_obj2@U_Dir_enum_impl@filesystem@std@@@std@@UEAAPEAXI@Z 0000000140026530 f i task_manager_dlg.obj
 0001:00025560       ??_ECSortListViewCtrl@WTL@@UEAAPEAXI@Z 0000000140026560 f i task_manager_dlg.obj
 0001:00025560       ??_GCSortListViewCtrl@WTL@@UEAAPEAXI@Z 0000000140026560 f i task_manager_dlg.obj
 0001:000255e0       ??_ECTaskManagerDlg@@UEAAPEAXI@Z 00000001400265e0 f i task_manager_dlg.obj
 0001:000255e0       ??_GCTaskManagerDlg@@UEAAPEAXI@Z 00000001400265e0 f i task_manager_dlg.obj
 0001:000256e0       ?Add@?$CSimpleArray@U_AtlDlgResizeData@?$CDialogResize@VCTaskManagerDlg@@@WTL@@V?$CSimpleArrayEqualHelper@U_AtlDlgResizeData@?$CDialogResize@VCTaskManagerDlg@@@WTL@@@ATL@@@ATL@@QEAAHAEBU_AtlDlgResizeData@?$CDialogResize@VCTaskManagerDlg@@@WTL@@@Z 00000001400266e0 f i task_manager_dlg.obj
 0001:000257b0       ?AddItemToList@CTaskManagerDlg@@QEAAXHPEB_W00K0U_FILETIME@@@Z 00000001400267b0 f   task_manager_dlg.obj
 0001:00025f80       ?CenterWindow@CWindow@ATL@@QEAAHPEAUHWND__@@@Z 0000000140026f80 f i task_manager_dlg.obj
 0001:00026190       ?CreateSortBitmaps@?$CSortListViewImpl@VCSortListViewCtrl@WTL@@@WTL@@QEAAXXZ 0000000140027190 f i task_manager_dlg.obj
 0001:000264a0       ?DataChanged@CTaskManagerDlg@@QEAAXXZ 00000001400274a0 f   task_manager_dlg.obj
 0001:000264e0       ?DialogProc@?$CDialogImplBaseT@VCWindow@ATL@@@ATL@@SA_JPEAUHWND__@@I_K_J@Z 00000001400274e0 f i task_manager_dlg.obj
 0001:00026630       ?DlgResize_Init@?$CDialogResize@VCTaskManagerDlg@@@WTL@@QEAAX_N0K@Z 0000000140027630 f i task_manager_dlg.obj
 0001:00026ab0       ?DlgResize_UpdateLayout@?$CDialogResize@VCTaskManagerDlg@@@WTL@@QEAAXHH@Z 0000000140027ab0 f i task_manager_dlg.obj
 0001:00027180       ?DoSortItems@?$CSortListViewImpl@VCSortListViewCtrl@WTL@@@WTL@@QEAA_NH_N@Z 0000000140028180 f i task_manager_dlg.obj
 0001:00027fb0       ?GetDialogProc@?$CDialogImplBaseT@VCWindow@ATL@@@ATL@@UEAAP6A_JPEAUHWND__@@I_K_J@ZXZ 0000000140028fb0 f i task_manager_dlg.obj
 0001:000281d0       ?InitTaskList@CTaskManagerDlg@@QEAAXXZ 00000001400291d0 f   task_manager_dlg.obj
 0001:000284c0       ?IsDataSourceEmpty@CTaskManagerDlg@@SA_NW4DataSource@1@@Z 00000001400294c0 f   task_manager_dlg.obj
 0001:00028870       ?LVCompareDecimal@?$CSortListViewImpl@VCSortListViewCtrl@WTL@@@WTL@@SAH_J00@Z 0000000140029870 f i task_manager_dlg.obj
 0001:000288a0       ?LVCompareDouble@?$CSortListViewImpl@VCSortListViewCtrl@WTL@@@WTL@@SAH_J00@Z 00000001400298a0 f i task_manager_dlg.obj
 0001:000288f0       ?LVCompareLong@?$CSortListViewImpl@VCSortListViewCtrl@WTL@@@WTL@@SAH_J00@Z 00000001400298f0 f i task_manager_dlg.obj
 0001:00028930       ?LVCompareText@?$CSortListViewImpl@VCSortListViewCtrl@WTL@@@WTL@@SAH_J00@Z 0000000140029930 f i task_manager_dlg.obj
 0001:00028960       ?LVCompareTextNoCase@?$CSortListViewImpl@VCSortListViewCtrl@WTL@@@WTL@@SAH_J00@Z 0000000140029960 f i task_manager_dlg.obj
 0001:00028990       ?LoadLanguageStrings@CTaskManagerDlg@@QEAAXXZ 0000000140029990 f   task_manager_dlg.obj
 0001:00028bc0       ?LoadTaskItemFromMetadataFile@CTaskManagerDlg@@QEAA_NAEBVpath@filesystem@std@@H@Z 0000000140029bc0 f   task_manager_dlg.obj
 0001:00029070       ?LoadTaskList@CTaskManagerDlg@@QEAAXXZ 000000014002a070 f   task_manager_dlg.obj
 0001:00029eb0       ?OnFinalMessage@CTaskManagerDlg@@UEAAXPEAUHWND__@@@Z 000000014002aeb0 f   task_manager_dlg.obj
 0001:00029ee0       ?OnHeaderItemClick@?$CSortListViewImpl@VCSortListViewCtrl@WTL@@@WTL@@QEAA_JHPEAUtagNMHDR@@AEAH@Z 000000014002aee0 f i task_manager_dlg.obj
 0001:00029fe0       ?OnInitDialog@CTaskManagerDlg@@QEAAHVCWindow@ATL@@_J@Z 000000014002afe0 f   task_manager_dlg.obj
 0001:0002a4d0       ?OnInsertColumn@?$CSortListViewImpl@VCSortListViewCtrl@WTL@@@WTL@@QEAA_JI_K_JAEAH@Z 000000014002b4d0 f i task_manager_dlg.obj
 0001:0002a660       ?ProcessWindowMessage@?$CSortListViewCtrlImpl@VCSortListViewCtrl@WTL@@V?$CListViewCtrlT@VCWindow@ATL@@@2@V?$CWinTraits@$0FGAAAAAJ@$0CAA@@ATL@@@WTL@@UEAAHPEAUHWND__@@I_K_JAEA_JK@Z 000000014002b660 f i task_manager_dlg.obj
 0001:0002a890       ?ProcessWindowMessage@CTaskManagerDlg@@UEAAHPEAUHWND__@@I_K_JAEA_JK@Z 000000014002b890 f i task_manager_dlg.obj
 0001:0002a8e0       ?RefreshTaskList@CTaskManagerDlg@@QEAAXXZ 000000014002b8e0 f   task_manager_dlg.obj
 0001:0002a910       ?ReloadMainIcon@CTaskManagerDlg@@QEAAXXZ 000000014002b910 f   task_manager_dlg.obj
 0001:0002a910       ?ReloadMainIcon@CToolkitDlg@@QEAAXXZ 000000014002b910 f   toolkit_dlg.obj
 0001:0002aa20       ?SetItemData@?$CListViewCtrlT@VCWindow@ATL@@@WTL@@QEAAHH_K@Z 000000014002ba20 f i task_manager_dlg.obj
 0001:0002aa90       ?SetSortColumn@?$CSortListViewImpl@VCSortListViewCtrl@WTL@@@WTL@@QEAAXH@Z 000000014002ba90 f i task_manager_dlg.obj
 0001:0002acb0       ?UpdateDialogAfterListUpdate@CTaskManagerDlg@@QEAAXXZ 000000014002bcb0 f   task_manager_dlg.obj
 0001:0002aec0       ?UpdateTaskListProcessesStatus@CTaskManagerDlg@@QEAAXXZ 000000014002bec0 f   task_manager_dlg.obj
 0001:0002b340       ?_Assign_grow@?$_Hash_vec@V?$allocator@V?$_List_unchecked_iterator@V?$_List_val@U?$_List_simple_types@U?$pair@$$CBV?$basic_string_view@_WU?$char_traits@_W@std@@@std@@I@std@@@std@@@std@@@std@@@std@@@std@@QEAAX_KV?$_List_unchecked_iterator@V?$_List_val@U?$_List_simple_types@U?$pair@$$CBV?$basic_string_view@_WU?$char_traits@_W@std@@@std@@I@std@@@std@@@std@@@2@@Z 000000014002c340 f i task_manager_dlg.obj
 0001:0002b410       ?_Delete_this@?$_Ref_count_obj2@U_Dir_enum_impl@filesystem@std@@@std@@EEAAXXZ 000000014002c410 f i task_manager_dlg.obj
 0001:0002b410       ?_Delete_this@?$_Ref_count_obj2@V?$output_stream_adapter@D@detail@nlohmann@@@std@@EEAAXXZ 000000014002c410 f i ui_control.obj
 0001:0002b410       ?_Delete_this@?$_Ref_count_obj2@V?$output_string_adapter@DV?$basic_string@DU?$char_traits@D@std@@V?$allocator@D@2@@std@@@detail@nlohmann@@@std@@EEAAXXZ 000000014002c410 f i userprofile.obj
 0001:0002b430       ?_Destroy@?$_Ref_count_obj2@U_Dir_enum_impl@filesystem@std@@@std@@EEAAXXZ 000000014002c430 f i task_manager_dlg.obj
 0001:0002b450       ?_Forced_rehash@?$_Hash@V?$_Umap_traits@V?$basic_string_view@_WU?$char_traits@_W@std@@@std@@IV?$_Uhash_compare@V?$basic_string_view@_WU?$char_traits@_W@std@@@std@@U?$hash@V?$basic_string_view@_WU?$char_traits@_W@std@@@std@@@2@U?$equal_to@V?$basic_string_view@_WU?$char_traits@_W@std@@@std@@@2@@2@V?$allocator@U?$pair@$$CBV?$basic_string_view@_WU?$char_traits@_W@std@@@std@@I@std@@@2@$0A@@std@@@std@@IEAAX_K@Z 000000014002c450 f i task_manager_dlg.obj
 0001:0002b6b0       ?_Get_any_status@directory_entry@filesystem@std@@AEBA?AU_File_status_and_error@23@W4__std_fs_stats_flags@@@Z 000000014002c6b0 f i task_manager_dlg.obj
 0001:0002b810       ?_Open_dir@_Dir_enum_impl@filesystem@std@@SA?AW4__std_win_error@@AEAVpath@23@W4directory_options@23@AEAU_Find_file_handle@23@AEAU__std_fs_find_data@@@Z 000000014002c810 f i task_manager_dlg.obj
 0001:0002b9d0       ?_ProcessWindowMessage@CTaskManagerDlg@@QEAAHPEAUHWND__@@I_K_JAEA_JK@Z 000000014002c9d0 f i task_manager_dlg.obj
 0001:0002be20       ?_Refresh@_Dir_enum_impl@filesystem@std@@QEAAXAEBU__std_fs_find_data@@@Z 000000014002ce20 f i task_manager_dlg.obj
 0001:0002bfd0       ?_Throw_fs_error@filesystem@std@@YAXPEBDAEBVerror_code@2@AEBVpath@12@@Z 000000014002cfd0 f i task_manager_dlg.obj
 0001:0002c030       ?_Throw_fs_error@filesystem@std@@YAXPEBDW4__std_win_error@@@Z 000000014002d030 f i task_manager_dlg.obj
 0001:0002c090       ?compare@path@filesystem@std@@QEBAHV?$basic_string_view@_WU?$char_traits@_W@std@@@3@@Z 000000014002d090 f i task_manager_dlg.obj
 0001:0002c290       ?deallocate@?$allocator@PEAV?$basic_json@Uordered_map@nlohmann@@Vvector@std@@V?$basic_string@DU?$char_traits@D@std@@V?$allocator@D@2@@4@_N_J_KNVallocator@4@Uadl_serializer@2@V?$vector@EV?$allocator@E@std@@@4@@nlohmann@@@std@@QEAAXQEAPEAV?$basic_json@Uordered_map@nlohmann@@Vvector@std@@V?$basic_string@DU?$char_traits@D@std@@V?$allocator@D@2@@4@_N_J_KNVallocator@4@Uadl_serializer@2@V?$vector@EV?$allocator@E@std@@@4@@nlohmann@@_K@Z 000000014002d290 f i ui_control.obj
 0001:0002c290       ?deallocate@?$allocator@PEAV?$basic_json@Vmap@std@@Vvector@2@V?$basic_string@DU?$char_traits@D@std@@V?$allocator@D@2@@2@_N_J_KNVallocator@2@Uadl_serializer@nlohmann@@V?$vector@EV?$allocator@E@std@@@2@@nlohmann@@@std@@QEAAXQEAPEAV?$basic_json@Vmap@std@@Vvector@2@V?$basic_string@DU?$char_traits@D@std@@V?$allocator@D@2@@2@_N_J_KNVallocator@2@Uadl_serializer@nlohmann@@V?$vector@EV?$allocator@E@std@@@2@@nlohmann@@_K@Z 000000014002d290 f i userprofile.obj
 0001:0002c290       ?deallocate@?$allocator@V?$_List_unchecked_iterator@V?$_List_val@U?$_List_simple_types@U?$pair@$$CBV?$basic_string_view@_WU?$char_traits@_W@std@@@std@@I@std@@@std@@@std@@@std@@@std@@QEAAXQEAV?$_List_unchecked_iterator@V?$_List_val@U?$_List_simple_types@U?$pair@$$CBV?$basic_string_view@_WU?$char_traits@_W@std@@@std@@I@std@@@std@@@std@@@2@_K@Z 000000014002d290 f i task_manager_dlg.obj
 0001:0002c2f0       ?exists@filesystem@std@@YA_NAEBVpath@12@AEAVerror_code@2@@Z 000000014002d2f0 f i task_manager_dlg.obj
 0001:0002c400       ??$_snwprintf_s@$0IA@@@YAHAEAY0IA@_W_KPEB_WZZ 000000014002d400 f i tray_icon.obj
 0001:0002c470       ??0AppTrayIcon@@QEAA@PEAUHWND__@@I_N@Z 000000014002d470 f   tray_icon.obj
 0001:0002c550       ?Create@AppTrayIcon@@QEAAXXZ 000000014002d550 f   tray_icon.obj
 0001:0002c580       ?HandleMsg@AppTrayIcon@@QEAA?AW4TrayAction@1@_K_J@Z 000000014002d580 f   tray_icon.obj
 0001:0002c5f0       ?Hide@AppTrayIcon@@QEAAX_N@Z 000000014002d5f0 f   tray_icon.obj
 0001:0002c620       ?Modify@AppTrayIcon@@QEAAXXZ 000000014002d620 f   tray_icon.obj
 0001:0002c630       ?ReloadIcons@AppTrayIcon@@AEAAXPEAUHWND__@@@Z 000000014002d630 f   tray_icon.obj
 0001:0002c770       ?Remove@AppTrayIcon@@QEAAXXZ 000000014002d770 f   tray_icon.obj
 0001:0002c780       ?SetNotificationIconAndTooltip@AppTrayIcon@@QEAAXPEB_W@Z 000000014002d780 f   tray_icon.obj
 0001:0002c7f0       ?ShowNotificationMessage@AppTrayIcon@@QEAAXPEB_W@Z 000000014002d7f0 f   tray_icon.obj
 0001:0002c860       ?UpdateIcons@AppTrayIcon@@QEAAXPEAUHWND__@@@Z 000000014002d860 f   tray_icon.obj
 0001:0002c8d0       ??$?0AEAV?$basic_string@DU?$char_traits@D@std@@V?$allocator@D@2@@std@@V01@$0A@@?$basic_json@Uordered_map@nlohmann@@Vvector@std@@V?$basic_string@DU?$char_traits@D@std@@V?$allocator@D@2@@4@_N_J_KNVallocator@4@Uadl_serializer@2@V?$vector@EV?$allocator@E@std@@@4@@nlohmann@@QEAA@AEAV?$basic_string@DU?$char_traits@D@std@@V?$allocator@D@2@@std@@@Z 000000014002d8d0 f i ui_control.obj
 0001:0002c8d0       ??$?0AEAV?$basic_string@DU?$char_traits@D@std@@V?$allocator@D@2@@std@@V01@$0A@@?$basic_json@Vmap@std@@Vvector@2@V?$basic_string@DU?$char_traits@D@std@@V?$allocator@D@2@@2@_N_J_KNVallocator@2@Uadl_serializer@nlohmann@@V?$vector@EV?$allocator@E@std@@@2@@nlohmann@@QEAA@AEAV?$basic_string@DU?$char_traits@D@std@@V?$allocator@D@2@@std@@@Z 000000014002d8d0 f i userprofile.obj
 0001:0002c930       ??$?0AEAY03$$CBD$0A@@?$json_ref@V?$basic_json@Uordered_map@nlohmann@@Vvector@std@@V?$basic_string@DU?$char_traits@D@std@@V?$allocator@D@2@@4@_N_J_KNVallocator@4@Uadl_serializer@2@V?$vector@EV?$allocator@E@std@@@4@@nlohmann@@@detail@nlohmann@@QEAA@AEAY03$$CBD@Z 000000014002d930 f i ui_control.obj
 0001:0002c930       ??$?0AEAY04$$CBD$0A@@?$json_ref@V?$basic_json@Uordered_map@nlohmann@@Vvector@std@@V?$basic_string@DU?$char_traits@D@std@@V?$allocator@D@2@@4@_N_J_KNVallocator@4@Uadl_serializer@2@V?$vector@EV?$allocator@E@std@@@4@@nlohmann@@@detail@nlohmann@@QEAA@AEAY04$$CBD@Z 000000014002d930 f i ui_control.obj
 0001:0002c930       ??$?0AEAY07$$CBD$0A@@?$json_ref@V?$basic_json@Uordered_map@nlohmann@@Vvector@std@@V?$basic_string@DU?$char_traits@D@std@@V?$allocator@D@2@@4@_N_J_KNVallocator@4@Uadl_serializer@2@V?$vector@EV?$allocator@E@std@@@4@@nlohmann@@@detail@nlohmann@@QEAA@AEAY07$$CBD@Z 000000014002d930 f i ui_control.obj
 0001:0002c930       ??$?0AEAY0BB@$$CBD$0A@@?$json_ref@V?$basic_json@Uordered_map@nlohmann@@Vvector@std@@V?$basic_string@DU?$char_traits@D@std@@V?$allocator@D@2@@4@_N_J_KNVallocator@4@Uadl_serializer@2@V?$vector@EV?$allocator@E@std@@@4@@nlohmann@@@detail@nlohmann@@QEAA@AEAY0BB@$$CBD@Z 000000014002d930 f i ui_control.obj
 0001:0002c930       ??$?0AEAY0BE@$$CBD$0A@@?$json_ref@V?$basic_json@Uordered_map@nlohmann@@Vvector@std@@V?$basic_string@DU?$char_traits@D@std@@V?$allocator@D@2@@4@_N_J_KNVallocator@4@Uadl_serializer@2@V?$vector@EV?$allocator@E@std@@@4@@nlohmann@@@detail@nlohmann@@QEAA@AEAY0BE@$$CBD@Z 000000014002d930 f i ui_control.obj
 0001:0002c930       ??$?0AEAY0BG@$$CBD$0A@@?$json_ref@V?$basic_json@Uordered_map@nlohmann@@Vvector@std@@V?$basic_string@DU?$char_traits@D@std@@V?$allocator@D@2@@4@_N_J_KNVallocator@4@Uadl_serializer@2@V?$vector@EV?$allocator@E@std@@@4@@nlohmann@@@detail@nlohmann@@QEAA@AEAY0BG@$$CBD@Z 000000014002d930 f i ui_control.obj
 0001:0002c930       ??$?0AEAY0BH@$$CBD$0A@@?$json_ref@V?$basic_json@Uordered_map@nlohmann@@Vvector@std@@V?$basic_string@DU?$char_traits@D@std@@V?$allocator@D@2@@4@_N_J_KNVallocator@4@Uadl_serializer@2@V?$vector@EV?$allocator@E@std@@@4@@nlohmann@@@detail@nlohmann@@QEAA@AEAY0BH@$$CBD@Z 000000014002d930 f i ui_control.obj
 0001:0002c930       ??$?0AEAY0BI@$$CBD$0A@@?$json_ref@V?$basic_json@Uordered_map@nlohmann@@Vvector@std@@V?$basic_string@DU?$char_traits@D@std@@V?$allocator@D@2@@4@_N_J_KNVallocator@4@Uadl_serializer@2@V?$vector@EV?$allocator@E@std@@@4@@nlohmann@@@detail@nlohmann@@QEAA@AEAY0BI@$$CBD@Z 000000014002d930 f i ui_control.obj
 0001:0002c930       ??$?0AEAY0BJ@$$CBD$0A@@?$json_ref@V?$basic_json@Uordered_map@nlohmann@@Vvector@std@@V?$basic_string@DU?$char_traits@D@std@@V?$allocator@D@2@@4@_N_J_KNVallocator@4@Uadl_serializer@2@V?$vector@EV?$allocator@E@std@@@4@@nlohmann@@@detail@nlohmann@@QEAA@AEAY0BJ@$$CBD@Z 000000014002d930 f i ui_control.obj
 0001:0002c930       ??$?0AEAY0BK@$$CBD$0A@@?$json_ref@V?$basic_json@Uordered_map@nlohmann@@Vvector@std@@V?$basic_string@DU?$char_traits@D@std@@V?$allocator@D@2@@4@_N_J_KNVallocator@4@Uadl_serializer@2@V?$vector@EV?$allocator@E@std@@@4@@nlohmann@@@detail@nlohmann@@QEAA@AEAY0BK@$$CBD@Z 000000014002d930 f i ui_control.obj
 0001:0002c930       ??$?0AEAY0BM@$$CBD$0A@@?$json_ref@V?$basic_json@Uordered_map@nlohmann@@Vvector@std@@V?$basic_string@DU?$char_traits@D@std@@V?$allocator@D@2@@4@_N_J_KNVallocator@4@Uadl_serializer@2@V?$vector@EV?$allocator@E@std@@@4@@nlohmann@@@detail@nlohmann@@QEAA@AEAY0BM@$$CBD@Z 000000014002d930 f i ui_control.obj
 0001:0002c930       ??$?0AEAY0BO@$$CBD$0A@@?$json_ref@V?$basic_json@Uordered_map@nlohmann@@Vvector@std@@V?$basic_string@DU?$char_traits@D@std@@V?$allocator@D@2@@4@_N_J_KNVallocator@4@Uadl_serializer@2@V?$vector@EV?$allocator@E@std@@@4@@nlohmann@@@detail@nlohmann@@QEAA@AEAY0BO@$$CBD@Z 000000014002d930 f i ui_control.obj
 0001:0002c930       ??$?0AEAY0CA@$$CBD$0A@@?$json_ref@V?$basic_json@Uordered_map@nlohmann@@Vvector@std@@V?$basic_string@DU?$char_traits@D@std@@V?$allocator@D@2@@4@_N_J_KNVallocator@4@Uadl_serializer@2@V?$vector@EV?$allocator@E@std@@@4@@nlohmann@@@detail@nlohmann@@QEAA@AEAY0CA@$$CBD@Z 000000014002d930 f i ui_control.obj
 0001:0002c930       ??$?0AEAY0CB@$$CBD$0A@@?$json_ref@V?$basic_json@Uordered_map@nlohmann@@Vvector@std@@V?$basic_string@DU?$char_traits@D@std@@V?$allocator@D@2@@4@_N_J_KNVallocator@4@Uadl_serializer@2@V?$vector@EV?$allocator@E@std@@@4@@nlohmann@@@detail@nlohmann@@QEAA@AEAY0CB@$$CBD@Z 000000014002d930 f i ui_control.obj
 0001:0002c930       ??$?0AEAY0CC@$$CBD$0A@@?$json_ref@V?$basic_json@Uordered_map@nlohmann@@Vvector@std@@V?$basic_string@DU?$char_traits@D@std@@V?$allocator@D@2@@4@_N_J_KNVallocator@4@Uadl_serializer@2@V?$vector@EV?$allocator@E@std@@@4@@nlohmann@@@detail@nlohmann@@QEAA@AEAY0CC@$$CBD@Z 000000014002d930 f i ui_control.obj
 0001:0002c930       ??$?0AEAY0CN@$$CBD$0A@@?$json_ref@V?$basic_json@Uordered_map@nlohmann@@Vvector@std@@V?$basic_string@DU?$char_traits@D@std@@V?$allocator@D@2@@4@_N_J_KNVallocator@4@Uadl_serializer@2@V?$vector@EV?$allocator@E@std@@@4@@nlohmann@@@detail@nlohmann@@QEAA@AEAY0CN@$$CBD@Z 000000014002d930 f i ui_control.obj
 0001:0002c930       ??$?0AEAY0CP@$$CBD$0A@@?$json_ref@V?$basic_json@Uordered_map@nlohmann@@Vvector@std@@V?$basic_string@DU?$char_traits@D@std@@V?$allocator@D@2@@4@_N_J_KNVallocator@4@Uadl_serializer@2@V?$vector@EV?$allocator@E@std@@@4@@nlohmann@@@detail@nlohmann@@QEAA@AEAY0CP@$$CBD@Z 000000014002d930 f i ui_control.obj
 0001:0002c930       ??$?0AEAY0DD@$$CBD$0A@@?$json_ref@V?$basic_json@Uordered_map@nlohmann@@Vvector@std@@V?$basic_string@DU?$char_traits@D@std@@V?$allocator@D@2@@4@_N_J_KNVallocator@4@Uadl_serializer@2@V?$vector@EV?$allocator@E@std@@@4@@nlohmann@@@detail@nlohmann@@QEAA@AEAY0DD@$$CBD@Z 000000014002d930 f i ui_control.obj
 0001:0002c930       ??$?0AEAY0L@$$CBD$0A@@?$json_ref@V?$basic_json@Uordered_map@nlohmann@@Vvector@std@@V?$basic_string@DU?$char_traits@D@std@@V?$allocator@D@2@@4@_N_J_KNVallocator@4@Uadl_serializer@2@V?$vector@EV?$allocator@E@std@@@4@@nlohmann@@@detail@nlohmann@@QEAA@AEAY0L@$$CBD@Z 000000014002d930 f i ui_control.obj
 0001:0002c930       ??$?0AEAY0M@$$CBD$0A@@?$json_ref@V?$basic_json@Uordered_map@nlohmann@@Vvector@std@@V?$basic_string@DU?$char_traits@D@std@@V?$allocator@D@2@@4@_N_J_KNVallocator@4@Uadl_serializer@2@V?$vector@EV?$allocator@E@std@@@4@@nlohmann@@@detail@nlohmann@@QEAA@AEAY0M@$$CBD@Z 000000014002d930 f i ui_control.obj
 0001:0002c930       ??$?0AEAY0N@$$CBD$0A@@?$json_ref@V?$basic_json@Uordered_map@nlohmann@@Vvector@std@@V?$basic_string@DU?$char_traits@D@std@@V?$allocator@D@2@@4@_N_J_KNVallocator@4@Uadl_serializer@2@V?$vector@EV?$allocator@E@std@@@4@@nlohmann@@@detail@nlohmann@@QEAA@AEAY0N@$$CBD@Z 000000014002d930 f i ui_control.obj
 0001:0002c930       ??$?0AEAY0P@$$CBD$0A@@?$json_ref@V?$basic_json@Uordered_map@nlohmann@@Vvector@std@@V?$basic_string@DU?$char_traits@D@std@@V?$allocator@D@2@@4@_N_J_KNVallocator@4@Uadl_serializer@2@V?$vector@EV?$allocator@E@std@@@4@@nlohmann@@@detail@nlohmann@@QEAA@AEAY0P@$$CBD@Z 000000014002d930 f i ui_control.obj
 0001:0002c9c0       ??$?0H$0A@@?$json_ref@V?$basic_json@Uordered_map@nlohmann@@Vvector@std@@V?$basic_string@DU?$char_traits@D@std@@V?$allocator@D@2@@4@_N_J_KNVallocator@4@Uadl_serializer@2@V?$vector@EV?$allocator@E@std@@@4@@nlohmann@@@detail@nlohmann@@QEAA@$$QEAH@Z 000000014002d9c0 f i ui_control.obj
 0001:0002c9e0       ??$?0PEAD$0A@@?$basic_string@DU?$char_traits@D@std@@V?$allocator@D@2@@std@@QEAA@PEAD0AEBV?$allocator@D@1@@Z 000000014002d9e0 f i ui_control.obj
 0001:0002cad0       ??$?0Vpath@filesystem@std@@$0A@@?$basic_ifstream@DU?$char_traits@D@std@@@std@@QEAA@AEBVpath@filesystem@1@HH@Z 000000014002dad0 f i ui_control.obj
 0001:0002ccc0       ??$?0Vpath@filesystem@std@@$0A@@?$basic_ofstream@DU?$char_traits@D@std@@@std@@QEAA@AEBVpath@filesystem@1@HH@Z 000000014002dcc0 f i ui_control.obj
 0001:0002ceb0       ??$?0_N$0A@@?$json_ref@V?$basic_json@Uordered_map@nlohmann@@Vvector@std@@V?$basic_string@DU?$char_traits@D@std@@V?$allocator@D@2@@4@_N_J_KNVallocator@4@Uadl_serializer@2@V?$vector@EV?$allocator@E@std@@@4@@nlohmann@@@detail@nlohmann@@QEAA@$$QEA_N@Z 000000014002deb0 f i ui_control.obj
 0001:0002cee0       ??$?HDU?$char_traits@D@std@@V?$allocator@D@1@@std@@YA?AV?$basic_string@DU?$char_traits@D@std@@V?$allocator@D@2@@0@$$QEAV10@AEBV10@@Z 000000014002dee0 f i ui_control.obj
 0001:0002cf50       ??$?HDU?$char_traits@D@std@@V?$allocator@D@1@@std@@YA?AV?$basic_string@DU?$char_traits@D@std@@V?$allocator@D@2@@0@$$QEAV10@QEBD@Z 000000014002df50 f i ui_control.obj
 0001:0002cfd0       ??$?HDU?$char_traits@D@std@@V?$allocator@D@1@@std@@YA?AV?$basic_string@DU?$char_traits@D@std@@V?$allocator@D@2@@0@QEBD$$QEAV10@@Z 000000014002dfd0 f i ui_control.obj
 0001:0002d100       ??$?HDU?$char_traits@D@std@@V?$allocator@D@1@@std@@YA?AV?$basic_string@DU?$char_traits@D@std@@V?$allocator@D@2@@0@QEBDAEBV10@@Z 000000014002e100 f i ui_control.obj
 0001:0002d200       ??$CoCreateInstance@UITaskService@@Uerr_exception_policy@wil@@@wil@@YA?AV?$com_ptr_t@UITaskService@@Uerr_exception_policy@wil@@@0@AEBU_GUID@@K@Z 000000014002e200 f i ui_control.obj
 0001:0002d260       ??$_Copy_vbool@V?$_Vb_iterator@U?$_Wrap_alloc@V?$allocator@I@std@@@std@@@std@@V12@@std@@YA?AV?$_Vb_iterator@U?$_Wrap_alloc@V?$allocator@I@std@@@std@@@0@V10@00@Z 000000014002e260 f i ui_control.obj
 0001:0002d670       ??$_Emplace_one_at_back@D@?$vector@DV?$allocator@D@std@@@std@@AEAAAEAD$$QEAD@Z 000000014002e670 f i ui_control.obj
 0001:0002d7d0       ??$_Emplace_reallocate@$$T@?$vector@V?$basic_json@Uordered_map@nlohmann@@Vvector@std@@V?$basic_string@DU?$char_traits@D@std@@V?$allocator@D@2@@4@_N_J_KNVallocator@4@Uadl_serializer@2@V?$vector@EV?$allocator@E@std@@@4@@nlohmann@@V?$allocator@V?$basic_json@Uordered_map@nlohmann@@Vvector@std@@V?$basic_string@DU?$char_traits@D@std@@V?$allocator@D@2@@4@_N_J_KNVallocator@4@Uadl_serializer@2@V?$vector@EV?$allocator@E@std@@@4@@nlohmann@@@std@@@std@@AEAAPEAV?$basic_json@Uordered_map@nlohmann@@Vvector@std@@V?$basic_string@DU?$char_traits@D@std@@V?$allocator@D@2@@4@_N_J_KNVallocator@4@Uadl_serializer@2@V?$vector@EV?$allocator@E@std@@@4@@nlohmann@@QEAV23@$$QEA$$T@Z 000000014002e7d0 f i ui_control.obj
 0001:0002d990       ??$_Emplace_reallocate@AEAN@?$vector@V?$basic_json@Uordered_map@nlohmann@@Vvector@std@@V?$basic_string@DU?$char_traits@D@std@@V?$allocator@D@2@@4@_N_J_KNVallocator@4@Uadl_serializer@2@V?$vector@EV?$allocator@E@std@@@4@@nlohmann@@V?$allocator@V?$basic_json@Uordered_map@nlohmann@@Vvector@std@@V?$basic_string@DU?$char_traits@D@std@@V?$allocator@D@2@@4@_N_J_KNVallocator@4@Uadl_serializer@2@V?$vector@EV?$allocator@E@std@@@4@@nlohmann@@@std@@@std@@AEAAPEAV?$basic_json@Uordered_map@nlohmann@@Vvector@std@@V?$basic_string@DU?$char_traits@D@std@@V?$allocator@D@2@@4@_N_J_KNVallocator@4@Uadl_serializer@2@V?$vector@EV?$allocator@E@std@@@4@@nlohmann@@QEAV23@AEAN@Z 000000014002e990 f i ui_control.obj
 0001:0002db60       ??$_Emplace_reallocate@AEAV?$basic_string@DU?$char_traits@D@std@@V?$allocator@D@2@@std@@@?$vector@V?$basic_json@Uordered_map@nlohmann@@Vvector@std@@V?$basic_string@DU?$char_traits@D@std@@V?$allocator@D@2@@4@_N_J_KNVallocator@4@Uadl_serializer@2@V?$vector@EV?$allocator@E@std@@@4@@nlohmann@@V?$allocator@V?$basic_json@Uordered_map@nlohmann@@Vvector@std@@V?$basic_string@DU?$char_traits@D@std@@V?$allocator@D@2@@4@_N_J_KNVallocator@4@Uadl_serializer@2@V?$vector@EV?$allocator@E@std@@@4@@nlohmann@@@std@@@std@@AEAAPEAV?$basic_json@Uordered_map@nlohmann@@Vvector@std@@V?$basic_string@DU?$char_traits@D@std@@V?$allocator@D@2@@4@_N_J_KNVallocator@4@Uadl_serializer@2@V?$vector@EV?$allocator@E@std@@@4@@nlohmann@@QEAV23@AEAV?$basic_string@DU?$char_traits@D@std@@V?$allocator@D@2@@1@@Z 000000014002eb60 f i ui_control.obj
 0001:0002dd50       ??$_Emplace_reallocate@AEA_J@?$vector@V?$basic_json@Uordered_map@nlohmann@@Vvector@std@@V?$basic_string@DU?$char_traits@D@std@@V?$allocator@D@2@@4@_N_J_KNVallocator@4@Uadl_serializer@2@V?$vector@EV?$allocator@E@std@@@4@@nlohmann@@V?$allocator@V?$basic_json@Uordered_map@nlohmann@@Vvector@std@@V?$basic_string@DU?$char_traits@D@std@@V?$allocator@D@2@@4@_N_J_KNVallocator@4@Uadl_serializer@2@V?$vector@EV?$allocator@E@std@@@4@@nlohmann@@@std@@@std@@AEAAPEAV?$basic_json@Uordered_map@nlohmann@@Vvector@std@@V?$basic_string@DU?$char_traits@D@std@@V?$allocator@D@2@@4@_N_J_KNVallocator@4@Uadl_serializer@2@V?$vector@EV?$allocator@E@std@@@4@@nlohmann@@QEAV23@AEA_J@Z 000000014002ed50 f i ui_control.obj
 0001:0002df10       ??$_Emplace_reallocate@AEA_K@?$vector@V?$basic_json@Uordered_map@nlohmann@@Vvector@std@@V?$basic_string@DU?$char_traits@D@std@@V?$allocator@D@2@@4@_N_J_KNVallocator@4@Uadl_serializer@2@V?$vector@EV?$allocator@E@std@@@4@@nlohmann@@V?$allocator@V?$basic_json@Uordered_map@nlohmann@@Vvector@std@@V?$basic_string@DU?$char_traits@D@std@@V?$allocator@D@2@@4@_N_J_KNVallocator@4@Uadl_serializer@2@V?$vector@EV?$allocator@E@std@@@4@@nlohmann@@@std@@@std@@AEAAPEAV?$basic_json@Uordered_map@nlohmann@@Vvector@std@@V?$basic_string@DU?$char_traits@D@std@@V?$allocator@D@2@@4@_N_J_KNVallocator@4@Uadl_serializer@2@V?$vector@EV?$allocator@E@std@@@4@@nlohmann@@QEAV23@AEA_K@Z 000000014002ef10 f i ui_control.obj
 0001:0002e0d0       ??$_Emplace_reallocate@AEA_N@?$vector@V?$basic_json@Uordered_map@nlohmann@@Vvector@std@@V?$basic_string@DU?$char_traits@D@std@@V?$allocator@D@2@@4@_N_J_KNVallocator@4@Uadl_serializer@2@V?$vector@EV?$allocator@E@std@@@4@@nlohmann@@V?$allocator@V?$basic_json@Uordered_map@nlohmann@@Vvector@std@@V?$basic_string@DU?$char_traits@D@std@@V?$allocator@D@2@@4@_N_J_KNVallocator@4@Uadl_serializer@2@V?$vector@EV?$allocator@E@std@@@4@@nlohmann@@@std@@@std@@AEAAPEAV?$basic_json@Uordered_map@nlohmann@@Vvector@std@@V?$basic_string@DU?$char_traits@D@std@@V?$allocator@D@2@@4@_N_J_KNVallocator@4@Uadl_serializer@2@V?$vector@EV?$allocator@E@std@@@4@@nlohmann@@QEAV23@AEA_N@Z 000000014002f0d0 f i ui_control.obj
 0001:0002e2a0       ??$_Emplace_reallocate@AEBQEAUHWND__@@@?$vector@PEAUHWND__@@V?$allocator@PEAUHWND__@@@std@@@std@@AEAAPEAPEAUHWND__@@QEAPEAU2@AEBQEAU2@@Z 000000014002f2a0 f i ui_control.obj
 0001:0002e420       ??$_Emplace_reallocate@AEBV?$basic_string@DU?$char_traits@D@std@@V?$allocator@D@2@@std@@AEAV?$basic_json@Uordered_map@nlohmann@@Vvector@std@@V?$basic_string@DU?$char_traits@D@std@@V?$allocator@D@2@@4@_N_J_KNVallocator@4@Uadl_serializer@2@V?$vector@EV?$allocator@E@std@@@4@@nlohmann@@@?$vector@U?$pair@$$CBV?$basic_string@DU?$char_traits@D@std@@V?$allocator@D@2@@std@@V?$basic_json@Uordered_map@nlohmann@@Vvector@std@@V?$basic_string@DU?$char_traits@D@std@@V?$allocator@D@2@@4@_N_J_KNVallocator@4@Uadl_serializer@2@V?$vector@EV?$allocator@E@std@@@4@@nlohmann@@@std@@V?$allocator@U?$pair@$$CBV?$basic_string@DU?$char_traits@D@std@@V?$allocator@D@2@@std@@V?$basic_json@Uordered_map@nlohmann@@Vvector@std@@V?$basic_string@DU?$char_traits@D@std@@V?$allocator@D@2@@4@_N_J_KNVallocator@4@Uadl_serializer@2@V?$vector@EV?$allocator@E@std@@@4@@nlohmann@@@std@@@2@@std@@AEAAPEAU?$pair@$$CBV?$basic_string@DU?$char_traits@D@std@@V?$allocator@D@2@@std@@V?$basic_json@Uordered_map@nlohmann@@Vvector@std@@V?$basic_string@DU?$char_traits@D@std@@V?$allocator@D@2@@4@_N_J_KNVallocator@4@Uadl_serializer@2@V?$vector@EV?$allocator@E@std@@@4@@nlohmann@@@1@QEAU21@AEBV?$basic_string@DU?$char_traits@D@std@@V?$allocator@D@2@@1@AEAV?$basic_json@Uordered_map@nlohmann@@Vvector@std@@V?$basic_string@DU?$char_traits@D@std@@V?$allocator@D@2@@4@_N_J_KNVallocator@4@Uadl_serializer@2@V?$vector@EV?$allocator@E@std@@@4@@nlohmann@@@Z 000000014002f420 f i ui_control.obj
 0001:0002e680       ??$_Emplace_reallocate@V?$basic_json@Uordered_map@nlohmann@@Vvector@std@@V?$basic_string@DU?$char_traits@D@std@@V?$allocator@D@2@@4@_N_J_KNVallocator@4@Uadl_serializer@2@V?$vector@EV?$allocator@E@std@@@4@@nlohmann@@@?$vector@V?$basic_json@Uordered_map@nlohmann@@Vvector@std@@V?$basic_string@DU?$char_traits@D@std@@V?$allocator@D@2@@4@_N_J_KNVallocator@4@Uadl_serializer@2@V?$vector@EV?$allocator@E@std@@@4@@nlohmann@@V?$allocator@V?$basic_json@Uordered_map@nlohmann@@Vvector@std@@V?$basic_string@DU?$char_traits@D@std@@V?$allocator@D@2@@4@_N_J_KNVallocator@4@Uadl_serializer@2@V?$vector@EV?$allocator@E@std@@@4@@nlohmann@@@std@@@std@@AEAAPEAV?$basic_json@Uordered_map@nlohmann@@Vvector@std@@V?$basic_string@DU?$char_traits@D@std@@V?$allocator@D@2@@4@_N_J_KNVallocator@4@Uadl_serializer@2@V?$vector@EV?$allocator@E@std@@@4@@nlohmann@@QEAV23@$$QEAV23@@Z 000000014002f680 f i ui_control.obj
 0001:0002e840       ??$_Emplace_reallocate@W4value_t@detail@nlohmann@@@?$vector@V?$basic_json@Uordered_map@nlohmann@@Vvector@std@@V?$basic_string@DU?$char_traits@D@std@@V?$allocator@D@2@@4@_N_J_KNVallocator@4@Uadl_serializer@2@V?$vector@EV?$allocator@E@std@@@4@@nlohmann@@V?$allocator@V?$basic_json@Uordered_map@nlohmann@@Vvector@std@@V?$basic_string@DU?$char_traits@D@std@@V?$allocator@D@2@@4@_N_J_KNVallocator@4@Uadl_serializer@2@V?$vector@EV?$allocator@E@std@@@4@@nlohmann@@@std@@@std@@AEAAPEAV?$basic_json@Uordered_map@nlohmann@@Vvector@std@@V?$basic_string@DU?$char_traits@D@std@@V?$allocator@D@2@@4@_N_J_KNVallocator@4@Uadl_serializer@2@V?$vector@EV?$allocator@E@std@@@4@@nlohmann@@QEAV23@$$QEAW4value_t@detail@3@@Z 000000014002f840 f i ui_control.obj
 0001:0002ea10       ??$_Reallocate_grow_by@V<lambda_1>@?1??insert@?$basic_string@DU?$char_traits@D@std@@V?$allocator@D@2@@std@@QEAAAEAV34@_KQEBD0@Z@_KPEBD_K@?$basic_string@DU?$char_traits@D@std@@V?$allocator@D@2@@std@@AEAAAEAV01@_KV<lambda_1>@?1??insert@01@QEAAAEAV01@0QEBD0@Z@_KPEBD3@Z 000000014002fa10 f i ui_control.obj
 0001:0002eb90       ??$_Resize_reallocate@I@?$vector@IV?$allocator@I@std@@@std@@AEAAX_KAEBI@Z 000000014002fb90 f i ui_control.obj
 0001:0002ecf0       ??$_Uninitialized_copy@PEAU?$pair@$$CBV?$basic_string@DU?$char_traits@D@std@@V?$allocator@D@2@@std@@V?$basic_json@Uordered_map@nlohmann@@Vvector@std@@V?$basic_string@DU?$char_traits@D@std@@V?$allocator@D@2@@4@_N_J_KNVallocator@4@Uadl_serializer@2@V?$vector@EV?$allocator@E@std@@@4@@nlohmann@@@std@@PEAU12@V?$allocator@U?$pair@$$CBV?$basic_string@DU?$char_traits@D@std@@V?$allocator@D@2@@std@@V?$basic_json@Uordered_map@nlohmann@@Vvector@std@@V?$basic_string@DU?$char_traits@D@std@@V?$allocator@D@2@@4@_N_J_KNVallocator@4@Uadl_serializer@2@V?$vector@EV?$allocator@E@std@@@4@@nlohmann@@@std@@@2@@std@@YAPEAU?$pair@$$CBV?$basic_string@DU?$char_traits@D@std@@V?$allocator@D@2@@std@@V?$basic_json@Uordered_map@nlohmann@@Vvector@std@@V?$basic_string@DU?$char_traits@D@std@@V?$allocator@D@2@@4@_N_J_KNVallocator@4@Uadl_serializer@2@V?$vector@EV?$allocator@E@std@@@4@@nlohmann@@@0@PEAU10@00AEAV?$allocator@U?$pair@$$CBV?$basic_string@DU?$char_traits@D@std@@V?$allocator@D@2@@std@@V?$basic_json@Uordered_map@nlohmann@@Vvector@std@@V?$basic_string@DU?$char_traits@D@std@@V?$allocator@D@2@@4@_N_J_KNVallocator@4@Uadl_serializer@2@V?$vector@EV?$allocator@E@std@@@4@@nlohmann@@@std@@@0@@Z 000000014002fcf0 f i ui_control.obj
 0001:0002ed70       ??$_Uninitialized_move@PEAU?$pair@$$CBV?$basic_string@DU?$char_traits@D@std@@V?$allocator@D@2@@std@@V?$basic_json@Uordered_map@nlohmann@@Vvector@std@@V?$basic_string@DU?$char_traits@D@std@@V?$allocator@D@2@@4@_N_J_KNVallocator@4@Uadl_serializer@2@V?$vector@EV?$allocator@E@std@@@4@@nlohmann@@@std@@V?$allocator@U?$pair@$$CBV?$basic_string@DU?$char_traits@D@std@@V?$allocator@D@2@@std@@V?$basic_json@Uordered_map@nlohmann@@Vvector@std@@V?$basic_string@DU?$char_traits@D@std@@V?$allocator@D@2@@4@_N_J_KNVallocator@4@Uadl_serializer@2@V?$vector@EV?$allocator@E@std@@@4@@nlohmann@@@std@@@2@@std@@YAPEAU?$pair@$$CBV?$basic_string@DU?$char_traits@D@std@@V?$allocator@D@2@@std@@V?$basic_json@Uordered_map@nlohmann@@Vvector@std@@V?$basic_string@DU?$char_traits@D@std@@V?$allocator@D@2@@4@_N_J_KNVallocator@4@Uadl_serializer@2@V?$vector@EV?$allocator@E@std@@@4@@nlohmann@@@0@QEAU10@0PEAU10@AEAV?$allocator@U?$pair@$$CBV?$basic_string@DU?$char_traits@D@std@@V?$allocator@D@2@@std@@V?$basic_json@Uordered_map@nlohmann@@Vvector@std@@V?$basic_string@DU?$char_traits@D@std@@V?$allocator@D@2@@4@_N_J_KNVallocator@4@Uadl_serializer@2@V?$vector@EV?$allocator@E@std@@@4@@nlohmann@@@std@@@0@@Z 000000014002fd70 f i ui_control.obj
 0001:0002ee00       ??$construct@V?$basic_json@Uordered_map@nlohmann@@Vvector@std@@V?$basic_string@DU?$char_traits@D@std@@V?$allocator@D@2@@4@_N_J_KNVallocator@4@Uadl_serializer@2@V?$vector@EV?$allocator@E@std@@@4@@nlohmann@@AEAV?$basic_string@DU?$char_traits@D@std@@V?$allocator@D@2@@std@@@?$_Default_allocator_traits@V?$allocator@V?$basic_json@Uordered_map@nlohmann@@Vvector@std@@V?$basic_string@DU?$char_traits@D@std@@V?$allocator@D@2@@4@_N_J_KNVallocator@4@Uadl_serializer@2@V?$vector@EV?$allocator@E@std@@@4@@nlohmann@@@std@@@std@@SAXAEAV?$allocator@V?$basic_json@Uordered_map@nlohmann@@Vvector@std@@V?$basic_string@DU?$char_traits@D@std@@V?$allocator@D@2@@4@_N_J_KNVallocator@4@Uadl_serializer@2@V?$vector@EV?$allocator@E@std@@@4@@nlohmann@@@1@QEAV?$basic_json@Uordered_map@nlohmann@@Vvector@std@@V?$basic_string@DU?$char_traits@D@std@@V?$allocator@D@2@@4@_N_J_KNVallocator@4@Uadl_serializer@2@V?$vector@EV?$allocator@E@std@@@4@@nlohmann@@AEAV?$basic_string@DU?$char_traits@D@std@@V?$allocator@D@2@@1@@Z 000000014002fe00 f i ui_control.obj
 0001:0002ee60       ??$dump_integer@E$0A@@?$serializer@V?$basic_json@Uordered_map@nlohmann@@Vvector@std@@V?$basic_string@DU?$char_traits@D@std@@V?$allocator@D@2@@4@_N_J_KNVallocator@4@Uadl_serializer@2@V?$vector@EV?$allocator@E@std@@@4@@nlohmann@@@detail@nlohmann@@AEAAXE@Z 000000014002fe60 f i ui_control.obj
 0001:0002efa0       ??$dump_integer@_J$0A@@?$serializer@V?$basic_json@Uordered_map@nlohmann@@Vvector@std@@V?$basic_string@DU?$char_traits@D@std@@V?$allocator@D@2@@4@_N_J_KNVallocator@4@Uadl_serializer@2@V?$vector@EV?$allocator@E@std@@@4@@nlohmann@@@detail@nlohmann@@AEAAX_J@Z 000000014002ffa0 f i ui_control.obj
 0001:0002f160       ??$erase@V?$iter_impl@V?$basic_json@Uordered_map@nlohmann@@Vvector@std@@V?$basic_string@DU?$char_traits@D@std@@V?$allocator@D@2@@4@_N_J_KNVallocator@4@Uadl_serializer@2@V?$vector@EV?$allocator@E@std@@@4@@nlohmann@@@detail@nlohmann@@$0A@@?$basic_json@Uordered_map@nlohmann@@Vvector@std@@V?$basic_string@DU?$char_traits@D@std@@V?$allocator@D@2@@4@_N_J_KNVallocator@4@Uadl_serializer@2@V?$vector@EV?$allocator@E@std@@@4@@nlohmann@@QEAA?AV?$iter_impl@V?$basic_json@Uordered_map@nlohmann@@Vvector@std@@V?$basic_string@DU?$char_traits@D@std@@V?$allocator@D@2@@4@_N_J_KNVallocator@4@Uadl_serializer@2@V?$vector@EV?$allocator@E@std@@@4@@nlohmann@@@detail@1@V231@@Z 0000000140030160 f i ui_control.obj
 0001:0002f460       ??$handle_value@$$T@?$json_sax_dom_callback_parser@V?$basic_json@Uordered_map@nlohmann@@Vvector@std@@V?$basic_string@DU?$char_traits@D@std@@V?$allocator@D@2@@4@_N_J_KNVallocator@4@Uadl_serializer@2@V?$vector@EV?$allocator@E@std@@@4@@nlohmann@@@detail@nlohmann@@AEAA?AU?$pair@_NPEAV?$basic_json@Uordered_map@nlohmann@@Vvector@std@@V?$basic_string@DU?$char_traits@D@std@@V?$allocator@D@2@@4@_N_J_KNVallocator@4@Uadl_serializer@2@V?$vector@EV?$allocator@E@std@@@4@@nlohmann@@@std@@$$QEA$$T_N@Z 0000000140030460 f i ui_control.obj
 0001:0002f6b0       ??$handle_value@AEAN@?$json_sax_dom_callback_parser@V?$basic_json@Uordered_map@nlohmann@@Vvector@std@@V?$basic_string@DU?$char_traits@D@std@@V?$allocator@D@2@@4@_N_J_KNVallocator@4@Uadl_serializer@2@V?$vector@EV?$allocator@E@std@@@4@@nlohmann@@@detail@nlohmann@@AEAA?AU?$pair@_NPEAV?$basic_json@Uordered_map@nlohmann@@Vvector@std@@V?$basic_string@DU?$char_traits@D@std@@V?$allocator@D@2@@4@_N_J_KNVallocator@4@Uadl_serializer@2@V?$vector@EV?$allocator@E@std@@@4@@nlohmann@@@std@@AEAN_N@Z 00000001400306b0 f i ui_control.obj
 0001:0002f910       ??$handle_value@AEAV?$basic_string@DU?$char_traits@D@std@@V?$allocator@D@2@@std@@@?$json_sax_dom_callback_parser@V?$basic_json@Uordered_map@nlohmann@@Vvector@std@@V?$basic_string@DU?$char_traits@D@std@@V?$allocator@D@2@@4@_N_J_KNVallocator@4@Uadl_serializer@2@V?$vector@EV?$allocator@E@std@@@4@@nlohmann@@@detail@nlohmann@@AEAA?AU?$pair@_NPEAV?$basic_json@Uordered_map@nlohmann@@Vvector@std@@V?$basic_string@DU?$char_traits@D@std@@V?$allocator@D@2@@4@_N_J_KNVallocator@4@Uadl_serializer@2@V?$vector@EV?$allocator@E@std@@@4@@nlohmann@@@std@@AEAV?$basic_string@DU?$char_traits@D@std@@V?$allocator@D@2@@4@_N@Z 0000000140030910 f i ui_control.obj
 0001:0002fb90       ??$handle_value@AEA_J@?$json_sax_dom_callback_parser@V?$basic_json@Uordered_map@nlohmann@@Vvector@std@@V?$basic_string@DU?$char_traits@D@std@@V?$allocator@D@2@@4@_N_J_KNVallocator@4@Uadl_serializer@2@V?$vector@EV?$allocator@E@std@@@4@@nlohmann@@@detail@nlohmann@@AEAA?AU?$pair@_NPEAV?$basic_json@Uordered_map@nlohmann@@Vvector@std@@V?$basic_string@DU?$char_traits@D@std@@V?$allocator@D@2@@4@_N_J_KNVallocator@4@Uadl_serializer@2@V?$vector@EV?$allocator@E@std@@@4@@nlohmann@@@std@@AEA_J_N@Z 0000000140030b90 f i ui_control.obj
 0001:0002fdf0       ??$handle_value@AEA_K@?$json_sax_dom_callback_parser@V?$basic_json@Uordered_map@nlohmann@@Vvector@std@@V?$basic_string@DU?$char_traits@D@std@@V?$allocator@D@2@@4@_N_J_KNVallocator@4@Uadl_serializer@2@V?$vector@EV?$allocator@E@std@@@4@@nlohmann@@@detail@nlohmann@@AEAA?AU?$pair@_NPEAV?$basic_json@Uordered_map@nlohmann@@Vvector@std@@V?$basic_string@DU?$char_traits@D@std@@V?$allocator@D@2@@4@_N_J_KNVallocator@4@Uadl_serializer@2@V?$vector@EV?$allocator@E@std@@@4@@nlohmann@@@std@@AEA_K_N@Z 0000000140030df0 f i ui_control.obj
 0001:00030050       ??$handle_value@AEA_N@?$json_sax_dom_callback_parser@V?$basic_json@Uordered_map@nlohmann@@Vvector@std@@V?$basic_string@DU?$char_traits@D@std@@V?$allocator@D@2@@4@_N_J_KNVallocator@4@Uadl_serializer@2@V?$vector@EV?$allocator@E@std@@@4@@nlohmann@@@detail@nlohmann@@AEAA?AU?$pair@_NPEAV?$basic_json@Uordered_map@nlohmann@@Vvector@std@@V?$basic_string@DU?$char_traits@D@std@@V?$allocator@D@2@@4@_N_J_KNVallocator@4@Uadl_serializer@2@V?$vector@EV?$allocator@E@std@@@4@@nlohmann@@@std@@AEA_N_N@Z 0000000140031050 f i ui_control.obj
 0001:000302b0       ??$handle_value@W4value_t@detail@nlohmann@@@?$json_sax_dom_callback_parser@V?$basic_json@Uordered_map@nlohmann@@Vvector@std@@V?$basic_string@DU?$char_traits@D@std@@V?$allocator@D@2@@4@_N_J_KNVallocator@4@Uadl_serializer@2@V?$vector@EV?$allocator@E@std@@@4@@nlohmann@@@detail@nlohmann@@AEAA?AU?$pair@_NPEAV?$basic_json@Uordered_map@nlohmann@@Vvector@std@@V?$basic_string@DU?$char_traits@D@std@@V?$allocator@D@2@@4@_N_J_KNVallocator@4@Uadl_serializer@2@V?$vector@EV?$allocator@E@std@@@4@@nlohmann@@@std@@$$QEAW4value_t@12@_N@Z 00000001400312b0 f i ui_control.obj
 0001:00030500       ??$handle_value@W4value_t@detail@nlohmann@@@?$json_sax_dom_parser@V?$basic_json@Uordered_map@nlohmann@@Vvector@std@@V?$basic_string@DU?$char_traits@D@std@@V?$allocator@D@2@@4@_N_J_KNVallocator@4@Uadl_serializer@2@V?$vector@EV?$allocator@E@std@@@4@@nlohmann@@@detail@nlohmann@@AEAAPEAV?$basic_json@Uordered_map@nlohmann@@Vvector@std@@V?$basic_string@DU?$char_traits@D@std@@V?$allocator@D@2@@4@_N_J_KNVallocator@4@Uadl_serializer@2@V?$vector@EV?$allocator@E@std@@@4@@2@$$QEAW4value_t@12@@Z 0000000140031500 f i ui_control.obj
 0001:00030610       ??$int_to_string@V?$basic_string@DU?$char_traits@D@std@@V?$allocator@D@2@@std@@@detail@nlohmann@@YAXAEAV?$basic_string@DU?$char_traits@D@std@@V?$allocator@D@2@@std@@_K@Z 0000000140031610 f i ui_control.obj
 0001:00030840       ??$parser@Vinput_stream_adapter@detail@nlohmann@@@?$basic_json@Uordered_map@nlohmann@@Vvector@std@@V?$basic_string@DU?$char_traits@D@std@@V?$allocator@D@2@@4@_N_J_KNVallocator@4@Uadl_serializer@2@V?$vector@EV?$allocator@E@std@@@4@@nlohmann@@CA?AV?$parser@V?$basic_json@Uordered_map@nlohmann@@Vvector@std@@V?$basic_string@DU?$char_traits@D@std@@V?$allocator@D@2@@4@_N_J_KNVallocator@4@Uadl_serializer@2@V?$vector@EV?$allocator@E@std@@@4@@nlohmann@@Vinput_stream_adapter@detail@2@@detail@1@Vinput_stream_adapter@31@V?$function@$$A6A_NHW4parse_event_t@detail@nlohmann@@AEAV?$basic_json@Uordered_map@nlohmann@@Vvector@std@@V?$basic_string@DU?$char_traits@D@std@@V?$allocator@D@2@@4@_N_J_KNVallocator@4@Uadl_serializer@2@V?$vector@EV?$allocator@E@std@@@4@@3@@Z@std@@_N2@Z 0000000140031840 f i ui_control.obj
 0001:00030a40       ??$sax_parse_internal@V?$json_sax_dom_callback_parser@V?$basic_json@Uordered_map@nlohmann@@Vvector@std@@V?$basic_string@DU?$char_traits@D@std@@V?$allocator@D@2@@4@_N_J_KNVallocator@4@Uadl_serializer@2@V?$vector@EV?$allocator@E@std@@@4@@nlohmann@@@detail@nlohmann@@@?$parser@V?$basic_json@Uordered_map@nlohmann@@Vvector@std@@V?$basic_string@DU?$char_traits@D@std@@V?$allocator@D@2@@4@_N_J_KNVallocator@4@Uadl_serializer@2@V?$vector@EV?$allocator@E@std@@@4@@nlohmann@@Vinput_stream_adapter@detail@2@@detail@nlohmann@@AEAA_NPEAV?$json_sax_dom_callback_parser@V?$basic_json@Uordered_map@nlohmann@@Vvector@std@@V?$basic_string@DU?$char_traits@D@std@@V?$allocator@D@2@@4@_N_J_KNVallocator@4@Uadl_serializer@2@V?$vector@EV?$allocator@E@std@@@4@@nlohmann@@@12@@Z 0000000140031a40 f i ui_control.obj
 0001:00031ea0       ??$sax_parse_internal@V?$json_sax_dom_parser@V?$basic_json@Uordered_map@nlohmann@@Vvector@std@@V?$basic_string@DU?$char_traits@D@std@@V?$allocator@D@2@@4@_N_J_KNVallocator@4@Uadl_serializer@2@V?$vector@EV?$allocator@E@std@@@4@@nlohmann@@@detail@nlohmann@@@?$parser@V?$basic_json@Uordered_map@nlohmann@@Vvector@std@@V?$basic_string@DU?$char_traits@D@std@@V?$allocator@D@2@@4@_N_J_KNVallocator@4@Uadl_serializer@2@V?$vector@EV?$allocator@E@std@@@4@@nlohmann@@Vinput_stream_adapter@detail@2@@detail@nlohmann@@AEAA_NPEAV?$json_sax_dom_parser@V?$basic_json@Uordered_map@nlohmann@@Vvector@std@@V?$basic_string@DU?$char_traits@D@std@@V?$allocator@D@2@@4@_N_J_KNVallocator@4@Uadl_serializer@2@V?$vector@EV?$allocator@E@std@@@4@@nlohmann@@@12@@Z 0000000140032ea0 f i ui_control.obj
 0001:00033380       ??$to_chars@N@detail@nlohmann@@YAPEADPEADPEBDN@Z 0000000140034380 f i ui_control.obj
 0001:00033510       ??$use_facet@V?$codecvt@DDU_Mbstatet@@@std@@@std@@YAAEBV?$codecvt@DDU_Mbstatet@@@0@AEBVlocale@0@@Z 0000000140034510 f i ui_control.obj
 0001:00033630       ??0?$basic_filebuf@DU?$char_traits@D@std@@@std@@QEAA@XZ 0000000140034630 f i ui_control.obj
 0001:00033740       ??0?$basic_json@Uordered_map@nlohmann@@Vvector@std@@V?$basic_string@DU?$char_traits@D@std@@V?$allocator@D@2@@4@_N_J_KNVallocator@4@Uadl_serializer@2@V?$vector@EV?$allocator@E@std@@@4@@nlohmann@@QEAA@AEBV01@@Z 0000000140034740 f i ui_control.obj
 0001:00033a50       ??0?$basic_json@Uordered_map@nlohmann@@Vvector@std@@V?$basic_string@DU?$char_traits@D@std@@V?$allocator@D@2@@4@_N_J_KNVallocator@4@Uadl_serializer@2@V?$vector@EV?$allocator@E@std@@@4@@nlohmann@@QEAA@V?$initializer_list@V?$json_ref@V?$basic_json@Uordered_map@nlohmann@@Vvector@std@@V?$basic_string@DU?$char_traits@D@std@@V?$allocator@D@2@@4@_N_J_KNVallocator@4@Uadl_serializer@2@V?$vector@EV?$allocator@E@std@@@4@@nlohmann@@@detail@nlohmann@@@std@@_NW4value_t@detail@1@@Z 0000000140034a50 f i ui_control.obj
 0001:00033cf0       ??0?$basic_string@DU?$char_traits@D@std@@V?$allocator@D@2@@std@@QEAA@U_String_constructor_concat_tag@1@AEAV01@1@Z 0000000140034cf0 f i ui_control.obj
 0001:00033ea0       ??0?$basic_string@DU?$char_traits@D@std@@V?$allocator@D@2@@std@@QEAA@_KD@Z 0000000140034ea0 f i ui_control.obj
 0001:00033f80       ??0?$json_ref@V?$basic_json@Uordered_map@nlohmann@@Vvector@std@@V?$basic_string@DU?$char_traits@D@std@@V?$allocator@D@2@@4@_N_J_KNVallocator@4@Uadl_serializer@2@V?$vector@EV?$allocator@E@std@@@4@@nlohmann@@@detail@nlohmann@@QEAA@V?$initializer_list@V?$json_ref@V?$basic_json@Uordered_map@nlohmann@@Vvector@std@@V?$basic_string@DU?$char_traits@D@std@@V?$allocator@D@2@@4@_N_J_KNVallocator@4@Uadl_serializer@2@V?$vector@EV?$allocator@E@std@@@4@@nlohmann@@@detail@nlohmann@@@std@@@Z 0000000140034f80 f i ui_control.obj
 0001:00033fc0       ??0bad_cast@std@@QEAA@AEBV01@@Z 0000000140034fc0 f i ui_control.obj
 0001:00034000       ??0bad_cast@std@@QEAA@XZ   0000000140035000 f i ui_control.obj
 0001:00034030       ??0exception@detail@nlohmann@@QEAA@AEBV012@@Z 0000000140035030 f i ui_control.obj
 0001:000340b0       ??0failure@ios_base@std@@QEAA@AEBV012@@Z 00000001400350b0 f i ui_control.obj
 0001:00034110       ??0failure@ios_base@std@@QEAA@PEBDAEBVerror_code@2@@Z 0000000140035110 f i ui_control.obj
 0001:00034210       ??0invalid_iterator@detail@nlohmann@@QEAA@AEBV012@@Z 0000000140035210 f i ui_control.obj
 0001:00034240       ??0json_value@?$basic_json@Uordered_map@nlohmann@@Vvector@std@@V?$basic_string@DU?$char_traits@D@std@@V?$allocator@D@2@@4@_N_J_KNVallocator@4@Uadl_serializer@2@V?$vector@EV?$allocator@E@std@@@4@@nlohmann@@QEAA@W4value_t@detail@2@@Z 0000000140035240 f i ui_control.obj
 0001:00034370       ??0other_error@detail@nlohmann@@QEAA@AEBV012@@Z 0000000140035370 f i ui_control.obj
 0001:000343a0       ??0out_of_range@detail@nlohmann@@QEAA@AEBV012@@Z 00000001400353a0 f i ui_control.obj
 0001:000343d0       ??0parse_error@detail@nlohmann@@QEAA@AEBV012@@Z 00000001400353d0 f i ui_control.obj
 0001:00034410       ??0sentry@?$basic_ostream@DU?$char_traits@D@std@@@std@@QEAA@AEAV12@@Z 0000000140035410 f i ui_control.obj
 0001:00034490       ??0type_error@detail@nlohmann@@QEAA@AEBV012@@Z 0000000140035490 f i ui_control.obj
 0001:000344c0       ??1?$_Func_class@_NHW4parse_event_t@detail@nlohmann@@AEAV?$basic_json@Uordered_map@nlohmann@@Vvector@std@@V?$basic_string@DU?$char_traits@D@std@@V?$allocator@D@2@@4@_N_J_KNVallocator@4@Uadl_serializer@2@V?$vector@EV?$allocator@E@std@@@4@@3@@std@@QEAA@XZ 00000001400354c0 f i ui_control.obj
 0001:000344c0       ??1?$_Func_class@_NHW4parse_event_t@detail@nlohmann@@AEAV?$basic_json@Vmap@std@@Vvector@2@V?$basic_string@DU?$char_traits@D@std@@V?$allocator@D@2@@2@_N_J_KNVallocator@2@Uadl_serializer@nlohmann@@V?$vector@EV?$allocator@E@std@@@2@@3@@std@@QEAA@XZ 00000001400354c0 f i userprofile.obj
 0001:000344c0       ??1?$function@$$A6AXXZ@std@@QEAA@XZ 00000001400354c0 f i update_checker.obj
 0001:000344c0       ??1?$function@$$A6A_NHW4parse_event_t@detail@nlohmann@@AEAV?$basic_json@Uordered_map@nlohmann@@Vvector@std@@V?$basic_string@DU?$char_traits@D@std@@V?$allocator@D@2@@4@_N_J_KNVallocator@4@Uadl_serializer@2@V?$vector@EV?$allocator@E@std@@@4@@3@@Z@std@@QEAA@XZ 00000001400354c0 f i ui_control.obj
 0001:000344c0       ??1?$function@$$A6A_NHW4parse_event_t@detail@nlohmann@@AEAV?$basic_json@Vmap@std@@Vvector@2@V?$basic_string@DU?$char_traits@D@std@@V?$allocator@D@2@@2@_N_J_KNVallocator@2@Uadl_serializer@nlohmann@@V?$vector@EV?$allocator@E@std@@@2@@3@@Z@std@@QEAA@XZ 00000001400354c0 f i userprofile.obj
 0001:000344f0       ??1?$_Tidy_guard@V?$vector@U?$pair@$$CBV?$basic_string@DU?$char_traits@D@std@@V?$allocator@D@2@@std@@V?$basic_json@Uordered_map@nlohmann@@Vvector@std@@V?$basic_string@DU?$char_traits@D@std@@V?$allocator@D@2@@4@_N_J_KNVallocator@4@Uadl_serializer@2@V?$vector@EV?$allocator@E@std@@@4@@nlohmann@@@std@@V?$allocator@U?$pair@$$CBV?$basic_string@DU?$char_traits@D@std@@V?$allocator@D@2@@std@@V?$basic_json@Uordered_map@nlohmann@@Vvector@std@@V?$basic_string@DU?$char_traits@D@std@@V?$allocator@D@2@@4@_N_J_KNVallocator@4@Uadl_serializer@2@V?$vector@EV?$allocator@E@std@@@4@@nlohmann@@@std@@@2@@std@@@std@@QEAA@XZ 00000001400354f0 f i ui_control.obj
 0001:00034500       ??1?$_Tidy_guard@V?$vector@V?$basic_json@Uordered_map@nlohmann@@Vvector@std@@V?$basic_string@DU?$char_traits@D@std@@V?$allocator@D@2@@4@_N_J_KNVallocator@4@Uadl_serializer@2@V?$vector@EV?$allocator@E@std@@@4@@nlohmann@@V?$allocator@V?$basic_json@Uordered_map@nlohmann@@Vvector@std@@V?$basic_string@DU?$char_traits@D@std@@V?$allocator@D@2@@4@_N_J_KNVallocator@4@Uadl_serializer@2@V?$vector@EV?$allocator@E@std@@@4@@nlohmann@@@std@@@std@@@std@@QEAA@XZ 0000000140035500 f i ui_control.obj
 0001:00034510       ??1?$_Uninitialized_backout_al@V?$allocator@U?$pair@$$CBV?$basic_string@DU?$char_traits@D@std@@V?$allocator@D@2@@std@@V?$basic_json@Uordered_map@nlohmann@@Vvector@std@@V?$basic_string@DU?$char_traits@D@std@@V?$allocator@D@2@@4@_N_J_KNVallocator@4@Uadl_serializer@2@V?$vector@EV?$allocator@E@std@@@4@@nlohmann@@@std@@@std@@@std@@QEAA@XZ 0000000140035510 f i ui_control.obj
 0001:00034560       ??1?$_Uninitialized_backout_al@V?$allocator@V?$basic_json@Uordered_map@nlohmann@@Vvector@std@@V?$basic_string@DU?$char_traits@D@std@@V?$allocator@D@2@@4@_N_J_KNVallocator@4@Uadl_serializer@2@V?$vector@EV?$allocator@E@std@@@4@@nlohmann@@@std@@@std@@QEAA@XZ 0000000140035560 f i ui_control.obj
 0001:000345a0       ??1?$_Yarn@D@std@@QEAA@XZ  00000001400355a0 f i ui_control.obj
 0001:000345a0       ??1?$_Yarn@_W@std@@QEAA@XZ 00000001400355a0 f i ui_control.obj
 0001:000345d0       ??1?$basic_filebuf@DU?$char_traits@D@std@@@std@@UEAA@XZ 00000001400355d0 f i ui_control.obj
 0001:00034730       ??1?$basic_ios@DU?$char_traits@D@std@@@std@@UEAA@XZ 0000000140035730 f i ui_control.obj
 0001:00034750       ??1?$basic_istream@DU?$char_traits@D@std@@@std@@UEAA@XZ 0000000140035750 f i ui_control.obj
 0001:00034780       ??1?$basic_json@Uordered_map@nlohmann@@Vvector@std@@V?$basic_string@DU?$char_traits@D@std@@V?$allocator@D@2@@4@_N_J_KNVallocator@4@Uadl_serializer@2@V?$vector@EV?$allocator@E@std@@@4@@nlohmann@@QEAA@XZ 0000000140035780 f i ui_control.obj
 0001:00034780       ??1?$json_ref@V?$basic_json@Uordered_map@nlohmann@@Vvector@std@@V?$basic_string@DU?$char_traits@D@std@@V?$allocator@D@2@@4@_N_J_KNVallocator@4@Uadl_serializer@2@V?$vector@EV?$allocator@E@std@@@4@@nlohmann@@@detail@nlohmann@@QEAA@XZ 0000000140035780 f i ui_control.obj
 0001:00034790       ??1?$basic_ostream@DU?$char_traits@D@std@@@std@@UEAA@XZ 0000000140035790 f i ui_control.obj
 0001:000347c0       ??1?$com_ptr_t@UIRegisteredTask@@Uerr_exception_policy@wil@@@wil@@QEAA@XZ 00000001400357c0 f i ui_control.obj
 0001:000347c0       ??1?$com_ptr_t@UIRunningTask@@Uerr_exception_policy@wil@@@wil@@QEAA@XZ 00000001400357c0 f i ui_control.obj
 0001:000347c0       ??1?$com_ptr_t@UITaskFolder@@Uerr_exception_policy@wil@@@wil@@QEAA@XZ 00000001400357c0 f i ui_control.obj
 0001:000347c0       ??1?$com_ptr_t@UITaskService@@Uerr_exception_policy@wil@@@wil@@QEAA@XZ 00000001400357c0 f i ui_control.obj
 0001:000347e0       ??1?$iteration_proxy_value@V?$iter_impl@$$CBV?$basic_json@Uordered_map@nlohmann@@Vvector@std@@V?$basic_string@DU?$char_traits@D@std@@V?$allocator@D@2@@4@_N_J_KNVallocator@4@Uadl_serializer@2@V?$vector@EV?$allocator@E@std@@@4@@nlohmann@@@detail@nlohmann@@@detail@nlohmann@@QEAA@XZ 00000001400357e0 f i ui_control.obj
 0001:000347e0       ??1?$iteration_proxy_value@V?$iter_impl@$$CBV?$basic_json@Vmap@std@@Vvector@2@V?$basic_string@DU?$char_traits@D@std@@V?$allocator@D@2@@2@_N_J_KNVallocator@2@Uadl_serializer@nlohmann@@V?$vector@EV?$allocator@E@std@@@2@@nlohmann@@@detail@nlohmann@@@detail@nlohmann@@QEAA@XZ 00000001400357e0 f i userprofile.obj
 0001:00034800       ??1?$json_sax_dom_callback_parser@V?$basic_json@Uordered_map@nlohmann@@Vvector@std@@V?$basic_string@DU?$char_traits@D@std@@V?$allocator@D@2@@4@_N_J_KNVallocator@4@Uadl_serializer@2@V?$vector@EV?$allocator@E@std@@@4@@nlohmann@@@detail@nlohmann@@QEAA@XZ 0000000140035800 f i ui_control.obj
 0001:00034870       ??1?$json_sax_dom_parser@V?$basic_json@Uordered_map@nlohmann@@Vvector@std@@V?$basic_string@DU?$char_traits@D@std@@V?$allocator@D@2@@4@_N_J_KNVallocator@4@Uadl_serializer@2@V?$vector@EV?$allocator@E@std@@@4@@nlohmann@@@detail@nlohmann@@QEAA@XZ 0000000140035870 f i ui_control.obj
 0001:00034870       ??1?$json_sax_dom_parser@V?$basic_json@Vmap@std@@Vvector@2@V?$basic_string@DU?$char_traits@D@std@@V?$allocator@D@2@@2@_N_J_KNVallocator@2@Uadl_serializer@nlohmann@@V?$vector@EV?$allocator@E@std@@@2@@nlohmann@@@detail@nlohmann@@QEAA@XZ 0000000140035870 f i userprofile.obj
 0001:00034880       ??1?$lexer@V?$basic_json@Uordered_map@nlohmann@@Vvector@std@@V?$basic_string@DU?$char_traits@D@std@@V?$allocator@D@2@@4@_N_J_KNVallocator@4@Uadl_serializer@2@V?$vector@EV?$allocator@E@std@@@4@@nlohmann@@Vinput_stream_adapter@detail@2@@detail@nlohmann@@QEAA@XZ 0000000140035880 f i ui_control.obj
 0001:00034880       ??1?$lexer@V?$basic_json@Vmap@std@@Vvector@2@V?$basic_string@DU?$char_traits@D@std@@V?$allocator@D@2@@2@_N_J_KNVallocator@2@Uadl_serializer@nlohmann@@V?$vector@EV?$allocator@E@std@@@2@@nlohmann@@Vinput_stream_adapter@detail@2@@detail@nlohmann@@QEAA@XZ 0000000140035880 f i userprofile.obj
 0001:000348b0       ??1?$parser@V?$basic_json@Uordered_map@nlohmann@@Vvector@std@@V?$basic_string@DU?$char_traits@D@std@@V?$allocator@D@2@@4@_N_J_KNVallocator@4@Uadl_serializer@2@V?$vector@EV?$allocator@E@std@@@4@@nlohmann@@Vinput_stream_adapter@detail@2@@detail@nlohmann@@QEAA@XZ 00000001400358b0 f i ui_control.obj
 0001:000348b0       ??1?$parser@V?$basic_json@Vmap@std@@Vvector@2@V?$basic_string@DU?$char_traits@D@std@@V?$allocator@D@2@@2@_N_J_KNVallocator@2@Uadl_serializer@nlohmann@@V?$vector@EV?$allocator@E@std@@@2@@nlohmann@@Vinput_stream_adapter@detail@2@@detail@nlohmann@@QEAA@XZ 00000001400358b0 f i userprofile.obj
 0001:00034910       ??1?$serializer@V?$basic_json@Uordered_map@nlohmann@@Vvector@std@@V?$basic_string@DU?$char_traits@D@std@@V?$allocator@D@2@@4@_N_J_KNVallocator@4@Uadl_serializer@2@V?$vector@EV?$allocator@E@std@@@4@@nlohmann@@@detail@nlohmann@@QEAA@XZ 0000000140035910 f i ui_control.obj
 0001:00034910       ??1?$serializer@V?$basic_json@Vmap@std@@Vvector@2@V?$basic_string@DU?$char_traits@D@std@@V?$allocator@D@2@@2@_N_J_KNVallocator@2@Uadl_serializer@nlohmann@@V?$vector@EV?$allocator@E@std@@@2@@nlohmann@@@detail@nlohmann@@QEAA@XZ 0000000140035910 f i userprofile.obj
 0001:00034970       ??1?$unique_any_t@V?$unique_storage@U?$resource_policy@PEA_WP6AXPEA_W@Z$1?SysFreeString@@YAX0@ZU?$integral_constant@_K$0A@@wistd@@PEA_WPEA_W$0A@$$T@details@wil@@@details@wil@@@wil@@QEAA@XZ 0000000140035970 f i ui_control.obj
 0001:00034980       ??1?$unique_ptr@U?$ordered_map@V?$basic_string@DU?$char_traits@D@std@@V?$allocator@D@2@@std@@V?$basic_json@Uordered_map@nlohmann@@Vvector@std@@V?$basic_string@DU?$char_traits@D@std@@V?$allocator@D@2@@4@_N_J_KNVallocator@4@Uadl_serializer@2@V?$vector@EV?$allocator@E@std@@@4@@nlohmann@@U?$less@X@2@V?$allocator@U?$pair@$$CBV?$basic_string@DU?$char_traits@D@std@@V?$allocator@D@2@@std@@V?$basic_json@Uordered_map@nlohmann@@Vvector@std@@V?$basic_string@DU?$char_traits@D@std@@V?$allocator@D@2@@4@_N_J_KNVallocator@4@Uadl_serializer@2@V?$vector@EV?$allocator@E@std@@@4@@nlohmann@@@std@@@2@@nlohmann@@V<lambda_1>@?1???$create@U?$ordered_map@V?$basic_string@DU?$char_traits@D@std@@V?$allocator@D@2@@std@@V?$basic_json@Uordered_map@nlohmann@@Vvector@std@@V?$basic_string@DU?$char_traits@D@std@@V?$allocator@D@2@@4@_N_J_KNVallocator@4@Uadl_serializer@2@V?$vector@EV?$allocator@E@std@@@4@@nlohmann@@U?$less@X@2@V?$allocator@U?$pair@$$CBV?$basic_string@DU?$char_traits@D@std@@V?$allocator@D@2@@std@@V?$basic_json@Uordered_map@nlohmann@@Vvector@std@@V?$basic_string@DU?$char_traits@D@std@@V?$allocator@D@2@@4@_N_J_KNVallocator@4@Uadl_serializer@2@V?$vector@EV?$allocator@E@std@@@4@@nlohmann@@@std@@@2@@nlohmann@@AEBU12@@?$basic_json@Uordered_map@nlohmann@@Vvector@std@@V?$basic_string@DU?$char_traits@D@std@@V?$allocator@D@2@@4@_N_J_KNVallocator@4@Uadl_serializer@2@V?$vector@EV?$allocator@E@std@@@4@@2@CAPEAU12@AEBU12@@Z@@std@@QEAA@XZ 0000000140035980 f i ui_control.obj
 0001:00034980       ??1?$unique_ptr@V?$vector@V?$basic_json@Uordered_map@nlohmann@@Vvector@std@@V?$basic_string@DU?$char_traits@D@std@@V?$allocator@D@2@@4@_N_J_KNVallocator@4@Uadl_serializer@2@V?$vector@EV?$allocator@E@std@@@4@@nlohmann@@V?$allocator@V?$basic_json@Uordered_map@nlohmann@@Vvector@std@@V?$basic_string@DU?$char_traits@D@std@@V?$allocator@D@2@@4@_N_J_KNVallocator@4@Uadl_serializer@2@V?$vector@EV?$allocator@E@std@@@4@@nlohmann@@@std@@@std@@V<lambda_1>@?1???$create@V?$vector@V?$basic_json@Uordered_map@nlohmann@@Vvector@std@@V?$basic_string@DU?$char_traits@D@std@@V?$allocator@D@2@@4@_N_J_KNVallocator@4@Uadl_serializer@2@V?$vector@EV?$allocator@E@std@@@4@@nlohmann@@V?$allocator@V?$basic_json@Uordered_map@nlohmann@@Vvector@std@@V?$basic_string@DU?$char_traits@D@std@@V?$allocator@D@2@@4@_N_J_KNVallocator@4@Uadl_serializer@2@V?$vector@EV?$allocator@E@std@@@4@@nlohmann@@@std@@@std@@AEBV12@@?$basic_json@Uordered_map@nlohmann@@Vvector@std@@V?$basic_string@DU?$char_traits@D@std@@V?$allocator@D@2@@4@_N_J_KNVallocator@4@Uadl_serializer@2@V?$vector@EV?$allocator@E@std@@@4@@nlohmann@@CAPEAV12@AEBV12@@Z@@std@@QEAA@XZ 0000000140035980 f i ui_control.obj
 0001:00034980       ??1?$unique_ptr@V?$vector@V?$basic_json@Uordered_map@nlohmann@@Vvector@std@@V?$basic_string@DU?$char_traits@D@std@@V?$allocator@D@2@@4@_N_J_KNVallocator@4@Uadl_serializer@2@V?$vector@EV?$allocator@E@std@@@4@@nlohmann@@V?$allocator@V?$basic_json@Uordered_map@nlohmann@@Vvector@std@@V?$basic_string@DU?$char_traits@D@std@@V?$allocator@D@2@@4@_N_J_KNVallocator@4@Uadl_serializer@2@V?$vector@EV?$allocator@E@std@@@4@@nlohmann@@@std@@@std@@V<lambda_1>@?1???$create@V?$vector@V?$basic_json@Uordered_map@nlohmann@@Vvector@std@@V?$basic_string@DU?$char_traits@D@std@@V?$allocator@D@2@@4@_N_J_KNVallocator@4@Uadl_serializer@2@V?$vector@EV?$allocator@E@std@@@4@@nlohmann@@V?$allocator@V?$basic_json@Uordered_map@nlohmann@@Vvector@std@@V?$basic_string@DU?$char_traits@D@std@@V?$allocator@D@2@@4@_N_J_KNVallocator@4@Uadl_serializer@2@V?$vector@EV?$allocator@E@std@@@4@@nlohmann@@@std@@@std@@PEBV?$json_ref@V?$basic_json@Uordered_map@nlohmann@@Vvector@std@@V?$basic_string@DU?$char_traits@D@std@@V?$allocator@D@2@@4@_N_J_KNVallocator@4@Uadl_serializer@2@V?$vector@EV?$allocator@E@std@@@4@@nlohmann@@@detail@nlohmann@@PEBV345@@?$basic_json@Uordered_map@nlohmann@@Vvector@std@@V?$basic_string@DU?$char_traits@D@std@@V?$allocator@D@2@@4@_N_J_KNVallocator@4@Uadl_serializer@2@V?$vector@EV?$allocator@E@std@@@4@@nlohmann@@CAPEAV12@$$QEAPEBV?$json_ref@V?$basic_json@Uordered_map@nlohmann@@Vvector@std@@V?$basic_string@DU?$char_traits@D@std@@V?$allocator@D@2@@4@_N_J_KNVallocator@4@Uadl_serializer@2@V?$vector@EV?$allocator@E@std@@@4@@nlohmann@@@detail@5@0@Z@@std@@QEAA@XZ 0000000140035980 f i ui_control.obj
 0001:00034980       ??1?$unique_ptr@V?$vector@V?$basic_json@Vmap@std@@Vvector@2@V?$basic_string@DU?$char_traits@D@std@@V?$allocator@D@2@@2@_N_J_KNVallocator@2@Uadl_serializer@nlohmann@@V?$vector@EV?$allocator@E@std@@@2@@nlohmann@@V?$allocator@V?$basic_json@Vmap@std@@Vvector@2@V?$basic_string@DU?$char_traits@D@std@@V?$allocator@D@2@@2@_N_J_KNVallocator@2@Uadl_serializer@nlohmann@@V?$vector@EV?$allocator@E@std@@@2@@nlohmann@@@std@@@std@@V<lambda_1>@?1???$create@V?$vector@V?$basic_json@Vmap@std@@Vvector@2@V?$basic_string@DU?$char_traits@D@std@@V?$allocator@D@2@@2@_N_J_KNVallocator@2@Uadl_serializer@nlohmann@@V?$vector@EV?$allocator@E@std@@@2@@nlohmann@@V?$allocator@V?$basic_json@Vmap@std@@Vvector@2@V?$basic_string@DU?$char_traits@D@std@@V?$allocator@D@2@@2@_N_J_KNVallocator@2@Uadl_serializer@nlohmann@@V?$vector@EV?$allocator@E@std@@@2@@nlohmann@@@std@@@std@@AEBV12@@?$basic_json@Vmap@std@@Vvector@2@V?$basic_string@DU?$char_traits@D@std@@V?$allocator@D@2@@2@_N_J_KNVallocator@2@Uadl_serializer@nlohmann@@V?$vector@EV?$allocator@E@std@@@2@@nlohmann@@CAPEAV12@AEBV12@@Z@@std@@QEAA@XZ 0000000140035980 f i userprofile.obj
 0001:00034980       ??1?$unique_ptr@V?$vector@V?$basic_json@Vmap@std@@Vvector@2@V?$basic_string@DU?$char_traits@D@std@@V?$allocator@D@2@@2@_N_J_KNVallocator@2@Uadl_serializer@nlohmann@@V?$vector@EV?$allocator@E@std@@@2@@nlohmann@@V?$allocator@V?$basic_json@Vmap@std@@Vvector@2@V?$basic_string@DU?$char_traits@D@std@@V?$allocator@D@2@@2@_N_J_KNVallocator@2@Uadl_serializer@nlohmann@@V?$vector@EV?$allocator@E@std@@@2@@nlohmann@@@std@@@std@@V<lambda_1>@?1???$create@V?$vector@V?$basic_json@Vmap@std@@Vvector@2@V?$basic_string@DU?$char_traits@D@std@@V?$allocator@D@2@@2@_N_J_KNVallocator@2@Uadl_serializer@nlohmann@@V?$vector@EV?$allocator@E@std@@@2@@nlohmann@@V?$allocator@V?$basic_json@Vmap@std@@Vvector@2@V?$basic_string@DU?$char_traits@D@std@@V?$allocator@D@2@@2@_N_J_KNVallocator@2@Uadl_serializer@nlohmann@@V?$vector@EV?$allocator@E@std@@@2@@nlohmann@@@std@@@std@@PEBV?$json_ref@V?$basic_json@Vmap@std@@Vvector@2@V?$basic_string@DU?$char_traits@D@std@@V?$allocator@D@2@@2@_N_J_KNVallocator@2@Uadl_serializer@nlohmann@@V?$vector@EV?$allocator@E@std@@@2@@nlohmann@@@detail@nlohmann@@PEBV345@@?$basic_json@Vmap@std@@Vvector@2@V?$basic_string@DU?$char_traits@D@std@@V?$allocator@D@2@@2@_N_J_KNVallocator@2@Uadl_serializer@nlohmann@@V?$vector@EV?$allocator@E@std@@@2@@nlohmann@@CAPEAV12@$$QEAPEBV?$json_ref@V?$basic_json@Vmap@std@@Vvector@2@V?$basic_string@DU?$char_traits@D@std@@V?$allocator@D@2@@2@_N_J_KNVallocator@2@Uadl_serializer@nlohmann@@V?$vector@EV?$allocator@E@std@@@2@@nlohmann@@@detail@5@0@Z@@std@@QEAA@XZ 0000000140035980 f i userprofile.obj
 0001:000349a0       ??1?$unique_ptr@V?$basic_string@DU?$char_traits@D@std@@V?$allocator@D@2@@std@@V<lambda_1>@?1???$create@V?$basic_string@DU?$char_traits@D@std@@V?$allocator@D@2@@std@@AEAY00$$CBD@?$basic_json@Uordered_map@nlohmann@@Vvector@std@@V?$basic_string@DU?$char_traits@D@std@@V?$allocator@D@2@@4@_N_J_KNVallocator@4@Uadl_serializer@2@V?$vector@EV?$allocator@E@std@@@4@@nlohmann@@CAPEAV12@AEAY00$$CBD@Z@@std@@QEAA@XZ 00000001400359a0 f i ui_control.obj
 0001:000349a0       ??1?$unique_ptr@V?$basic_string@DU?$char_traits@D@std@@V?$allocator@D@2@@std@@V<lambda_1>@?1???$create@V?$basic_string@DU?$char_traits@D@std@@V?$allocator@D@2@@std@@AEAY00$$CBD@?$basic_json@Vmap@std@@Vvector@2@V?$basic_string@DU?$char_traits@D@std@@V?$allocator@D@2@@2@_N_J_KNVallocator@2@Uadl_serializer@nlohmann@@V?$vector@EV?$allocator@E@std@@@2@@nlohmann@@CAPEAV12@AEAY00$$CBD@Z@@std@@QEAA@XZ 00000001400359a0 f i userprofile.obj
 0001:000349a0       ??1?$unique_ptr@V?$basic_string@DU?$char_traits@D@std@@V?$allocator@D@2@@std@@V<lambda_1>@?1???$create@V?$basic_string@DU?$char_traits@D@std@@V?$allocator@D@2@@std@@AEAY03$$CBD@?$basic_json@Uordered_map@nlohmann@@Vvector@std@@V?$basic_string@DU?$char_traits@D@std@@V?$allocator@D@2@@4@_N_J_KNVallocator@4@Uadl_serializer@2@V?$vector@EV?$allocator@E@std@@@4@@nlohmann@@CAPEAV12@AEAY03$$CBD@Z@@std@@QEAA@XZ 00000001400359a0 f i ui_control.obj
 0001:000349a0       ??1?$unique_ptr@V?$basic_string@DU?$char_traits@D@std@@V?$allocator@D@2@@std@@V<lambda_1>@?1???$create@V?$basic_string@DU?$char_traits@D@std@@V?$allocator@D@2@@std@@AEAY04$$CBD@?$basic_json@Uordered_map@nlohmann@@Vvector@std@@V?$basic_string@DU?$char_traits@D@std@@V?$allocator@D@2@@4@_N_J_KNVallocator@4@Uadl_serializer@2@V?$vector@EV?$allocator@E@std@@@4@@nlohmann@@CAPEAV12@AEAY04$$CBD@Z@@std@@QEAA@XZ 00000001400359a0 f i ui_control.obj
 0001:000349a0       ??1?$unique_ptr@V?$basic_string@DU?$char_traits@D@std@@V?$allocator@D@2@@std@@V<lambda_1>@?1???$create@V?$basic_string@DU?$char_traits@D@std@@V?$allocator@D@2@@std@@AEAY05$$CBD@?$basic_json@Vmap@std@@Vvector@2@V?$basic_string@DU?$char_traits@D@std@@V?$allocator@D@2@@2@_N_J_KNVallocator@2@Uadl_serializer@nlohmann@@V?$vector@EV?$allocator@E@std@@@2@@nlohmann@@CAPEAV12@AEAY05$$CBD@Z@@std@@QEAA@XZ 00000001400359a0 f i userprofile.obj
 0001:000349a0       ??1?$unique_ptr@V?$basic_string@DU?$char_traits@D@std@@V?$allocator@D@2@@std@@V<lambda_1>@?1???$create@V?$basic_string@DU?$char_traits@D@std@@V?$allocator@D@2@@std@@AEAY07$$CBD@?$basic_json@Uordered_map@nlohmann@@Vvector@std@@V?$basic_string@DU?$char_traits@D@std@@V?$allocator@D@2@@4@_N_J_KNVallocator@4@Uadl_serializer@2@V?$vector@EV?$allocator@E@std@@@4@@nlohmann@@CAPEAV12@AEAY07$$CBD@Z@@std@@QEAA@XZ 00000001400359a0 f i ui_control.obj
 0001:000349a0       ??1?$unique_ptr@V?$basic_string@DU?$char_traits@D@std@@V?$allocator@D@2@@std@@V<lambda_1>@?1???$create@V?$basic_string@DU?$char_traits@D@std@@V?$allocator@D@2@@std@@AEAY0BB@$$CBD@?$basic_json@Uordered_map@nlohmann@@Vvector@std@@V?$basic_string@DU?$char_traits@D@std@@V?$allocator@D@2@@4@_N_J_KNVallocator@4@Uadl_serializer@2@V?$vector@EV?$allocator@E@std@@@4@@nlohmann@@CAPEAV12@AEAY0BB@$$CBD@Z@@std@@QEAA@XZ 00000001400359a0 f i ui_control.obj
 0001:000349a0       ??1?$unique_ptr@V?$basic_string@DU?$char_traits@D@std@@V?$allocator@D@2@@std@@V<lambda_1>@?1???$create@V?$basic_string@DU?$char_traits@D@std@@V?$allocator@D@2@@std@@AEAY0BE@$$CBD@?$basic_json@Uordered_map@nlohmann@@Vvector@std@@V?$basic_string@DU?$char_traits@D@std@@V?$allocator@D@2@@4@_N_J_KNVallocator@4@Uadl_serializer@2@V?$vector@EV?$allocator@E@std@@@4@@nlohmann@@CAPEAV12@AEAY0BE@$$CBD@Z@@std@@QEAA@XZ 00000001400359a0 f i ui_control.obj
 0001:000349a0       ??1?$unique_ptr@V?$basic_string@DU?$char_traits@D@std@@V?$allocator@D@2@@std@@V<lambda_1>@?1???$create@V?$basic_string@DU?$char_traits@D@std@@V?$allocator@D@2@@std@@AEAY0BG@$$CBD@?$basic_json@Uordered_map@nlohmann@@Vvector@std@@V?$basic_string@DU?$char_traits@D@std@@V?$allocator@D@2@@4@_N_J_KNVallocator@4@Uadl_serializer@2@V?$vector@EV?$allocator@E@std@@@4@@nlohmann@@CAPEAV12@AEAY0BG@$$CBD@Z@@std@@QEAA@XZ 00000001400359a0 f i ui_control.obj
 0001:000349a0       ??1?$unique_ptr@V?$basic_string@DU?$char_traits@D@std@@V?$allocator@D@2@@std@@V<lambda_1>@?1???$create@V?$basic_string@DU?$char_traits@D@std@@V?$allocator@D@2@@std@@AEAY0BH@$$CBD@?$basic_json@Uordered_map@nlohmann@@Vvector@std@@V?$basic_string@DU?$char_traits@D@std@@V?$allocator@D@2@@4@_N_J_KNVallocator@4@Uadl_serializer@2@V?$vector@EV?$allocator@E@std@@@4@@nlohmann@@CAPEAV12@AEAY0BH@$$CBD@Z@@std@@QEAA@XZ 00000001400359a0 f i ui_control.obj
 0001:000349a0       ??1?$unique_ptr@V?$basic_string@DU?$char_traits@D@std@@V?$allocator@D@2@@std@@V<lambda_1>@?1???$create@V?$basic_string@DU?$char_traits@D@std@@V?$allocator@D@2@@std@@AEAY0BI@$$CBD@?$basic_json@Uordered_map@nlohmann@@Vvector@std@@V?$basic_string@DU?$char_traits@D@std@@V?$allocator@D@2@@4@_N_J_KNVallocator@4@Uadl_serializer@2@V?$vector@EV?$allocator@E@std@@@4@@nlohmann@@CAPEAV12@AEAY0BI@$$CBD@Z@@std@@QEAA@XZ 00000001400359a0 f i ui_control.obj
 0001:000349a0       ??1?$unique_ptr@V?$basic_string@DU?$char_traits@D@std@@V?$allocator@D@2@@std@@V<lambda_1>@?1???$create@V?$basic_string@DU?$char_traits@D@std@@V?$allocator@D@2@@std@@AEAY0BJ@$$CBD@?$basic_json@Uordered_map@nlohmann@@Vvector@std@@V?$basic_string@DU?$char_traits@D@std@@V?$allocator@D@2@@4@_N_J_KNVallocator@4@Uadl_serializer@2@V?$vector@EV?$allocator@E@std@@@4@@nlohmann@@CAPEAV12@AEAY0BJ@$$CBD@Z@@std@@QEAA@XZ 00000001400359a0 f i ui_control.obj
 0001:000349a0       ??1?$unique_ptr@V?$basic_string@DU?$char_traits@D@std@@V?$allocator@D@2@@std@@V<lambda_1>@?1???$create@V?$basic_string@DU?$char_traits@D@std@@V?$allocator@D@2@@std@@AEAY0BK@$$CBD@?$basic_json@Uordered_map@nlohmann@@Vvector@std@@V?$basic_string@DU?$char_traits@D@std@@V?$allocator@D@2@@4@_N_J_KNVallocator@4@Uadl_serializer@2@V?$vector@EV?$allocator@E@std@@@4@@nlohmann@@CAPEAV12@AEAY0BK@$$CBD@Z@@std@@QEAA@XZ 00000001400359a0 f i ui_control.obj
 0001:000349a0       ??1?$unique_ptr@V?$basic_string@DU?$char_traits@D@std@@V?$allocator@D@2@@std@@V<lambda_1>@?1???$create@V?$basic_string@DU?$char_traits@D@std@@V?$allocator@D@2@@std@@AEAY0BM@$$CBD@?$basic_json@Uordered_map@nlohmann@@Vvector@std@@V?$basic_string@DU?$char_traits@D@std@@V?$allocator@D@2@@4@_N_J_KNVallocator@4@Uadl_serializer@2@V?$vector@EV?$allocator@E@std@@@4@@nlohmann@@CAPEAV12@AEAY0BM@$$CBD@Z@@std@@QEAA@XZ 00000001400359a0 f i ui_control.obj
 0001:000349a0       ??1?$unique_ptr@V?$basic_string@DU?$char_traits@D@std@@V?$allocator@D@2@@std@@V<lambda_1>@?1???$create@V?$basic_string@DU?$char_traits@D@std@@V?$allocator@D@2@@std@@AEAY0BO@$$CBD@?$basic_json@Uordered_map@nlohmann@@Vvector@std@@V?$basic_string@DU?$char_traits@D@std@@V?$allocator@D@2@@4@_N_J_KNVallocator@4@Uadl_serializer@2@V?$vector@EV?$allocator@E@std@@@4@@nlohmann@@CAPEAV12@AEAY0BO@$$CBD@Z@@std@@QEAA@XZ 00000001400359a0 f i ui_control.obj
 0001:000349a0       ??1?$unique_ptr@V?$basic_string@DU?$char_traits@D@std@@V?$allocator@D@2@@std@@V<lambda_1>@?1???$create@V?$basic_string@DU?$char_traits@D@std@@V?$allocator@D@2@@std@@AEAY0CA@$$CBD@?$basic_json@Uordered_map@nlohmann@@Vvector@std@@V?$basic_string@DU?$char_traits@D@std@@V?$allocator@D@2@@4@_N_J_KNVallocator@4@Uadl_serializer@2@V?$vector@EV?$allocator@E@std@@@4@@nlohmann@@CAPEAV12@AEAY0CA@$$CBD@Z@@std@@QEAA@XZ 00000001400359a0 f i ui_control.obj
 0001:000349a0       ??1?$unique_ptr@V?$basic_string@DU?$char_traits@D@std@@V?$allocator@D@2@@std@@V<lambda_1>@?1???$create@V?$basic_string@DU?$char_traits@D@std@@V?$allocator@D@2@@std@@AEAY0CB@$$CBD@?$basic_json@Uordered_map@nlohmann@@Vvector@std@@V?$basic_string@DU?$char_traits@D@std@@V?$allocator@D@2@@4@_N_J_KNVallocator@4@Uadl_serializer@2@V?$vector@EV?$allocator@E@std@@@4@@nlohmann@@CAPEAV12@AEAY0CB@$$CBD@Z@@std@@QEAA@XZ 00000001400359a0 f i ui_control.obj
 0001:000349a0       ??1?$unique_ptr@V?$basic_string@DU?$char_traits@D@std@@V?$allocator@D@2@@std@@V<lambda_1>@?1???$create@V?$basic_string@DU?$char_traits@D@std@@V?$allocator@D@2@@std@@AEAY0CC@$$CBD@?$basic_json@Uordered_map@nlohmann@@Vvector@std@@V?$basic_string@DU?$char_traits@D@std@@V?$allocator@D@2@@4@_N_J_KNVallocator@4@Uadl_serializer@2@V?$vector@EV?$allocator@E@std@@@4@@nlohmann@@CAPEAV12@AEAY0CC@$$CBD@Z@@std@@QEAA@XZ 00000001400359a0 f i ui_control.obj
 0001:000349a0       ??1?$unique_ptr@V?$basic_string@DU?$char_traits@D@std@@V?$allocator@D@2@@std@@V<lambda_1>@?1???$create@V?$basic_string@DU?$char_traits@D@std@@V?$allocator@D@2@@std@@AEAY0CN@$$CBD@?$basic_json@Uordered_map@nlohmann@@Vvector@std@@V?$basic_string@DU?$char_traits@D@std@@V?$allocator@D@2@@4@_N_J_KNVallocator@4@Uadl_serializer@2@V?$vector@EV?$allocator@E@std@@@4@@nlohmann@@CAPEAV12@AEAY0CN@$$CBD@Z@@std@@QEAA@XZ 00000001400359a0 f i ui_control.obj
 0001:000349a0       ??1?$unique_ptr@V?$basic_string@DU?$char_traits@D@std@@V?$allocator@D@2@@std@@V<lambda_1>@?1???$create@V?$basic_string@DU?$char_traits@D@std@@V?$allocator@D@2@@std@@AEAY0CP@$$CBD@?$basic_json@Uordered_map@nlohmann@@Vvector@std@@V?$basic_string@DU?$char_traits@D@std@@V?$allocator@D@2@@4@_N_J_KNVallocator@4@Uadl_serializer@2@V?$vector@EV?$allocator@E@std@@@4@@nlohmann@@CAPEAV12@AEAY0CP@$$CBD@Z@@std@@QEAA@XZ 00000001400359a0 f i ui_control.obj
 0001:000349a0       ??1?$unique_ptr@V?$basic_string@DU?$char_traits@D@std@@V?$allocator@D@2@@std@@V<lambda_1>@?1???$create@V?$basic_string@DU?$char_traits@D@std@@V?$allocator@D@2@@std@@AEAY0DD@$$CBD@?$basic_json@Uordered_map@nlohmann@@Vvector@std@@V?$basic_string@DU?$char_traits@D@std@@V?$allocator@D@2@@4@_N_J_KNVallocator@4@Uadl_serializer@2@V?$vector@EV?$allocator@E@std@@@4@@nlohmann@@CAPEAV12@AEAY0DD@$$CBD@Z@@std@@QEAA@XZ 00000001400359a0 f i ui_control.obj
 0001:000349a0       ??1?$unique_ptr@V?$basic_string@DU?$char_traits@D@std@@V?$allocator@D@2@@std@@V<lambda_1>@?1???$create@V?$basic_string@DU?$char_traits@D@std@@V?$allocator@D@2@@std@@AEAY0EO@$$CBD@?$basic_json@Uordered_map@nlohmann@@Vvector@std@@V?$basic_string@DU?$char_traits@D@std@@V?$allocator@D@2@@4@_N_J_KNVallocator@4@Uadl_serializer@2@V?$vector@EV?$allocator@E@std@@@4@@nlohmann@@CAPEAV12@AEAY0EO@$$CBD@Z@@std@@QEAA@XZ 00000001400359a0 f i ui_control.obj
 0001:000349a0       ??1?$unique_ptr@V?$basic_string@DU?$char_traits@D@std@@V?$allocator@D@2@@std@@V<lambda_1>@?1???$create@V?$basic_string@DU?$char_traits@D@std@@V?$allocator@D@2@@std@@AEAY0L@$$CBD@?$basic_json@Uordered_map@nlohmann@@Vvector@std@@V?$basic_string@DU?$char_traits@D@std@@V?$allocator@D@2@@4@_N_J_KNVallocator@4@Uadl_serializer@2@V?$vector@EV?$allocator@E@std@@@4@@nlohmann@@CAPEAV12@AEAY0L@$$CBD@Z@@std@@QEAA@XZ 00000001400359a0 f i ui_control.obj
 0001:000349a0       ??1?$unique_ptr@V?$basic_string@DU?$char_traits@D@std@@V?$allocator@D@2@@std@@V<lambda_1>@?1???$create@V?$basic_string@DU?$char_traits@D@std@@V?$allocator@D@2@@std@@AEAY0M@$$CBD@?$basic_json@Uordered_map@nlohmann@@Vvector@std@@V?$basic_string@DU?$char_traits@D@std@@V?$allocator@D@2@@4@_N_J_KNVallocator@4@Uadl_serializer@2@V?$vector@EV?$allocator@E@std@@@4@@nlohmann@@CAPEAV12@AEAY0M@$$CBD@Z@@std@@QEAA@XZ 00000001400359a0 f i ui_control.obj
 0001:000349a0       ??1?$unique_ptr@V?$basic_string@DU?$char_traits@D@std@@V?$allocator@D@2@@std@@V<lambda_1>@?1???$create@V?$basic_string@DU?$char_traits@D@std@@V?$allocator@D@2@@std@@AEAY0N@$$CBD@?$basic_json@Uordered_map@nlohmann@@Vvector@std@@V?$basic_string@DU?$char_traits@D@std@@V?$allocator@D@2@@4@_N_J_KNVallocator@4@Uadl_serializer@2@V?$vector@EV?$allocator@E@std@@@4@@nlohmann@@CAPEAV12@AEAY0N@$$CBD@Z@@std@@QEAA@XZ 00000001400359a0 f i ui_control.obj
 0001:000349a0       ??1?$unique_ptr@V?$basic_string@DU?$char_traits@D@std@@V?$allocator@D@2@@std@@V<lambda_1>@?1???$create@V?$basic_string@DU?$char_traits@D@std@@V?$allocator@D@2@@std@@AEAY0P@$$CBD@?$basic_json@Uordered_map@nlohmann@@Vvector@std@@V?$basic_string@DU?$char_traits@D@std@@V?$allocator@D@2@@4@_N_J_KNVallocator@4@Uadl_serializer@2@V?$vector@EV?$allocator@E@std@@@4@@nlohmann@@CAPEAV12@AEAY0P@$$CBD@Z@@std@@QEAA@XZ 00000001400359a0 f i ui_control.obj
 0001:000349a0       ??1?$unique_ptr@V?$basic_string@DU?$char_traits@D@std@@V?$allocator@D@2@@std@@V<lambda_1>@?1???$create@V?$basic_string@DU?$char_traits@D@std@@V?$allocator@D@2@@std@@AEBV12@@?$basic_json@Uordered_map@nlohmann@@Vvector@std@@V?$basic_string@DU?$char_traits@D@std@@V?$allocator@D@2@@4@_N_J_KNVallocator@4@Uadl_serializer@2@V?$vector@EV?$allocator@E@std@@@4@@nlohmann@@CAPEAV12@AEBV12@@Z@@std@@QEAA@XZ 00000001400359a0 f i ui_control.obj
 0001:000349a0       ??1?$unique_ptr@V?$basic_string@DU?$char_traits@D@std@@V?$allocator@D@2@@std@@V<lambda_1>@?1???$create@V?$basic_string@DU?$char_traits@D@std@@V?$allocator@D@2@@std@@AEBV12@@?$basic_json@Vmap@std@@Vvector@2@V?$basic_string@DU?$char_traits@D@std@@V?$allocator@D@2@@2@_N_J_KNVallocator@2@Uadl_serializer@nlohmann@@V?$vector@EV?$allocator@E@std@@@2@@nlohmann@@CAPEAV12@AEBV12@@Z@@std@@QEAA@XZ 00000001400359a0 f i userprofile.obj
 0001:000349a0       ??1?$unique_ptr@V?$byte_container_with_subtype@V?$vector@EV?$allocator@E@std@@@std@@@nlohmann@@V<lambda_1>@?1???$create@V?$byte_container_with_subtype@V?$vector@EV?$allocator@E@std@@@std@@@nlohmann@@AEBV12@@?$basic_json@Uordered_map@nlohmann@@Vvector@std@@V?$basic_string@DU?$char_traits@D@std@@V?$allocator@D@2@@4@_N_J_KNVallocator@4@Uadl_serializer@2@V?$vector@EV?$allocator@E@std@@@4@@2@CAPEAV12@AEBV12@@Z@@std@@QEAA@XZ 00000001400359a0 f i ui_control.obj
 0001:000349a0       ??1?$unique_ptr@V?$byte_container_with_subtype@V?$vector@EV?$allocator@E@std@@@std@@@nlohmann@@V<lambda_1>@?1???$create@V?$byte_container_with_subtype@V?$vector@EV?$allocator@E@std@@@std@@@nlohmann@@AEBV12@@?$basic_json@Vmap@std@@Vvector@2@V?$basic_string@DU?$char_traits@D@std@@V?$allocator@D@2@@2@_N_J_KNVallocator@2@Uadl_serializer@nlohmann@@V?$vector@EV?$allocator@E@std@@@2@@2@CAPEAV12@AEBV12@@Z@@std@@QEAA@XZ 00000001400359a0 f i userprofile.obj
 0001:000349c0       ??1?$vector@IV?$allocator@I@std@@@std@@QEAA@XZ 00000001400359c0 f i ui_control.obj
 0001:00034a30       ??1?$vector@_NV?$allocator@_N@std@@@std@@QEAA@XZ 0000000140035a30 f i ui_control.obj
 0001:00034a70       ??1_Reallocation_guard@?$vector@U?$pair@$$CBV?$basic_string@DU?$char_traits@D@std@@V?$allocator@D@2@@std@@V?$basic_json@Uordered_map@nlohmann@@Vvector@std@@V?$basic_string@DU?$char_traits@D@std@@V?$allocator@D@2@@4@_N_J_KNVallocator@4@Uadl_serializer@2@V?$vector@EV?$allocator@E@std@@@4@@nlohmann@@@std@@V?$allocator@U?$pair@$$CBV?$basic_string@DU?$char_traits@D@std@@V?$allocator@D@2@@std@@V?$basic_json@Uordered_map@nlohmann@@Vvector@std@@V?$basic_string@DU?$char_traits@D@std@@V?$allocator@D@2@@4@_N_J_KNVallocator@4@Uadl_serializer@2@V?$vector@EV?$allocator@E@std@@@4@@nlohmann@@@std@@@2@@std@@QEAA@XZ 0000000140035a70 f i ui_control.obj
 0001:00034b30       ??1_Reallocation_guard@?$vector@V?$basic_json@Uordered_map@nlohmann@@Vvector@std@@V?$basic_string@DU?$char_traits@D@std@@V?$allocator@D@2@@4@_N_J_KNVallocator@4@Uadl_serializer@2@V?$vector@EV?$allocator@E@std@@@4@@nlohmann@@V?$allocator@V?$basic_json@Uordered_map@nlohmann@@Vvector@std@@V?$basic_string@DU?$char_traits@D@std@@V?$allocator@D@2@@4@_N_J_KNVallocator@4@Uadl_serializer@2@V?$vector@EV?$allocator@E@std@@@4@@nlohmann@@@std@@@std@@QEAA@XZ 0000000140035b30 f i ui_control.obj
 0001:00034be0       ??1_Sentry_base@?$basic_ostream@DU?$char_traits@D@std@@@std@@QEAA@XZ 0000000140035be0 f i ui_control.obj
 0001:00034c10       ??1_bstr_t@@QEAA@XZ        0000000140035c10 f i ui_control.obj
 0001:00034c80       ??1_variant_t@@QEAA@XZ     0000000140035c80 f i ui_control.obj
 0001:00034c90       ??1input_stream_adapter@detail@nlohmann@@QEAA@XZ 0000000140035c90 f i ui_control.obj
 0001:00034d20       ??1invalid_iterator@detail@nlohmann@@UEAA@XZ 0000000140035d20 f i ui_control.obj
 0001:00034d20       ??1other_error@detail@nlohmann@@UEAA@XZ 0000000140035d20 f i ui_control.obj
 0001:00034d20       ??1out_of_range@detail@nlohmann@@UEAA@XZ 0000000140035d20 f i ui_control.obj
 0001:00034d20       ??1parse_error@detail@nlohmann@@UEAA@XZ 0000000140035d20 f i ui_control.obj
 0001:00034d20       ??1type_error@detail@nlohmann@@UEAA@XZ 0000000140035d20 f i ui_control.obj
 0001:00034d60       ??1locale@std@@QEAA@XZ     0000000140035d60 f i ui_control.obj
 0001:00034da0       ??1sentry@?$basic_ostream@DU?$char_traits@D@std@@@std@@QEAA@XZ 0000000140035da0 f i ui_control.obj
 0001:00034de0       ??4?$basic_json@Uordered_map@nlohmann@@Vvector@std@@V?$basic_string@DU?$char_traits@D@std@@V?$allocator@D@2@@4@_N_J_KNVallocator@4@Uadl_serializer@2@V?$vector@EV?$allocator@E@std@@@4@@nlohmann@@QEAAAEAV01@V01@@Z 0000000140035de0 f i ui_control.obj
 0001:00034e20       ??6nlohmann@@YAAEAV?$basic_ostream@DU?$char_traits@D@std@@@std@@AEAV12@AEBV?$basic_json@Uordered_map@nlohmann@@Vvector@std@@V?$basic_string@DU?$char_traits@D@std@@V?$allocator@D@2@@4@_N_J_KNVallocator@4@Uadl_serializer@2@V?$vector@EV?$allocator@E@std@@@4@@0@@Z 0000000140035e20 f i ui_control.obj
 0001:00035110       ??8nlohmann@@YA_NAEBV?$basic_json@Uordered_map@nlohmann@@Vvector@std@@V?$basic_string@DU?$char_traits@D@std@@V?$allocator@D@2@@4@_N_J_KNVallocator@4@Uadl_serializer@2@V?$vector@EV?$allocator@E@std@@@4@@0@0@Z 0000000140036110 f i ui_control.obj
 0001:000354b0       ??9?$iter_impl@$$CBV?$basic_json@Uordered_map@nlohmann@@Vvector@std@@V?$basic_string@DU?$char_traits@D@std@@V?$allocator@D@2@@4@_N_J_KNVallocator@4@Uadl_serializer@2@V?$vector@EV?$allocator@E@std@@@4@@nlohmann@@@detail@nlohmann@@QEBA_NAEBV012@@Z 00000001400364b0 f i ui_control.obj
 0001:000354b0       ??9?$iter_impl@$$CBV?$basic_json@Vmap@std@@Vvector@2@V?$basic_string@DU?$char_traits@D@std@@V?$allocator@D@2@@2@_N_J_KNVallocator@2@Uadl_serializer@nlohmann@@V?$vector@EV?$allocator@E@std@@@2@@nlohmann@@@detail@nlohmann@@QEBA_NAEBV012@@Z 00000001400364b0 f i userprofile.obj
 0001:00035550       ??A?$basic_string@DU?$char_traits@D@std@@V?$allocator@D@2@@std@@QEAAAEAD_K@Z 0000000140036550 f i ui_control.obj
 0001:00035570       ??A?$ordered_map@V?$basic_string@DU?$char_traits@D@std@@V?$allocator@D@2@@std@@V?$basic_json@Uordered_map@nlohmann@@Vvector@std@@V?$basic_string@DU?$char_traits@D@std@@V?$allocator@D@2@@4@_N_J_KNVallocator@4@Uadl_serializer@2@V?$vector@EV?$allocator@E@std@@@4@@nlohmann@@U?$less@X@2@V?$allocator@U?$pair@$$CBV?$basic_string@DU?$char_traits@D@std@@V?$allocator@D@2@@std@@V?$basic_json@Uordered_map@nlohmann@@Vvector@std@@V?$basic_string@DU?$char_traits@D@std@@V?$allocator@D@2@@4@_N_J_KNVallocator@4@Uadl_serializer@2@V?$vector@EV?$allocator@E@std@@@4@@nlohmann@@@std@@@2@@nlohmann@@QEAAAEAV?$basic_json@Uordered_map@nlohmann@@Vvector@std@@V?$basic_string@DU?$char_traits@D@std@@V?$allocator@D@2@@4@_N_J_KNVallocator@4@Uadl_serializer@2@V?$vector@EV?$allocator@E@std@@@4@@1@AEBV?$basic_string@DU?$char_traits@D@std@@V?$allocator@D@2@@std@@@Z 0000000140036570 f i ui_control.obj
 0001:000355d0       ??D?$iter_impl@$$CBV?$basic_json@Uordered_map@nlohmann@@Vvector@std@@V?$basic_string@DU?$char_traits@D@std@@V?$allocator@D@2@@4@_N_J_KNVallocator@4@Uadl_serializer@2@V?$vector@EV?$allocator@E@std@@@4@@nlohmann@@@detail@nlohmann@@QEBAAEBV?$basic_json@Uordered_map@nlohmann@@Vvector@std@@V?$basic_string@DU?$char_traits@D@std@@V?$allocator@D@2@@4@_N_J_KNVallocator@4@Uadl_serializer@2@V?$vector@EV?$allocator@E@std@@@4@@2@XZ 00000001400365d0 f i ui_control.obj
 0001:000356b0       ??H?$_Vb_iterator@U?$_Wrap_alloc@V?$allocator@I@std@@@std@@@std@@QEBA?AV01@_J@Z 00000001400366b0 f i ui_control.obj
 0001:000359f0       ??Y?$_Vb_const_iterator@U?$_Wrap_alloc@V?$allocator@I@std@@@std@@@std@@QEAAAEAV01@_J@Z 00000001400369f0 f i ui_control.obj
 0001:00035a60       ??_D?$basic_ifstream@DU?$char_traits@D@std@@@std@@QEAAXXZ 0000000140036a60 f i ui_control.obj
 0001:00035ae0       ??_D?$basic_ofstream@DU?$char_traits@D@std@@@std@@QEAAXXZ 0000000140036ae0 f i ui_control.obj
 0001:00035b54       ??_E?$basic_ifstream@DU?$char_traits@D@std@@@std@@$4PPPPPPPM@A@EAAPEAXI@Z 0000000140036b54 f i ui_control.obj
 0001:00035b60       ??_E?$basic_istream@DU?$char_traits@D@std@@@std@@$4PPPPPPPM@A@EAAPEAXI@Z 0000000140036b60 f i ui_control.obj
 0001:00035b6c       ??_E?$basic_ofstream@DU?$char_traits@D@std@@@std@@$4PPPPPPPM@A@EAAPEAXI@Z 0000000140036b6c f i ui_control.obj
 0001:00035b78       ??_E?$basic_ostream@DU?$char_traits@D@std@@@std@@$4PPPPPPPM@A@EAAPEAXI@Z 0000000140036b78 f i ui_control.obj
 0001:00035b90       ??_E?$_Ref_count_obj2@V?$output_stream_adapter@D@detail@nlohmann@@@std@@UEAAPEAXI@Z 0000000140036b90 f i ui_control.obj
 0001:00035b90       ??_G?$_Ref_count_obj2@V?$output_stream_adapter@D@detail@nlohmann@@@std@@UEAAPEAXI@Z 0000000140036b90 f i ui_control.obj
 0001:00035bc0       ??_E?$basic_filebuf@DU?$char_traits@D@std@@@std@@UEAAPEAXI@Z 0000000140036bc0 f i ui_control.obj
 0001:00035bc0       ??_G?$basic_filebuf@DU?$char_traits@D@std@@@std@@UEAAPEAXI@Z 0000000140036bc0 f i ui_control.obj
 0001:00035c00       ??_E?$basic_ifstream@DU?$char_traits@D@std@@@std@@UEAAPEAXI@Z 0000000140036c00 f i ui_control.obj
 0001:00035c00       ??_G?$basic_ifstream@DU?$char_traits@D@std@@@std@@UEAAPEAXI@Z 0000000140036c00 f i ui_control.obj
 0001:00035c40       ??_E?$basic_ios@DU?$char_traits@D@std@@@std@@UEAAPEAXI@Z 0000000140036c40 f i ui_control.obj
 0001:00035c40       ??_G?$basic_ios@DU?$char_traits@D@std@@@std@@UEAAPEAXI@Z 0000000140036c40 f i ui_control.obj
 0001:00035c80       ??_E?$basic_istream@DU?$char_traits@D@std@@@std@@UEAAPEAXI@Z 0000000140036c80 f i ui_control.obj
 0001:00035c80       ??_G?$basic_istream@DU?$char_traits@D@std@@@std@@UEAAPEAXI@Z 0000000140036c80 f i ui_control.obj
 0001:00035cf0       ??_E?$basic_ofstream@DU?$char_traits@D@std@@@std@@UEAAPEAXI@Z 0000000140036cf0 f i ui_control.obj
 0001:00035cf0       ??_G?$basic_ofstream@DU?$char_traits@D@std@@@std@@UEAAPEAXI@Z 0000000140036cf0 f i ui_control.obj
 0001:00035d30       ??_E?$basic_ostream@DU?$char_traits@D@std@@@std@@UEAAPEAXI@Z 0000000140036d30 f i ui_control.obj
 0001:00035d30       ??_G?$basic_ostream@DU?$char_traits@D@std@@@std@@UEAAPEAXI@Z 0000000140036d30 f i ui_control.obj
 0001:00035da0       ??_E?$basic_streambuf@DU?$char_traits@D@std@@@std@@UEAAPEAXI@Z 0000000140036da0 f i ui_control.obj
 0001:00035da0       ??_G?$basic_streambuf@DU?$char_traits@D@std@@@std@@UEAAPEAXI@Z 0000000140036da0 f i ui_control.obj
 0001:00035e20       ??_E?$codecvt@DDU_Mbstatet@@@std@@MEAAPEAXI@Z 0000000140036e20 f i ui_control.obj
 0001:00035e20       ??_G?$codecvt@DDU_Mbstatet@@@std@@MEAAPEAXI@Z 0000000140036e20 f i ui_control.obj
 0001:00035e50       ??_E?$ctype@D@std@@MEAAPEAXI@Z 0000000140036e50 f i ui_control.obj
 0001:00035e50       ??_G?$ctype@D@std@@MEAAPEAXI@Z 0000000140036e50 f i ui_control.obj
 0001:00035ec0       ??_E_Facet_base@std@@UEAAPEAXI@Z 0000000140036ec0 f i ui_control.obj
 0001:00035ec0       ??_G_Facet_base@std@@UEAAPEAXI@Z 0000000140036ec0 f i ui_control.obj
 0001:00035ef0       ??_Eexception@detail@nlohmann@@UEAAPEAXI@Z 0000000140036ef0 f i ui_control.obj
 0001:00035ef0       ??_Einvalid_iterator@detail@nlohmann@@UEAAPEAXI@Z 0000000140036ef0 f i ui_control.obj
 0001:00035ef0       ??_Eother_error@detail@nlohmann@@UEAAPEAXI@Z 0000000140036ef0 f i ui_control.obj
 0001:00035ef0       ??_Eout_of_range@detail@nlohmann@@UEAAPEAXI@Z 0000000140036ef0 f i ui_control.obj
 0001:00035ef0       ??_Etype_error@detail@nlohmann@@UEAAPEAXI@Z 0000000140036ef0 f i ui_control.obj
 0001:00035ef0       ??_Gexception@detail@nlohmann@@UEAAPEAXI@Z 0000000140036ef0 f i ui_control.obj
 0001:00035ef0       ??_Ginvalid_iterator@detail@nlohmann@@UEAAPEAXI@Z 0000000140036ef0 f i ui_control.obj
 0001:00035ef0       ??_Gother_error@detail@nlohmann@@UEAAPEAXI@Z 0000000140036ef0 f i ui_control.obj
 0001:00035ef0       ??_Gout_of_range@detail@nlohmann@@UEAAPEAXI@Z 0000000140036ef0 f i ui_control.obj
 0001:00035ef0       ??_Gtype_error@detail@nlohmann@@UEAAPEAXI@Z 0000000140036ef0 f i ui_control.obj
 0001:00035f50       ??_Eios_base@std@@UEAAPEAXI@Z 0000000140036f50 f i ui_control.obj
 0001:00035f50       ??_Gios_base@std@@UEAAPEAXI@Z 0000000140036f50 f i ui_control.obj
 0001:00035f90       ??_Eparse_error@detail@nlohmann@@UEAAPEAXI@Z 0000000140036f90 f i ui_control.obj
 0001:00035f90       ??_Gparse_error@detail@nlohmann@@UEAAPEAXI@Z 0000000140036f90 f i ui_control.obj
 0001:00035ff0       ?CloseUI@UIControl@@YA_NXZ 0000000140036ff0 f   ui_control.obj
 0001:000360c0       ?GetOpenUIWindows@UIControl@@YA?AV?$vector@PEAUHWND__@@V?$allocator@PEAUHWND__@@@std@@@std@@XZ 00000001400370c0 f   ui_control.obj
 0001:000371d0       ?RunUI@UIControl@@YAXXZ    00000001400381d0 f   ui_control.obj
 0001:00037ae0       ?RunUIOrBringToFront@UIControl@@YAXPEAUHWND__@@_N@Z 0000000140038ae0 f   ui_control.obj
 0001:00037dd0       ?RunUIViaSchedTask@UIControl@@YA_NXZ 0000000140038dd0 f   ui_control.obj
 0001:000380f0       ?_Change_array@?$vector@PEAV?$basic_json@Uordered_map@nlohmann@@Vvector@std@@V?$basic_string@DU?$char_traits@D@std@@V?$allocator@D@2@@4@_N_J_KNVallocator@4@Uadl_serializer@2@V?$vector@EV?$allocator@E@std@@@4@@nlohmann@@V?$allocator@PEAV?$basic_json@Uordered_map@nlohmann@@Vvector@std@@V?$basic_string@DU?$char_traits@D@std@@V?$allocator@D@2@@4@_N_J_KNVallocator@4@Uadl_serializer@2@V?$vector@EV?$allocator@E@std@@@4@@nlohmann@@@std@@@std@@AEAAXQEAPEAV?$basic_json@Uordered_map@nlohmann@@Vvector@std@@V?$basic_string@DU?$char_traits@D@std@@V?$allocator@D@2@@4@_N_J_KNVallocator@4@Uadl_serializer@2@V?$vector@EV?$allocator@E@std@@@4@@nlohmann@@_K1@Z 00000001400390f0 f i ui_control.obj
 0001:000380f0       ?_Change_array@?$vector@PEAV?$basic_json@Vmap@std@@Vvector@2@V?$basic_string@DU?$char_traits@D@std@@V?$allocator@D@2@@2@_N_J_KNVallocator@2@Uadl_serializer@nlohmann@@V?$vector@EV?$allocator@E@std@@@2@@nlohmann@@V?$allocator@PEAV?$basic_json@Vmap@std@@Vvector@2@V?$basic_string@DU?$char_traits@D@std@@V?$allocator@D@2@@2@_N_J_KNVallocator@2@Uadl_serializer@nlohmann@@V?$vector@EV?$allocator@E@std@@@2@@nlohmann@@@std@@@std@@AEAAXQEAPEAV?$basic_json@Vmap@std@@Vvector@2@V?$basic_string@DU?$char_traits@D@std@@V?$allocator@D@2@@2@_N_J_KNVallocator@2@Uadl_serializer@nlohmann@@V?$vector@EV?$allocator@E@std@@@2@@nlohmann@@_K1@Z 00000001400390f0 f i userprofile.obj
 0001:00038190       ?_Change_array@?$vector@V?$basic_json@Uordered_map@nlohmann@@Vvector@std@@V?$basic_string@DU?$char_traits@D@std@@V?$allocator@D@2@@4@_N_J_KNVallocator@4@Uadl_serializer@2@V?$vector@EV?$allocator@E@std@@@4@@nlohmann@@V?$allocator@V?$basic_json@Uordered_map@nlohmann@@Vvector@std@@V?$basic_string@DU?$char_traits@D@std@@V?$allocator@D@2@@4@_N_J_KNVallocator@4@Uadl_serializer@2@V?$vector@EV?$allocator@E@std@@@4@@nlohmann@@@std@@@std@@AEAAXQEAV?$basic_json@Uordered_map@nlohmann@@Vvector@std@@V?$basic_string@DU?$char_traits@D@std@@V?$allocator@D@2@@4@_N_J_KNVallocator@4@Uadl_serializer@2@V?$vector@EV?$allocator@E@std@@@4@@nlohmann@@_K1@Z 0000000140039190 f i ui_control.obj
 0001:00038270       ?_Decref@facet@locale@std@@UEAAPEAV_Facet_base@3@XZ 0000000140039270 f i ui_control.obj
 0001:00038280       ?_Destroy@?$_Ref_count_obj2@V?$output_stream_adapter@D@detail@nlohmann@@@std@@EEAAXXZ 0000000140039280 f i ui_control.obj
 0001:00038280       ?_Destroy@?$_Ref_count_obj2@V?$output_string_adapter@DV?$basic_string@DU?$char_traits@D@std@@V?$allocator@D@2@@std@@@detail@nlohmann@@@std@@EEAAXXZ 0000000140039280 f i userprofile.obj
 0001:00038290       ?_Endwrite@?$basic_filebuf@DU?$char_traits@D@std@@@std@@IEAA_NXZ 0000000140039290 f i ui_control.obj
 0001:00038380       ?_Getcat@?$codecvt@DDU_Mbstatet@@@std@@SA_KPEAPEBVfacet@locale@2@PEBV42@@Z 0000000140039380 f i ui_control.obj
 0001:00038520       ?_Getcat@?$ctype@D@std@@SA_KPEAPEBVfacet@locale@2@PEBV42@@Z 0000000140039520 f i ui_control.obj
 0001:000386e0       ?_Incref@facet@locale@std@@UEAAXXZ 00000001400396e0 f i ui_control.obj
 0001:000386f0       ?_Init@?$basic_filebuf@DU?$char_traits@D@std@@@std@@IEAAXPEAU_iobuf@@W4_Initfl@12@@Z 00000001400396f0 f i ui_control.obj
 0001:000387c0       ?_Initcvt@?$basic_filebuf@DU?$char_traits@D@std@@@std@@IEAAXAEBV?$codecvt@DDU_Mbstatet@@@2@@Z 00000001400397c0 f i ui_control.obj
 0001:00038840       ?_Insert_x@?$vector@_NV?$allocator@_N@std@@@std@@QEAA_KV?$_Vb_const_iterator@U?$_Wrap_alloc@V?$allocator@I@std@@@std@@@2@_K@Z 0000000140039840 f i ui_control.obj
 0001:00038ab0       ?_Lock@?$basic_filebuf@DU?$char_traits@D@std@@@std@@UEAAXXZ 0000000140039ab0 f i ui_control.obj
 0001:00038ad0       ?_Osfx@?$basic_ostream@DU?$char_traits@D@std@@@std@@QEAAXXZ 0000000140039ad0 f i ui_control.obj
 0001:00038b90       ?_Reset_back@?$basic_filebuf@DU?$char_traits@D@std@@@std@@AEAAXXZ 0000000140039b90 f i ui_control.obj
 0001:00038bc0       ?_Throw_NullAlloc@in1diag3@details@wil@@YAXPEAXIPEBD@Z 0000000140039bc0 f i ui_control.obj
 0001:00038bf0       ?_Throw_bad_cast@std@@YAXXZ 0000000140039bf0 f i ui_control.obj
 0001:00038c10       ?_Tidy@?$vector@U?$pair@$$CBV?$basic_string@DU?$char_traits@D@std@@V?$allocator@D@2@@std@@V?$basic_json@Uordered_map@nlohmann@@Vvector@std@@V?$basic_string@DU?$char_traits@D@std@@V?$allocator@D@2@@4@_N_J_KNVallocator@4@Uadl_serializer@2@V?$vector@EV?$allocator@E@std@@@4@@nlohmann@@@std@@V?$allocator@U?$pair@$$CBV?$basic_string@DU?$char_traits@D@std@@V?$allocator@D@2@@std@@V?$basic_json@Uordered_map@nlohmann@@Vvector@std@@V?$basic_string@DU?$char_traits@D@std@@V?$allocator@D@2@@4@_N_J_KNVallocator@4@Uadl_serializer@2@V?$vector@EV?$allocator@E@std@@@4@@nlohmann@@@std@@@2@@std@@AEAAXXZ 0000000140039c10 f i ui_control.obj
 0001:00038cf0       ?_Tidy@?$vector@V?$basic_json@Uordered_map@nlohmann@@Vvector@std@@V?$basic_string@DU?$char_traits@D@std@@V?$allocator@D@2@@4@_N_J_KNVallocator@4@Uadl_serializer@2@V?$vector@EV?$allocator@E@std@@@4@@nlohmann@@V?$allocator@V?$basic_json@Uordered_map@nlohmann@@Vvector@std@@V?$basic_string@DU?$char_traits@D@std@@V?$allocator@D@2@@4@_N_J_KNVallocator@4@Uadl_serializer@2@V?$vector@EV?$allocator@E@std@@@4@@nlohmann@@@std@@@std@@AEAAXXZ 0000000140039cf0 f i ui_control.obj
 0001:00038d90       ?_Unlock@?$basic_filebuf@DU?$char_traits@D@std@@@std@@UEAAXXZ 0000000140039d90 f i ui_control.obj
 0001:00038db0       ?_Xlen@?$vector@_NV?$allocator@_N@std@@@std@@SAXXZ 0000000140039db0 f i ui_control.obj
 0001:00038dd0       ?back@?$basic_string@DU?$char_traits@D@std@@V?$allocator@D@2@@std@@QEBAAEBDXZ 0000000140039dd0 f i ui_control.obj
 0001:00038df0       ?back@?$vector@_NV?$allocator@_N@std@@@std@@QEAA?AV?$_Vb_reference@U?$_Wrap_alloc@V?$allocator@I@std@@@std@@@2@XZ 0000000140039df0 f i ui_control.obj
 0001:00038e80       ?boolean@?$json_sax_dom_parser@V?$basic_json@Uordered_map@nlohmann@@Vvector@std@@V?$basic_string@DU?$char_traits@D@std@@V?$allocator@D@2@@4@_N_J_KNVallocator@4@Uadl_serializer@2@V?$vector@EV?$allocator@E@std@@@4@@nlohmann@@@detail@nlohmann@@QEAA_N_N@Z 0000000140039e80 f i ui_control.obj
 0001:00038f20       ?create@invalid_iterator@detail@nlohmann@@SA?AV123@HAEBV?$basic_string@DU?$char_traits@D@std@@V?$allocator@D@2@@std@@@Z 0000000140039f20 f i ui_control.obj
 0001:00039150       ?create@other_error@detail@nlohmann@@SA?AV123@HAEBV?$basic_string@DU?$char_traits@D@std@@V?$allocator@D@2@@std@@@Z 000000014003a150 f i ui_control.obj
 0001:00039390       ?create@out_of_range@detail@nlohmann@@SA?AV123@HAEBV?$basic_string@DU?$char_traits@D@std@@V?$allocator@D@2@@std@@@Z 000000014003a390 f i ui_control.obj
 0001:000395c0       ?create@parse_error@detail@nlohmann@@SA?AV123@HAEBUposition_t@23@AEBV?$basic_string@DU?$char_traits@D@std@@V?$allocator@D@2@@std@@@Z 000000014003a5c0 f i ui_control.obj
 0001:00039ae0       ?create@type_error@detail@nlohmann@@SA?AV123@HAEBV?$basic_string@DU?$char_traits@D@std@@V?$allocator@D@2@@std@@@Z 000000014003aae0 f i ui_control.obj
 0001:00039d10       ?deallocate@?$allocator@I@std@@QEAAXQEAI_K@Z 000000014003ad10 f i ui_control.obj
 0001:00039d70       ?destroy@json_value@?$basic_json@Uordered_map@nlohmann@@Vvector@std@@V?$basic_string@DU?$char_traits@D@std@@V?$allocator@D@2@@4@_N_J_KNVallocator@4@Uadl_serializer@2@V?$vector@EV?$allocator@E@std@@@4@@nlohmann@@QEAAXW4value_t@detail@3@@Z 000000014003ad70 f i ui_control.obj
 0001:0003a2a0       ?do_always_noconv@?$codecvt@DDU_Mbstatet@@@std@@MEBA_NXZ 000000014003b2a0 f i ui_control.obj
 0001:0003a2a0       __acrt_uninitialize_command_line 000000014003b2a0 f i libucrt:argv_data.obj
 0001:0003a2a0       _should_initialize_environment 000000014003b2a0 f i LIBCMT:env_mode.obj
 0001:0003a2b0       ?do_in@?$codecvt@DDU_Mbstatet@@@std@@MEBAHAEAU_Mbstatet@@PEBD1AEAPEBDPEAD3AEAPEAD@Z 000000014003b2b0 f i ui_control.obj
 0001:0003a2b0       ?do_out@?$codecvt@DDU_Mbstatet@@@std@@MEBAHAEAU_Mbstatet@@PEBD1AEAPEBDPEAD3AEAPEAD@Z 000000014003b2b0 f i ui_control.obj
 0001:0003a2d0       ?do_length@?$codecvt@DDU_Mbstatet@@@std@@MEBAHAEAU_Mbstatet@@PEBD1_K@Z 000000014003b2d0 f i ui_control.obj
 0001:0003a2f0       ?do_narrow@?$ctype@D@std@@MEBADDD@Z 000000014003b2f0 f i ui_control.obj
 0001:0003a2f0       ?do_widen@?$ctype@D@std@@MEBADD@Z 000000014003b2f0 f i ui_control.obj
 0001:0003a300       ?do_narrow@?$ctype@D@std@@MEBAPEBDPEBD0DPEAD@Z 000000014003b300 f i ui_control.obj
 0001:0003a320       ?do_tolower@?$ctype@D@std@@MEBADD@Z 000000014003b320 f i ui_control.obj
 0001:0003a330       ?do_tolower@?$ctype@D@std@@MEBAPEBDPEADPEBD@Z 000000014003b330 f i ui_control.obj
 0001:0003a380       ?do_toupper@?$ctype@D@std@@MEBADD@Z 000000014003b380 f i ui_control.obj
 0001:0003a390       ?do_toupper@?$ctype@D@std@@MEBAPEBDPEADPEBD@Z 000000014003b390 f i ui_control.obj
 0001:0003a3e0       ?do_unshift@?$codecvt@DDU_Mbstatet@@@std@@MEBAHAEAU_Mbstatet@@PEAD1AEAPEAD@Z 000000014003b3e0 f i ui_control.obj
 0001:0003a3f0       ?do_widen@?$ctype@D@std@@MEBAPEBDPEBD0PEAD@Z 000000014003b3f0 f i ui_control.obj
 0001:0003a410       ?dump@?$serializer@V?$basic_json@Uordered_map@nlohmann@@Vvector@std@@V?$basic_string@DU?$char_traits@D@std@@V?$allocator@D@2@@4@_N_J_KNVallocator@4@Uadl_serializer@2@V?$vector@EV?$allocator@E@std@@@4@@nlohmann@@@detail@nlohmann@@QEAAXAEBV?$basic_json@Uordered_map@nlohmann@@Vvector@std@@V?$basic_string@DU?$char_traits@D@std@@V?$allocator@D@2@@4@_N_J_KNVallocator@4@Uadl_serializer@2@V?$vector@EV?$allocator@E@std@@@4@@3@_N1II@Z 000000014003b410 f i ui_control.obj
 0001:0003ae90       ?dump_escaped@?$serializer@V?$basic_json@Uordered_map@nlohmann@@Vvector@std@@V?$basic_string@DU?$char_traits@D@std@@V?$allocator@D@2@@4@_N_J_KNVallocator@4@Uadl_serializer@2@V?$vector@EV?$allocator@E@std@@@4@@nlohmann@@@detail@nlohmann@@AEAAXAEBV?$basic_string@DU?$char_traits@D@std@@V?$allocator@D@2@@std@@_N@Z 000000014003be90 f i ui_control.obj
 0001:0003b3f0       ?emplace@?$ordered_map@V?$basic_string@DU?$char_traits@D@std@@V?$allocator@D@2@@std@@V?$basic_json@Uordered_map@nlohmann@@Vvector@std@@V?$basic_string@DU?$char_traits@D@std@@V?$allocator@D@2@@4@_N_J_KNVallocator@4@Uadl_serializer@2@V?$vector@EV?$allocator@E@std@@@4@@nlohmann@@U?$less@X@2@V?$allocator@U?$pair@$$CBV?$basic_string@DU?$char_traits@D@std@@V?$allocator@D@2@@std@@V?$basic_json@Uordered_map@nlohmann@@Vvector@std@@V?$basic_string@DU?$char_traits@D@std@@V?$allocator@D@2@@4@_N_J_KNVallocator@4@Uadl_serializer@2@V?$vector@EV?$allocator@E@std@@@4@@nlohmann@@@std@@@2@@nlohmann@@QEAA?AU?$pair@V?$_Vector_iterator@V?$_Vector_val@U?$_Simple_types@U?$pair@$$CBV?$basic_string@DU?$char_traits@D@std@@V?$allocator@D@2@@std@@V?$basic_json@Uordered_map@nlohmann@@Vvector@std@@V?$basic_string@DU?$char_traits@D@std@@V?$allocator@D@2@@4@_N_J_KNVallocator@4@Uadl_serializer@2@V?$vector@EV?$allocator@E@std@@@4@@nlohmann@@@std@@@std@@@std@@@std@@_N@std@@AEBV?$basic_string@DU?$char_traits@D@std@@V?$allocator@D@2@@4@$$QEAV?$basic_json@Uordered_map@nlohmann@@Vvector@std@@V?$basic_string@DU?$char_traits@D@std@@V?$allocator@D@2@@4@_N_J_KNVallocator@4@Uadl_serializer@2@V?$vector@EV?$allocator@E@std@@@4@@2@@Z 000000014003c3f0 f i ui_control.obj
 0001:0003b4e0       ?end_array@?$json_sax_dom_callback_parser@V?$basic_json@Uordered_map@nlohmann@@Vvector@std@@V?$basic_string@DU?$char_traits@D@std@@V?$allocator@D@2@@4@_N_J_KNVallocator@4@Uadl_serializer@2@V?$vector@EV?$allocator@E@std@@@4@@nlohmann@@@detail@nlohmann@@QEAA_NXZ 000000014003c4e0 f i ui_control.obj
 0001:0003b5e0       ?end_object@?$json_sax_dom_callback_parser@V?$basic_json@Uordered_map@nlohmann@@Vvector@std@@V?$basic_string@DU?$char_traits@D@std@@V?$allocator@D@2@@4@_N_J_KNVallocator@4@Uadl_serializer@2@V?$vector@EV?$allocator@E@std@@@4@@nlohmann@@@detail@nlohmann@@QEAA_NXZ 000000014003c5e0 f i ui_control.obj
 0001:0003b8b0       ?erase@?$vector@_NV?$allocator@_N@std@@@std@@QEAA?AV?$_Vb_iterator@U?$_Wrap_alloc@V?$allocator@I@std@@@std@@@2@V?$_Vb_const_iterator@U?$_Wrap_alloc@V?$allocator@I@std@@@std@@@2@@Z 000000014003c8b0 f i ui_control.obj
 0001:0003ba90       ?exception_message@?$parser@V?$basic_json@Uordered_map@nlohmann@@Vvector@std@@V?$basic_string@DU?$char_traits@D@std@@V?$allocator@D@2@@4@_N_J_KNVallocator@4@Uadl_serializer@2@V?$vector@EV?$allocator@E@std@@@4@@nlohmann@@Vinput_stream_adapter@detail@2@@detail@nlohmann@@AEAA?AV?$basic_string@DU?$char_traits@D@std@@V?$allocator@D@2@@std@@W4token_type@?$lexer_base@V?$basic_json@Uordered_map@nlohmann@@Vvector@std@@V?$basic_string@DU?$char_traits@D@std@@V?$allocator@D@2@@4@_N_J_KNVallocator@4@Uadl_serializer@2@V?$vector@EV?$allocator@E@std@@@4@@nlohmann@@@23@AEBV45@@Z 000000014003ca90 f i ui_control.obj
 0001:0003ba90       ?exception_message@?$parser@V?$basic_json@Vmap@std@@Vvector@2@V?$basic_string@DU?$char_traits@D@std@@V?$allocator@D@2@@2@_N_J_KNVallocator@2@Uadl_serializer@nlohmann@@V?$vector@EV?$allocator@E@std@@@2@@nlohmann@@V?$iterator_input_adapter@PEBD@detail@2@@detail@nlohmann@@AEAA?AV?$basic_string@DU?$char_traits@D@std@@V?$allocator@D@2@@std@@W4token_type@?$lexer_base@V?$basic_json@Vmap@std@@Vvector@2@V?$basic_string@DU?$char_traits@D@std@@V?$allocator@D@2@@2@_N_J_KNVallocator@2@Uadl_serializer@nlohmann@@V?$vector@EV?$allocator@E@std@@@2@@nlohmann@@@23@AEBV45@@Z 000000014003ca90 f i userprofile.obj
 0001:0003ba90       ?exception_message@?$parser@V?$basic_json@Vmap@std@@Vvector@2@V?$basic_string@DU?$char_traits@D@std@@V?$allocator@D@2@@2@_N_J_KNVallocator@2@Uadl_serializer@nlohmann@@V?$vector@EV?$allocator@E@std@@@2@@nlohmann@@Vinput_stream_adapter@detail@2@@detail@nlohmann@@AEAA?AV?$basic_string@DU?$char_traits@D@std@@V?$allocator@D@2@@std@@W4token_type@?$lexer_base@V?$basic_json@Vmap@std@@Vvector@2@V?$basic_string@DU?$char_traits@D@std@@V?$allocator@D@2@@2@_N_J_KNVallocator@2@Uadl_serializer@nlohmann@@V?$vector@EV?$allocator@E@std@@@2@@nlohmann@@@23@AEBV45@@Z 000000014003ca90 f i userprofile.obj
 0001:0003c4d0       ?flush@?$basic_ostream@DU?$char_traits@D@std@@@std@@QEAAAEAV12@XZ 000000014003d4d0 f i ui_control.obj
 0001:0003c620       ?format_buffer@dtoa_impl@detail@nlohmann@@YAPEADPEADHHHH@Z 000000014003d620 f i ui_control.obj
 0001:0003c7f0       ?get@?$lexer@V?$basic_json@Uordered_map@nlohmann@@Vvector@std@@V?$basic_string@DU?$char_traits@D@std@@V?$allocator@D@2@@4@_N_J_KNVallocator@4@Uadl_serializer@2@V?$vector@EV?$allocator@E@std@@@4@@nlohmann@@Vinput_stream_adapter@detail@2@@detail@nlohmann@@AEAAHXZ 000000014003d7f0 f i ui_control.obj
 0001:0003c7f0       ?get@?$lexer@V?$basic_json@Vmap@std@@Vvector@2@V?$basic_string@DU?$char_traits@D@std@@V?$allocator@D@2@@2@_N_J_KNVallocator@2@Uadl_serializer@nlohmann@@V?$vector@EV?$allocator@E@std@@@2@@nlohmann@@Vinput_stream_adapter@detail@2@@detail@nlohmann@@AEAAHXZ 000000014003d7f0 f i userprofile.obj
 0001:0003c910       ?get_codepoint@?$lexer@V?$basic_json@Uordered_map@nlohmann@@Vvector@std@@V?$basic_string@DU?$char_traits@D@std@@V?$allocator@D@2@@4@_N_J_KNVallocator@4@Uadl_serializer@2@V?$vector@EV?$allocator@E@std@@@4@@nlohmann@@Vinput_stream_adapter@detail@2@@detail@nlohmann@@AEAAHXZ 000000014003d910 f i ui_control.obj
 0001:0003c910       ?get_codepoint@?$lexer@V?$basic_json@Vmap@std@@Vvector@2@V?$basic_string@DU?$char_traits@D@std@@V?$allocator@D@2@@2@_N_J_KNVallocator@2@Uadl_serializer@nlohmann@@V?$vector@EV?$allocator@E@std@@@2@@nlohmann@@Vinput_stream_adapter@detail@2@@detail@nlohmann@@AEAAHXZ 000000014003d910 f i userprofile.obj
 0001:0003cae0       ?get_token_string@?$lexer@V?$basic_json@Uordered_map@nlohmann@@Vvector@std@@V?$basic_string@DU?$char_traits@D@std@@V?$allocator@D@2@@4@_N_J_KNVallocator@4@Uadl_serializer@2@V?$vector@EV?$allocator@E@std@@@4@@nlohmann@@Vinput_stream_adapter@detail@2@@detail@nlohmann@@QEBA?AV?$basic_string@DU?$char_traits@D@std@@V?$allocator@D@2@@std@@XZ 000000014003dae0 f i ui_control.obj
 0001:0003cae0       ?get_token_string@?$lexer@V?$basic_json@Vmap@std@@Vvector@2@V?$basic_string@DU?$char_traits@D@std@@V?$allocator@D@2@@2@_N_J_KNVallocator@2@Uadl_serializer@nlohmann@@V?$vector@EV?$allocator@E@std@@@2@@nlohmann@@V?$iterator_input_adapter@PEBD@detail@2@@detail@nlohmann@@QEBA?AV?$basic_string@DU?$char_traits@D@std@@V?$allocator@D@2@@std@@XZ 000000014003dae0 f i userprofile.obj
 0001:0003cae0       ?get_token_string@?$lexer@V?$basic_json@Vmap@std@@Vvector@2@V?$basic_string@DU?$char_traits@D@std@@V?$allocator@D@2@@2@_N_J_KNVallocator@2@Uadl_serializer@nlohmann@@V?$vector@EV?$allocator@E@std@@@2@@nlohmann@@Vinput_stream_adapter@detail@2@@detail@nlohmann@@QEBA?AV?$basic_string@DU?$char_traits@D@std@@V?$allocator@D@2@@std@@XZ 000000014003dae0 f i userprofile.obj
 0001:0003ccf0       ?grisu2@dtoa_impl@detail@nlohmann@@YAXPEADAEAH1Udiyfp@123@22@Z 000000014003dcf0 f i ui_control.obj
 0001:0003cf30       ?grisu2_digit_gen@dtoa_impl@detail@nlohmann@@YAXPEADAEAH1Udiyfp@123@22@Z 000000014003df30 f i ui_control.obj
 0001:0003d1c0       ?imbue@?$basic_filebuf@DU?$char_traits@D@std@@@std@@MEAAXAEBVlocale@2@@Z 000000014003e1c0 f i ui_control.obj
 0001:0003d1f0       ?init@?$basic_ios@DU?$char_traits@D@std@@@std@@IEAAXPEAV?$basic_streambuf@DU?$char_traits@D@std@@@2@_N@Z 000000014003e1f0 f i ui_control.obj
 0001:0003d310       ?key@?$json_sax_dom_callback_parser@V?$basic_json@Uordered_map@nlohmann@@Vvector@std@@V?$basic_string@DU?$char_traits@D@std@@V?$allocator@D@2@@4@_N_J_KNVallocator@4@Uadl_serializer@2@V?$vector@EV?$allocator@E@std@@@4@@nlohmann@@@detail@nlohmann@@QEAA_NAEAV?$basic_string@DU?$char_traits@D@std@@V?$allocator@D@2@@std@@@Z 000000014003e310 f i ui_control.obj
 0001:0003d440       ?key@?$json_sax_dom_parser@V?$basic_json@Uordered_map@nlohmann@@Vvector@std@@V?$basic_string@DU?$char_traits@D@std@@V?$allocator@D@2@@4@_N_J_KNVallocator@4@Uadl_serializer@2@V?$vector@EV?$allocator@E@std@@@4@@nlohmann@@@detail@nlohmann@@QEAA_NAEAV?$basic_string@DU?$char_traits@D@std@@V?$allocator@D@2@@std@@@Z 000000014003e440 f i ui_control.obj
 0001:0003d4c0       ?make_bstr@wil@@YA?AV?$unique_any_t@V?$unique_storage@U?$resource_policy@PEA_WP6AXPEA_W@Z$1?SysFreeString@@YAX0@ZU?$integral_constant@_K$0A@@wistd@@PEA_WPEA_W$0A@$$T@details@wil@@@details@wil@@@1@PEB_W@Z 000000014003e4c0 f i ui_control.obj
 0001:0003d510       ?make_error_code@std@@YA?AVerror_code@1@W4io_errc@1@@Z 000000014003e510 f i ui_control.obj
 0001:0003d530       ?message@_Iostream_error_category2@std@@UEBA?AV?$basic_string@DU?$char_traits@D@std@@V?$allocator@D@2@@2@H@Z 000000014003e530 f i ui_control.obj
 0001:0003d5f0       ?name@_Iostream_error_category2@std@@UEBAPEBDXZ 000000014003e5f0 f i ui_control.obj
 0001:0003d600       ?name@exception@detail@nlohmann@@KA?AV?$basic_string@DU?$char_traits@D@std@@V?$allocator@D@2@@std@@AEBV45@H@Z 000000014003e600 f i ui_control.obj
 0001:0003dab0       ?next_byte_in_range@?$lexer@V?$basic_json@Uordered_map@nlohmann@@Vvector@std@@V?$basic_string@DU?$char_traits@D@std@@V?$allocator@D@2@@4@_N_J_KNVallocator@4@Uadl_serializer@2@V?$vector@EV?$allocator@E@std@@@4@@nlohmann@@Vinput_stream_adapter@detail@2@@detail@nlohmann@@AEAA_NV?$initializer_list@H@std@@@Z 000000014003eab0 f i ui_control.obj
 0001:0003dab0       ?next_byte_in_range@?$lexer@V?$basic_json@Vmap@std@@Vvector@2@V?$basic_string@DU?$char_traits@D@std@@V?$allocator@D@2@@2@_N_J_KNVallocator@2@Uadl_serializer@nlohmann@@V?$vector@EV?$allocator@E@std@@@2@@nlohmann@@Vinput_stream_adapter@detail@2@@detail@nlohmann@@AEAA_NV?$initializer_list@H@std@@@Z 000000014003eab0 f i userprofile.obj
 0001:0003dc40       ?open@?$basic_filebuf@DU?$char_traits@D@std@@@std@@QEAAPEAV12@PEB_WHH@Z 000000014003ec40 f i ui_control.obj
 0001:0003dcf0       ?overflow@?$basic_filebuf@DU?$char_traits@D@std@@@std@@MEAAHH@Z 000000014003ecf0 f i ui_control.obj
 0001:0003de90       ?overflow@?$basic_streambuf@DU?$char_traits@D@std@@@std@@MEAAHH@Z 000000014003ee90 f i ui_control.obj
 0001:0003de90       ?pbackfail@?$basic_streambuf@DU?$char_traits@D@std@@@std@@MEAAHH@Z 000000014003ee90 f i ui_control.obj
 0001:0003de90       ?underflow@?$basic_streambuf@DU?$char_traits@D@std@@@std@@MEAAHXZ 000000014003ee90 f i ui_control.obj
 0001:0003dea0       ?parse@?$parser@V?$basic_json@Uordered_map@nlohmann@@Vvector@std@@V?$basic_string@DU?$char_traits@D@std@@V?$allocator@D@2@@4@_N_J_KNVallocator@4@Uadl_serializer@2@V?$vector@EV?$allocator@E@std@@@4@@nlohmann@@Vinput_stream_adapter@detail@2@@detail@nlohmann@@QEAAX_NAEAV?$basic_json@Uordered_map@nlohmann@@Vvector@std@@V?$basic_string@DU?$char_traits@D@std@@V?$allocator@D@2@@4@_N_J_KNVallocator@4@Uadl_serializer@2@V?$vector@EV?$allocator@E@std@@@4@@3@@Z 000000014003eea0 f i ui_control.obj
 0001:0003e420       ?pbackfail@?$basic_filebuf@DU?$char_traits@D@std@@@std@@MEAAHH@Z 000000014003f420 f i ui_control.obj
 0001:0003e510       ?pop_back@?$vector@_NV?$allocator@_N@std@@@std@@QEAAXXZ 000000014003f510 f i ui_control.obj
 0001:0003e5b0       ?position_string@parse_error@detail@nlohmann@@CA?AV?$basic_string@DU?$char_traits@D@std@@V?$allocator@D@2@@std@@AEBUposition_t@23@@Z 000000014003f5b0 f i ui_control.obj
 0001:0003eb20       ?push_back@?$basic_string@DU?$char_traits@D@std@@V?$allocator@D@2@@std@@QEAAXD@Z 000000014003fb20 f i ui_control.obj
 0001:0003ec80       ?push_back@?$vector@PEAV?$basic_json@Uordered_map@nlohmann@@Vvector@std@@V?$basic_string@DU?$char_traits@D@std@@V?$allocator@D@2@@4@_N_J_KNVallocator@4@Uadl_serializer@2@V?$vector@EV?$allocator@E@std@@@4@@nlohmann@@V?$allocator@PEAV?$basic_json@Uordered_map@nlohmann@@Vvector@std@@V?$basic_string@DU?$char_traits@D@std@@V?$allocator@D@2@@4@_N_J_KNVallocator@4@Uadl_serializer@2@V?$vector@EV?$allocator@E@std@@@4@@nlohmann@@@std@@@std@@QEAAX$$QEAPEAV?$basic_json@Uordered_map@nlohmann@@Vvector@std@@V?$basic_string@DU?$char_traits@D@std@@V?$allocator@D@2@@4@_N_J_KNVallocator@4@Uadl_serializer@2@V?$vector@EV?$allocator@E@std@@@4@@nlohmann@@@Z 000000014003fc80 f i ui_control.obj
 0001:0003ec80       ?push_back@?$vector@PEAV?$basic_json@Uordered_map@nlohmann@@Vvector@std@@V?$basic_string@DU?$char_traits@D@std@@V?$allocator@D@2@@4@_N_J_KNVallocator@4@Uadl_serializer@2@V?$vector@EV?$allocator@E@std@@@4@@nlohmann@@V?$allocator@PEAV?$basic_json@Uordered_map@nlohmann@@Vvector@std@@V?$basic_string@DU?$char_traits@D@std@@V?$allocator@D@2@@4@_N_J_KNVallocator@4@Uadl_serializer@2@V?$vector@EV?$allocator@E@std@@@4@@nlohmann@@@std@@@std@@QEAAXAEBQEAV?$basic_json@Uordered_map@nlohmann@@Vvector@std@@V?$basic_string@DU?$char_traits@D@std@@V?$allocator@D@2@@4@_N_J_KNVallocator@4@Uadl_serializer@2@V?$vector@EV?$allocator@E@std@@@4@@nlohmann@@@Z 000000014003fc80 f i ui_control.obj
 0001:0003ec80       ?push_back@?$vector@PEAV?$basic_json@Vmap@std@@Vvector@2@V?$basic_string@DU?$char_traits@D@std@@V?$allocator@D@2@@2@_N_J_KNVallocator@2@Uadl_serializer@nlohmann@@V?$vector@EV?$allocator@E@std@@@2@@nlohmann@@V?$allocator@PEAV?$basic_json@Vmap@std@@Vvector@2@V?$basic_string@DU?$char_traits@D@std@@V?$allocator@D@2@@2@_N_J_KNVallocator@2@Uadl_serializer@nlohmann@@V?$vector@EV?$allocator@E@std@@@2@@nlohmann@@@std@@@std@@QEAAX$$QEAPEAV?$basic_json@Vmap@std@@Vvector@2@V?$basic_string@DU?$char_traits@D@std@@V?$allocator@D@2@@2@_N_J_KNVallocator@2@Uadl_serializer@nlohmann@@V?$vector@EV?$allocator@E@std@@@2@@nlohmann@@@Z 000000014003fc80 f i userprofile.obj
 0001:0003ec80       ?push_back@?$vector@PEAV?$basic_json@Vmap@std@@Vvector@2@V?$basic_string@DU?$char_traits@D@std@@V?$allocator@D@2@@2@_N_J_KNVallocator@2@Uadl_serializer@nlohmann@@V?$vector@EV?$allocator@E@std@@@2@@nlohmann@@V?$allocator@PEAV?$basic_json@Vmap@std@@Vvector@2@V?$basic_string@DU?$char_traits@D@std@@V?$allocator@D@2@@2@_N_J_KNVallocator@2@Uadl_serializer@nlohmann@@V?$vector@EV?$allocator@E@std@@@2@@nlohmann@@@std@@@std@@QEAAXAEBQEAV?$basic_json@Vmap@std@@Vvector@2@V?$basic_string@DU?$char_traits@D@std@@V?$allocator@D@2@@2@_N_J_KNVallocator@2@Uadl_serializer@nlohmann@@V?$vector@EV?$allocator@E@std@@@2@@nlohmann@@@Z 000000014003fc80 f i userprofile.obj
 0001:0003eda0       ?push_back@?$vector@_NV?$allocator@_N@std@@@std@@QEAAXAEB_N@Z 000000014003fda0 f i ui_control.obj
 0001:0003ef10       ?put@?$basic_ostream@DU?$char_traits@D@std@@@std@@QEAAAEAV12@D@Z 000000014003ff10 f i ui_control.obj
 0001:0003f0d0       ?resize@?$basic_string@DU?$char_traits@D@std@@V?$allocator@D@2@@std@@QEAAX_KD@Z 00000001400400d0 f i ui_control.obj
 0001:0003f170       ?scan@?$lexer@V?$basic_json@Uordered_map@nlohmann@@Vvector@std@@V?$basic_string@DU?$char_traits@D@std@@V?$allocator@D@2@@4@_N_J_KNVallocator@4@Uadl_serializer@2@V?$vector@EV?$allocator@E@std@@@4@@nlohmann@@Vinput_stream_adapter@detail@2@@detail@nlohmann@@QEAA?AW4token_type@?$lexer_base@V?$basic_json@Uordered_map@nlohmann@@Vvector@std@@V?$basic_string@DU?$char_traits@D@std@@V?$allocator@D@2@@4@_N_J_KNVallocator@4@Uadl_serializer@2@V?$vector@EV?$allocator@E@std@@@4@@nlohmann@@@23@XZ 0000000140040170 f i ui_control.obj
 0001:0003f170       ?scan@?$lexer@V?$basic_json@Vmap@std@@Vvector@2@V?$basic_string@DU?$char_traits@D@std@@V?$allocator@D@2@@2@_N_J_KNVallocator@2@Uadl_serializer@nlohmann@@V?$vector@EV?$allocator@E@std@@@2@@nlohmann@@Vinput_stream_adapter@detail@2@@detail@nlohmann@@QEAA?AW4token_type@?$lexer_base@V?$basic_json@Vmap@std@@Vvector@2@V?$basic_string@DU?$char_traits@D@std@@V?$allocator@D@2@@2@_N_J_KNVallocator@2@Uadl_serializer@nlohmann@@V?$vector@EV?$allocator@E@std@@@2@@nlohmann@@@23@XZ 0000000140040170 f i userprofile.obj
 0001:0003f580       ?scan_comment@?$lexer@V?$basic_json@Uordered_map@nlohmann@@Vvector@std@@V?$basic_string@DU?$char_traits@D@std@@V?$allocator@D@2@@4@_N_J_KNVallocator@4@Uadl_serializer@2@V?$vector@EV?$allocator@E@std@@@4@@nlohmann@@Vinput_stream_adapter@detail@2@@detail@nlohmann@@AEAA_NXZ 0000000140040580 f i ui_control.obj
 0001:0003f580       ?scan_comment@?$lexer@V?$basic_json@Vmap@std@@Vvector@2@V?$basic_string@DU?$char_traits@D@std@@V?$allocator@D@2@@2@_N_J_KNVallocator@2@Uadl_serializer@nlohmann@@V?$vector@EV?$allocator@E@std@@@2@@nlohmann@@Vinput_stream_adapter@detail@2@@detail@nlohmann@@AEAA_NXZ 0000000140040580 f i userprofile.obj
 0001:0003f770       ?scan_literal@?$lexer@V?$basic_json@Uordered_map@nlohmann@@Vvector@std@@V?$basic_string@DU?$char_traits@D@std@@V?$allocator@D@2@@4@_N_J_KNVallocator@4@Uadl_serializer@2@V?$vector@EV?$allocator@E@std@@@4@@nlohmann@@Vinput_stream_adapter@detail@2@@detail@nlohmann@@AEAA?AW4token_type@?$lexer_base@V?$basic_json@Uordered_map@nlohmann@@Vvector@std@@V?$basic_string@DU?$char_traits@D@std@@V?$allocator@D@2@@4@_N_J_KNVallocator@4@Uadl_serializer@2@V?$vector@EV?$allocator@E@std@@@4@@nlohmann@@@23@PEBD_KW44523@@Z 0000000140040770 f i ui_control.obj
 0001:0003f770       ?scan_literal@?$lexer@V?$basic_json@Vmap@std@@Vvector@2@V?$basic_string@DU?$char_traits@D@std@@V?$allocator@D@2@@2@_N_J_KNVallocator@2@Uadl_serializer@nlohmann@@V?$vector@EV?$allocator@E@std@@@2@@nlohmann@@Vinput_stream_adapter@detail@2@@detail@nlohmann@@AEAA?AW4token_type@?$lexer_base@V?$basic_json@Vmap@std@@Vvector@2@V?$basic_string@DU?$char_traits@D@std@@V?$allocator@D@2@@2@_N_J_KNVallocator@2@Uadl_serializer@nlohmann@@V?$vector@EV?$allocator@E@std@@@2@@nlohmann@@@23@PEBD_KW44523@@Z 0000000140040770 f i userprofile.obj
 0001:0003f900       ?scan_number@?$lexer@V?$basic_json@Uordered_map@nlohmann@@Vvector@std@@V?$basic_string@DU?$char_traits@D@std@@V?$allocator@D@2@@4@_N_J_KNVallocator@4@Uadl_serializer@2@V?$vector@EV?$allocator@E@std@@@4@@nlohmann@@Vinput_stream_adapter@detail@2@@detail@nlohmann@@AEAA?AW4token_type@?$lexer_base@V?$basic_json@Uordered_map@nlohmann@@Vvector@std@@V?$basic_string@DU?$char_traits@D@std@@V?$allocator@D@2@@4@_N_J_KNVallocator@4@Uadl_serializer@2@V?$vector@EV?$allocator@E@std@@@4@@nlohmann@@@23@XZ 0000000140040900 f i ui_control.obj
 0001:0003f900       ?scan_number@?$lexer@V?$basic_json@Vmap@std@@Vvector@2@V?$basic_string@DU?$char_traits@D@std@@V?$allocator@D@2@@2@_N_J_KNVallocator@2@Uadl_serializer@nlohmann@@V?$vector@EV?$allocator@E@std@@@2@@nlohmann@@Vinput_stream_adapter@detail@2@@detail@nlohmann@@AEAA?AW4token_type@?$lexer_base@V?$basic_json@Vmap@std@@Vvector@2@V?$basic_string@DU?$char_traits@D@std@@V?$allocator@D@2@@2@_N_J_KNVallocator@2@Uadl_serializer@nlohmann@@V?$vector@EV?$allocator@E@std@@@2@@nlohmann@@@23@XZ 0000000140040900 f i userprofile.obj
 0001:00040120       ?scan_string@?$lexer@V?$basic_json@Uordered_map@nlohmann@@Vvector@std@@V?$basic_string@DU?$char_traits@D@std@@V?$allocator@D@2@@4@_N_J_KNVallocator@4@Uadl_serializer@2@V?$vector@EV?$allocator@E@std@@@4@@nlohmann@@Vinput_stream_adapter@detail@2@@detail@nlohmann@@AEAA?AW4token_type@?$lexer_base@V?$basic_json@Uordered_map@nlohmann@@Vvector@std@@V?$basic_string@DU?$char_traits@D@std@@V?$allocator@D@2@@4@_N_J_KNVallocator@4@Uadl_serializer@2@V?$vector@EV?$allocator@E@std@@@4@@nlohmann@@@23@XZ 0000000140041120 f i ui_control.obj
 0001:00040120       ?scan_string@?$lexer@V?$basic_json@Vmap@std@@Vvector@2@V?$basic_string@DU?$char_traits@D@std@@V?$allocator@D@2@@2@_N_J_KNVallocator@2@Uadl_serializer@nlohmann@@V?$vector@EV?$allocator@E@std@@@2@@nlohmann@@Vinput_stream_adapter@detail@2@@detail@nlohmann@@AEAA?AW4token_type@?$lexer_base@V?$basic_json@Vmap@std@@Vvector@2@V?$basic_string@DU?$char_traits@D@std@@V?$allocator@D@2@@2@_N_J_KNVallocator@2@Uadl_serializer@nlohmann@@V?$vector@EV?$allocator@E@std@@@2@@nlohmann@@@23@XZ 0000000140041120 f i userprofile.obj
 0001:00040b60       ?seekoff@?$basic_filebuf@DU?$char_traits@D@std@@@std@@MEAA?AV?$fpos@U_Mbstatet@@@2@_JHH@Z 0000000140041b60 f i ui_control.obj
 0001:00040c40       ?seekoff@?$basic_streambuf@DU?$char_traits@D@std@@@std@@MEAA?AV?$fpos@U_Mbstatet@@@2@_JHH@Z 0000000140041c40 f i ui_control.obj
 0001:00040c40       ?seekpos@?$basic_streambuf@DU?$char_traits@D@std@@@std@@MEAA?AV?$fpos@U_Mbstatet@@@2@V32@H@Z 0000000140041c40 f i ui_control.obj
 0001:00040c60       ?seekpos@?$basic_filebuf@DU?$char_traits@D@std@@@std@@MEAA?AV?$fpos@U_Mbstatet@@@2@V32@H@Z 0000000140041c60 f i ui_control.obj
 0001:00040d40       ?setbuf@?$basic_filebuf@DU?$char_traits@D@std@@@std@@MEAAPEAV?$basic_streambuf@DU?$char_traits@D@std@@@2@PEAD_J@Z 0000000140041d40 f i ui_control.obj
 0001:00040da0       ?size@?$basic_string@DU?$char_traits@D@std@@V?$allocator@D@2@@std@@QEBA_KXZ 0000000140041da0 f i ui_control.obj
 0001:00040db0       ?skip_whitespace@?$lexer@V?$basic_json@Uordered_map@nlohmann@@Vvector@std@@V?$basic_string@DU?$char_traits@D@std@@V?$allocator@D@2@@4@_N_J_KNVallocator@4@Uadl_serializer@2@V?$vector@EV?$allocator@E@std@@@4@@nlohmann@@Vinput_stream_adapter@detail@2@@detail@nlohmann@@QEAAXXZ 0000000140041db0 f i ui_control.obj
 0001:00040db0       ?skip_whitespace@?$lexer@V?$basic_json@Vmap@std@@Vvector@2@V?$basic_string@DU?$char_traits@D@std@@V?$allocator@D@2@@2@_N_J_KNVallocator@2@Uadl_serializer@nlohmann@@V?$vector@EV?$allocator@E@std@@@2@@nlohmann@@Vinput_stream_adapter@detail@2@@detail@nlohmann@@QEAAXXZ 0000000140041db0 f i userprofile.obj
 0001:00040ef0       ?sync@?$basic_filebuf@DU?$char_traits@D@std@@@std@@MEAAHXZ 0000000140041ef0 f i ui_control.obj
 0001:00040f40       ?to_string@std@@YA?AV?$basic_string@DU?$char_traits@D@std@@V?$allocator@D@2@@1@_K@Z 0000000140041f40 f i ui_control.obj
 0001:00040fd0       ?token_type_name@?$lexer_base@V?$basic_json@Uordered_map@nlohmann@@Vvector@std@@V?$basic_string@DU?$char_traits@D@std@@V?$allocator@D@2@@4@_N_J_KNVallocator@4@Uadl_serializer@2@V?$vector@EV?$allocator@E@std@@@4@@nlohmann@@@detail@nlohmann@@SAPEBDW4token_type@123@@Z 0000000140041fd0 f i ui_control.obj
 0001:00040fd0       ?token_type_name@?$lexer_base@V?$basic_json@Vmap@std@@Vvector@2@V?$basic_string@DU?$char_traits@D@std@@V?$allocator@D@2@@2@_N_J_KNVallocator@2@Uadl_serializer@nlohmann@@V?$vector@EV?$allocator@E@std@@@2@@nlohmann@@@detail@nlohmann@@SAPEBDW4token_type@123@@Z 0000000140041fd0 f i userprofile.obj
 0001:000410c0       ?type_name@?$basic_json@Uordered_map@nlohmann@@Vvector@std@@V?$basic_string@DU?$char_traits@D@std@@V?$allocator@D@2@@4@_N_J_KNVallocator@4@Uadl_serializer@2@V?$vector@EV?$allocator@E@std@@@4@@nlohmann@@QEBAPEBDXZ 00000001400420c0 f i ui_control.obj
 0001:000410c0       ?type_name@?$basic_json@Vmap@std@@Vvector@2@V?$basic_string@DU?$char_traits@D@std@@V?$allocator@D@2@@2@_N_J_KNVallocator@2@Uadl_serializer@nlohmann@@V?$vector@EV?$allocator@E@std@@@2@@nlohmann@@QEBAPEBDXZ 00000001400420c0 f i userprofile.obj
 0001:00041150       ?uflow@?$basic_filebuf@DU?$char_traits@D@std@@@std@@MEAAHXZ 0000000140042150 f i ui_control.obj
 0001:00041510       ?uflow@?$basic_streambuf@DU?$char_traits@D@std@@@std@@MEAAHXZ 0000000140042510 f i ui_control.obj
 0001:00041550       ?underflow@?$basic_filebuf@DU?$char_traits@D@std@@@std@@MEAAHXZ 0000000140042550 f i ui_control.obj
 0001:000415c0       ?what@exception@detail@nlohmann@@UEBAPEBDXZ 00000001400425c0 f i ui_control.obj
 0001:000415e0       ?widen@?$basic_ios@DU?$char_traits@D@std@@@std@@QEBADD@Z 00000001400425e0 f i ui_control.obj
 0001:00041740       ?write@?$basic_ostream@DU?$char_traits@D@std@@@std@@QEAAAEAV12@PEBD_J@Z 0000000140042740 f i ui_control.obj
 0001:000418f0       ?write_character@?$output_stream_adapter@D@detail@nlohmann@@UEAAXD@Z 00000001400428f0 f i ui_control.obj
 0001:00041900       ?write_characters@?$output_stream_adapter@D@detail@nlohmann@@UEAAXPEBD_K@Z 0000000140042900 f i ui_control.obj
 0001:00041910       ?xsgetn@?$basic_filebuf@DU?$char_traits@D@std@@@std@@MEAA_JPEAD_J@Z 0000000140042910 f i ui_control.obj
 0001:00041ac0       ?xsgetn@?$basic_streambuf@DU?$char_traits@D@std@@@std@@MEAA_JPEAD_J@Z 0000000140042ac0 f i ui_control.obj
 0001:00041b80       ?xsputn@?$basic_filebuf@DU?$char_traits@D@std@@@std@@MEAA_JPEBD_J@Z 0000000140042b80 f i ui_control.obj
 0001:00041cb0       ?xsputn@?$basic_streambuf@DU?$char_traits@D@std@@@std@@MEAA_JPEBD_J@Z 0000000140042cb0 f i ui_control.obj
 0001:00041d70       snprintf                   0000000140042d70 f i ui_control.obj
 0001:00041dd0       ??$?4U?$default_delete@VCWinHTTPSimple@@@std@@$0A@@?$unique_ptr@VCWinHTTPSimple@@U?$default_delete@VCWinHTTPSimple@@@std@@@std@@QEAAAEAV01@$$QEAV01@@Z 0000000140042dd0 f i update_checker.obj
 0001:00041e20       ??0?$basic_string@_WU?$char_traits@_W@std@@V?$allocator@_W@2@@std@@QEAA@U_String_constructor_concat_tag@1@AEAV01@1@Z 0000000140042e20 f i update_checker.obj
 0001:00042000       ??0CAsyncDownloader@WinHTTPWrappers@@QEAA@XZ 0000000140043000 f i update_checker.obj
 0001:000421a0       ??0CWinHTTPSimple@@QEAA@UCWinHTTPSimpleOptions@@_N@Z 00000001400431a0 f i update_checker.obj
 0001:00042c70       ??0CWinHTTPSimpleOptions@@QEAA@$$QEAU0@@Z 0000000140043c70 f i update_checker.obj
 0001:00043070       ??0CWinHTTPSimpleOptions@@QEAA@XZ 0000000140044070 f i update_checker.obj
 0001:00043220       ??0UpdateChecker@@QEAA@KV?$function@$$A6AXXZ@std@@@Z 0000000140044220 f   update_checker.obj
 0001:000434e0       ??1?$lock_guard@Vmutex@std@@@std@@QEAA@XZ 00000001400444e0 f i update_checker.obj
 0001:000434f0       ??1?$unique_ptr@VCWinHTTPSimple@@U?$default_delete@VCWinHTTPSimple@@@std@@@std@@QEAA@XZ 00000001400444f0 f i update_checker.obj
 0001:00043520       ??1CConnection@WinHTTPWrappers@@UEAA@XZ 0000000140044520 f i update_checker.obj
 0001:00043520       ??1CSession@WinHTTPWrappers@@UEAA@XZ 0000000140044520 f i update_checker.obj
 0001:00043550       ??1CHandle@ATL@@QEAA@XZ    0000000140044550 f i update_checker.obj
 0001:00043580       ??1CSyncDownloader@WinHTTPWrappers@@UEAA@XZ 0000000140044580 f i update_checker.obj
 0001:00043590       ??1CWinHTTPSimpleOptions@@QEAA@XZ 0000000140044590 f i update_checker.obj
 0001:00043630       ??4?$basic_string@_WU?$char_traits@_W@std@@V?$allocator@_W@2@@std@@QEAAAEAV01@QEB_W@Z 0000000140044630 f i update_checker.obj
 0001:00043760       ?Abort@UpdateChecker@@QEAAXXZ 0000000140044760 f   update_checker.obj
 0001:00043800       ?AtlThrowLastWin32@ATL@@YAXXZ 0000000140044800 f i update_checker.obj
 0001:00043820       ?Create@CAtlFile@ATL@@QEAAJPEB_WKKKKPEAU_SECURITY_ATTRIBUTES@@PEAX@Z 0000000140044820 f i update_checker.obj
 0001:00043c20       ?HandleResponse@UpdateChecker@@QEAA?AUResult@1@XZ 0000000140044c20 f   update_checker.obj
 0001:00043cc0       ?Initialize@CAsyncDownloader@WinHTTPWrappers@@QEAAJAEBVCConnection@2@PEB_W111PEAPEB_WKKK@Z 0000000140044cc0 f i update_checker.obj
 0001:00043fa0       ?OnRequestDone@UpdateChecker@@AEAAXXZ 0000000140044fa0 f   update_checker.obj
 0001:000441b0       ?Seek@CAtlFile@ATL@@QEAAJ_JK@Z 00000001400451b0 f i update_checker.obj
 0001:000441f0       ?SendRequest@CWinHTTPSimple@@QEAAJV?$function@$$A6AXXZ@std@@@Z 00000001400451f0 f i update_checker.obj
 0001:000443e0       ?_Callback@CHandle@WinHTTPWrappers@@KAXPEAX_KK0K@Z 00000001400453e0 f i update_checker.obj
 0001:000444e0       ?_Reset_move@?$_Func_class@X$$V@std@@IEAAX$$QEAV12@@Z 00000001400454e0 f i update_checker.obj
 0001:00044570       ?resize@?$vector@EV?$allocator@E@std@@@std@@QEAAX_K@Z 0000000140045570 f i update_checker.obj
 0001:00044670       ??$?8DU?$char_traits@D@std@@V?$allocator@D@1@@std@@YA_NAEBV?$basic_string@DU?$char_traits@D@std@@V?$allocator@D@2@@0@0@Z 0000000140045670 f i userprofile.obj
 0001:000446c0       ??$?8V?$basic_string@DU?$char_traits@D@std@@V?$allocator@D@2@@std@@V?$basic_json@Vmap@std@@Vvector@2@V?$basic_string@DU?$char_traits@D@std@@V?$allocator@D@2@@2@_N_J_KNVallocator@2@Uadl_serializer@nlohmann@@V?$vector@EV?$allocator@E@std@@@2@@nlohmann@@U?$less@X@1@V?$allocator@U?$pair@$$CBV?$basic_string@DU?$char_traits@D@std@@V?$allocator@D@2@@std@@V?$basic_json@Vmap@std@@Vvector@2@V?$basic_string@DU?$char_traits@D@std@@V?$allocator@D@2@@2@_N_J_KNVallocator@2@Uadl_serializer@nlohmann@@V?$vector@EV?$allocator@E@std@@@2@@nlohmann@@@std@@@1@@std@@YA_NAEBV?$map@V?$basic_string@DU?$char_traits@D@std@@V?$allocator@D@2@@std@@V?$basic_json@Vmap@std@@Vvector@2@V?$basic_string@DU?$char_traits@D@std@@V?$allocator@D@2@@2@_N_J_KNVallocator@2@Uadl_serializer@nlohmann@@V?$vector@EV?$allocator@E@std@@@2@@nlohmann@@U?$less@X@2@V?$allocator@U?$pair@$$CBV?$basic_string@DU?$char_traits@D@std@@V?$allocator@D@2@@std@@V?$basic_json@Vmap@std@@Vvector@2@V?$basic_string@DU?$char_traits@D@std@@V?$allocator@D@2@@2@_N_J_KNVallocator@2@Uadl_serializer@nlohmann@@V?$vector@EV?$allocator@E@std@@@2@@nlohmann@@@std@@@2@@0@0@Z 00000001400456c0 f i userprofile.obj
 0001:00044820       ??$?9PEBD$0A@@nlohmann@@YA_NAEBV?$basic_json@Vmap@std@@Vvector@2@V?$basic_string@DU?$char_traits@D@std@@V?$allocator@D@2@@2@_N_J_KNVallocator@2@Uadl_serializer@nlohmann@@V?$vector@EV?$allocator@E@std@@@2@@0@QEBD@Z 0000000140045820 f i userprofile.obj
 0001:000448b0       ??$?A$$CBD@?$basic_json@Vmap@std@@Vvector@2@V?$basic_string@DU?$char_traits@D@std@@V?$allocator@D@2@@2@_N_J_KNVallocator@2@Uadl_serializer@nlohmann@@V?$vector@EV?$allocator@E@std@@@2@@nlohmann@@QEAAAEAV01@PEBD@Z 00000001400458b0 f i userprofile.obj
 0001:00044b80       ??$?RAEBV?$basic_string@DU?$char_traits@D@std@@V?$allocator@D@2@@std@@AEBV01@@?$less@X@std@@QEBA_NAEBV?$basic_string@DU?$char_traits@D@std@@V?$allocator@D@2@@1@0@Z 0000000140045b80 f i userprofile.obj
 0001:00044c20       ??$?__MDU?$char_traits@D@std@@V?$allocator@D@1@@std@@YA?AUstrong_ordering@0@AEBV?$basic_string@DU?$char_traits@D@std@@V?$allocator@D@2@@0@QEBD@Z 0000000140045c20 f i userprofile.obj
 0001:00044cb0       ??$_Copy_nodes@$0A@@?$_Tree@V?$_Tmap_traits@V?$basic_string@DU?$char_traits@D@std@@V?$allocator@D@2@@std@@V?$basic_json@Vmap@std@@Vvector@2@V?$basic_string@DU?$char_traits@D@std@@V?$allocator@D@2@@2@_N_J_KNVallocator@2@Uadl_serializer@nlohmann@@V?$vector@EV?$allocator@E@std@@@2@@nlohmann@@U?$less@X@2@V?$allocator@U?$pair@$$CBV?$basic_string@DU?$char_traits@D@std@@V?$allocator@D@2@@std@@V?$basic_json@Vmap@std@@Vvector@2@V?$basic_string@DU?$char_traits@D@std@@V?$allocator@D@2@@2@_N_J_KNVallocator@2@Uadl_serializer@nlohmann@@V?$vector@EV?$allocator@E@std@@@2@@nlohmann@@@std@@@2@$0A@@std@@@std@@IEAAPEAU?$_Tree_node@U?$pair@$$CBV?$basic_string@DU?$char_traits@D@std@@V?$allocator@D@2@@std@@V?$basic_json@Vmap@std@@Vvector@2@V?$basic_string@DU?$char_traits@D@std@@V?$allocator@D@2@@2@_N_J_KNVallocator@2@Uadl_serializer@nlohmann@@V?$vector@EV?$allocator@E@std@@@2@@nlohmann@@@std@@PEAX@1@PEAU21@0@Z 0000000140045cb0 f i userprofile.obj
 0001:00044d90       ??$_Emplace_reallocate@$$T@?$vector@V?$basic_json@Vmap@std@@Vvector@2@V?$basic_string@DU?$char_traits@D@std@@V?$allocator@D@2@@2@_N_J_KNVallocator@2@Uadl_serializer@nlohmann@@V?$vector@EV?$allocator@E@std@@@2@@nlohmann@@V?$allocator@V?$basic_json@Vmap@std@@Vvector@2@V?$basic_string@DU?$char_traits@D@std@@V?$allocator@D@2@@2@_N_J_KNVallocator@2@Uadl_serializer@nlohmann@@V?$vector@EV?$allocator@E@std@@@2@@nlohmann@@@std@@@std@@AEAAPEAV?$basic_json@Vmap@std@@Vvector@2@V?$basic_string@DU?$char_traits@D@std@@V?$allocator@D@2@@2@_N_J_KNVallocator@2@Uadl_serializer@nlohmann@@V?$vector@EV?$allocator@E@std@@@2@@nlohmann@@QEAV23@$$QEA$$T@Z 0000000140045d90 f i userprofile.obj
 0001:00044f50       ??$_Emplace_reallocate@AEAN@?$vector@V?$basic_json@Vmap@std@@Vvector@2@V?$basic_string@DU?$char_traits@D@std@@V?$allocator@D@2@@2@_N_J_KNVallocator@2@Uadl_serializer@nlohmann@@V?$vector@EV?$allocator@E@std@@@2@@nlohmann@@V?$allocator@V?$basic_json@Vmap@std@@Vvector@2@V?$basic_string@DU?$char_traits@D@std@@V?$allocator@D@2@@2@_N_J_KNVallocator@2@Uadl_serializer@nlohmann@@V?$vector@EV?$allocator@E@std@@@2@@nlohmann@@@std@@@std@@AEAAPEAV?$basic_json@Vmap@std@@Vvector@2@V?$basic_string@DU?$char_traits@D@std@@V?$allocator@D@2@@2@_N_J_KNVallocator@2@Uadl_serializer@nlohmann@@V?$vector@EV?$allocator@E@std@@@2@@nlohmann@@QEAV23@AEAN@Z 0000000140045f50 f i userprofile.obj
 0001:00045120       ??$_Emplace_reallocate@AEAV?$basic_string@DU?$char_traits@D@std@@V?$allocator@D@2@@std@@@?$vector@V?$basic_json@Vmap@std@@Vvector@2@V?$basic_string@DU?$char_traits@D@std@@V?$allocator@D@2@@2@_N_J_KNVallocator@2@Uadl_serializer@nlohmann@@V?$vector@EV?$allocator@E@std@@@2@@nlohmann@@V?$allocator@V?$basic_json@Vmap@std@@Vvector@2@V?$basic_string@DU?$char_traits@D@std@@V?$allocator@D@2@@2@_N_J_KNVallocator@2@Uadl_serializer@nlohmann@@V?$vector@EV?$allocator@E@std@@@2@@nlohmann@@@std@@@std@@AEAAPEAV?$basic_json@Vmap@std@@Vvector@2@V?$basic_string@DU?$char_traits@D@std@@V?$allocator@D@2@@2@_N_J_KNVallocator@2@Uadl_serializer@nlohmann@@V?$vector@EV?$allocator@E@std@@@2@@nlohmann@@QEAV23@AEAV?$basic_string@DU?$char_traits@D@std@@V?$allocator@D@2@@1@@Z 0000000140046120 f i userprofile.obj
 0001:00045310       ??$_Emplace_reallocate@AEA_J@?$vector@V?$basic_json@Vmap@std@@Vvector@2@V?$basic_string@DU?$char_traits@D@std@@V?$allocator@D@2@@2@_N_J_KNVallocator@2@Uadl_serializer@nlohmann@@V?$vector@EV?$allocator@E@std@@@2@@nlohmann@@V?$allocator@V?$basic_json@Vmap@std@@Vvector@2@V?$basic_string@DU?$char_traits@D@std@@V?$allocator@D@2@@2@_N_J_KNVallocator@2@Uadl_serializer@nlohmann@@V?$vector@EV?$allocator@E@std@@@2@@nlohmann@@@std@@@std@@AEAAPEAV?$basic_json@Vmap@std@@Vvector@2@V?$basic_string@DU?$char_traits@D@std@@V?$allocator@D@2@@2@_N_J_KNVallocator@2@Uadl_serializer@nlohmann@@V?$vector@EV?$allocator@E@std@@@2@@nlohmann@@QEAV23@AEA_J@Z 0000000140046310 f i userprofile.obj
 0001:000454d0       ??$_Emplace_reallocate@AEA_K@?$vector@V?$basic_json@Vmap@std@@Vvector@2@V?$basic_string@DU?$char_traits@D@std@@V?$allocator@D@2@@2@_N_J_KNVallocator@2@Uadl_serializer@nlohmann@@V?$vector@EV?$allocator@E@std@@@2@@nlohmann@@V?$allocator@V?$basic_json@Vmap@std@@Vvector@2@V?$basic_string@DU?$char_traits@D@std@@V?$allocator@D@2@@2@_N_J_KNVallocator@2@Uadl_serializer@nlohmann@@V?$vector@EV?$allocator@E@std@@@2@@nlohmann@@@std@@@std@@AEAAPEAV?$basic_json@Vmap@std@@Vvector@2@V?$basic_string@DU?$char_traits@D@std@@V?$allocator@D@2@@2@_N_J_KNVallocator@2@Uadl_serializer@nlohmann@@V?$vector@EV?$allocator@E@std@@@2@@nlohmann@@QEAV23@AEA_K@Z 00000001400464d0 f i userprofile.obj
 0001:00045690       ??$_Emplace_reallocate@AEA_N@?$vector@V?$basic_json@Vmap@std@@Vvector@2@V?$basic_string@DU?$char_traits@D@std@@V?$allocator@D@2@@2@_N_J_KNVallocator@2@Uadl_serializer@nlohmann@@V?$vector@EV?$allocator@E@std@@@2@@nlohmann@@V?$allocator@V?$basic_json@Vmap@std@@Vvector@2@V?$basic_string@DU?$char_traits@D@std@@V?$allocator@D@2@@2@_N_J_KNVallocator@2@Uadl_serializer@nlohmann@@V?$vector@EV?$allocator@E@std@@@2@@nlohmann@@@std@@@std@@AEAAPEAV?$basic_json@Vmap@std@@Vvector@2@V?$basic_string@DU?$char_traits@D@std@@V?$allocator@D@2@@2@_N_J_KNVallocator@2@Uadl_serializer@nlohmann@@V?$vector@EV?$allocator@E@std@@@2@@nlohmann@@QEAV23@AEA_N@Z 0000000140046690 f i userprofile.obj
 0001:00045860       ??$_Emplace_reallocate@V?$basic_json@Vmap@std@@Vvector@2@V?$basic_string@DU?$char_traits@D@std@@V?$allocator@D@2@@2@_N_J_KNVallocator@2@Uadl_serializer@nlohmann@@V?$vector@EV?$allocator@E@std@@@2@@nlohmann@@@?$vector@V?$basic_json@Vmap@std@@Vvector@2@V?$basic_string@DU?$char_traits@D@std@@V?$allocator@D@2@@2@_N_J_KNVallocator@2@Uadl_serializer@nlohmann@@V?$vector@EV?$allocator@E@std@@@2@@nlohmann@@V?$allocator@V?$basic_json@Vmap@std@@Vvector@2@V?$basic_string@DU?$char_traits@D@std@@V?$allocator@D@2@@2@_N_J_KNVallocator@2@Uadl_serializer@nlohmann@@V?$vector@EV?$allocator@E@std@@@2@@nlohmann@@@std@@@std@@AEAAPEAV?$basic_json@Vmap@std@@Vvector@2@V?$basic_string@DU?$char_traits@D@std@@V?$allocator@D@2@@2@_N_J_KNVallocator@2@Uadl_serializer@nlohmann@@V?$vector@EV?$allocator@E@std@@@2@@nlohmann@@QEAV23@$$QEAV23@@Z 0000000140046860 f i userprofile.obj
 0001:00045a20       ??$_Emplace_reallocate@W4value_t@detail@nlohmann@@@?$vector@V?$basic_json@Vmap@std@@Vvector@2@V?$basic_string@DU?$char_traits@D@std@@V?$allocator@D@2@@2@_N_J_KNVallocator@2@Uadl_serializer@nlohmann@@V?$vector@EV?$allocator@E@std@@@2@@nlohmann@@V?$allocator@V?$basic_json@Vmap@std@@Vvector@2@V?$basic_string@DU?$char_traits@D@std@@V?$allocator@D@2@@2@_N_J_KNVallocator@2@Uadl_serializer@nlohmann@@V?$vector@EV?$allocator@E@std@@@2@@nlohmann@@@std@@@std@@AEAAPEAV?$basic_json@Vmap@std@@Vvector@2@V?$basic_string@DU?$char_traits@D@std@@V?$allocator@D@2@@2@_N_J_KNVallocator@2@Uadl_serializer@nlohmann@@V?$vector@EV?$allocator@E@std@@@2@@nlohmann@@QEAV23@$$QEAW4value_t@detail@3@@Z 0000000140046a20 f i userprofile.obj
 0001:00045bf0       ??$_Erase_tree@V?$allocator@U?$_Tree_node@U?$pair@$$CBV?$basic_string@DU?$char_traits@D@std@@V?$allocator@D@2@@std@@V?$basic_json@Vmap@std@@Vvector@2@V?$basic_string@DU?$char_traits@D@std@@V?$allocator@D@2@@2@_N_J_KNVallocator@2@Uadl_serializer@nlohmann@@V?$vector@EV?$allocator@E@std@@@2@@nlohmann@@@std@@PEAX@std@@@std@@@?$_Tree_val@U?$_Tree_simple_types@U?$pair@$$CBV?$basic_string@DU?$char_traits@D@std@@V?$allocator@D@2@@std@@V?$basic_json@Vmap@std@@Vvector@2@V?$basic_string@DU?$char_traits@D@std@@V?$allocator@D@2@@2@_N_J_KNVallocator@2@Uadl_serializer@nlohmann@@V?$vector@EV?$allocator@E@std@@@2@@nlohmann@@@std@@@std@@@std@@QEAAXAEAV?$allocator@U?$_Tree_node@U?$pair@$$CBV?$basic_string@DU?$char_traits@D@std@@V?$allocator@D@2@@std@@V?$basic_json@Vmap@std@@Vvector@2@V?$basic_string@DU?$char_traits@D@std@@V?$allocator@D@2@@2@_N_J_KNVallocator@2@Uadl_serializer@nlohmann@@V?$vector@EV?$allocator@E@std@@@2@@nlohmann@@@std@@PEAX@std@@@1@PEAU?$_Tree_node@U?$pair@$$CBV?$basic_string@DU?$char_traits@D@std@@V?$allocator@D@2@@std@@V?$basic_json@Vmap@std@@Vvector@2@V?$basic_string@DU?$char_traits@D@std@@V?$allocator@D@2@@2@_N_J_KNVallocator@2@Uadl_serializer@nlohmann@@V?$vector@EV?$allocator@E@std@@@2@@nlohmann@@@std@@PEAX@1@@Z 0000000140046bf0 f i userprofile.obj
 0001:00045bf0       ??$_Erase_tree_and_orphan@V?$allocator@U?$_Tree_node@U?$pair@$$CBV?$basic_string@DU?$char_traits@D@std@@V?$allocator@D@2@@std@@V?$basic_json@Vmap@std@@Vvector@2@V?$basic_string@DU?$char_traits@D@std@@V?$allocator@D@2@@2@_N_J_KNVallocator@2@Uadl_serializer@nlohmann@@V?$vector@EV?$allocator@E@std@@@2@@nlohmann@@@std@@PEAX@std@@@std@@@?$_Tree_val@U?$_Tree_simple_types@U?$pair@$$CBV?$basic_string@DU?$char_traits@D@std@@V?$allocator@D@2@@std@@V?$basic_json@Vmap@std@@Vvector@2@V?$basic_string@DU?$char_traits@D@std@@V?$allocator@D@2@@2@_N_J_KNVallocator@2@Uadl_serializer@nlohmann@@V?$vector@EV?$allocator@E@std@@@2@@nlohmann@@@std@@@std@@@std@@QEAAXAEAV?$allocator@U?$_Tree_node@U?$pair@$$CBV?$basic_string@DU?$char_traits@D@std@@V?$allocator@D@2@@std@@V?$basic_json@Vmap@std@@Vvector@2@V?$basic_string@DU?$char_traits@D@std@@V?$allocator@D@2@@2@_N_J_KNVallocator@2@Uadl_serializer@nlohmann@@V?$vector@EV?$allocator@E@std@@@2@@nlohmann@@@std@@PEAX@std@@@1@PEAU?$_Tree_node@U?$pair@$$CBV?$basic_string@DU?$char_traits@D@std@@V?$allocator@D@2@@std@@V?$basic_json@Vmap@std@@Vvector@2@V?$basic_string@DU?$char_traits@D@std@@V?$allocator@D@2@@2@_N_J_KNVallocator@2@Uadl_serializer@nlohmann@@V?$vector@EV?$allocator@E@std@@@2@@nlohmann@@@std@@PEAX@1@@Z 0000000140046bf0 f i userprofile.obj
 0001:00045c80       ??$_Find_lower_bound@V?$basic_string@DU?$char_traits@D@std@@V?$allocator@D@2@@std@@@?$_Tree@V?$_Tmap_traits@V?$basic_string@DU?$char_traits@D@std@@V?$allocator@D@2@@std@@V?$basic_json@Vmap@std@@Vvector@2@V?$basic_string@DU?$char_traits@D@std@@V?$allocator@D@2@@2@_N_J_KNVallocator@2@Uadl_serializer@nlohmann@@V?$vector@EV?$allocator@E@std@@@2@@nlohmann@@U?$less@X@2@V?$allocator@U?$pair@$$CBV?$basic_string@DU?$char_traits@D@std@@V?$allocator@D@2@@std@@V?$basic_json@Vmap@std@@Vvector@2@V?$basic_string@DU?$char_traits@D@std@@V?$allocator@D@2@@2@_N_J_KNVallocator@2@Uadl_serializer@nlohmann@@V?$vector@EV?$allocator@E@std@@@2@@nlohmann@@@std@@@2@$0A@@std@@@std@@IEBA?AU?$_Tree_find_result@PEAU?$_Tree_node@U?$pair@$$CBV?$basic_string@DU?$char_traits@D@std@@V?$allocator@D@2@@std@@V?$basic_json@Vmap@std@@Vvector@2@V?$basic_string@DU?$char_traits@D@std@@V?$allocator@D@2@@2@_N_J_KNVallocator@2@Uadl_serializer@nlohmann@@V?$vector@EV?$allocator@E@std@@@2@@nlohmann@@@std@@PEAX@std@@@1@AEBV?$basic_string@DU?$char_traits@D@std@@V?$allocator@D@2@@1@@Z 0000000140046c80 f i userprofile.obj
 0001:00045d50       ??$dump_integer@E$0A@@?$serializer@V?$basic_json@Vmap@std@@Vvector@2@V?$basic_string@DU?$char_traits@D@std@@V?$allocator@D@2@@2@_N_J_KNVallocator@2@Uadl_serializer@nlohmann@@V?$vector@EV?$allocator@E@std@@@2@@nlohmann@@@detail@nlohmann@@AEAAXE@Z 0000000140046d50 f i userprofile.obj
 0001:00045e90       ??$dump_integer@_J$0A@@?$serializer@V?$basic_json@Vmap@std@@Vvector@2@V?$basic_string@DU?$char_traits@D@std@@V?$allocator@D@2@@2@_N_J_KNVallocator@2@Uadl_serializer@nlohmann@@V?$vector@EV?$allocator@E@std@@@2@@nlohmann@@@detail@nlohmann@@AEAAX_J@Z 0000000140046e90 f i userprofile.obj
 0001:00046050       ??$erase@V?$iter_impl@V?$basic_json@Vmap@std@@Vvector@2@V?$basic_string@DU?$char_traits@D@std@@V?$allocator@D@2@@2@_N_J_KNVallocator@2@Uadl_serializer@nlohmann@@V?$vector@EV?$allocator@E@std@@@2@@nlohmann@@@detail@nlohmann@@$0A@@?$basic_json@Vmap@std@@Vvector@2@V?$basic_string@DU?$char_traits@D@std@@V?$allocator@D@2@@2@_N_J_KNVallocator@2@Uadl_serializer@nlohmann@@V?$vector@EV?$allocator@E@std@@@2@@nlohmann@@QEAA?AV?$iter_impl@V?$basic_json@Vmap@std@@Vvector@2@V?$basic_string@DU?$char_traits@D@std@@V?$allocator@D@2@@2@_N_J_KNVallocator@2@Uadl_serializer@nlohmann@@V?$vector@EV?$allocator@E@std@@@2@@nlohmann@@@detail@1@V231@@Z 0000000140047050 f i userprofile.obj
 0001:00046340       ??$find@$$BY07DU?$less@X@std@@$0A@@?$_Tree@V?$_Tmap_traits@V?$basic_string@DU?$char_traits@D@std@@V?$allocator@D@2@@std@@V?$basic_json@Vmap@std@@Vvector@2@V?$basic_string@DU?$char_traits@D@std@@V?$allocator@D@2@@2@_N_J_KNVallocator@2@Uadl_serializer@nlohmann@@V?$vector@EV?$allocator@E@std@@@2@@nlohmann@@U?$less@X@2@V?$allocator@U?$pair@$$CBV?$basic_string@DU?$char_traits@D@std@@V?$allocator@D@2@@std@@V?$basic_json@Vmap@std@@Vvector@2@V?$basic_string@DU?$char_traits@D@std@@V?$allocator@D@2@@2@_N_J_KNVallocator@2@Uadl_serializer@nlohmann@@V?$vector@EV?$allocator@E@std@@@2@@nlohmann@@@std@@@2@$0A@@std@@@std@@QEAA?AV?$_Tree_iterator@V?$_Tree_val@U?$_Tree_simple_types@U?$pair@$$CBV?$basic_string@DU?$char_traits@D@std@@V?$allocator@D@2@@std@@V?$basic_json@Vmap@std@@Vvector@2@V?$basic_string@DU?$char_traits@D@std@@V?$allocator@D@2@@2@_N_J_KNVallocator@2@Uadl_serializer@nlohmann@@V?$vector@EV?$allocator@E@std@@@2@@nlohmann@@@std@@@std@@@std@@@1@AEAY07$$CBD@Z 0000000140047340 f i userprofile.obj
 0001:000463e0       ??$find@AEAY07$$CBD@?$basic_json@Vmap@std@@Vvector@2@V?$basic_string@DU?$char_traits@D@std@@V?$allocator@D@2@@2@_N_J_KNVallocator@2@Uadl_serializer@nlohmann@@V?$vector@EV?$allocator@E@std@@@2@@nlohmann@@QEAA?AV?$iter_impl@V?$basic_json@Vmap@std@@Vvector@2@V?$basic_string@DU?$char_traits@D@std@@V?$allocator@D@2@@2@_N_J_KNVallocator@2@Uadl_serializer@nlohmann@@V?$vector@EV?$allocator@E@std@@@2@@nlohmann@@@detail@1@AEAY07$$CBD@Z 00000001400473e0 f i userprofile.obj
 0001:000463e0       ??$find@AEAY07$$CBD@?$basic_json@Vmap@std@@Vvector@2@V?$basic_string@DU?$char_traits@D@std@@V?$allocator@D@2@@2@_N_J_KNVallocator@2@Uadl_serializer@nlohmann@@V?$vector@EV?$allocator@E@std@@@2@@nlohmann@@QEBA?AV?$iter_impl@$$CBV?$basic_json@Vmap@std@@Vvector@2@V?$basic_string@DU?$char_traits@D@std@@V?$allocator@D@2@@2@_N_J_KNVallocator@2@Uadl_serializer@nlohmann@@V?$vector@EV?$allocator@E@std@@@2@@nlohmann@@@detail@1@AEAY07$$CBD@Z 00000001400473e0 f i userprofile.obj
 0001:000463e0       ??$find@AEAY0O@$$CBD@?$basic_json@Vmap@std@@Vvector@2@V?$basic_string@DU?$char_traits@D@std@@V?$allocator@D@2@@2@_N_J_KNVallocator@2@Uadl_serializer@nlohmann@@V?$vector@EV?$allocator@E@std@@@2@@nlohmann@@QEBA?AV?$iter_impl@$$CBV?$basic_json@Vmap@std@@Vvector@2@V?$basic_string@DU?$char_traits@D@std@@V?$allocator@D@2@@2@_N_J_KNVallocator@2@Uadl_serializer@nlohmann@@V?$vector@EV?$allocator@E@std@@@2@@nlohmann@@@detail@1@AEAY0O@$$CBD@Z 00000001400473e0 f i userprofile.obj
 0001:000464e0       ??$for_each@PEBV?$json_ref@V?$basic_json@Vmap@std@@Vvector@2@V?$basic_string@DU?$char_traits@D@std@@V?$allocator@D@2@@2@_N_J_KNVallocator@2@Uadl_serializer@nlohmann@@V?$vector@EV?$allocator@E@std@@@2@@nlohmann@@@detail@nlohmann@@V<lambda_2>@?O@???0?$basic_json@Vmap@std@@Vvector@2@V?$basic_string@DU?$char_traits@D@std@@V?$allocator@D@2@@2@_N_J_KNVallocator@2@Uadl_serializer@nlohmann@@V?$vector@EV?$allocator@E@std@@@2@@3@QEAA@V?$initializer_list@V?$json_ref@V?$basic_json@Vmap@std@@Vvector@2@V?$basic_string@DU?$char_traits@D@std@@V?$allocator@D@2@@2@_N_J_KNVallocator@2@Uadl_serializer@nlohmann@@V?$vector@EV?$allocator@E@std@@@2@@nlohmann@@@detail@nlohmann@@@std@@_NW4value_t@23@@Z@@std@@YA?AV<lambda_2>@?O@???0?$basic_json@Vmap@std@@Vvector@2@V?$basic_string@DU?$char_traits@D@std@@V?$allocator@D@2@@2@_N_J_KNVallocator@2@Uadl_serializer@nlohmann@@V?$vector@EV?$allocator@E@std@@@2@@nlohmann@@QEAA@V?$initializer_list@V?$json_ref@V?$basic_json@Vmap@std@@Vvector@2@V?$basic_string@DU?$char_traits@D@std@@V?$allocator@D@2@@2@_N_J_KNVallocator@2@Uadl_serializer@nlohmann@@V?$vector@EV?$allocator@E@std@@@2@@nlohmann@@@detail@nlohmann@@@0@_NW4value_t@detail@3@@Z@PEBV?$json_ref@V?$basic_json@Vmap@std@@Vvector@2@V?$basic_string@DU?$char_traits@D@std@@V?$allocator@D@2@@2@_N_J_KNVallocator@2@Uadl_serializer@nlohmann@@V?$vector@EV?$allocator@E@std@@@2@@nlohmann@@@63@3V1?O@???023@QEAA@012@Z@@Z 00000001400474e0 f i userprofile.obj
 0001:000466a0       ??$from_json@V?$basic_json@Vmap@std@@Vvector@2@V?$basic_string@DU?$char_traits@D@std@@V?$allocator@D@2@@2@_N_J_KNVallocator@2@Uadl_serializer@nlohmann@@V?$vector@EV?$allocator@E@std@@@2@@nlohmann@@@detail@nlohmann@@YAXAEBV?$basic_json@Vmap@std@@Vvector@2@V?$basic_string@DU?$char_traits@D@std@@V?$allocator@D@2@@2@_N_J_KNVallocator@2@Uadl_serializer@nlohmann@@V?$vector@EV?$allocator@E@std@@@2@@1@AEAV?$basic_string@DU?$char_traits@D@std@@V?$allocator@D@2@@std@@@Z 00000001400476a0 f i userprofile.obj
 0001:00046850       ??$get@$0A@V?$iter_impl@$$CBV?$basic_json@Vmap@std@@Vvector@2@V?$basic_string@DU?$char_traits@D@std@@V?$allocator@D@2@@2@_N_J_KNVallocator@2@Uadl_serializer@nlohmann@@V?$vector@EV?$allocator@E@std@@@2@@nlohmann@@@detail@nlohmann@@$0A@@detail@nlohmann@@YAAEBV?$basic_string@DU?$char_traits@D@std@@V?$allocator@D@2@@std@@AEBV?$iteration_proxy_value@V?$iter_impl@$$CBV?$basic_json@Vmap@std@@Vvector@2@V?$basic_string@DU?$char_traits@D@std@@V?$allocator@D@2@@2@_N_J_KNVallocator@2@Uadl_serializer@nlohmann@@V?$vector@EV?$allocator@E@std@@@2@@nlohmann@@@detail@nlohmann@@@01@@Z 0000000140047850 f i userprofile.obj
 0001:00046910       ??$get@V?$basic_string@DU?$char_traits@D@std@@V?$allocator@D@2@@std@@V12@$0A@@?$basic_json@Vmap@std@@Vvector@2@V?$basic_string@DU?$char_traits@D@std@@V?$allocator@D@2@@2@_N_J_KNVallocator@2@Uadl_serializer@nlohmann@@V?$vector@EV?$allocator@E@std@@@2@@nlohmann@@QEBA?AV?$basic_string@DU?$char_traits@D@std@@V?$allocator@D@2@@std@@XZ 0000000140047910 f i userprofile.obj
 0001:00046950       ??$handle_value@$$T@?$json_sax_dom_callback_parser@V?$basic_json@Vmap@std@@Vvector@2@V?$basic_string@DU?$char_traits@D@std@@V?$allocator@D@2@@2@_N_J_KNVallocator@2@Uadl_serializer@nlohmann@@V?$vector@EV?$allocator@E@std@@@2@@nlohmann@@@detail@nlohmann@@AEAA?AU?$pair@_NPEAV?$basic_json@Vmap@std@@Vvector@2@V?$basic_string@DU?$char_traits@D@std@@V?$allocator@D@2@@2@_N_J_KNVallocator@2@Uadl_serializer@nlohmann@@V?$vector@EV?$allocator@E@std@@@2@@nlohmann@@@std@@$$QEA$$T_N@Z 0000000140047950 f i userprofile.obj
 0001:00046ba0       ??$handle_value@AEAN@?$json_sax_dom_callback_parser@V?$basic_json@Vmap@std@@Vvector@2@V?$basic_string@DU?$char_traits@D@std@@V?$allocator@D@2@@2@_N_J_KNVallocator@2@Uadl_serializer@nlohmann@@V?$vector@EV?$allocator@E@std@@@2@@nlohmann@@@detail@nlohmann@@AEAA?AU?$pair@_NPEAV?$basic_json@Vmap@std@@Vvector@2@V?$basic_string@DU?$char_traits@D@std@@V?$allocator@D@2@@2@_N_J_KNVallocator@2@Uadl_serializer@nlohmann@@V?$vector@EV?$allocator@E@std@@@2@@nlohmann@@@std@@AEAN_N@Z 0000000140047ba0 f i userprofile.obj
 0001:00046e00       ??$handle_value@AEAV?$basic_string@DU?$char_traits@D@std@@V?$allocator@D@2@@std@@@?$json_sax_dom_callback_parser@V?$basic_json@Vmap@std@@Vvector@2@V?$basic_string@DU?$char_traits@D@std@@V?$allocator@D@2@@2@_N_J_KNVallocator@2@Uadl_serializer@nlohmann@@V?$vector@EV?$allocator@E@std@@@2@@nlohmann@@@detail@nlohmann@@AEAA?AU?$pair@_NPEAV?$basic_json@Vmap@std@@Vvector@2@V?$basic_string@DU?$char_traits@D@std@@V?$allocator@D@2@@2@_N_J_KNVallocator@2@Uadl_serializer@nlohmann@@V?$vector@EV?$allocator@E@std@@@2@@nlohmann@@@std@@AEAV?$basic_string@DU?$char_traits@D@std@@V?$allocator@D@2@@4@_N@Z 0000000140047e00 f i userprofile.obj
 0001:00047080       ??$handle_value@AEA_J@?$json_sax_dom_callback_parser@V?$basic_json@Vmap@std@@Vvector@2@V?$basic_string@DU?$char_traits@D@std@@V?$allocator@D@2@@2@_N_J_KNVallocator@2@Uadl_serializer@nlohmann@@V?$vector@EV?$allocator@E@std@@@2@@nlohmann@@@detail@nlohmann@@AEAA?AU?$pair@_NPEAV?$basic_json@Vmap@std@@Vvector@2@V?$basic_string@DU?$char_traits@D@std@@V?$allocator@D@2@@2@_N_J_KNVallocator@2@Uadl_serializer@nlohmann@@V?$vector@EV?$allocator@E@std@@@2@@nlohmann@@@std@@AEA_J_N@Z 0000000140048080 f i userprofile.obj
 0001:000472e0       ??$handle_value@AEA_K@?$json_sax_dom_callback_parser@V?$basic_json@Vmap@std@@Vvector@2@V?$basic_string@DU?$char_traits@D@std@@V?$allocator@D@2@@2@_N_J_KNVallocator@2@Uadl_serializer@nlohmann@@V?$vector@EV?$allocator@E@std@@@2@@nlohmann@@@detail@nlohmann@@AEAA?AU?$pair@_NPEAV?$basic_json@Vmap@std@@Vvector@2@V?$basic_string@DU?$char_traits@D@std@@V?$allocator@D@2@@2@_N_J_KNVallocator@2@Uadl_serializer@nlohmann@@V?$vector@EV?$allocator@E@std@@@2@@nlohmann@@@std@@AEA_K_N@Z 00000001400482e0 f i userprofile.obj
 0001:00047540       ??$handle_value@AEA_N@?$json_sax_dom_callback_parser@V?$basic_json@Vmap@std@@Vvector@2@V?$basic_string@DU?$char_traits@D@std@@V?$allocator@D@2@@2@_N_J_KNVallocator@2@Uadl_serializer@nlohmann@@V?$vector@EV?$allocator@E@std@@@2@@nlohmann@@@detail@nlohmann@@AEAA?AU?$pair@_NPEAV?$basic_json@Vmap@std@@Vvector@2@V?$basic_string@DU?$char_traits@D@std@@V?$allocator@D@2@@2@_N_J_KNVallocator@2@Uadl_serializer@nlohmann@@V?$vector@EV?$allocator@E@std@@@2@@nlohmann@@@std@@AEA_N_N@Z 0000000140048540 f i userprofile.obj
 0001:000477a0       ??$handle_value@W4value_t@detail@nlohmann@@@?$json_sax_dom_callback_parser@V?$basic_json@Vmap@std@@Vvector@2@V?$basic_string@DU?$char_traits@D@std@@V?$allocator@D@2@@2@_N_J_KNVallocator@2@Uadl_serializer@nlohmann@@V?$vector@EV?$allocator@E@std@@@2@@nlohmann@@@detail@nlohmann@@AEAA?AU?$pair@_NPEAV?$basic_json@Vmap@std@@Vvector@2@V?$basic_string@DU?$char_traits@D@std@@V?$allocator@D@2@@2@_N_J_KNVallocator@2@Uadl_serializer@nlohmann@@V?$vector@EV?$allocator@E@std@@@2@@nlohmann@@@std@@$$QEAW4value_t@12@_N@Z 00000001400487a0 f i userprofile.obj
 0001:000479f0       ??$handle_value@W4value_t@detail@nlohmann@@@?$json_sax_dom_parser@V?$basic_json@Vmap@std@@Vvector@2@V?$basic_string@DU?$char_traits@D@std@@V?$allocator@D@2@@2@_N_J_KNVallocator@2@Uadl_serializer@nlohmann@@V?$vector@EV?$allocator@E@std@@@2@@nlohmann@@@detail@nlohmann@@AEAAPEAV?$basic_json@Vmap@std@@Vvector@2@V?$basic_string@DU?$char_traits@D@std@@V?$allocator@D@2@@2@_N_J_KNVallocator@2@Uadl_serializer@nlohmann@@V?$vector@EV?$allocator@E@std@@@2@@2@$$QEAW4value_t@12@@Z 00000001400489f0 f i userprofile.obj
 0001:00047b00       ??$parse@PEBD@?$basic_json@Vmap@std@@Vvector@2@V?$basic_string@DU?$char_traits@D@std@@V?$allocator@D@2@@2@_N_J_KNVallocator@2@Uadl_serializer@nlohmann@@V?$vector@EV?$allocator@E@std@@@2@@nlohmann@@SA?AV01@PEBD0V?$function@$$A6A_NHW4parse_event_t@detail@nlohmann@@AEAV?$basic_json@Vmap@std@@Vvector@2@V?$basic_string@DU?$char_traits@D@std@@V?$allocator@D@2@@2@_N_J_KNVallocator@2@Uadl_serializer@nlohmann@@V?$vector@EV?$allocator@E@std@@@2@@3@@Z@std@@_N2@Z 0000000140048b00 f i userprofile.obj
 0001:00047c60       ??$parser@V?$iterator_input_adapter@PEBD@detail@nlohmann@@@?$basic_json@Vmap@std@@Vvector@2@V?$basic_string@DU?$char_traits@D@std@@V?$allocator@D@2@@2@_N_J_KNVallocator@2@Uadl_serializer@nlohmann@@V?$vector@EV?$allocator@E@std@@@2@@nlohmann@@CA?AV?$parser@V?$basic_json@Vmap@std@@Vvector@2@V?$basic_string@DU?$char_traits@D@std@@V?$allocator@D@2@@2@_N_J_KNVallocator@2@Uadl_serializer@nlohmann@@V?$vector@EV?$allocator@E@std@@@2@@nlohmann@@V?$iterator_input_adapter@PEBD@detail@2@@detail@1@V?$iterator_input_adapter@PEBD@31@V?$function@$$A6A_NHW4parse_event_t@detail@nlohmann@@AEAV?$basic_json@Vmap@std@@Vvector@2@V?$basic_string@DU?$char_traits@D@std@@V?$allocator@D@2@@2@_N_J_KNVallocator@2@Uadl_serializer@nlohmann@@V?$vector@EV?$allocator@E@std@@@2@@3@@Z@std@@_N2@Z 0000000140048c60 f i userprofile.obj
 0001:00047e00       ??$parser@Vinput_stream_adapter@detail@nlohmann@@@?$basic_json@Vmap@std@@Vvector@2@V?$basic_string@DU?$char_traits@D@std@@V?$allocator@D@2@@2@_N_J_KNVallocator@2@Uadl_serializer@nlohmann@@V?$vector@EV?$allocator@E@std@@@2@@nlohmann@@CA?AV?$parser@V?$basic_json@Vmap@std@@Vvector@2@V?$basic_string@DU?$char_traits@D@std@@V?$allocator@D@2@@2@_N_J_KNVallocator@2@Uadl_serializer@nlohmann@@V?$vector@EV?$allocator@E@std@@@2@@nlohmann@@Vinput_stream_adapter@detail@2@@detail@1@Vinput_stream_adapter@31@V?$function@$$A6A_NHW4parse_event_t@detail@nlohmann@@AEAV?$basic_json@Vmap@std@@Vvector@2@V?$basic_string@DU?$char_traits@D@std@@V?$allocator@D@2@@2@_N_J_KNVallocator@2@Uadl_serializer@nlohmann@@V?$vector@EV?$allocator@E@std@@@2@@3@@Z@std@@_N2@Z 0000000140048e00 f i userprofile.obj
 0001:00047fb0       ??$sax_parse_internal@V?$json_sax_dom_callback_parser@V?$basic_json@Vmap@std@@Vvector@2@V?$basic_string@DU?$char_traits@D@std@@V?$allocator@D@2@@2@_N_J_KNVallocator@2@Uadl_serializer@nlohmann@@V?$vector@EV?$allocator@E@std@@@2@@nlohmann@@@detail@nlohmann@@@?$parser@V?$basic_json@Vmap@std@@Vvector@2@V?$basic_string@DU?$char_traits@D@std@@V?$allocator@D@2@@2@_N_J_KNVallocator@2@Uadl_serializer@nlohmann@@V?$vector@EV?$allocator@E@std@@@2@@nlohmann@@V?$iterator_input_adapter@PEBD@detail@2@@detail@nlohmann@@AEAA_NPEAV?$json_sax_dom_callback_parser@V?$basic_json@Vmap@std@@Vvector@2@V?$basic_string@DU?$char_traits@D@std@@V?$allocator@D@2@@2@_N_J_KNVallocator@2@Uadl_serializer@nlohmann@@V?$vector@EV?$allocator@E@std@@@2@@nlohmann@@@12@@Z 0000000140048fb0 f i userprofile.obj
 0001:000492e0       ??$sax_parse_internal@V?$json_sax_dom_callback_parser@V?$basic_json@Vmap@std@@Vvector@2@V?$basic_string@DU?$char_traits@D@std@@V?$allocator@D@2@@2@_N_J_KNVallocator@2@Uadl_serializer@nlohmann@@V?$vector@EV?$allocator@E@std@@@2@@nlohmann@@@detail@nlohmann@@@?$parser@V?$basic_json@Vmap@std@@Vvector@2@V?$basic_string@DU?$char_traits@D@std@@V?$allocator@D@2@@2@_N_J_KNVallocator@2@Uadl_serializer@nlohmann@@V?$vector@EV?$allocator@E@std@@@2@@nlohmann@@Vinput_stream_adapter@detail@2@@detail@nlohmann@@AEAA_NPEAV?$json_sax_dom_callback_parser@V?$basic_json@Vmap@std@@Vvector@2@V?$basic_string@DU?$char_traits@D@std@@V?$allocator@D@2@@2@_N_J_KNVallocator@2@Uadl_serializer@nlohmann@@V?$vector@EV?$allocator@E@std@@@2@@nlohmann@@@12@@Z 000000014004a2e0 f i userprofile.obj
 0001:0004a610       ??$sax_parse_internal@V?$json_sax_dom_parser@V?$basic_json@Vmap@std@@Vvector@2@V?$basic_string@DU?$char_traits@D@std@@V?$allocator@D@2@@2@_N_J_KNVallocator@2@Uadl_serializer@nlohmann@@V?$vector@EV?$allocator@E@std@@@2@@nlohmann@@@detail@nlohmann@@@?$parser@V?$basic_json@Vmap@std@@Vvector@2@V?$basic_string@DU?$char_traits@D@std@@V?$allocator@D@2@@2@_N_J_KNVallocator@2@Uadl_serializer@nlohmann@@V?$vector@EV?$allocator@E@std@@@2@@nlohmann@@V?$iterator_input_adapter@PEBD@detail@2@@detail@nlohmann@@AEAA_NPEAV?$json_sax_dom_parser@V?$basic_json@Vmap@std@@Vvector@2@V?$basic_string@DU?$char_traits@D@std@@V?$allocator@D@2@@2@_N_J_KNVallocator@2@Uadl_serializer@nlohmann@@V?$vector@EV?$allocator@E@std@@@2@@nlohmann@@@12@@Z 000000014004b610 f i userprofile.obj
 0001:0004b830       ??$sax_parse_internal@V?$json_sax_dom_parser@V?$basic_json@Vmap@std@@Vvector@2@V?$basic_string@DU?$char_traits@D@std@@V?$allocator@D@2@@2@_N_J_KNVallocator@2@Uadl_serializer@nlohmann@@V?$vector@EV?$allocator@E@std@@@2@@nlohmann@@@detail@nlohmann@@@?$parser@V?$basic_json@Vmap@std@@Vvector@2@V?$basic_string@DU?$char_traits@D@std@@V?$allocator@D@2@@2@_N_J_KNVallocator@2@Uadl_serializer@nlohmann@@V?$vector@EV?$allocator@E@std@@@2@@nlohmann@@Vinput_stream_adapter@detail@2@@detail@nlohmann@@AEAA_NPEAV?$json_sax_dom_parser@V?$basic_json@Vmap@std@@Vvector@2@V?$basic_string@DU?$char_traits@D@std@@V?$allocator@D@2@@2@_N_J_KNVallocator@2@Uadl_serializer@nlohmann@@V?$vector@EV?$allocator@E@std@@@2@@nlohmann@@@12@@Z 000000014004c830 f i userprofile.obj
 0001:0004ca50       ??0?$basic_json@Vmap@std@@Vvector@2@V?$basic_string@DU?$char_traits@D@std@@V?$allocator@D@2@@2@_N_J_KNVallocator@2@Uadl_serializer@nlohmann@@V?$vector@EV?$allocator@E@std@@@2@@nlohmann@@QEAA@AEBV01@@Z 000000014004da50 f i userprofile.obj
 0001:0004cd80       ??0?$basic_json@Vmap@std@@Vvector@2@V?$basic_string@DU?$char_traits@D@std@@V?$allocator@D@2@@2@_N_J_KNVallocator@2@Uadl_serializer@nlohmann@@V?$vector@EV?$allocator@E@std@@@2@@nlohmann@@QEAA@V?$initializer_list@V?$json_ref@V?$basic_json@Vmap@std@@Vvector@2@V?$basic_string@DU?$char_traits@D@std@@V?$allocator@D@2@@2@_N_J_KNVallocator@2@Uadl_serializer@nlohmann@@V?$vector@EV?$allocator@E@std@@@2@@nlohmann@@@detail@nlohmann@@@std@@_NW4value_t@detail@1@@Z 000000014004dd80 f i userprofile.obj
 0001:0004cfb0       ??0?$json_sax_dom_callback_parser@V?$basic_json@Vmap@std@@Vvector@2@V?$basic_string@DU?$char_traits@D@std@@V?$allocator@D@2@@2@_N_J_KNVallocator@2@Uadl_serializer@nlohmann@@V?$vector@EV?$allocator@E@std@@@2@@nlohmann@@@detail@nlohmann@@QEAA@AEAV?$basic_json@Vmap@std@@Vvector@2@V?$basic_string@DU?$char_traits@D@std@@V?$allocator@D@2@@2@_N_J_KNVallocator@2@Uadl_serializer@nlohmann@@V?$vector@EV?$allocator@E@std@@@2@@2@V?$function@$$A6A_NHW4parse_event_t@detail@nlohmann@@AEAV?$basic_json@Vmap@std@@Vvector@2@V?$basic_string@DU?$char_traits@D@std@@V?$allocator@D@2@@2@_N_J_KNVallocator@2@Uadl_serializer@nlohmann@@V?$vector@EV?$allocator@E@std@@@2@@3@@Z@std@@_N@Z 000000014004dfb0 f i userprofile.obj
 0001:0004d0b0       ??0?$serializer@V?$basic_json@Vmap@std@@Vvector@2@V?$basic_string@DU?$char_traits@D@std@@V?$allocator@D@2@@2@_N_J_KNVallocator@2@Uadl_serializer@nlohmann@@V?$vector@EV?$allocator@E@std@@@2@@nlohmann@@@detail@nlohmann@@QEAA@V?$shared_ptr@U?$output_adapter_protocol@D@detail@nlohmann@@@std@@DW4error_handler_t@12@@Z 000000014004e0b0 f i userprofile.obj
 0001:0004d200       ??0json_value@?$basic_json@Vmap@std@@Vvector@2@V?$basic_string@DU?$char_traits@D@std@@V?$allocator@D@2@@2@_N_J_KNVallocator@2@Uadl_serializer@nlohmann@@V?$vector@EV?$allocator@E@std@@@2@@nlohmann@@QEAA@W4value_t@detail@2@@Z 000000014004e200 f i userprofile.obj
 0001:0004d380       ??1?$_Alloc_construct_ptr@V?$allocator@U?$_Tree_node@U?$pair@$$CBV?$basic_string@DU?$char_traits@D@std@@V?$allocator@D@2@@std@@V?$basic_json@Vmap@std@@Vvector@2@V?$basic_string@DU?$char_traits@D@std@@V?$allocator@D@2@@2@_N_J_KNVallocator@2@Uadl_serializer@nlohmann@@V?$vector@EV?$allocator@E@std@@@2@@nlohmann@@@std@@PEAX@std@@@std@@@std@@QEAA@XZ 000000014004e380 f i userprofile.obj
 0001:0004d380       ??1?$_Tree_temp_node_alloc@V?$allocator@U?$_Tree_node@U?$pair@$$CBV?$basic_string@DU?$char_traits@D@std@@V?$allocator@D@2@@std@@V?$basic_json@Vmap@std@@Vvector@2@V?$basic_string@DU?$char_traits@D@std@@V?$allocator@D@2@@2@_N_J_KNVallocator@2@Uadl_serializer@nlohmann@@V?$vector@EV?$allocator@E@std@@@2@@nlohmann@@@std@@PEAX@std@@@std@@@std@@QEAA@XZ 000000014004e380 f i userprofile.obj
 0001:0004d3a0       ??1?$_Erase_tree_and_orphan_guard@V?$allocator@U?$_Tree_node@U?$pair@$$CBV?$basic_string@DU?$char_traits@D@std@@V?$allocator@D@2@@std@@V?$basic_json@Vmap@std@@Vvector@2@V?$basic_string@DU?$char_traits@D@std@@V?$allocator@D@2@@2@_N_J_KNVallocator@2@Uadl_serializer@nlohmann@@V?$vector@EV?$allocator@E@std@@@2@@nlohmann@@@std@@PEAX@std@@@std@@@?$_Tree_val@U?$_Tree_simple_types@U?$pair@$$CBV?$basic_string@DU?$char_traits@D@std@@V?$allocator@D@2@@std@@V?$basic_json@Vmap@std@@Vvector@2@V?$basic_string@DU?$char_traits@D@std@@V?$allocator@D@2@@2@_N_J_KNVallocator@2@Uadl_serializer@nlohmann@@V?$vector@EV?$allocator@E@std@@@2@@nlohmann@@@std@@@std@@@std@@QEAA@XZ 000000014004e3a0 f i userprofile.obj
 0001:0004d3c0       ??1?$_Tidy_guard@V?$vector@V?$basic_json@Vmap@std@@Vvector@2@V?$basic_string@DU?$char_traits@D@std@@V?$allocator@D@2@@2@_N_J_KNVallocator@2@Uadl_serializer@nlohmann@@V?$vector@EV?$allocator@E@std@@@2@@nlohmann@@V?$allocator@V?$basic_json@Vmap@std@@Vvector@2@V?$basic_string@DU?$char_traits@D@std@@V?$allocator@D@2@@2@_N_J_KNVallocator@2@Uadl_serializer@nlohmann@@V?$vector@EV?$allocator@E@std@@@2@@nlohmann@@@std@@@std@@@std@@QEAA@XZ 000000014004e3c0 f i userprofile.obj
 0001:0004d3d0       ??1?$_Tree_head_scoped_ptr@V?$allocator@U?$_Tree_node@U?$pair@$$CBV?$basic_string@DU?$char_traits@D@std@@V?$allocator@D@2@@std@@V?$basic_json@Vmap@std@@Vvector@2@V?$basic_string@DU?$char_traits@D@std@@V?$allocator@D@2@@2@_N_J_KNVallocator@2@Uadl_serializer@nlohmann@@V?$vector@EV?$allocator@E@std@@@2@@nlohmann@@@std@@PEAX@std@@@std@@V?$_Tree_val@U?$_Tree_simple_types@U?$pair@$$CBV?$basic_string@DU?$char_traits@D@std@@V?$allocator@D@2@@std@@V?$basic_json@Vmap@std@@Vvector@2@V?$basic_string@DU?$char_traits@D@std@@V?$allocator@D@2@@2@_N_J_KNVallocator@2@Uadl_serializer@nlohmann@@V?$vector@EV?$allocator@E@std@@@2@@nlohmann@@@std@@@std@@@2@@std@@QEAA@XZ 000000014004e3d0 f i userprofile.obj
 0001:0004d410       ??1?$_Uninitialized_backout_al@V?$allocator@V?$basic_json@Vmap@std@@Vvector@2@V?$basic_string@DU?$char_traits@D@std@@V?$allocator@D@2@@2@_N_J_KNVallocator@2@Uadl_serializer@nlohmann@@V?$vector@EV?$allocator@E@std@@@2@@nlohmann@@@std@@@std@@QEAA@XZ 000000014004e410 f i userprofile.obj
 0001:0004d450       ??1?$basic_json@Vmap@std@@Vvector@2@V?$basic_string@DU?$char_traits@D@std@@V?$allocator@D@2@@2@_N_J_KNVallocator@2@Uadl_serializer@nlohmann@@V?$vector@EV?$allocator@E@std@@@2@@nlohmann@@QEAA@XZ 000000014004e450 f i userprofile.obj
 0001:0004d460       ??1?$json_sax_dom_callback_parser@V?$basic_json@Vmap@std@@Vvector@2@V?$basic_string@DU?$char_traits@D@std@@V?$allocator@D@2@@2@_N_J_KNVallocator@2@Uadl_serializer@nlohmann@@V?$vector@EV?$allocator@E@std@@@2@@nlohmann@@@detail@nlohmann@@QEAA@XZ 000000014004e460 f i userprofile.obj
 0001:0004d4d0       ??1?$lexer@V?$basic_json@Vmap@std@@Vvector@2@V?$basic_string@DU?$char_traits@D@std@@V?$allocator@D@2@@2@_N_J_KNVallocator@2@Uadl_serializer@nlohmann@@V?$vector@EV?$allocator@E@std@@@2@@nlohmann@@V?$iterator_input_adapter@PEBD@detail@2@@detail@nlohmann@@QEAA@XZ 000000014004e4d0 f i userprofile.obj
 0001:0004d4f0       ??1?$parser@V?$basic_json@Vmap@std@@Vvector@2@V?$basic_string@DU?$char_traits@D@std@@V?$allocator@D@2@@2@_N_J_KNVallocator@2@Uadl_serializer@nlohmann@@V?$vector@EV?$allocator@E@std@@@2@@nlohmann@@V?$iterator_input_adapter@PEBD@detail@2@@detail@nlohmann@@QEAA@XZ 000000014004e4f0 f i userprofile.obj
 0001:0004d540       ??1?$unique_ptr@V?$map@V?$basic_string@DU?$char_traits@D@std@@V?$allocator@D@2@@std@@V?$basic_json@Vmap@std@@Vvector@2@V?$basic_string@DU?$char_traits@D@std@@V?$allocator@D@2@@2@_N_J_KNVallocator@2@Uadl_serializer@nlohmann@@V?$vector@EV?$allocator@E@std@@@2@@nlohmann@@U?$less@X@2@V?$allocator@U?$pair@$$CBV?$basic_string@DU?$char_traits@D@std@@V?$allocator@D@2@@std@@V?$basic_json@Vmap@std@@Vvector@2@V?$basic_string@DU?$char_traits@D@std@@V?$allocator@D@2@@2@_N_J_KNVallocator@2@Uadl_serializer@nlohmann@@V?$vector@EV?$allocator@E@std@@@2@@nlohmann@@@std@@@2@@std@@V<lambda_1>@?1???$create@V?$map@V?$basic_string@DU?$char_traits@D@std@@V?$allocator@D@2@@std@@V?$basic_json@Vmap@std@@Vvector@2@V?$basic_string@DU?$char_traits@D@std@@V?$allocator@D@2@@2@_N_J_KNVallocator@2@Uadl_serializer@nlohmann@@V?$vector@EV?$allocator@E@std@@@2@@nlohmann@@U?$less@X@2@V?$allocator@U?$pair@$$CBV?$basic_string@DU?$char_traits@D@std@@V?$allocator@D@2@@std@@V?$basic_json@Vmap@std@@Vvector@2@V?$basic_string@DU?$char_traits@D@std@@V?$allocator@D@2@@2@_N_J_KNVallocator@2@Uadl_serializer@nlohmann@@V?$vector@EV?$allocator@E@std@@@2@@nlohmann@@@std@@@2@@std@@$$V@?$basic_json@Vmap@std@@Vvector@2@V?$basic_string@DU?$char_traits@D@std@@V?$allocator@D@2@@2@_N_J_KNVallocator@2@Uadl_serializer@nlohmann@@V?$vector@EV?$allocator@E@std@@@2@@nlohmann@@CAPEAV12@XZ@@std@@QEAA@XZ 000000014004e540 f i userprofile.obj
 0001:0004d540       ??1?$unique_ptr@V?$map@V?$basic_string@DU?$char_traits@D@std@@V?$allocator@D@2@@std@@V?$basic_json@Vmap@std@@Vvector@2@V?$basic_string@DU?$char_traits@D@std@@V?$allocator@D@2@@2@_N_J_KNVallocator@2@Uadl_serializer@nlohmann@@V?$vector@EV?$allocator@E@std@@@2@@nlohmann@@U?$less@X@2@V?$allocator@U?$pair@$$CBV?$basic_string@DU?$char_traits@D@std@@V?$allocator@D@2@@std@@V?$basic_json@Vmap@std@@Vvector@2@V?$basic_string@DU?$char_traits@D@std@@V?$allocator@D@2@@2@_N_J_KNVallocator@2@Uadl_serializer@nlohmann@@V?$vector@EV?$allocator@E@std@@@2@@nlohmann@@@std@@@2@@std@@V<lambda_1>@?1???$create@V?$map@V?$basic_string@DU?$char_traits@D@std@@V?$allocator@D@2@@std@@V?$basic_json@Vmap@std@@Vvector@2@V?$basic_string@DU?$char_traits@D@std@@V?$allocator@D@2@@2@_N_J_KNVallocator@2@Uadl_serializer@nlohmann@@V?$vector@EV?$allocator@E@std@@@2@@nlohmann@@U?$less@X@2@V?$allocator@U?$pair@$$CBV?$basic_string@DU?$char_traits@D@std@@V?$allocator@D@2@@std@@V?$basic_json@Vmap@std@@Vvector@2@V?$basic_string@DU?$char_traits@D@std@@V?$allocator@D@2@@2@_N_J_KNVallocator@2@Uadl_serializer@nlohmann@@V?$vector@EV?$allocator@E@std@@@2@@nlohmann@@@std@@@2@@std@@AEBV12@@?$basic_json@Vmap@std@@Vvector@2@V?$basic_string@DU?$char_traits@D@std@@V?$allocator@D@2@@2@_N_J_KNVallocator@2@Uadl_serializer@nlohmann@@V?$vector@EV?$allocator@E@std@@@2@@nlohmann@@CAPEAV12@AEBV12@@Z@@std@@QEAA@XZ 000000014004e540 f i userprofile.obj
 0001:0004d560       ??1CComBSTR@ATL@@QEAA@XZ   000000014004e560 f i userprofile.obj
 0001:0004d570       ??1_Reallocation_guard@?$vector@V?$basic_json@Vmap@std@@Vvector@2@V?$basic_string@DU?$char_traits@D@std@@V?$allocator@D@2@@2@_N_J_KNVallocator@2@Uadl_serializer@nlohmann@@V?$vector@EV?$allocator@E@std@@@2@@nlohmann@@V?$allocator@V?$basic_json@Vmap@std@@Vvector@2@V?$basic_string@DU?$char_traits@D@std@@V?$allocator@D@2@@2@_N_J_KNVallocator@2@Uadl_serializer@nlohmann@@V?$vector@EV?$allocator@E@std@@@2@@nlohmann@@@std@@@std@@QEAA@XZ 000000014004e570 f i userprofile.obj
 0001:0004d620       ??4?$basic_json@Vmap@std@@Vvector@2@V?$basic_string@DU?$char_traits@D@std@@V?$allocator@D@2@@2@_N_J_KNVallocator@2@Uadl_serializer@nlohmann@@V?$vector@EV?$allocator@E@std@@@2@@nlohmann@@QEAAAEAV01@V01@@Z 000000014004e620 f i userprofile.obj
 0001:0004d660       ??4?$basic_string@DU?$char_traits@D@std@@V?$allocator@D@2@@std@@QEAAAEAV01@$$QEAV01@@Z 000000014004e660 f i userprofile.obj
 0001:0004d700       ??6nlohmann@@YAAEAV?$basic_ostream@DU?$char_traits@D@std@@@std@@AEAV12@AEBV?$basic_json@Vmap@std@@Vvector@2@V?$basic_string@DU?$char_traits@D@std@@V?$allocator@D@2@@2@_N_J_KNVallocator@2@Uadl_serializer@nlohmann@@V?$vector@EV?$allocator@E@std@@@2@@0@@Z 000000014004e700 f i userprofile.obj
 0001:0004d8b0       ??8?$iter_impl@V?$basic_json@Vmap@std@@Vvector@2@V?$basic_string@DU?$char_traits@D@std@@V?$allocator@D@2@@2@_N_J_KNVallocator@2@Uadl_serializer@nlohmann@@V?$vector@EV?$allocator@E@std@@@2@@nlohmann@@@detail@nlohmann@@QEBA_NAEBV012@@Z 000000014004e8b0 f i userprofile.obj
 0001:0004d950       ??8nlohmann@@YA_NAEBV?$basic_json@Vmap@std@@Vvector@2@V?$basic_string@DU?$char_traits@D@std@@V?$allocator@D@2@@2@_N_J_KNVallocator@2@Uadl_serializer@nlohmann@@V?$vector@EV?$allocator@E@std@@@2@@0@0@Z 000000014004e950 f i userprofile.obj
 0001:0004dbe0       ??9?$iter_impl@V?$basic_json@Vmap@std@@Vvector@2@V?$basic_string@DU?$char_traits@D@std@@V?$allocator@D@2@@2@_N_J_KNVallocator@2@Uadl_serializer@nlohmann@@V?$vector@EV?$allocator@E@std@@@2@@nlohmann@@@detail@nlohmann@@QEBA_NAEBV012@@Z 000000014004ebe0 f i userprofile.obj
 0001:0004dbf0       ??A?$map@V?$basic_string@DU?$char_traits@D@std@@V?$allocator@D@2@@std@@V?$basic_json@Vmap@std@@Vvector@2@V?$basic_string@DU?$char_traits@D@std@@V?$allocator@D@2@@2@_N_J_KNVallocator@2@Uadl_serializer@nlohmann@@V?$vector@EV?$allocator@E@std@@@2@@nlohmann@@U?$less@X@2@V?$allocator@U?$pair@$$CBV?$basic_string@DU?$char_traits@D@std@@V?$allocator@D@2@@std@@V?$basic_json@Vmap@std@@Vvector@2@V?$basic_string@DU?$char_traits@D@std@@V?$allocator@D@2@@2@_N_J_KNVallocator@2@Uadl_serializer@nlohmann@@V?$vector@EV?$allocator@E@std@@@2@@nlohmann@@@std@@@2@@std@@QEAAAEAV?$basic_json@Vmap@std@@Vvector@2@V?$basic_string@DU?$char_traits@D@std@@V?$allocator@D@2@@2@_N_J_KNVallocator@2@Uadl_serializer@nlohmann@@V?$vector@EV?$allocator@E@std@@@2@@nlohmann@@AEBV?$basic_string@DU?$char_traits@D@std@@V?$allocator@D@2@@1@@Z 000000014004ebf0 f i userprofile.obj
 0001:0004dcf0       ??C?$iter_impl@$$CBV?$basic_json@Vmap@std@@Vvector@2@V?$basic_string@DU?$char_traits@D@std@@V?$allocator@D@2@@2@_N_J_KNVallocator@2@Uadl_serializer@nlohmann@@V?$vector@EV?$allocator@E@std@@@2@@nlohmann@@@detail@nlohmann@@QEBAPEBV?$basic_json@Vmap@std@@Vvector@2@V?$basic_string@DU?$char_traits@D@std@@V?$allocator@D@2@@2@_N_J_KNVallocator@2@Uadl_serializer@nlohmann@@V?$vector@EV?$allocator@E@std@@@2@@2@XZ 000000014004ecf0 f i userprofile.obj
 0001:0004dcf0       ??C?$iter_impl@V?$basic_json@Vmap@std@@Vvector@2@V?$basic_string@DU?$char_traits@D@std@@V?$allocator@D@2@@2@_N_J_KNVallocator@2@Uadl_serializer@nlohmann@@V?$vector@EV?$allocator@E@std@@@2@@nlohmann@@@detail@nlohmann@@QEBAPEAV?$basic_json@Vmap@std@@Vvector@2@V?$basic_string@DU?$char_traits@D@std@@V?$allocator@D@2@@2@_N_J_KNVallocator@2@Uadl_serializer@nlohmann@@V?$vector@EV?$allocator@E@std@@@2@@2@XZ 000000014004ecf0 f i userprofile.obj
 0001:0004dd90       ??D?$iter_impl@$$CBV?$basic_json@Vmap@std@@Vvector@2@V?$basic_string@DU?$char_traits@D@std@@V?$allocator@D@2@@2@_N_J_KNVallocator@2@Uadl_serializer@nlohmann@@V?$vector@EV?$allocator@E@std@@@2@@nlohmann@@@detail@nlohmann@@QEBAAEBV?$basic_json@Vmap@std@@Vvector@2@V?$basic_string@DU?$char_traits@D@std@@V?$allocator@D@2@@2@_N_J_KNVallocator@2@Uadl_serializer@nlohmann@@V?$vector@EV?$allocator@E@std@@@2@@2@XZ 000000014004ed90 f i userprofile.obj
 0001:0004dd90       ??D?$iter_impl@V?$basic_json@Vmap@std@@Vvector@2@V?$basic_string@DU?$char_traits@D@std@@V?$allocator@D@2@@2@_N_J_KNVallocator@2@Uadl_serializer@nlohmann@@V?$vector@EV?$allocator@E@std@@@2@@nlohmann@@@detail@nlohmann@@QEBAAEAV?$basic_json@Vmap@std@@Vvector@2@V?$basic_string@DU?$char_traits@D@std@@V?$allocator@D@2@@2@_N_J_KNVallocator@2@Uadl_serializer@nlohmann@@V?$vector@EV?$allocator@E@std@@@2@@2@XZ 000000014004ed90 f i userprofile.obj
 0001:0004de70       ??_E?$_Ref_count_obj2@V?$output_string_adapter@DV?$basic_string@DU?$char_traits@D@std@@V?$allocator@D@2@@std@@@detail@nlohmann@@@std@@UEAAPEAXI@Z 000000014004ee70 f i userprofile.obj
 0001:0004de70       ??_G?$_Ref_count_obj2@V?$output_string_adapter@DV?$basic_string@DU?$char_traits@D@std@@V?$allocator@D@2@@std@@@detail@nlohmann@@@std@@UEAAPEAXI@Z 000000014004ee70 f i userprofile.obj
 0001:0004ec80       ?GetLocalUpdatedContentAsString@UserProfile@@YA?AV?$basic_string@DU?$char_traits@D@std@@V?$allocator@D@2@@std@@XZ 000000014004fc80 f   userprofile.obj
 0001:0004ecd0       ?GetUpdateStatus@UserProfile@@YA?AUUpdateStatus@1@XZ 000000014004fcd0 f   userprofile.obj
 0001:0004f960       ?UpdateContentWithOnlineData@UserProfile@@YA?AUUpdateStatus@1@PEBD_K@Z 0000000140050960 f   userprofile.obj
 0001:00050c30       ?_Change_array@?$vector@V?$basic_json@Vmap@std@@Vvector@2@V?$basic_string@DU?$char_traits@D@std@@V?$allocator@D@2@@2@_N_J_KNVallocator@2@Uadl_serializer@nlohmann@@V?$vector@EV?$allocator@E@std@@@2@@nlohmann@@V?$allocator@V?$basic_json@Vmap@std@@Vvector@2@V?$basic_string@DU?$char_traits@D@std@@V?$allocator@D@2@@2@_N_J_KNVallocator@2@Uadl_serializer@nlohmann@@V?$vector@EV?$allocator@E@std@@@2@@nlohmann@@@std@@@std@@AEAAXQEAV?$basic_json@Vmap@std@@Vvector@2@V?$basic_string@DU?$char_traits@D@std@@V?$allocator@D@2@@2@_N_J_KNVallocator@2@Uadl_serializer@nlohmann@@V?$vector@EV?$allocator@E@std@@@2@@nlohmann@@_K1@Z 0000000140051c30 f i userprofile.obj
 0001:00050d10       ?_Extract@?$_Tree_val@U?$_Tree_simple_types@U?$pair@$$CBV?$basic_string@DU?$char_traits@D@std@@V?$allocator@D@2@@std@@V?$basic_json@Vmap@std@@Vvector@2@V?$basic_string@DU?$char_traits@D@std@@V?$allocator@D@2@@2@_N_J_KNVallocator@2@Uadl_serializer@nlohmann@@V?$vector@EV?$allocator@E@std@@@2@@nlohmann@@@std@@@std@@@std@@QEAAPEAU?$_Tree_node@U?$pair@$$CBV?$basic_string@DU?$char_traits@D@std@@V?$allocator@D@2@@std@@V?$basic_json@Vmap@std@@Vvector@2@V?$basic_string@DU?$char_traits@D@std@@V?$allocator@D@2@@2@_N_J_KNVallocator@2@Uadl_serializer@nlohmann@@V?$vector@EV?$allocator@E@std@@@2@@nlohmann@@@std@@PEAX@2@V?$_Tree_unchecked_const_iterator@V?$_Tree_val@U?$_Tree_simple_types@U?$pair@$$CBV?$basic_string@DU?$char_traits@D@std@@V?$allocator@D@2@@std@@V?$basic_json@Vmap@std@@Vvector@2@V?$basic_string@DU?$char_traits@D@std@@V?$allocator@D@2@@2@_N_J_KNVallocator@2@Uadl_serializer@nlohmann@@V?$vector@EV?$allocator@E@std@@@2@@nlohmann@@@std@@@std@@@std@@U_Iterator_base0@2@@2@@Z 0000000140051d10 f i userprofile.obj
 0001:00051100       ?_Insert_node@?$_Tree_val@U?$_Tree_simple_types@U?$pair@$$CBV?$basic_string@DU?$char_traits@D@std@@V?$allocator@D@2@@std@@V?$basic_json@Vmap@std@@Vvector@2@V?$basic_string@DU?$char_traits@D@std@@V?$allocator@D@2@@2@_N_J_KNVallocator@2@Uadl_serializer@nlohmann@@V?$vector@EV?$allocator@E@std@@@2@@nlohmann@@@std@@@std@@@std@@QEAAPEAU?$_Tree_node@U?$pair@$$CBV?$basic_string@DU?$char_traits@D@std@@V?$allocator@D@2@@std@@V?$basic_json@Vmap@std@@Vvector@2@V?$basic_string@DU?$char_traits@D@std@@V?$allocator@D@2@@2@_N_J_KNVallocator@2@Uadl_serializer@nlohmann@@V?$vector@EV?$allocator@E@std@@@2@@nlohmann@@@std@@PEAX@2@U?$_Tree_id@PEAU?$_Tree_node@U?$pair@$$CBV?$basic_string@DU?$char_traits@D@std@@V?$allocator@D@2@@std@@V?$basic_json@Vmap@std@@Vvector@2@V?$basic_string@DU?$char_traits@D@std@@V?$allocator@D@2@@2@_N_J_KNVallocator@2@Uadl_serializer@nlohmann@@V?$vector@EV?$allocator@E@std@@@2@@nlohmann@@@std@@PEAX@std@@@2@QEAU32@@Z 0000000140052100 f i userprofile.obj
 0001:00051360       ?_Lrotate@?$_Tree_val@U?$_Tree_simple_types@U?$pair@$$CBV?$basic_string@DU?$char_traits@D@std@@V?$allocator@D@2@@std@@V?$basic_json@Vmap@std@@Vvector@2@V?$basic_string@DU?$char_traits@D@std@@V?$allocator@D@2@@2@_N_J_KNVallocator@2@Uadl_serializer@nlohmann@@V?$vector@EV?$allocator@E@std@@@2@@nlohmann@@@std@@@std@@@std@@QEAAXPEAU?$_Tree_node@U?$pair@$$CBV?$basic_string@DU?$char_traits@D@std@@V?$allocator@D@2@@std@@V?$basic_json@Vmap@std@@Vvector@2@V?$basic_string@DU?$char_traits@D@std@@V?$allocator@D@2@@2@_N_J_KNVallocator@2@Uadl_serializer@nlohmann@@V?$vector@EV?$allocator@E@std@@@2@@nlohmann@@@std@@PEAX@2@@Z 0000000140052360 f i userprofile.obj
 0001:000513c0       ?_Rrotate@?$_Tree_val@U?$_Tree_simple_types@U?$pair@$$CBV?$basic_string@DU?$char_traits@D@std@@V?$allocator@D@2@@std@@V?$basic_json@Vmap@std@@Vvector@2@V?$basic_string@DU?$char_traits@D@std@@V?$allocator@D@2@@2@_N_J_KNVallocator@2@Uadl_serializer@nlohmann@@V?$vector@EV?$allocator@E@std@@@2@@nlohmann@@@std@@@std@@@std@@QEAAXPEAU?$_Tree_node@U?$pair@$$CBV?$basic_string@DU?$char_traits@D@std@@V?$allocator@D@2@@std@@V?$basic_json@Vmap@std@@Vvector@2@V?$basic_string@DU?$char_traits@D@std@@V?$allocator@D@2@@2@_N_J_KNVallocator@2@Uadl_serializer@nlohmann@@V?$vector@EV?$allocator@E@std@@@2@@nlohmann@@@std@@PEAX@2@@Z 00000001400523c0 f i userprofile.obj
 0001:00051420       ?_Throw_tree_length_error@std@@YAXXZ 0000000140052420 f i userprofile.obj
 0001:00051440       ?_Tidy@?$vector@V?$basic_json@Vmap@std@@Vvector@2@V?$basic_string@DU?$char_traits@D@std@@V?$allocator@D@2@@2@_N_J_KNVallocator@2@Uadl_serializer@nlohmann@@V?$vector@EV?$allocator@E@std@@@2@@nlohmann@@V?$allocator@V?$basic_json@Vmap@std@@Vvector@2@V?$basic_string@DU?$char_traits@D@std@@V?$allocator@D@2@@2@_N_J_KNVallocator@2@Uadl_serializer@nlohmann@@V?$vector@EV?$allocator@E@std@@@2@@nlohmann@@@std@@@std@@AEAAXXZ 0000000140052440 f i userprofile.obj
 0001:000514e0       ?at@?$basic_json@Vmap@std@@Vvector@2@V?$basic_string@DU?$char_traits@D@std@@V?$allocator@D@2@@2@_N_J_KNVallocator@2@Uadl_serializer@nlohmann@@V?$vector@EV?$allocator@E@std@@@2@@nlohmann@@QEBAAEBV12@AEBV?$basic_string@DU?$char_traits@D@std@@V?$allocator@D@2@@std@@@Z 00000001400524e0 f i userprofile.obj
 0001:000515e0       ?begin@?$iteration_proxy@V?$iter_impl@$$CBV?$basic_json@Vmap@std@@Vvector@2@V?$basic_string@DU?$char_traits@D@std@@V?$allocator@D@2@@2@_N_J_KNVallocator@2@Uadl_serializer@nlohmann@@V?$vector@EV?$allocator@E@std@@@2@@nlohmann@@@detail@nlohmann@@@detail@nlohmann@@QEAA?AV?$iteration_proxy_value@V?$iter_impl@$$CBV?$basic_json@Vmap@std@@Vvector@2@V?$basic_string@DU?$char_traits@D@std@@V?$allocator@D@2@@2@_N_J_KNVallocator@2@Uadl_serializer@nlohmann@@V?$vector@EV?$allocator@E@std@@@2@@nlohmann@@@detail@nlohmann@@@23@XZ 00000001400525e0 f i userprofile.obj
 0001:000516c0       ?boolean@?$json_sax_dom_parser@V?$basic_json@Vmap@std@@Vvector@2@V?$basic_string@DU?$char_traits@D@std@@V?$allocator@D@2@@2@_N_J_KNVallocator@2@Uadl_serializer@nlohmann@@V?$vector@EV?$allocator@E@std@@@2@@nlohmann@@@detail@nlohmann@@QEAA_N_N@Z 00000001400526c0 f i userprofile.obj
 0001:00051760       ?destroy@json_value@?$basic_json@Vmap@std@@Vvector@2@V?$basic_string@DU?$char_traits@D@std@@V?$allocator@D@2@@2@_N_J_KNVallocator@2@Uadl_serializer@nlohmann@@V?$vector@EV?$allocator@E@std@@@2@@nlohmann@@QEAAXW4value_t@detail@3@@Z 0000000140052760 f i userprofile.obj
 0001:00051d20       ?dump@?$basic_json@Vmap@std@@Vvector@2@V?$basic_string@DU?$char_traits@D@std@@V?$allocator@D@2@@2@_N_J_KNVallocator@2@Uadl_serializer@nlohmann@@V?$vector@EV?$allocator@E@std@@@2@@nlohmann@@QEBA?AV?$basic_string@DU?$char_traits@D@std@@V?$allocator@D@2@@std@@HD_NW4error_handler_t@detail@2@@Z 0000000140052d20 f i userprofile.obj
 0001:00051ef0       ?dump@?$serializer@V?$basic_json@Vmap@std@@Vvector@2@V?$basic_string@DU?$char_traits@D@std@@V?$allocator@D@2@@2@_N_J_KNVallocator@2@Uadl_serializer@nlohmann@@V?$vector@EV?$allocator@E@std@@@2@@nlohmann@@@detail@nlohmann@@QEAAXAEBV?$basic_json@Vmap@std@@Vvector@2@V?$basic_string@DU?$char_traits@D@std@@V?$allocator@D@2@@2@_N_J_KNVallocator@2@Uadl_serializer@nlohmann@@V?$vector@EV?$allocator@E@std@@@2@@3@_N1II@Z 0000000140052ef0 f i userprofile.obj
 0001:000529a0       ?dump_escaped@?$serializer@V?$basic_json@Vmap@std@@Vvector@2@V?$basic_string@DU?$char_traits@D@std@@V?$allocator@D@2@@2@_N_J_KNVallocator@2@Uadl_serializer@nlohmann@@V?$vector@EV?$allocator@E@std@@@2@@nlohmann@@@detail@nlohmann@@AEAAXAEBV?$basic_string@DU?$char_traits@D@std@@V?$allocator@D@2@@std@@_N@Z 00000001400539a0 f i userprofile.obj
 0001:00052f00       ?end@?$basic_json@Vmap@std@@Vvector@2@V?$basic_string@DU?$char_traits@D@std@@V?$allocator@D@2@@2@_N_J_KNVallocator@2@Uadl_serializer@nlohmann@@V?$vector@EV?$allocator@E@std@@@2@@nlohmann@@QEAA?AV?$iter_impl@V?$basic_json@Vmap@std@@Vvector@2@V?$basic_string@DU?$char_traits@D@std@@V?$allocator@D@2@@2@_N_J_KNVallocator@2@Uadl_serializer@nlohmann@@V?$vector@EV?$allocator@E@std@@@2@@nlohmann@@@detail@2@XZ 0000000140053f00 f i userprofile.obj
 0001:00052f60       ?end@?$iteration_proxy@V?$iter_impl@$$CBV?$basic_json@Vmap@std@@Vvector@2@V?$basic_string@DU?$char_traits@D@std@@V?$allocator@D@2@@2@_N_J_KNVallocator@2@Uadl_serializer@nlohmann@@V?$vector@EV?$allocator@E@std@@@2@@nlohmann@@@detail@nlohmann@@@detail@nlohmann@@QEAA?AV?$iteration_proxy_value@V?$iter_impl@$$CBV?$basic_json@Vmap@std@@Vvector@2@V?$basic_string@DU?$char_traits@D@std@@V?$allocator@D@2@@2@_N_J_KNVallocator@2@Uadl_serializer@nlohmann@@V?$vector@EV?$allocator@E@std@@@2@@nlohmann@@@detail@nlohmann@@@23@XZ 0000000140053f60 f i userprofile.obj
 0001:00053030       ?end_array@?$json_sax_dom_callback_parser@V?$basic_json@Vmap@std@@Vvector@2@V?$basic_string@DU?$char_traits@D@std@@V?$allocator@D@2@@2@_N_J_KNVallocator@2@Uadl_serializer@nlohmann@@V?$vector@EV?$allocator@E@std@@@2@@nlohmann@@@detail@nlohmann@@QEAA_NXZ 0000000140054030 f i userprofile.obj
 0001:00053130       ?end_object@?$json_sax_dom_callback_parser@V?$basic_json@Vmap@std@@Vvector@2@V?$basic_string@DU?$char_traits@D@std@@V?$allocator@D@2@@2@_N_J_KNVallocator@2@Uadl_serializer@nlohmann@@V?$vector@EV?$allocator@E@std@@@2@@nlohmann@@@detail@nlohmann@@QEAA_NXZ 0000000140054130 f i userprofile.obj
 0001:00053460       ?get@?$lexer@V?$basic_json@Vmap@std@@Vvector@2@V?$basic_string@DU?$char_traits@D@std@@V?$allocator@D@2@@2@_N_J_KNVallocator@2@Uadl_serializer@nlohmann@@V?$vector@EV?$allocator@E@std@@@2@@nlohmann@@V?$iterator_input_adapter@PEBD@detail@2@@detail@nlohmann@@AEAAHXZ 0000000140054460 f i userprofile.obj
 0001:000534d0       ?get_codepoint@?$lexer@V?$basic_json@Vmap@std@@Vvector@2@V?$basic_string@DU?$char_traits@D@std@@V?$allocator@D@2@@2@_N_J_KNVallocator@2@Uadl_serializer@nlohmann@@V?$vector@EV?$allocator@E@std@@@2@@nlohmann@@V?$iterator_input_adapter@PEBD@detail@2@@detail@nlohmann@@AEAAHXZ 00000001400544d0 f i userprofile.obj
 0001:00053600       ?key@?$json_sax_dom_callback_parser@V?$basic_json@Vmap@std@@Vvector@2@V?$basic_string@DU?$char_traits@D@std@@V?$allocator@D@2@@2@_N_J_KNVallocator@2@Uadl_serializer@nlohmann@@V?$vector@EV?$allocator@E@std@@@2@@nlohmann@@@detail@nlohmann@@QEAA_NAEAV?$basic_string@DU?$char_traits@D@std@@V?$allocator@D@2@@std@@@Z 0000000140054600 f i userprofile.obj
 0001:00053730       ?max_size@?$basic_json@Vmap@std@@Vvector@2@V?$basic_string@DU?$char_traits@D@std@@V?$allocator@D@2@@2@_N_J_KNVallocator@2@Uadl_serializer@nlohmann@@V?$vector@EV?$allocator@E@std@@@2@@nlohmann@@QEBA_KXZ 0000000140054730 f i userprofile.obj
 0001:000537a0       ?next_byte_in_range@?$lexer@V?$basic_json@Vmap@std@@Vvector@2@V?$basic_string@DU?$char_traits@D@std@@V?$allocator@D@2@@2@_N_J_KNVallocator@2@Uadl_serializer@nlohmann@@V?$vector@EV?$allocator@E@std@@@2@@nlohmann@@V?$iterator_input_adapter@PEBD@detail@2@@detail@nlohmann@@AEAA_NV?$initializer_list@H@std@@@Z 00000001400547a0 f i userprofile.obj
 0001:00053880       ?null@?$json_sax_dom_parser@V?$basic_json@Vmap@std@@Vvector@2@V?$basic_string@DU?$char_traits@D@std@@V?$allocator@D@2@@2@_N_J_KNVallocator@2@Uadl_serializer@nlohmann@@V?$vector@EV?$allocator@E@std@@@2@@nlohmann@@@detail@nlohmann@@QEAA_NXZ 0000000140054880 f i userprofile.obj
 0001:00053950       ?number_float@?$json_sax_dom_parser@V?$basic_json@Vmap@std@@Vvector@2@V?$basic_string@DU?$char_traits@D@std@@V?$allocator@D@2@@2@_N_J_KNVallocator@2@Uadl_serializer@nlohmann@@V?$vector@EV?$allocator@E@std@@@2@@nlohmann@@@detail@nlohmann@@QEAA_NNAEBV?$basic_string@DU?$char_traits@D@std@@V?$allocator@D@2@@std@@@Z 0000000140054950 f i userprofile.obj
 0001:000539e0       ?number_integer@?$json_sax_dom_parser@V?$basic_json@Vmap@std@@Vvector@2@V?$basic_string@DU?$char_traits@D@std@@V?$allocator@D@2@@2@_N_J_KNVallocator@2@Uadl_serializer@nlohmann@@V?$vector@EV?$allocator@E@std@@@2@@nlohmann@@@detail@nlohmann@@QEAA_N_J@Z 00000001400549e0 f i userprofile.obj
 0001:00053a70       ?number_unsigned@?$json_sax_dom_parser@V?$basic_json@Vmap@std@@Vvector@2@V?$basic_string@DU?$char_traits@D@std@@V?$allocator@D@2@@2@_N_J_KNVallocator@2@Uadl_serializer@nlohmann@@V?$vector@EV?$allocator@E@std@@@2@@nlohmann@@@detail@nlohmann@@QEAA_N_K@Z 0000000140054a70 f i userprofile.obj
 0001:00053b00       ?object@?$basic_json@Vmap@std@@Vvector@2@V?$basic_string@DU?$char_traits@D@std@@V?$allocator@D@2@@2@_N_J_KNVallocator@2@Uadl_serializer@nlohmann@@V?$vector@EV?$allocator@E@std@@@2@@nlohmann@@SA?AV12@V?$initializer_list@V?$json_ref@V?$basic_json@Vmap@std@@Vvector@2@V?$basic_string@DU?$char_traits@D@std@@V?$allocator@D@2@@2@_N_J_KNVallocator@2@Uadl_serializer@nlohmann@@V?$vector@EV?$allocator@E@std@@@2@@nlohmann@@@detail@nlohmann@@@std@@@Z 0000000140054b00 f i userprofile.obj
 0001:00053b30       ?parse@?$parser@V?$basic_json@Vmap@std@@Vvector@2@V?$basic_string@DU?$char_traits@D@std@@V?$allocator@D@2@@2@_N_J_KNVallocator@2@Uadl_serializer@nlohmann@@V?$vector@EV?$allocator@E@std@@@2@@nlohmann@@V?$iterator_input_adapter@PEBD@detail@2@@detail@nlohmann@@QEAAX_NAEAV?$basic_json@Vmap@std@@Vvector@2@V?$basic_string@DU?$char_traits@D@std@@V?$allocator@D@2@@2@_N_J_KNVallocator@2@Uadl_serializer@nlohmann@@V?$vector@EV?$allocator@E@std@@@2@@3@@Z 0000000140054b30 f i userprofile.obj
 0001:00053fb0       ?parse@?$parser@V?$basic_json@Vmap@std@@Vvector@2@V?$basic_string@DU?$char_traits@D@std@@V?$allocator@D@2@@2@_N_J_KNVallocator@2@Uadl_serializer@nlohmann@@V?$vector@EV?$allocator@E@std@@@2@@nlohmann@@Vinput_stream_adapter@detail@2@@detail@nlohmann@@QEAAX_NAEAV?$basic_json@Vmap@std@@Vvector@2@V?$basic_string@DU?$char_traits@D@std@@V?$allocator@D@2@@2@_N_J_KNVallocator@2@Uadl_serializer@nlohmann@@V?$vector@EV?$allocator@E@std@@@2@@3@@Z 0000000140054fb0 f i userprofile.obj
 0001:00054430       ?scan@?$lexer@V?$basic_json@Vmap@std@@Vvector@2@V?$basic_string@DU?$char_traits@D@std@@V?$allocator@D@2@@2@_N_J_KNVallocator@2@Uadl_serializer@nlohmann@@V?$vector@EV?$allocator@E@std@@@2@@nlohmann@@V?$iterator_input_adapter@PEBD@detail@2@@detail@nlohmann@@QEAA?AW4token_type@?$lexer_base@V?$basic_json@Vmap@std@@Vvector@2@V?$basic_string@DU?$char_traits@D@std@@V?$allocator@D@2@@2@_N_J_KNVallocator@2@Uadl_serializer@nlohmann@@V?$vector@EV?$allocator@E@std@@@2@@nlohmann@@@23@XZ 0000000140055430 f i userprofile.obj
 0001:00054850       ?scan_comment@?$lexer@V?$basic_json@Vmap@std@@Vvector@2@V?$basic_string@DU?$char_traits@D@std@@V?$allocator@D@2@@2@_N_J_KNVallocator@2@Uadl_serializer@nlohmann@@V?$vector@EV?$allocator@E@std@@@2@@nlohmann@@V?$iterator_input_adapter@PEBD@detail@2@@detail@nlohmann@@AEAA_NXZ 0000000140055850 f i userprofile.obj
 0001:00054a40       ?scan_literal@?$lexer@V?$basic_json@Vmap@std@@Vvector@2@V?$basic_string@DU?$char_traits@D@std@@V?$allocator@D@2@@2@_N_J_KNVallocator@2@Uadl_serializer@nlohmann@@V?$vector@EV?$allocator@E@std@@@2@@nlohmann@@V?$iterator_input_adapter@PEBD@detail@2@@detail@nlohmann@@AEAA?AW4token_type@?$lexer_base@V?$basic_json@Vmap@std@@Vvector@2@V?$basic_string@DU?$char_traits@D@std@@V?$allocator@D@2@@2@_N_J_KNVallocator@2@Uadl_serializer@nlohmann@@V?$vector@EV?$allocator@E@std@@@2@@nlohmann@@@23@PEBD_KW44523@@Z 0000000140055a40 f i userprofile.obj
 0001:00054b20       ?scan_number@?$lexer@V?$basic_json@Vmap@std@@Vvector@2@V?$basic_string@DU?$char_traits@D@std@@V?$allocator@D@2@@2@_N_J_KNVallocator@2@Uadl_serializer@nlohmann@@V?$vector@EV?$allocator@E@std@@@2@@nlohmann@@V?$iterator_input_adapter@PEBD@detail@2@@detail@nlohmann@@AEAA?AW4token_type@?$lexer_base@V?$basic_json@Vmap@std@@Vvector@2@V?$basic_string@DU?$char_traits@D@std@@V?$allocator@D@2@@2@_N_J_KNVallocator@2@Uadl_serializer@nlohmann@@V?$vector@EV?$allocator@E@std@@@2@@nlohmann@@@23@XZ 0000000140055b20 f i userprofile.obj
 0001:00055230       ?scan_string@?$lexer@V?$basic_json@Vmap@std@@Vvector@2@V?$basic_string@DU?$char_traits@D@std@@V?$allocator@D@2@@2@_N_J_KNVallocator@2@Uadl_serializer@nlohmann@@V?$vector@EV?$allocator@E@std@@@2@@nlohmann@@V?$iterator_input_adapter@PEBD@detail@2@@detail@nlohmann@@AEAA?AW4token_type@?$lexer_base@V?$basic_json@Vmap@std@@Vvector@2@V?$basic_string@DU?$char_traits@D@std@@V?$allocator@D@2@@2@_N_J_KNVallocator@2@Uadl_serializer@nlohmann@@V?$vector@EV?$allocator@E@std@@@2@@nlohmann@@@23@XZ 0000000140056230 f i userprofile.obj
 0001:00055bc0       ?skip_whitespace@?$lexer@V?$basic_json@Vmap@std@@Vvector@2@V?$basic_string@DU?$char_traits@D@std@@V?$allocator@D@2@@2@_N_J_KNVallocator@2@Uadl_serializer@nlohmann@@V?$vector@EV?$allocator@E@std@@@2@@nlohmann@@V?$iterator_input_adapter@PEBD@detail@2@@detail@nlohmann@@QEAAXXZ 0000000140056bc0 f i userprofile.obj
 0001:00055c50       ?start_array@?$json_sax_dom_callback_parser@V?$basic_json@Vmap@std@@Vvector@2@V?$basic_string@DU?$char_traits@D@std@@V?$allocator@D@2@@2@_N_J_KNVallocator@2@Uadl_serializer@nlohmann@@V?$vector@EV?$allocator@E@std@@@2@@nlohmann@@@detail@nlohmann@@QEAA_N_K@Z 0000000140056c50 f i userprofile.obj
 0001:00055d90       ?start_array@?$json_sax_dom_parser@V?$basic_json@Vmap@std@@Vvector@2@V?$basic_string@DU?$char_traits@D@std@@V?$allocator@D@2@@2@_N_J_KNVallocator@2@Uadl_serializer@nlohmann@@V?$vector@EV?$allocator@E@std@@@2@@nlohmann@@@detail@nlohmann@@QEAA_N_K@Z 0000000140056d90 f i userprofile.obj
 0001:00055e60       ?start_object@?$json_sax_dom_callback_parser@V?$basic_json@Vmap@std@@Vvector@2@V?$basic_string@DU?$char_traits@D@std@@V?$allocator@D@2@@2@_N_J_KNVallocator@2@Uadl_serializer@nlohmann@@V?$vector@EV?$allocator@E@std@@@2@@nlohmann@@@detail@nlohmann@@QEAA_N_K@Z 0000000140056e60 f i userprofile.obj
 0001:00055fa0       ?start_object@?$json_sax_dom_parser@V?$basic_json@Vmap@std@@Vvector@2@V?$basic_string@DU?$char_traits@D@std@@V?$allocator@D@2@@2@_N_J_KNVallocator@2@Uadl_serializer@nlohmann@@V?$vector@EV?$allocator@E@std@@@2@@nlohmann@@@detail@nlohmann@@QEAA_N_K@Z 0000000140056fa0 f i userprofile.obj
 0001:00056070       ?string@?$json_sax_dom_parser@V?$basic_json@Vmap@std@@Vvector@2@V?$basic_string@DU?$char_traits@D@std@@V?$allocator@D@2@@2@_N_J_KNVallocator@2@Uadl_serializer@nlohmann@@V?$vector@EV?$allocator@E@std@@@2@@nlohmann@@@detail@nlohmann@@QEAA_NAEAV?$basic_string@DU?$char_traits@D@std@@V?$allocator@D@2@@std@@@Z 0000000140057070 f i userprofile.obj
 0001:000562b0       ?write_character@?$output_string_adapter@DV?$basic_string@DU?$char_traits@D@std@@V?$allocator@D@2@@std@@@detail@nlohmann@@UEAAXD@Z 00000001400572b0 f i userprofile.obj
 0001:000562c0       ?write_characters@?$output_string_adapter@DV?$basic_string@DU?$char_traits@D@std@@V?$allocator@D@2@@std@@@detail@nlohmann@@UEAAXPEBD_K@Z 00000001400572c0 f i userprofile.obj
 0001:000562d0       ??0CToolkitDlg@@QEAA@UDialogOptions@0@@Z 00000001400572d0 f   toolkit_dlg.obj
 0001:00056390       ??_ECToolkitDlg@@UEAAPEAXI@Z 0000000140057390 f i toolkit_dlg.obj
 0001:00056390       ??_GCToolkitDlg@@UEAAPEAXI@Z 0000000140057390 f i toolkit_dlg.obj
 0001:000565e0       ?LoadLanguageStrings@CToolkitDlg@@QEAAXXZ 00000001400575e0 f   toolkit_dlg.obj
 0001:00056920       ?OnFinalMessage@CToolkitDlg@@UEAAXPEAUHWND__@@@Z 0000000140057920 f   toolkit_dlg.obj
 0001:00056950       ?ProcessWindowMessage@CToolkitDlg@@UEAAHPEAUHWND__@@I_K_JAEA_JK@Z 0000000140057950 f i toolkit_dlg.obj
 0001:000569a0       ?_ProcessWindowMessage@CToolkitDlg@@QEAAHPEAUHWND__@@I_K_JAEA_JK@Z 00000001400579a0 f i toolkit_dlg.obj
 0001:00056ca7       CreateEnvironmentBlock     0000000140057ca7 f   userenv:USERENV.dll
 0001:00056cad       DestroyEnvironmentBlock    0000000140057cad f   userenv:USERENV.dll
 0001:00056cb3       EvtClose                   0000000140057cb3 f   wevtapi:wevtapi.dll
 0001:00056cb9       EvtNext                    0000000140057cb9 f   wevtapi:wevtapi.dll
 0001:00056cbf       EvtSubscribe               0000000140057cbf f   wevtapi:wevtapi.dll
 0001:00056cc5       EvtCreateRenderContext     0000000140057cc5 f   wevtapi:wevtapi.dll
 0001:00056ccb       EvtRender                  0000000140057ccb f   wevtapi:wevtapi.dll
 0001:00056cd1       WTSEnumerateSessionsW      0000000140057cd1 f   wtsapi32:WTSAPI32.dll
 0001:00056cd7       WTSQuerySessionInformationW 0000000140057cd7 f   wtsapi32:WTSAPI32.dll
 0001:00056cdd       WTSFreeMemory              0000000140057cdd f   wtsapi32:WTSAPI32.dll
 0001:00056ce3       WTSQueryUserToken          0000000140057ce3 f   wtsapi32:WTSAPI32.dll
 0001:00056ce9       CreateToolhelp32Snapshot   0000000140057ce9 f   kernel32:KERNEL32.dll
 0001:00056cef       Process32FirstW            0000000140057cef f   kernel32:KERNEL32.dll
 0001:00056cf5       Process32NextW             0000000140057cf5 f   kernel32:KERNEL32.dll
 0001:00056cfb       K32GetModuleFileNameExW    0000000140057cfb f   kernel32:KERNEL32.dll
 0001:00056d01       ConvertStringSecurityDescriptorToSecurityDescriptorW 0000000140057d01 f   advapi32:ADVAPI32.dll
 0001:00056d07       VarDecCmp                  0000000140057d07 f   oleaut32:OLEAUT32.dll
 0001:00056d10       ??0CAtlBaseModule@ATL@@QEAA@XZ 0000000140057d10 f   atls:atlbase.obj
 0001:00056db8       ??1CAtlBaseModule@ATL@@QEAA@XZ 0000000140057db8 f   atls:atlbase.obj
 0001:00056df0       ?GetHInstanceAt@CAtlBaseModule@ATL@@QEAAPEAUHINSTANCE__@@H@Z 0000000140057df0 f   atls:atlbase.obj
 0001:00056f64       ?__AllocStdCallThunk_cmn@@YAPEAXXZ 0000000140057f64 f   atls:atlthunk.obj
 0001:000570bc       AtlThunk_AllocateData      00000001400580bc f   atls:atlthunk.obj
 0001:00057138       AtlThunk_DataToCode        0000000140058138 f   atls:atlthunk.obj
 0001:0005718c       AtlThunk_FreeData          000000014005818c f   atls:atlthunk.obj
 0001:000571ec       AtlThunk_InitData          00000001400581ec f   atls:atlthunk.obj
 0001:0005728c       ??0bad_alloc@std@@QEAA@XZ  000000014005828c f i libcpmt:xthrow.obj
 0001:000572b0       ??0bad_function_call@std@@QEAA@AEBV01@@Z 00000001400582b0 f i libcpmt:xthrow.obj
 0001:000572ec       ??0bad_function_call@std@@QEAA@XZ 00000001400582ec f i libcpmt:xthrow.obj
 0001:00057304       ??0length_error@std@@QEAA@AEBV01@@Z 0000000140058304 f i libcpmt:xthrow.obj
 0001:00057340       ??0length_error@std@@QEAA@PEBD@Z 0000000140058340 f i libcpmt:xthrow.obj
 0001:00057388       ??0out_of_range@std@@QEAA@AEBV01@@Z 0000000140058388 f i libcpmt:xthrow.obj
 0001:000573c4       ??0out_of_range@std@@QEAA@PEBD@Z 00000001400583c4 f i libcpmt:xthrow.obj
 0001:0005740c       ?_Xbad_alloc@std@@YAXXZ    000000014005840c f   libcpmt:xthrow.obj
 0001:0005740c       ?__scrt_throw_std_bad_alloc@@YAXXZ 000000014005840c f   LIBCMT:throw_bad_alloc.obj
 0001:0005742c       ?_Xbad_function_call@std@@YAXXZ 000000014005842c f   libcpmt:xthrow.obj
 0001:0005744c       ?_Xinvalid_argument@std@@YAXPEBD@Z 000000014005844c f   libcpmt:xthrow.obj
 0001:00057470       ?_Xlength_error@std@@YAXPEBD@Z 0000000140058470 f   libcpmt:xthrow.obj
 0001:00057494       ?_Xout_of_range@std@@YAXPEBD@Z 0000000140058494 f   libcpmt:xthrow.obj
 0001:000574b8       ?_Xruntime_error@std@@YAXPEBD@Z 00000001400584b8 f   libcpmt:xthrow.obj
 0001:000574dc       ?what@bad_function_call@std@@UEBAPEBDXZ 00000001400584dc f i libcpmt:xthrow.obj
 0001:00058470       __std_find_end_2           0000000140059470 f   libcpmt:vector_algorithms.obj
 0001:00058480       __std_find_first_of_trivial_pos_2 0000000140059480 f   libcpmt:vector_algorithms.obj
 0001:00058590       __std_find_trivial_2       0000000140059590 f   libcpmt:vector_algorithms.obj
 0001:000585a0       __std_search_2             00000001400595a0 f   libcpmt:vector_algorithms.obj
 0001:000585a8       __std_system_error_allocate_message 00000001400595a8 f   libcpmt:syserror_import_lib.obj
 0001:00058680       __std_system_error_deallocate_message 0000000140059680 f   libcpmt:syserror_import_lib.obj
 0001:00058688       ?_Syserror_map@std@@YAPEBDH@Z 0000000140059688 f   libcpmt:syserror.obj
 0001:000586b0       ?_Winerror_map@std@@YAHH@Z 00000001400596b0 f   libcpmt:syserror.obj
 0001:000587e8       __std_fs_code_page         00000001400597e8 f   libcpmt:filesystem.obj
 0001:00058810       __std_fs_convert_narrow_to_wide 0000000140059810 f   libcpmt:filesystem.obj
 0001:00058858       __std_fs_convert_wide_to_narrow_replace_chars 0000000140059858 f   libcpmt:filesystem.obj
 0001:00058934       __std_fs_create_directory  0000000140059934 f   libcpmt:filesystem.obj
 0001:000589a8       __std_fs_directory_iterator_advance 00000001400599a8 f   libcpmt:filesystem.obj
 0001:000589c8       __std_fs_directory_iterator_close 00000001400599c8 f   libcpmt:filesystem.obj
 0001:000589e8       __std_fs_directory_iterator_open 00000001400599e8 f   libcpmt:filesystem.obj
 0001:00058a60       __std_fs_equivalent        0000000140059a60 f   libcpmt:filesystem.obj
 0001:00058ba4       __std_fs_get_stats         0000000140059ba4 f   libcpmt:filesystem.obj
 0001:00058ed4       __std_fs_open_handle       0000000140059ed4 f   libcpmt:filesystem.obj
 0001:00058f2c       __std_fs_remove            0000000140059f2c f   libcpmt:filesystem.obj
 0001:0005915c       ??0_Init_locks@std@@QEAA@XZ 000000014005a15c f   libcpmt:xlock.obj
 0001:000591a0       ??0_Lockit@std@@QEAA@H@Z   000000014005a1a0 f   libcpmt:xlock.obj
 0001:000591dc       ??1_Init_locks@std@@QEAA@XZ 000000014005a1dc f   libcpmt:xlock.obj
 0001:00059218       ??1_Lockit@std@@QEAA@XZ    000000014005a218 f   libcpmt:xlock.obj
 0001:0005924c       ?uncaught_exceptions@std@@YAHXZ 000000014005a24c f   libcpmt:uncaught_exceptions.obj
 0001:00059254       ??4?$_Yarn@D@std@@QEAAAEAV01@PEBD@Z 000000014005a254 f i libcpmt:locale0.obj
 0001:000592d0       ??_E_Locimp@locale@std@@MEAAPEAXI@Z 000000014005a2d0 f i libcpmt:locale0.obj
 0001:000592d0       ??_G_Locimp@locale@std@@MEAAPEAXI@Z 000000014005a2d0 f i libcpmt:locale0.obj
 0001:00059330       ?_Facet_Register@std@@YAXPEAV_Facet_base@1@@Z 000000014005a330 f   libcpmt:locale0.obj
 0001:0005936c       ?_Getgloballocale@locale@std@@CAPEAV_Locimp@12@XZ 000000014005a36c f   libcpmt:locale0.obj
 0001:00059374       ?_Init@locale@std@@CAPEAV_Locimp@12@_N@Z 000000014005a374 f   libcpmt:locale0.obj
 0001:00059410       ?_Locimp_dtor@_Locimp@locale@std@@CAXPEAV123@@Z 000000014005a410 f   libcpmt:locale0.obj
 0001:0005948c       ?_Locinfo_ctor@_Locinfo@std@@SAXPEAV12@PEBD@Z 000000014005a48c f   libcpmt:locale0.obj
 0001:000594f8       ?_Locinfo_dtor@_Locinfo@std@@SAXPEAV12@@Z 000000014005a4f8 f   libcpmt:locale0.obj
 0001:00059514       ?_New_Locimp@_Locimp@locale@std@@CAPEAV123@_N@Z 000000014005a514 f   libcpmt:locale0.obj
 0001:00059584       ?_Setgloballocale@locale@std@@CAXPEAX@Z 000000014005a584 f   libcpmt:locale0.obj
 0001:000595b8       _Deletegloballocale        000000014005a5b8 f   libcpmt:locale0.obj
 0001:0005962c       _Getctype                  000000014005a62c f   libcpmt:_tolower.obj
 0001:000596f4       _Tolower                   000000014005a6f4 f   libcpmt:_tolower.obj
 0001:00059824       _Toupper                   000000014005a824 f   libcpmt:_toupper.obj
 0001:00059964       ?_Addstd@ios_base@std@@SAXPEAV12@@Z 000000014005a964 f   libcpmt:ios.obj
 0001:000599d8       ?_Ios_base_dtor@ios_base@std@@CAXPEAV12@@Z 000000014005a9d8 f   libcpmt:ios.obj
 0001:00059a50       ?_Tidy@ios_base@std@@AEAAXXZ 000000014005aa50 f i libcpmt:ios.obj
 0001:00059ad8       ?setw@std@@YA?AU?$_Smanip@_J@1@_J@Z 000000014005aad8 f   libcpmt:iomanip.obj
 0001:00059af4       ?_Fiopen@std@@YAPEAU_iobuf@@PEB_WHH@Z 000000014005aaf4 f   libcpmt:fiopen.obj
 0001:00059ba8       _Mtx_lock                  000000014005aba8 f   libcpmt:mutex.obj
 0001:00059bb0       _Mtx_unlock                000000014005abb0 f   libcpmt:mutex.obj
 0001:00059d08       ??0system_error@std@@QEAA@HAEBVerror_category@1@PEBD@Z 000000014005ad08 f i libcpmt:thread0.obj
 0001:00059e48       ?_Throw_Cpp_error@std@@YAXH@Z 000000014005ae48 f   libcpmt:thread0.obj
 0001:00059e90       ?generic_category@std@@YAAEBVerror_category@1@XZ 000000014005ae90 f i libcpmt:thread0.obj
 0001:00059e98       _Mtxdst                    000000014005ae98 f   libcpmt:xmtx.obj
 0001:00059ea0       _Mtxinit                   000000014005aea0 f   libcpmt:xmtx.obj
 0001:00059eb0       _Mtxlock                   000000014005aeb0 f   libcpmt:xmtx.obj
 0001:00059eb8       _Mtxunlock                 000000014005aeb8 f   libcpmt:xmtx.obj
 0001:00059ec0       ?_Atexit@@YAXP6AXXZ@Z      000000014005aec0 f   libcpmt:iosptrs.obj
 0001:00059efc       __crtLCMapStringA          000000014005aefc f   libcpmt:StlLCMapStringA.obj
 0001:0005a208       _Timespec64_get_sys        000000014005b208 f   libcpmt:xtime.obj
 0001:0005a244       _Xtime_get_ticks           000000014005b244 f   libcpmt:xtime.obj
 0001:0005a2c0       __crtGetSystemTimePreciseAsFileTime 000000014005b2c0 f   libcpmt:winapisupp.obj
 0001:0005a2e8       __raise_securityfailure    000000014005b2e8 f   LIBCMT:gs_report.obj
 0001:0005a31c       __report_gsfailure         000000014005b31c f   LIBCMT:gs_report.obj
 0001:0005a3f0       __report_rangecheckfailure 000000014005b3f0 f   LIBCMT:gs_report.obj
 0001:0005a404       __report_securityfailure   000000014005b404 f   LIBCMT:gs_report.obj
 0001:0005a588       __GSHandlerCheck           000000014005b588 f   LIBCMT:gshandler.obj
 0001:0005a5a8       __GSHandlerCheckCommon     000000014005b5a8 f   LIBCMT:gshandler.obj
 0001:0005a620       __security_check_cookie    000000014005b620 f   LIBCMT:amdsecgs.obj
 0001:0005a640       ??3@YAXPEAX@Z              000000014005b640 f   LIBCMT:delete_scalar.obj
 0001:0005a648       ??2@YAPEAX_K@Z             000000014005b648 f   LIBCMT:new_scalar.obj
 0001:0005a684       ??3@YAXPEAX_K@Z            000000014005b684 f   LIBCMT:delete_scalar_size.obj
 0001:0005a684       ??_V@YAXPEAX@Z             000000014005b684 f   LIBCMT:delete_array.obj
 0001:0005a68c       __GSHandlerCheck_EH4       000000014005b68c f   LIBCMT:gshandlereh4.obj
 0001:0005a720       __chkstk                   000000014005b720 f   LIBCMT:chkstk.obj
 0001:0005a720       _alloca_probe              000000014005b720 f   LIBCMT:chkstk.obj
 0001:0005a770       ??_Etype_info@@UEAAPEAXI@Z 000000014005b770 f i LIBCMT:std_type_info_static.obj
 0001:0005a770       ??_Gtype_info@@UEAAPEAXI@Z 000000014005b770 f i LIBCMT:std_type_info_static.obj
 0001:0005a79c       _Init_thread_abort         000000014005b79c f   LIBCMT:thread_safe_statics.obj
 0001:0005a7d8       _Init_thread_footer        000000014005b7d8 f   LIBCMT:thread_safe_statics.obj
 0001:0005a844       _Init_thread_header        000000014005b844 f   LIBCMT:thread_safe_statics.obj
 0001:0005a8c0       ??_L@YAXPEAX_K1P6AX0@Z2@Z  000000014005b8c0 f   LIBCMT:ehvecctr.obj
 0001:0005a930       ??_M@YAXPEAX_K1P6AX0@Z@Z   000000014005b930 f   LIBCMT:ehvecdtr.obj
 0001:0005a99c       ?__ArrayUnwind@@YAXPEAX_K1P6AX0@Z@Z 000000014005b99c f   LIBCMT:ehvecdtr.obj
 0001:0005a9f8       __scrt_acquire_startup_lock 000000014005b9f8 f   LIBCMT:utility.obj
 0001:0005aa34       __scrt_initialize_crt      000000014005ba34 f   LIBCMT:utility.obj
 0001:0005aa70       __scrt_initialize_onexit_tables 000000014005ba70 f   LIBCMT:utility.obj
 0001:0005aafc       __scrt_is_nonwritable_in_current_image 000000014005bafc f   LIBCMT:utility.obj
 0001:0005ab94       __scrt_release_startup_lock 000000014005bb94 f   LIBCMT:utility.obj
 0001:0005abb8       __scrt_uninitialize_crt    000000014005bbb8 f   LIBCMT:utility.obj
 0001:0005abe4       _onexit                    000000014005bbe4 f   LIBCMT:utility.obj
 0001:0005ac20       atexit                     000000014005bc20 f   LIBCMT:utility.obj
 0001:0005ac38       ??_U@YAPEAX_KAEBUnothrow_t@std@@@Z 000000014005bc38 f   LIBCMT:new_array_nothrow.obj
 0001:0005ac4c       ??_U@YAPEAX_K@Z            000000014005bc4c f   LIBCMT:new_array.obj
 0001:0005aeac       wWinMainCRTStartup         000000014005beac f   LIBCMT:exe_wwinmain.obj
 0001:0005aec0       __isa_available_init       000000014005bec0 f   LIBCMT:cpu_disp.obj
 0001:0005b158       __scrt_is_ucrt_dll_in_use  000000014005c158 f   LIBCMT:ucrt_detection.obj
 0001:0005b164       __crt_debugger_hook        000000014005c164 f   LIBCMT:utility_desktop.obj
 0001:0005b170       __scrt_fastfail            000000014005c170 f   LIBCMT:utility_desktop.obj
 0001:0005b2bc       __scrt_get_show_window_mode 000000014005c2bc f   LIBCMT:utility_desktop.obj
 0001:0005b2f8       __scrt_initialize_mta      000000014005c2f8 f   LIBCMT:utility_desktop.obj
 0001:0005b300       __scrt_is_managed_app      000000014005c300 f   LIBCMT:utility_desktop.obj
 0001:0005b354       __scrt_set_unhandled_exception_filter 000000014005c354 f   LIBCMT:utility_desktop.obj
 0001:0005b364       __scrt_unhandled_exception_filter 000000014005c364 f   LIBCMT:utility_desktop.obj
 0001:0005b3c8       __security_init_cookie     000000014005c3c8 f   LIBCMT:gs_support.obj
 0001:0005b478       _get_startup_file_mode     000000014005c478 f   LIBCMT:file_mode.obj
 0001:0005b480       ?__scrt_initialize_type_info@@YAXXZ 000000014005c480 f   LIBCMT:tncleanup.obj
 0001:0005b490       __local_stdio_scanf_options 000000014005c490 f i LIBCMT:default_local_stdio_options.obj
 0001:0005b498       __scrt_initialize_default_local_stdio_options 000000014005c498 f   LIBCMT:default_local_stdio_options.obj
 0001:0005b4b4       __scrt_is_user_matherr_present 000000014005c4b4 f   LIBCMT:matherr_detection.obj
 0001:0005b4c0       __scrt_get_dyn_tls_init_callback 000000014005c4c0 f   LIBCMT:dyn_tls_init.obj
 0001:0005b4c8       __scrt_get_dyn_tls_dtor_callback 000000014005c4c8 f   LIBCMT:dyn_tls_dtor.obj
 0001:0005b4d0       _RTC_Initialize            000000014005c4d0 f   LIBCMT:initsect.obj
 0001:0005b50c       _RTC_Terminate             000000014005c50c f   LIBCMT:initsect.obj
 0001:0005b550       _get_purecall_handler      000000014005c550 f   libvcruntime:purevirt.obj
 0001:0005b55c       _purecall                  000000014005c55c f   libvcruntime:purevirt.obj
 0001:0005b578       __DestructExceptionObject  000000014005c578 f   libvcruntime:ehhelpers.obj
 0001:0005b5ec       ?_CallMemberFunction0@@YAXQEAX0@Z 000000014005c5ec f i libvcruntime:ehhelpers.obj
 0001:0005b5f0       _IsExceptionObjectToBeDestroyed 000000014005c5f0 f   libvcruntime:ehhelpers.obj
 0001:0005b620       __AdjustPointer            000000014005c620 f   libvcruntime:ehhelpers.obj
 0001:0005b644       __FrameUnwindFilter        000000014005c644 f   libvcruntime:ehhelpers.obj
 0001:0005b6ac       __current_exception        000000014005c6ac f   libvcruntime:ehhelpers.obj
 0001:0005b6c0       __current_exception_context 000000014005c6c0 f   libvcruntime:ehhelpers.obj
 0001:0005b6d4       __std_terminate            000000014005c6d4 f   libvcruntime:ehhelpers.obj
 0001:0005b6e0       __std_exception_copy       000000014005c6e0 f   libvcruntime:std_exception.obj
 0001:0005b760       __std_exception_destroy    000000014005c760 f   libvcruntime:std_exception.obj
 0001:0005b788       _CxxThrowException         000000014005c788 f   libvcruntime:throw.obj
 0001:0005b830       ??$_CallSETranslator@V__FrameHandler3@@@@YAHPEAUEHExceptionRecord@@PEA_KPEAU_CONTEXT@@PEAU_xDISPATCHER_CONTEXT@@PEBU_s_FuncInfo@@K1H@Z 000000014005c830 f i libvcruntime:risctrnsctrl.obj
 0001:0005b884       ??$_CallSETranslator@V__FrameHandler4@@@@YAHPEAUEHExceptionRecord@@PEA_KPEAU_CONTEXT@@PEAU_xDISPATCHER_CONTEXT@@PEAUFuncInfo4@FH4@@K1H@Z 000000014005c884 f i libvcruntime:risctrnsctrl.obj
 0001:0005b8d8       ?CatchTryBlock@__FrameHandler3@@SAPEBU_s_TryBlockMapEntry@@PEBU_s_FuncInfo@@H@Z 000000014005c8d8 f   libvcruntime:risctrnsctrl.obj
 0001:0005b93c       ?DecompFuncInfo@FH4@@YA_JPEAEAEAUFuncInfo4@1@_KH_N@Z 000000014005c93c f i libvcruntime:risctrnsctrl.obj
 0001:0005ba68       ?ExecutionInCatch@__FrameHandler3@@SA_NPEAU_xDISPATCHER_CONTEXT@@PEBU_s_FuncInfo@@@Z 000000014005ca68 f   libvcruntime:risctrnsctrl.obj
 0001:0005ba94       ?ExecutionInCatch@__FrameHandler4@@SA_NPEAU_xDISPATCHER_CONTEXT@@PEAUFuncInfo4@FH4@@@Z 000000014005ca94 f   libvcruntime:risctrnsctrl.obj
 0001:0005ba9c       ?FrameUnwindToEmptyState@__FrameHandler3@@SAXPEA_KPEAU_xDISPATCHER_CONTEXT@@PEBU_s_FuncInfo@@@Z 000000014005ca9c f   libvcruntime:risctrnsctrl.obj
 0001:0005bb00       ?FrameUnwindToEmptyState@__FrameHandler4@@SAXPEA_KPEAU_xDISPATCHER_CONTEXT@@PEAUFuncInfo4@FH4@@@Z 000000014005cb00 f   libvcruntime:risctrnsctrl.obj
 0001:0005bb34       ?GetEstablisherFrame@__FrameHandler3@@SAPEA_KPEA_KPEAU_xDISPATCHER_CONTEXT@@PEBU_s_FuncInfo@@0@Z 000000014005cb34 f   libvcruntime:risctrnsctrl.obj
 0001:0005bc1c       ?GetEstablisherFrame@__FrameHandler4@@SAPEA_KPEA_KPEAU_xDISPATCHER_CONTEXT@@PEAUFuncInfo4@FH4@@0@Z 000000014005cc1c f   libvcruntime:risctrnsctrl.obj
 0001:0005bc40       ?GetRangeOfTrysToCheck@__FrameHandler3@@SA?AU?$pair@Viterator@TryBlockMap@__FrameHandler3@@V123@@std@@AEAVTryBlockMap@1@HPEAU_xDISPATCHER_CONTEXT@@PEBU_s_FuncInfo@@H@Z 000000014005cc40 f   libvcruntime:risctrnsctrl.obj
 0001:0005bd78       ?GetRangeOfTrysToCheck@__FrameHandler4@@SA?AU?$pair@Viterator@TryBlockMap4@FH4@@V123@@std@@AEAVTryBlockMap4@FH4@@HPEAU_xDISPATCHER_CONTEXT@@PEAUFuncInfo4@5@H@Z 000000014005cd78 f   libvcruntime:risctrnsctrl.obj
 0001:0005bef8       ?UnwindNestedFrames@__FrameHandler3@@SAXPEA_KPEAUEHExceptionRecord@@PEAU_CONTEXT@@0PEAXPEBU_s_FuncInfo@@HHPEBU_s_HandlerType@@PEAU_xDISPATCHER_CONTEXT@@E@Z 000000014005cef8 f   libvcruntime:risctrnsctrl.obj
 0001:0005bffc       ?UnwindNestedFrames@__FrameHandler4@@SAXPEA_KPEAUEHExceptionRecord@@PEAU_CONTEXT@@0PEAXPEAUFuncInfo4@FH4@@HHPEAUHandlerType4@5@PEAU_xDISPATCHER_CONTEXT@@E@Z 000000014005cffc f   libvcruntime:risctrnsctrl.obj
 0001:0005c11c       ?setBuffer@TryBlockMap4@FH4@@QEAAXViterator@12@@Z 000000014005d11c f i libvcruntime:risctrnsctrl.obj
 0001:0005c308       _CreateFrameInfo           000000014005d308 f   libvcruntime:risctrnsctrl.obj
 0001:0005c344       _FindAndUnlinkFrame        000000014005d344 f   libvcruntime:risctrnsctrl.obj
 0001:0005c398       _GetImageBase              000000014005d398 f   libvcruntime:risctrnsctrl.obj
 0001:0005c3ac       _GetThrowImageBase         000000014005d3ac f   libvcruntime:risctrnsctrl.obj
 0001:0005c3c0       _SetImageBase              000000014005d3c0 f   libvcruntime:risctrnsctrl.obj
 0001:0005c3d8       _SetThrowImageBase         000000014005d3d8 f   libvcruntime:risctrnsctrl.obj
 0001:0005c3f0       __CxxFrameHandler3         000000014005d3f0 f   libvcruntime:risctrnsctrl.obj
 0001:0005c478       __CxxFrameHandler4         000000014005d478 f   libvcruntime:risctrnsctrl.obj
 0001:0005c540       wcsstr                     000000014005d540 f   libvcruntime:wcsstr.obj
 0001:0005c760       __uncaught_exceptions      000000014005d760 f   libvcruntime:uncaught_exceptions.obj
 0001:0005c77c       __C_specific_handler       000000014005d77c f   libvcruntime:riscchandler.obj
 0001:0005c994       __vcrt_initialize          000000014005d994 f   libvcruntime:initialization.obj
 0001:0005c9bc       __vcrt_uninitialize        000000014005d9bc f   libvcruntime:initialization.obj
 0001:0005c9d8       __std_type_info_compare    000000014005d9d8 f   libvcruntime:std_type_info.obj
 0001:0005c9f0       __vcrt_freefls             000000014005d9f0 f   libvcruntime:per_thread_data.obj
 0001:0005ca10       __vcrt_getptd              000000014005da10 f   libvcruntime:per_thread_data.obj
 0001:0005ca2c       __vcrt_getptd_noexit       000000014005da2c f   libvcruntime:per_thread_data.obj
 0001:0005caf8       __vcrt_getptd_noinit       000000014005daf8 f   libvcruntime:per_thread_data.obj
 0001:0005cb48       __vcrt_initialize_ptd      000000014005db48 f   libvcruntime:per_thread_data.obj
 0001:0005cb90       __vcrt_uninitialize_ptd    000000014005db90 f   libvcruntime:per_thread_data.obj
 0001:0005cbb8       ?GetCurrentState@__FrameHandler3@@SAHPEA_KPEAU_xDISPATCHER_CONTEXT@@PEBU_s_FuncInfo@@@Z 000000014005dbb8 f   libvcruntime:ehstate.obj
 0001:0005cbe0       ?GetUnwindTryBlock@__FrameHandler3@@SAHPEA_KPEAU_xDISPATCHER_CONTEXT@@PEBU_s_FuncInfo@@@Z 000000014005dbe0 f   libvcruntime:ehstate.obj
 0001:0005cc0c       ?SetState@__FrameHandler3@@SAXPEA_KPEBU_s_FuncInfo@@H@Z 000000014005dc0c f   libvcruntime:ehstate.obj
 0001:0005cc18       ?SetUnwindTryBlock@__FrameHandler3@@SAXPEA_KPEAU_xDISPATCHER_CONTEXT@@PEBU_s_FuncInfo@@H@Z 000000014005dc18 f   libvcruntime:ehstate.obj
 0001:0005cc54       ?StateFromControlPc@__FrameHandler3@@SAHPEBU_s_FuncInfo@@PEAU_xDISPATCHER_CONTEXT@@@Z 000000014005dc54 f   libvcruntime:ehstate.obj
 0001:0005cc5c       ?StateFromControlPc@__FrameHandler4@@SAHPEAUFuncInfo4@FH4@@PEAU_xDISPATCHER_CONTEXT@@@Z 000000014005dc5c f   libvcruntime:ehstate.obj
 0001:0005cc64       ?StateFromIp@__FrameHandler3@@SAHPEBU_s_FuncInfo@@PEAU_xDISPATCHER_CONTEXT@@_K@Z 000000014005dc64 f   libvcruntime:ehstate.obj
 0001:0005cccc       ?StateFromIp@__FrameHandler4@@SAHPEAUFuncInfo4@FH4@@PEAU_xDISPATCHER_CONTEXT@@_K@Z 000000014005dccc f   libvcruntime:ehstate.obj
 0001:0005e470       ??$TypeMatchHelper@V__FrameHandler3@@@@YAHPEBU_s_HandlerType@@PEBU_s_CatchableType@@PEBU_s_ThrowInfo@@@Z 000000014005f470 f i libvcruntime:frame.obj
 0001:0005e590       ??$TypeMatchHelper@V__FrameHandler4@@@@YAHPEAUHandlerType4@FH4@@PEBU_s_CatchableType@@PEBU_s_ThrowInfo@@@Z 000000014005f590 f i libvcruntime:frame.obj
 0001:0005e6d0       ??$__InternalCxxFrameHandler@V__FrameHandler3@@@@YA?AW4_EXCEPTION_DISPOSITION@@PEAUEHExceptionRecord@@PEA_KPEAU_CONTEXT@@PEAU_xDISPATCHER_CONTEXT@@PEBU_s_FuncInfo@@H1E@Z 000000014005f6d0 f i libvcruntime:frame.obj
 0001:0005e900       ??$__InternalCxxFrameHandler@V__FrameHandler4@@@@YA?AW4_EXCEPTION_DISPOSITION@@PEAUEHExceptionRecord@@PEA_KPEAU_CONTEXT@@PEAU_xDISPATCHER_CONTEXT@@PEAUFuncInfo4@FH4@@H1E@Z 000000014005f900 f i libvcruntime:frame.obj
 0001:0005eba8       ??$__InternalCxxFrameHandlerWrapper@V__FrameHandler3@@@@YA?AW4_EXCEPTION_DISPOSITION@@PEAUEHExceptionRecord@@PEA_KPEAU_CONTEXT@@PEAU_xDISPATCHER_CONTEXT@@PEBU_s_FuncInfo@@H1E@Z 000000014005fba8 f i libvcruntime:frame.obj
 0001:0005ebb0       ??$__InternalCxxFrameHandlerWrapper@V__FrameHandler4@@@@YA?AW4_EXCEPTION_DISPOSITION@@PEAUEHExceptionRecord@@PEA_KPEAU_CONTEXT@@PEAU_xDISPATCHER_CONTEXT@@PEAUFuncInfo4@FH4@@H1E@Z 000000014005fbb0 f i libvcruntime:frame.obj
 0001:0005ebfc       ??0HandlerMap4@FH4@@QEAA@PEBUTryBlockMapEntry4@1@_KH@Z 000000014005fbfc f i libvcruntime:frame.obj
 0001:0005ec80       ??0TryBlockMap4@FH4@@QEAA@PEBUFuncInfo4@1@_K@Z 000000014005fc80 f i libvcruntime:frame.obj
 0001:0005ed64       ??0bad_exception@std@@QEAA@AEBV01@@Z 000000014005fd64 f i libvcruntime:frame.obj
 0001:0005eda0       ??0bad_exception@std@@QEAA@XZ 000000014005fda0 f i libvcruntime:frame.obj
 0001:0005edc4       ?CxxCallCatchBlock@__FrameHandler3@@SAPEAXPEAU_EXCEPTION_RECORD@@@Z 000000014005fdc4 f   libvcruntime:frame.obj
 0001:0005efb0       ?CxxCallCatchBlock@__FrameHandler4@@SAPEAXPEAU_EXCEPTION_RECORD@@@Z 000000014005ffb0 f   libvcruntime:frame.obj
 0001:0005f1f0       ?DecompHandler@HandlerMap4@FH4@@AEAAXXZ 00000001400601f0 f i libvcruntime:frame.obj
 0001:0005f440       ?FrameUnwindToState@__FrameHandler3@@SAXPEA_KPEAU_xDISPATCHER_CONTEXT@@PEBU_s_FuncInfo@@H@Z 0000000140060440 f   libvcruntime:frame.obj
 0001:0005f5cc       ?FrameUnwindToState@__FrameHandler4@@SAXPEA_KPEAU_xDISPATCHER_CONTEXT@@PEAUFuncInfo4@FH4@@H@Z 00000001400605cc f   libvcruntime:frame.obj
 0001:0005f8d8       ?GetHandlerSearchState@__FrameHandler3@@SAHPEA_KPEAU_xDISPATCHER_CONTEXT@@PEBU_s_FuncInfo@@@Z 00000001400608d8 f i libvcruntime:frame.obj
 0001:0005fae0       ?ReadEntry@UWMap4@FH4@@AEAAXPEAPEAE@Z 0000000140060ae0 f i libvcruntime:frame.obj
 0001:0005fb80       ?_CallMemberFunction1@@YAXQEAX00@Z 0000000140060b80 f i libvcruntime:frame.obj
 0001:0005fb8c       ?_CallMemberFunction2@@YAXQEAX00H@Z 0000000140060b8c f i libvcruntime:frame.obj
 0001:0005fb9c       ?getStartStop@UWMap4@FH4@@QEAAXHHAEAViterator@12@0@Z 0000000140060b9c f i libvcruntime:frame.obj
 0001:0005fc6c       ?getStateFromIterators@UWMap4@FH4@@SAHAEBViterator@12@H0H0@Z 0000000140060c6c f i libvcruntime:frame.obj
 0001:0005fd50       _NLG_Notify                0000000140060d50 f   libvcruntime:notify.obj
 0001:0005fd70       __NLG_Dispatch2            0000000140060d70 f   libvcruntime:notify.obj
 0001:0005fd80       __NLG_Return2              0000000140060d80 f   libvcruntime:notify.obj
 0001:0005fd84       __except_validate_context_record 0000000140060d84 f   libvcruntime:jbcxrval.obj
 0001:0005fdbc       __vcrt_initialize_locks    0000000140060dbc f   libvcruntime:locks.obj
 0001:0005fe04       __vcrt_uninitialize_locks  0000000140060e04 f   libvcruntime:locks.obj
 0001:0005ff8c       __vcrt_FlsAlloc            0000000140060f8c f   libvcruntime:winapi_downlevel.obj
 0001:0005ffd4       __vcrt_FlsFree             0000000140060fd4 f   libvcruntime:winapi_downlevel.obj
 0001:0006001c       __vcrt_FlsGetValue         000000014006101c f   libvcruntime:winapi_downlevel.obj
 0001:00060064       __vcrt_FlsSetValue         0000000140061064 f   libvcruntime:winapi_downlevel.obj
 0001:000600b8       __vcrt_InitializeCriticalSectionEx 00000001400610b8 f   libvcruntime:winapi_downlevel.obj
 0001:00060160       _CallSettingFrame          0000000140061160 f   libvcruntime:handlers.obj
 0001:000601a0       _CallSettingFrame_LookupContinuationIndex 00000001400611a0 f   libvcruntime:handlers.obj
 0001:000601d0       _CallSettingFrame_NotifyContinuationAddr 00000001400611d0 f   libvcruntime:handlers.obj
 0001:00060200       _CallSettingFrameEncoded   0000000140061200 f   libvcruntime:handlers.obj
 0001:00060400       ??$ensure_buffer_is_big_enough@D@formatting_buffer@__crt_stdio_output@@QEAA_N_KAEAV__crt_cached_ptd_host@@@Z 0000000140061400 f i libucrt:output.obj
 0001:000604a8       ??$ensure_buffer_is_big_enough@_W@formatting_buffer@__crt_stdio_output@@QEAA_N_KAEAV__crt_cached_ptd_host@@@Z 00000001400614a8 f i libucrt:output.obj
 0001:00060554       ??$is_wide_character_specifier@_W@__crt_stdio_output@@YA_N_K_WW4length_modifier@0@@Z 0000000140061554 f i libucrt:output.obj
 0001:00060594       ??$parse_integer@KV?$c_string_character_source@D@__crt_strtox@@$0A@@__crt_strtox@@YAKAEAV__crt_cached_ptd_host@@V?$c_string_character_source@D@0@H_N@Z 0000000140061594 f i libucrt:output.obj
 0001:00060848       ??$parse_integer@KV?$c_string_character_source@_W@__crt_strtox@@$0A@@__crt_strtox@@YAKAEAV__crt_cached_ptd_host@@V?$c_string_character_source@_W@0@H_N@Z 0000000140061848 f i libucrt:output.obj
 0001:00060fb4       ??$type_case_integer@$07@?$output_processor@DV?$string_output_adapter@D@__crt_stdio_output@@V?$standard_base@DV?$string_output_adapter@D@__crt_stdio_output@@@2@@__crt_stdio_output@@AEAA_N_N@Z 0000000140061fb4 f i libucrt:output.obj
 0001:000611b8       ??$type_case_integer@$07@?$output_processor@_WV?$string_output_adapter@_W@__crt_stdio_output@@V?$format_validation_base@_WV?$string_output_adapter@_W@__crt_stdio_output@@@2@@__crt_stdio_output@@AEAA_N_N@Z 00000001400621b8 f i libucrt:output.obj
 0001:000611b8       ??$type_case_integer@$07@?$output_processor@_WV?$string_output_adapter@_W@__crt_stdio_output@@V?$standard_base@_WV?$string_output_adapter@_W@__crt_stdio_output@@@2@@__crt_stdio_output@@AEAA_N_N@Z 00000001400621b8 f i libucrt:output.obj
 0001:000613c4       ??$type_case_integer@$09@?$output_processor@DV?$string_output_adapter@D@__crt_stdio_output@@V?$standard_base@DV?$string_output_adapter@D@__crt_stdio_output@@@2@@__crt_stdio_output@@AEAA_N_N@Z 00000001400623c4 f i libucrt:output.obj
 0001:000615c8       ??$type_case_integer@$09@?$output_processor@_WV?$string_output_adapter@_W@__crt_stdio_output@@V?$format_validation_base@_WV?$string_output_adapter@_W@__crt_stdio_output@@@2@@__crt_stdio_output@@AEAA_N_N@Z 00000001400625c8 f i libucrt:output.obj
 0001:000615c8       ??$type_case_integer@$09@?$output_processor@_WV?$string_output_adapter@_W@__crt_stdio_output@@V?$standard_base@_WV?$string_output_adapter@_W@__crt_stdio_output@@@2@@__crt_stdio_output@@AEAA_N_N@Z 00000001400625c8 f i libucrt:output.obj
 0001:000617d4       ??$type_case_integer@$0BA@@?$output_processor@DV?$string_output_adapter@D@__crt_stdio_output@@V?$standard_base@DV?$string_output_adapter@D@__crt_stdio_output@@@2@@__crt_stdio_output@@AEAA_N_N@Z 00000001400627d4 f i libucrt:output.obj
 0001:000619d8       ??$type_case_integer@$0BA@@?$output_processor@_WV?$string_output_adapter@_W@__crt_stdio_output@@V?$format_validation_base@_WV?$string_output_adapter@_W@__crt_stdio_output@@@2@@__crt_stdio_output@@AEAA_N_N@Z 00000001400629d8 f i libucrt:output.obj
 0001:000619d8       ??$type_case_integer@$0BA@@?$output_processor@_WV?$string_output_adapter@_W@__crt_stdio_output@@V?$standard_base@_WV?$string_output_adapter@_W@__crt_stdio_output@@@2@@__crt_stdio_output@@AEAA_N_N@Z 00000001400629d8 f i libucrt:output.obj
 0001:00061be4       ??$type_case_integer_parse_into_buffer@I$07@?$output_processor@DV?$string_output_adapter@D@__crt_stdio_output@@V?$standard_base@DV?$string_output_adapter@D@__crt_stdio_output@@@2@@__crt_stdio_output@@AEAAXI_N@Z 0000000140062be4 f i libucrt:output.obj
 0001:00061c54       ??$type_case_integer_parse_into_buffer@I$07@?$output_processor@_WV?$string_output_adapter@_W@__crt_stdio_output@@V?$format_validation_base@_WV?$string_output_adapter@_W@__crt_stdio_output@@@2@@__crt_stdio_output@@AEAAXI_N@Z 0000000140062c54 f i libucrt:output.obj
 0001:00061c54       ??$type_case_integer_parse_into_buffer@I$07@?$output_processor@_WV?$string_output_adapter@_W@__crt_stdio_output@@V?$standard_base@_WV?$string_output_adapter@_W@__crt_stdio_output@@@2@@__crt_stdio_output@@AEAAXI_N@Z 0000000140062c54 f i libucrt:output.obj
 0001:00061cd8       ??$type_case_integer_parse_into_buffer@I$09@?$output_processor@DV?$string_output_adapter@D@__crt_stdio_output@@V?$standard_base@DV?$string_output_adapter@D@__crt_stdio_output@@@2@@__crt_stdio_output@@AEAAXI_N@Z 0000000140062cd8 f i libucrt:output.obj
 0001:00061d84       ??$type_case_integer_parse_into_buffer@I$09@?$output_processor@_WV?$string_output_adapter@_W@__crt_stdio_output@@V?$format_validation_base@_WV?$string_output_adapter@_W@__crt_stdio_output@@@2@@__crt_stdio_output@@AEAAXI_N@Z 0000000140062d84 f i libucrt:output.obj
 0001:00061d84       ??$type_case_integer_parse_into_buffer@I$09@?$output_processor@_WV?$string_output_adapter@_W@__crt_stdio_output@@V?$standard_base@_WV?$string_output_adapter@_W@__crt_stdio_output@@@2@@__crt_stdio_output@@AEAAXI_N@Z 0000000140062d84 f i libucrt:output.obj
 0001:00061e44       ??$type_case_integer_parse_into_buffer@I$0BA@@?$output_processor@DV?$string_output_adapter@D@__crt_stdio_output@@V?$standard_base@DV?$string_output_adapter@D@__crt_stdio_output@@@2@@__crt_stdio_output@@AEAAXI_N@Z 0000000140062e44 f i libucrt:output.obj
 0001:00061ec8       ??$type_case_integer_parse_into_buffer@I$0BA@@?$output_processor@_WV?$string_output_adapter@_W@__crt_stdio_output@@V?$format_validation_base@_WV?$string_output_adapter@_W@__crt_stdio_output@@@2@@__crt_stdio_output@@AEAAXI_N@Z 0000000140062ec8 f i libucrt:output.obj
 0001:00061ec8       ??$type_case_integer_parse_into_buffer@I$0BA@@?$output_processor@_WV?$string_output_adapter@_W@__crt_stdio_output@@V?$standard_base@_WV?$string_output_adapter@_W@__crt_stdio_output@@@2@@__crt_stdio_output@@AEAAXI_N@Z 0000000140062ec8 f i libucrt:output.obj
 0001:00061f68       ??$type_case_integer_parse_into_buffer@_K$07@?$output_processor@DV?$string_output_adapter@D@__crt_stdio_output@@V?$standard_base@DV?$string_output_adapter@D@__crt_stdio_output@@@2@@__crt_stdio_output@@AEAAX_K_N@Z 0000000140062f68 f i libucrt:output.obj
 0001:00061fd8       ??$type_case_integer_parse_into_buffer@_K$07@?$output_processor@_WV?$string_output_adapter@_W@__crt_stdio_output@@V?$format_validation_base@_WV?$string_output_adapter@_W@__crt_stdio_output@@@2@@__crt_stdio_output@@AEAAX_K_N@Z 0000000140062fd8 f i libucrt:output.obj
 0001:00061fd8       ??$type_case_integer_parse_into_buffer@_K$07@?$output_processor@_WV?$string_output_adapter@_W@__crt_stdio_output@@V?$standard_base@_WV?$string_output_adapter@_W@__crt_stdio_output@@@2@@__crt_stdio_output@@AEAAX_K_N@Z 0000000140062fd8 f i libucrt:output.obj
 0001:00062060       ??$type_case_integer_parse_into_buffer@_K$09@?$output_processor@DV?$string_output_adapter@D@__crt_stdio_output@@V?$standard_base@DV?$string_output_adapter@D@__crt_stdio_output@@@2@@__crt_stdio_output@@AEAAX_K_N@Z 0000000140063060 f i libucrt:output.obj
 0001:00062110       ??$type_case_integer_parse_into_buffer@_K$09@?$output_processor@_WV?$string_output_adapter@_W@__crt_stdio_output@@V?$format_validation_base@_WV?$string_output_adapter@_W@__crt_stdio_output@@@2@@__crt_stdio_output@@AEAAX_K_N@Z 0000000140063110 f i libucrt:output.obj
 0001:00062110       ??$type_case_integer_parse_into_buffer@_K$09@?$output_processor@_WV?$string_output_adapter@_W@__crt_stdio_output@@V?$standard_base@_WV?$string_output_adapter@_W@__crt_stdio_output@@@2@@__crt_stdio_output@@AEAAX_K_N@Z 0000000140063110 f i libucrt:output.obj
 0001:000621d4       ??$type_case_integer_parse_into_buffer@_K$0BA@@?$output_processor@DV?$string_output_adapter@D@__crt_stdio_output@@V?$standard_base@DV?$string_output_adapter@D@__crt_stdio_output@@@2@@__crt_stdio_output@@AEAAX_K_N@Z 00000001400631d4 f i libucrt:output.obj
 0001:00062258       ??$type_case_integer_parse_into_buffer@_K$0BA@@?$output_processor@_WV?$string_output_adapter@_W@__crt_stdio_output@@V?$format_validation_base@_WV?$string_output_adapter@_W@__crt_stdio_output@@@2@@__crt_stdio_output@@AEAAX_K_N@Z 0000000140063258 f i libucrt:output.obj
 0001:00062258       ??$type_case_integer_parse_into_buffer@_K$0BA@@?$output_processor@_WV?$string_output_adapter@_W@__crt_stdio_output@@V?$standard_base@_WV?$string_output_adapter@_W@__crt_stdio_output@@@2@@__crt_stdio_output@@AEAAX_K_N@Z 0000000140063258 f i libucrt:output.obj
 0001:000622f8       ?crop_zeroes@__crt_stdio_output@@YAXPEADQEAU__crt_locale_pointers@@@Z 00000001400632f8 f i libucrt:output.obj
 0001:00062370       ?get_raw_ptd@__crt_cached_ptd_host@@QEAAPEAU__acrt_ptd@@XZ 0000000140063370 f i libucrt:output.obj
 0001:000623d8       ?parse_int_from_format_string@?$output_processor@DV?$string_output_adapter@D@__crt_stdio_output@@V?$standard_base@DV?$string_output_adapter@D@__crt_stdio_output@@@2@@__crt_stdio_output@@AEAA_NQEAH@Z 00000001400633d8 f i libucrt:output.obj
 0001:00062468       ?parse_int_from_format_string@?$output_processor@_WV?$string_output_adapter@_W@__crt_stdio_output@@V?$format_validation_base@_WV?$string_output_adapter@_W@__crt_stdio_output@@@2@@__crt_stdio_output@@AEAA_NQEAH@Z 0000000140063468 f i libucrt:output.obj
 0001:00062468       ?parse_int_from_format_string@?$output_processor@_WV?$string_output_adapter@_W@__crt_stdio_output@@V?$standard_base@_WV?$string_output_adapter@_W@__crt_stdio_output@@@2@@__crt_stdio_output@@AEAA_NQEAH@Z 0000000140063468 f i libucrt:output.obj
 0001:000624f8       ?process@?$output_processor@DV?$string_output_adapter@D@__crt_stdio_output@@V?$standard_base@DV?$string_output_adapter@D@__crt_stdio_output@@@2@@__crt_stdio_output@@QEAAHXZ 00000001400634f8 f i libucrt:output.obj
 0001:00062868       ?process@?$output_processor@_WV?$string_output_adapter@_W@__crt_stdio_output@@V?$format_validation_base@_WV?$string_output_adapter@_W@__crt_stdio_output@@@2@@__crt_stdio_output@@QEAAHXZ 0000000140063868 f i libucrt:output.obj
 0001:00062b24       ?process@?$output_processor@_WV?$string_output_adapter@_W@__crt_stdio_output@@V?$standard_base@_WV?$string_output_adapter@_W@__crt_stdio_output@@@2@@__crt_stdio_output@@QEAAHXZ 0000000140063b24 f i libucrt:output.obj
 0001:00062de8       ?state_case_size@?$output_processor@DV?$string_output_adapter@D@__crt_stdio_output@@V?$standard_base@DV?$string_output_adapter@D@__crt_stdio_output@@@2@@__crt_stdio_output@@AEAA_NXZ 0000000140063de8 f i libucrt:output.obj
 0001:00062f70       ?state_case_size@?$output_processor@_WV?$string_output_adapter@_W@__crt_stdio_output@@V?$format_validation_base@_WV?$string_output_adapter@_W@__crt_stdio_output@@@2@@__crt_stdio_output@@AEAA_NXZ 0000000140063f70 f i libucrt:output.obj
 0001:00062f70       ?state_case_size@?$output_processor@_WV?$string_output_adapter@_W@__crt_stdio_output@@V?$standard_base@_WV?$string_output_adapter@_W@__crt_stdio_output@@@2@@__crt_stdio_output@@AEAA_NXZ 0000000140063f70 f i libucrt:output.obj
 0001:00063120       ?state_case_type@?$output_processor@DV?$string_output_adapter@D@__crt_stdio_output@@V?$standard_base@DV?$string_output_adapter@D@__crt_stdio_output@@@2@@__crt_stdio_output@@AEAA_NXZ 0000000140064120 f i libucrt:output.obj
 0001:00063590       ?state_case_type@?$output_processor@_WV?$string_output_adapter@_W@__crt_stdio_output@@V?$format_validation_base@_WV?$string_output_adapter@_W@__crt_stdio_output@@@2@@__crt_stdio_output@@AEAA_NXZ 0000000140064590 f i libucrt:output.obj
 0001:00063590       ?state_case_type@?$output_processor@_WV?$string_output_adapter@_W@__crt_stdio_output@@V?$standard_base@_WV?$string_output_adapter@_W@__crt_stdio_output@@@2@@__crt_stdio_output@@AEAA_NXZ 0000000140064590 f i libucrt:output.obj
 0001:00063b08       ?type_case_Z@?$output_processor@DV?$string_output_adapter@D@__crt_stdio_output@@V?$standard_base@DV?$string_output_adapter@D@__crt_stdio_output@@@2@@__crt_stdio_output@@AEAA_NXZ 0000000140064b08 f i libucrt:output.obj
 0001:00063b84       ?type_case_Z@?$output_processor@_WV?$string_output_adapter@_W@__crt_stdio_output@@V?$format_validation_base@_WV?$string_output_adapter@_W@__crt_stdio_output@@@2@@__crt_stdio_output@@AEAA_NXZ 0000000140064b84 f i libucrt:output.obj
 0001:00063b84       ?type_case_Z@?$output_processor@_WV?$string_output_adapter@_W@__crt_stdio_output@@V?$standard_base@_WV?$string_output_adapter@_W@__crt_stdio_output@@@2@@__crt_stdio_output@@AEAA_NXZ 0000000140064b84 f i libucrt:output.obj
 0001:00063bf8       ?type_case_a@?$output_processor@DV?$string_output_adapter@D@__crt_stdio_output@@V?$standard_base@DV?$string_output_adapter@D@__crt_stdio_output@@@2@@__crt_stdio_output@@AEAA_NXZ 0000000140064bf8 f i libucrt:output.obj
 0001:00063e54       ?type_case_a@?$output_processor@_WV?$string_output_adapter@_W@__crt_stdio_output@@V?$format_validation_base@_WV?$string_output_adapter@_W@__crt_stdio_output@@@2@@__crt_stdio_output@@AEAA_NXZ 0000000140064e54 f i libucrt:output.obj
 0001:00063e54       ?type_case_a@?$output_processor@_WV?$string_output_adapter@_W@__crt_stdio_output@@V?$standard_base@_WV?$string_output_adapter@_W@__crt_stdio_output@@@2@@__crt_stdio_output@@AEAA_NXZ 0000000140064e54 f i libucrt:output.obj
 0001:000640d0       ?type_case_c_tchar@?$output_processor@DV?$string_output_adapter@D@__crt_stdio_output@@V?$standard_base@DV?$string_output_adapter@D@__crt_stdio_output@@@2@@__crt_stdio_output@@AEAA_ND@Z 00000001400650d0 f i libucrt:output.obj
 0001:000641a4       ?type_case_c_tchar@?$output_processor@_WV?$string_output_adapter@_W@__crt_stdio_output@@V?$format_validation_base@_WV?$string_output_adapter@_W@__crt_stdio_output@@@2@@__crt_stdio_output@@AEAA_N_W@Z 00000001400651a4 f i libucrt:output.obj
 0001:000641a4       ?type_case_c_tchar@?$output_processor@_WV?$string_output_adapter@_W@__crt_stdio_output@@V?$standard_base@_WV?$string_output_adapter@_W@__crt_stdio_output@@@2@@__crt_stdio_output@@AEAA_N_W@Z 00000001400651a4 f i libucrt:output.obj
 0001:00064268       ?type_case_n@?$output_processor@DV?$string_output_adapter@D@__crt_stdio_output@@V?$standard_base@DV?$string_output_adapter@D@__crt_stdio_output@@@2@@__crt_stdio_output@@AEAA_NXZ 0000000140065268 f i libucrt:output.obj
 0001:00064268       ?type_case_n@?$output_processor@_WV?$string_output_adapter@_W@__crt_stdio_output@@V?$format_validation_base@_WV?$string_output_adapter@_W@__crt_stdio_output@@@2@@__crt_stdio_output@@AEAA_NXZ 0000000140065268 f i libucrt:output.obj
 0001:00064268       ?type_case_n@?$output_processor@_WV?$string_output_adapter@_W@__crt_stdio_output@@V?$standard_base@_WV?$string_output_adapter@_W@__crt_stdio_output@@@2@@__crt_stdio_output@@AEAA_NXZ 0000000140065268 f i libucrt:output.obj
 0001:00064320       ?type_case_s@?$output_processor@DV?$string_output_adapter@D@__crt_stdio_output@@V?$standard_base@DV?$string_output_adapter@D@__crt_stdio_output@@@2@@__crt_stdio_output@@AEAA_NXZ 0000000140065320 f i libucrt:output.obj
 0001:000643bc       ?type_case_s@?$output_processor@_WV?$string_output_adapter@_W@__crt_stdio_output@@V?$format_validation_base@_WV?$string_output_adapter@_W@__crt_stdio_output@@@2@@__crt_stdio_output@@AEAA_NXZ 00000001400653bc f i libucrt:output.obj
 0001:000643bc       ?type_case_s@?$output_processor@_WV?$string_output_adapter@_W@__crt_stdio_output@@V?$standard_base@_WV?$string_output_adapter@_W@__crt_stdio_output@@@2@@__crt_stdio_output@@AEAA_NXZ 00000001400653bc f i libucrt:output.obj
 0001:00064458       ?type_case_s_compute_narrow_string_length@?$output_processor@_WV?$string_output_adapter@_W@__crt_stdio_output@@V?$format_validation_base@_WV?$string_output_adapter@_W@__crt_stdio_output@@@2@@__crt_stdio_output@@AEAAHH_W@Z 0000000140065458 f i libucrt:output.obj
 0001:00064458       ?type_case_s_compute_narrow_string_length@?$output_processor@_WV?$string_output_adapter@_W@__crt_stdio_output@@V?$standard_base@_WV?$string_output_adapter@_W@__crt_stdio_output@@@2@@__crt_stdio_output@@AEAAHH_W@Z 0000000140065458 f i libucrt:output.obj
 0001:00064520       ?update_locale_slow@__crt_cached_ptd_host@@AEAAXXZ 0000000140065520 f i libucrt:output.obj
 0001:00064598       ?write_string@?$string_output_adapter@D@__crt_stdio_output@@QEBAXQEBDHQEAHAEAV__crt_cached_ptd_host@@@Z 0000000140065598 f i libucrt:output.obj
 0001:0006463c       ?write_string@?$string_output_adapter@_W@__crt_stdio_output@@QEBAXQEB_WHQEAHAEAV__crt_cached_ptd_host@@@Z 000000014006563c f i libucrt:output.obj
 0001:000646e4       __stdio_common_vsnwprintf_s 00000001400656e4 f   libucrt:output.obj
 0001:000648a8       __stdio_common_vsprintf    00000001400658a8 f   libucrt:output.obj
 0001:00064afc       __stdio_common_vswprintf   0000000140065afc f   libucrt:output.obj
 0001:00064d58       __stdio_common_vswprintf_s 0000000140065d58 f   libucrt:output.obj
 0001:00064e6c       ?get_raw_ptd_noexit@__crt_cached_ptd_host@@QEAAPEAU__acrt_ptd@@XZ 0000000140065e6c f i libucrt:invalid_parameter.obj
 0001:00064ed8       ?value@?$dual_state_global@P6AXPEB_W00I_K@Z@__crt_state_management@@QEAAAEAP6AXPEB_W00I_K@ZAEAV__crt_cached_ptd_host@@@Z 0000000140065ed8 f i libucrt:invalid_parameter.obj
 0001:00064f24       __acrt_call_reportfault    0000000140065f24 f   libucrt:invalid_parameter.obj
 0001:00065094       __acrt_initialize_invalid_parameter_handler 0000000140066094 f   libucrt:invalid_parameter.obj
 0001:0006509c       _invalid_parameter         000000014006609c f   libucrt:invalid_parameter.obj
 0001:00065138       _invalid_parameter_internal 0000000140066138 f   libucrt:invalid_parameter.obj
 0001:000651f0       _invalid_parameter_noinfo  00000001400661f0 f   libucrt:invalid_parameter.obj
 0001:00065210       _invoke_watson             0000000140066210 f   libucrt:invalid_parameter.obj
 0001:00065258       __acrt_errno_from_os_error 0000000140066258 f   libucrt:errno.obj
 0001:00065328       __acrt_errno_map_os_error  0000000140066328 f   libucrt:errno.obj
 0001:00065350       __acrt_errno_map_os_error_ptd 0000000140066350 f   libucrt:errno.obj
 0001:00065374       __doserrno                 0000000140066374 f   libucrt:errno.obj
 0001:00065398       _errno                     0000000140066398 f   libucrt:errno.obj
 0001:000653bc       ??$is_overflow_condition@_K@__crt_strtox@@YA_NI_K@Z 00000001400663bc f i libucrt:strtox.obj
 0001:000653f4       ??$parse_integer@KV?$c_string_character_source@_W@__crt_strtox@@$00@__crt_strtox@@YAKAEAV__crt_cached_ptd_host@@V?$c_string_character_source@_W@0@H_N@Z 00000001400663f4 f i libucrt:strtox.obj
 0001:00065b90       ??$parse_integer@_KV?$c_string_character_source@D@__crt_strtox@@$00@__crt_strtox@@YA_KAEAV__crt_cached_ptd_host@@V?$c_string_character_source@D@0@H_N@Z 0000000140066b90 f i libucrt:strtox.obj
 0001:00065e6c       ??$parse_integer@_KV?$c_string_character_source@_W@__crt_strtox@@$00@__crt_strtox@@YA_KAEAV__crt_cached_ptd_host@@V?$c_string_character_source@_W@0@H_N@Z 0000000140066e6c f i libucrt:strtox.obj
 0001:000665f0       _ischartype_l              00000001400675f0 f i libucrt:strtox.obj
 0001:00066668       strtoll                    0000000140067668 f   libucrt:strtox.obj
 0001:0006671c       strtoull                   000000014006771c f   libucrt:strtox.obj
 0001:000667d0       wcstol                     00000001400677d0 f   libucrt:strtox.obj
 0001:00066884       wcstoul                    0000000140067884 f   libucrt:strtox.obj
 0001:00066938       wcstoull                   0000000140067938 f   libucrt:strtox.obj
 0001:000669f0       strnlen                    00000001400679f0 f   libucrt:strnlen.obj
 0001:00066b80       wcslen                     0000000140067b80 f   libucrt:strnlen.obj
 0001:00066cd0       wcsnlen                    0000000140067cd0 f   libucrt:strnlen.obj
 0001:00066ee0       free                       0000000140067ee0 f   libucrt:free.obj
 0001:00066ef0       malloc                     0000000140067ef0 f   libucrt:malloc.obj
 0001:00066f00       _recalloc_base             0000000140067f00 f   libucrt:recalloc.obj
 0001:00066fa0       _recalloc                  0000000140067fa0 f   libucrt:recalloc.obj
 0001:00066fa8       _wtoi                      0000000140067fa8 f   libucrt:atox.obj
 0001:00066fa8       _wtol                      0000000140067fa8 f   libucrt:atox.obj
 0001:00067058       _wtoi64                    0000000140068058 f   libucrt:atox.obj
 0001:0006710c       __acrt_initialize_command_line 000000014006810c f   libucrt:argv_data.obj
 0001:00067134       __p___argc                 0000000140068134 f   libucrt:argv_data.obj
 0001:0006713c       __p___wargv                000000014006813c f   libucrt:argv_data.obj
 0001:00067150       wcsncpy_s                  0000000140068150 f   libucrt:wcsncpy_s.obj
 0001:000672a0       ??0_LocaleUpdate@@QEAA@QEAU__crt_locale_pointers@@@Z 00000001400682a0 f i libucrt:wcsicmp.obj
 0001:00067390       __ascii_wcsicmp            0000000140068390 f   libucrt:wcsicmp.obj
 0001:000673f0       _wcsicmp                   00000001400683f0 f   libucrt:wcsicmp.obj
 0001:00067420       _wcsicmp_l                 0000000140068420 f   libucrt:wcsicmp.obj
 0001:000675f0       wmemcpy_s                  00000001400685f0 f   libucrt:wmemcpy_s.obj
 0001:00067680       ceilf                      0000000140068680 f   libucrt:ceilf.obj
 0001:00067720       wcscpy_s                   0000000140068720 f   libucrt:wcscpy_s.obj
 0001:0006784c       ??$parse_floating_point@V?$c_string_character_source@D@__crt_strtox@@N@__crt_strtox@@YA?AW4SLD_STATUS@@QEAU__crt_locale_pointers@@V?$c_string_character_source@D@0@QEAN@Z 000000014006884c f i libucrt:strtod.obj
 0001:000678ec       ??$parse_floating_point_from_source@V?$c_string_character_source@D@__crt_strtox@@@__crt_strtox@@YA?AW4floating_point_parse_result@0@QEAU__crt_locale_pointers@@AEAV?$c_string_character_source@D@0@AEAUfloating_point_string@0@@Z 00000001400688ec f i libucrt:strtod.obj
 0001:00067db0       ??$parse_floating_point_possible_infinity@DV?$c_string_character_source@D@__crt_strtox@@PEBD@__crt_strtox@@YA?AW4floating_point_parse_result@0@AEADAEAV?$c_string_character_source@D@0@PEBD@Z 0000000140068db0 f i libucrt:strtod.obj
 0001:00067ef4       ??$parse_floating_point_possible_nan@DV?$c_string_character_source@D@__crt_strtox@@PEBD@__crt_strtox@@YA?AW4floating_point_parse_result@0@AEADAEAV?$c_string_character_source@D@0@PEBD@Z 0000000140068ef4 f i libucrt:strtod.obj
 0001:000680e0       ??$parse_floating_point_possible_nan_is_ind@DV?$c_string_character_source@D@__crt_strtox@@@__crt_strtox@@YA_NAEADAEAV?$c_string_character_source@D@0@@Z 00000001400690e0 f i libucrt:strtod.obj
 0001:00068128       ??$parse_floating_point_possible_nan_is_snan@DV?$c_string_character_source@D@__crt_strtox@@@__crt_strtox@@YA_NAEADAEAV?$c_string_character_source@D@0@@Z 0000000140069128 f i libucrt:strtod.obj
 0001:00068170       ??$parse_floating_point_write_result@N@__crt_strtox@@YA?AW4SLD_STATUS@@W4floating_point_parse_result@0@AEBUfloating_point_string@0@QEAN@Z 0000000140069170 f i libucrt:strtod.obj
 0001:00068348       ?as_double@floating_point_value@__crt_strtox@@QEBAAEANXZ 0000000140069348 f i libucrt:strtod.obj
 0001:00068384       ?as_float@floating_point_value@__crt_strtox@@QEBAAEAMXZ 0000000140069384 f i libucrt:strtod.obj
 0001:000683c0       ?assemble_floating_point_value@__crt_strtox@@YA?AW4SLD_STATUS@@_KH_N1AEBVfloating_point_value@1@@Z 00000001400693c0 f i libucrt:strtod.obj
 0001:00068778       ?assemble_floating_point_value_from_big_integer@__crt_strtox@@YA?AW4SLD_STATUS@@AEBUbig_integer@1@I_N1AEBVfloating_point_value@1@@Z 0000000140069778 f i libucrt:strtod.obj
 0001:000688d8       ?convert_decimal_string_to_floating_type_common@__crt_strtox@@YA?AW4SLD_STATUS@@AEBUfloating_point_string@1@AEBVfloating_point_value@1@@Z 00000001400698d8 f i libucrt:strtod.obj
 0001:0006a5d8       ?convert_hexadecimal_string_to_floating_type_common@__crt_strtox@@YA?AW4SLD_STATUS@@AEBUfloating_point_string@1@AEBVfloating_point_value@1@@Z 000000014006b5d8 f i libucrt:strtod.obj
 0001:0006a690       ?divide@__crt_strtox@@YA_KAEAUbig_integer@1@AEBU21@@Z 000000014006b690 f i libucrt:strtod.obj
 0001:0006aba4       strtod                     000000014006bba4 f   libucrt:strtod.obj
 0001:0006abac       __acrt_initialize_stdio    000000014006bbac f   libucrt:_file.obj
 0001:0006accc       __acrt_iob_func            000000014006bccc f   libucrt:_file.obj
 0001:0006ace0       __acrt_uninitialize_stdio  000000014006bce0 f   libucrt:_file.obj
 0001:0006ad3c       _get_stream_buffer_pointers 000000014006bd3c f   libucrt:_file.obj
 0001:0006ad84       _lock_file                 000000014006bd84 f   libucrt:_file.obj
 0001:0006ad90       _unlock_file               000000014006bd90 f   libucrt:_file.obj
 0001:0006aec0       fclose                     000000014006bec0 f   libucrt:fclose.obj
 0001:0006b178       __acrt_stdio_flush_nolock  000000014006c178 f   libucrt:fflush.obj
 0001:0006b204       _fflush_nolock             000000014006c204 f   libucrt:fflush.obj
 0001:0006b2d8       _flushall                  000000014006c2d8 f   libucrt:fflush.obj
 0001:0006b2e0       fflush                     000000014006c2e0 f   libucrt:fflush.obj
 0001:0006b348       _fgetc_nolock              000000014006c348 f   libucrt:fgetc.obj
 0001:0006b38c       fgetc                      000000014006c38c f   libucrt:fgetc.obj
 0001:0006b4a0       fgetpos                    000000014006c4a0 f   libucrt:fgetpos.obj
 0001:0006b650       fputc                      000000014006c650 f   libucrt:fputc.obj
 0001:0006b6e8       _fread_nolock_s            000000014006c6e8 f   libucrt:fread.obj
 0001:0006b954       fread                      000000014006c954 f   libucrt:fread.obj
 0001:0006b974       fread_s                    000000014006c974 f   libucrt:fread.obj
 0001:0006ba1c       fsetpos                    000000014006ca1c f   libucrt:fsetpos.obj
 0001:0006bcd8       _fseeki64                  000000014006ccd8 f   libucrt:fseek.obj
 0001:0006bd70       fseek                      000000014006cd70 f   libucrt:fseek.obj
 0001:0006becc       _fwrite_internal           000000014006cecc f   libucrt:fwrite.obj
 0001:0006bf68       _fwrite_nolock_internal    000000014006cf68 f   libucrt:fwrite.obj
 0001:0006c17c       fwrite                     000000014006d17c f   libucrt:fwrite.obj
 0001:0006c348       setvbuf                    000000014006d348 f   libucrt:setvbuf.obj
 0001:0006c480       _ungetc_nolock             000000014006d480 f   libucrt:ungetc.obj
 0001:0006c5a0       ungetc                     000000014006d5a0 f   libucrt:ungetc.obj
 0001:0006c600       _dclass                    000000014006d600 f i libucrt:nan.obj
 0001:0006c610       _dsign                     000000014006d610 f i libucrt:nan.obj
 0001:0006c61c       localeconv                 000000014006d61c f   libucrt:localeconv.obj
 0001:0006c650       ___lc_codepage_func        000000014006d650 f   libucrt:initctype.obj
 0001:0006c680       ___lc_locale_name_func     000000014006d680 f   libucrt:initctype.obj
 0001:0006c6b4       __acrt_locale_initialize_ctype 000000014006d6b4 f   libucrt:initctype.obj
 0001:0006ccf8       abort                      000000014006dcf8 f   libucrt:abort.obj
 0001:0006cd50       __acrt_initialize_locks    000000014006dd50 f   libucrt:locks.obj
 0001:0006cd98       __acrt_lock                000000014006dd98 f   libucrt:locks.obj
 0001:0006cdb4       __acrt_uninitialize_locks  000000014006ddb4 f   libucrt:locks.obj
 0001:0006cdec       __acrt_unlock              000000014006ddec f   libucrt:locks.obj
 0001:0006ce08       _lock_locales              000000014006de08 f   libucrt:locks.obj
 0001:0006ce24       _unlock_locales            000000014006de24 f   libucrt:locks.obj
 0001:0006d114       setlocale                  000000014006e114 f   libucrt:setlocale.obj
 0001:0006d160       __pctype_func              000000014006e160 f   libucrt:ctype.obj
 0001:0006d190       islower                    000000014006e190 f   libucrt:_ctype.obj
 0001:0006d240       isupper                    000000014006e240 f   libucrt:_ctype.obj
 0001:0006d2f0       calloc                     000000014006e2f0 f   libucrt:calloc.obj
 0001:0006d300       _wcsdup                    000000014006e300 f   libucrt:wcsdup.obj
 0001:0006d45c       _wfsopen                   000000014006e45c f   libucrt:fopen.obj
 0001:0006d470       realloc                    000000014006e470 f   libucrt:realloc.obj
 0001:0006d480       __strncnt                  000000014006e480 f   libucrt:strncnt.obj
 0001:0006d4a0       _callnewh                  000000014006e4a0 f   libucrt:new_handler.obj
 0001:0006d4e0       __acrt_initialize_new_handler 000000014006e4e0 f   libucrt:new_handler.obj
 0001:0006d4f0       _query_new_handler         000000014006e4f0 f   libucrt:new_handler.obj
 0001:0006d530       _set_new_handler           000000014006e530 f   libucrt:new_handler.obj
 0001:0006d590       ?_set_new_handler@@YAP6AH_K@ZH@Z 000000014006e590 f   libucrt:new_handler.obj
 0001:0006d59c       terminate                  000000014006e59c f   libucrt:terminate.obj
 0001:0006d5bc       _seh_filter_exe            000000014006e5bc f   libucrt:exception_filter.obj
 0001:0006d998       __acrt_initialize_thread_local_exit_callback 000000014006e998 f   libucrt:exit.obj
 0001:0006d9a0       _c_exit                    000000014006e9a0 f   libucrt:exit.obj
 0001:0006d9b0       _cexit                     000000014006e9b0 f   libucrt:exit.obj
 0001:0006d9c0       _exit                      000000014006e9c0 f   libucrt:exit.obj
 0001:0006d9cc       _register_thread_local_exe_atexit_callback 000000014006e9cc f   libucrt:exit.obj
 0001:0006da08       exit                       000000014006ea08 f   libucrt:exit.obj
 0001:0006dbb8       __acrt_allocate_buffer_for_argv 000000014006ebb8 f   libucrt:argv_parsing.obj
 0001:0006dc18       _configure_wide_argv       000000014006ec18 f   libucrt:argv_parsing.obj
 0001:0006dfa0       __dcrt_uninitialize_environments_nolock 000000014006efa0 f   libucrt:environment_initialization.obj
 0001:0006dfe4       _initialize_wide_environment 000000014006efe4 f   libucrt:environment_initialization.obj
 0001:0006e32c       _crt_atexit                000000014006f32c f   libucrt:onexit.obj
 0001:0006e33c       _execute_onexit_table      000000014006f33c f   libucrt:onexit.obj
 0001:0006e380       _initialize_onexit_table   000000014006f380 f   libucrt:onexit.obj
 0001:0006e3a8       _register_onexit_function  000000014006f3a8 f   libucrt:onexit.obj
 0001:0006e51c       __acrt_initialize          000000014006f51c f   libucrt:initialization.obj
 0001:0006e530       __acrt_uninitialize        000000014006f530 f   libucrt:initialization.obj
 0001:0006e568       _query_app_type            000000014006f568 f   libucrt:report_runtime_error.obj
 0001:0006e570       _set_app_type              000000014006f570 f   libucrt:report_runtime_error.obj
 0001:0006e580       __acrt_has_user_matherr    000000014006f580 f   libucrt:matherr.obj
 0001:0006e5a0       __acrt_initialize_user_matherr 000000014006f5a0 f   libucrt:matherr.obj
 0001:0006e5b0       __acrt_invoke_user_matherr 000000014006f5b0 f   libucrt:matherr.obj
 0001:0006e5e0       __setusermatherr           000000014006f5e0 f   libucrt:matherr.obj
 0001:0006e604       _get_wide_winmain_command_line 000000014006f604 f   libucrt:argv_winmain.obj
 0001:0006e658       _initterm                  000000014006f658 f   libucrt:initterm.obj
 0001:0006e690       _initterm_e                000000014006f690 f   libucrt:initterm.obj
 0001:0006e6cc       _get_fmode                 000000014006f6cc f   libucrt:setmode.obj
 0001:0006e6fc       _set_fmode                 000000014006f6fc f   libucrt:setmode.obj
 0001:0006e73c       _setmode_nolock            000000014006f73c f   libucrt:setmode.obj
 0001:0006ea88       ?commit_locale_name@_expandlocale_locale_name_cache@@QEAAXQEB_W_K@Z 000000014006fa88 f i libucrt:wsetlocale.obj
 0001:0006eb00       __acrt_copy_locale_name    000000014006fb00 f   libucrt:wsetlocale.obj
 0001:0006eb84       __acrt_set_locale_changed  000000014006fb84 f   libucrt:wsetlocale.obj
 0001:0006eb90       __acrt_uninitialize_locale 000000014006fb90 f   libucrt:wsetlocale.obj
 0001:0006ebc0       __lc_lctowcs               000000014006fbc0 f   libucrt:wsetlocale.obj
 0001:0006ec64       __lc_wcstolc               000000014006fc64 f   libucrt:wsetlocale.obj
 0001:0006edc8       _configthreadlocale        000000014006fdc8 f   libucrt:wsetlocale.obj
 0001:0006f378       _wcscats                   0000000140070378 f   libucrt:wsetlocale.obj
 0001:0006f3e0       _wsetlocale                00000001400703e0 f   libucrt:wsetlocale.obj
 0001:00070130       _query_new_mode            0000000140071130 f   libucrt:new_mode.obj
 0001:00070140       _set_new_mode              0000000140071140 f   libucrt:new_mode.obj
 0001:0007016c       __p__commode               000000014007116c f   libucrt:ncommode.obj
 0001:00070180       strcpy_s                   0000000140071180 f   libucrt:strcpy_s.obj
 0001:00070200       wcsncmp                    0000000140071200 f   libucrt:wcsncmp.obj
 0001:00070240       _free_base                 0000000140071240 f   libucrt:free_base.obj
 0001:000702a0       _malloc_base               00000001400712a0 f   libucrt:malloc_base.obj
 0001:00070300       __acrt_update_locale_info  0000000140071300 f   libucrt:locale_update.obj
 0001:00070334       __acrt_update_locale_info_explicit 0000000140071334 f   libucrt:locale_update.obj
 0001:0007036c       __acrt_update_multibyte_info 000000014007136c f   libucrt:locale_update.obj
 0001:000703a0       __acrt_update_multibyte_info_explicit 00000001400713a0 f   libucrt:locale_update.obj
 0001:00070ee8       __acrt_fp_format           0000000140071ee8 f   libucrt:cvt.obj
 0001:000711d0       _wctomb_internal           00000001400721d0 f   libucrt:wctomb.obj
 0001:00071380       _mbtowc_internal           0000000140072380 f   libucrt:mbtowc.obj
 0001:000714f8       ?__mblen_utf8@__crt_mbstring@@YAHPEBD@Z 00000001400724f8 f   libucrt:mbrtoc32.obj
 0001:00071530       ?__mbrtoc32_utf8@__crt_mbstring@@YA_KPEA_UPEBD_KPEAU_Mbstatet@@AEAV__crt_cached_ptd_host@@@Z 0000000140072530 f   libucrt:mbrtoc32.obj
 0001:000716f0       ?__c16rtomb_utf8@__crt_mbstring@@YA_KPEAD_SPEAU_Mbstatet@@AEAV__crt_cached_ptd_host@@@Z 00000001400726f0 f   libucrt:c16rtomb.obj
 0001:00071794       ?__mbrtowc_utf8@__crt_mbstring@@YA_KPEA_WPEBD_KPEAU_Mbstatet@@AEAV__crt_cached_ptd_host@@@Z 0000000140072794 f   libucrt:mbrtowc.obj
 0001:000717dc       ?__mbsrtowcs_utf8@__crt_mbstring@@YA_KPEA_WPEAPEBD_KPEAU_Mbstatet@@AEAV__crt_cached_ptd_host@@@Z 00000001400727dc f   libucrt:mbrtowc.obj
 0001:00071994       _fileno                    0000000140072994 f   libucrt:fileno.obj
 0001:000719bc       _get_printf_count_output   00000001400729bc f   libucrt:printf_count_output.obj
 0001:000719d4       __acrt_should_use_temporary_buffer 00000001400729d4 f   libucrt:_sftbuf.obj
 0001:00071a20       __acrt_stdio_begin_temporary_buffering_nolock 0000000140072a20 f   libucrt:_sftbuf.obj
 0001:00071ae8       __acrt_stdio_end_temporary_buffering_nolock 0000000140072ae8 f   libucrt:_sftbuf.obj
 0001:00071e38       ?internal_get_ptd_head_slow@@YAPEAU__acrt_ptd@@XZ 0000000140072e38 f   libucrt:per_thread_data.obj
 0001:00071f58       __acrt_getptd              0000000140072f58 f   libucrt:per_thread_data.obj
 0001:00071f74       __acrt_getptd_head         0000000140072f74 f   libucrt:per_thread_data.obj
 0001:00071fb8       __acrt_getptd_noexit       0000000140072fb8 f   libucrt:per_thread_data.obj
 0001:00072048       __acrt_getptd_noexit_explicit 0000000140073048 f   libucrt:per_thread_data.obj
 0001:000720a4       __acrt_initialize_ptd      00000001400730a4 f   libucrt:per_thread_data.obj
 0001:000720e8       __acrt_uninitialize_ptd    00000001400730e8 f   libucrt:per_thread_data.obj
 0001:00072314       __acrt_initialize_lowio    0000000140073314 f   libucrt:ioinit.obj
 0001:00072350       __acrt_uninitialize_lowio  0000000140073350 f   libucrt:ioinit.obj
 0001:00072390       iswctype                   0000000140073390 f   libucrt:iswctype.obj
 0001:000723fc       _isctype_l                 00000001400733fc f   libucrt:isctype.obj
 0001:00072510       _msize_base                0000000140073510 f   libucrt:msize.obj
 0001:00072550       _msize                     0000000140073550 f   libucrt:msize.obj
 0001:00072560       _realloc_base              0000000140073560 f   libucrt:realloc_base.obj
 0001:000725dc       _towlower_l                00000001400735dc f   libucrt:towlower.obj
 0001:000727f0       _handle_error              00000001400737f0 f   libucrt:libm_error.obj
 0001:00072930       _handle_nan                0000000140073930 f   libucrt:libm_error.obj
 0001:00072950       _handle_nanf               0000000140073950 f   libucrt:libm_error.obj
 0001:00072960       ceil_sse41                 0000000140073960 f   libucrt:floorceil_sse41.obj
 0001:00072970       ceilf_sse41                0000000140073970 f   libucrt:floorceil_sse41.obj
 0001:00072980       fegetround                 0000000140073980 f   libucrt:fegetround.obj
 0001:000729a0       _calloc_base               00000001400739a0 f   libucrt:calloc_base.obj
 0001:00072c74       __acrt_AppPolicyGetProcessTerminationMethodInternal 0000000140073c74 f   libucrt:winapi_thunks.obj
 0001:00072cd0       __acrt_EnumSystemLocalesEx 0000000140073cd0 f   libucrt:winapi_thunks.obj
 0001:00072d74       __acrt_FlsAlloc            0000000140073d74 f   libucrt:winapi_thunks.obj
 0001:00072d7c       __acrt_FlsFree             0000000140073d7c f   libucrt:winapi_thunks.obj
 0001:00072d84       __acrt_FlsGetValue         0000000140073d84 f   libucrt:winapi_thunks.obj
 0001:00072d8c       __acrt_FlsGetValue2        0000000140073d8c f   libucrt:winapi_thunks.obj
 0001:00072d98       __acrt_FlsSetValue         0000000140073d98 f   libucrt:winapi_thunks.obj
 0001:00072da0       __acrt_GetLocaleInfoEx     0000000140073da0 f   libucrt:winapi_thunks.obj
 0001:00072e34       __acrt_GetUserDefaultLocaleName 0000000140073e34 f   libucrt:winapi_thunks.obj
 0001:00072ea4       __acrt_IsValidLocaleName   0000000140073ea4 f   libucrt:winapi_thunks.obj
 0001:00072f0c       __acrt_LCIDToLocaleName    0000000140073f0c f   libucrt:winapi_thunks.obj
 0001:00072f94       __acrt_LCMapStringEx       0000000140073f94 f   libucrt:winapi_thunks.obj
 0001:00073088       __acrt_LocaleNameToLCID    0000000140074088 f   libucrt:winapi_thunks.obj
 0001:000730ec       __acrt_can_use_vista_locale_apis 00000001400740ec f   libucrt:winapi_thunks.obj
 0001:00073100       __acrt_eagerly_load_locale_apis 0000000140074100 f   libucrt:winapi_thunks.obj
 0001:000732a8       __acrt_initialize_winapi_thunks 00000001400742a8 f   libucrt:winapi_thunks.obj
 0001:000732d8       __acrt_tls2_supported      00000001400742d8 f   libucrt:winapi_thunks.obj
 0001:0007331c       __acrt_uninitialize_winapi_thunks 000000014007431c f   libucrt:winapi_thunks.obj
 0001:00073360       _fcloseall                 0000000140074360 f   libucrt:closeall.obj
 0001:00073414       __acrt_stdio_free_buffer_nolock 0000000140074414 f   libucrt:_freebuf.obj
 0001:000734d0       _close_internal            00000001400744d0 f   libucrt:close.obj
 0001:00073594       _close_nolock              0000000140074594 f   libucrt:close.obj
 0001:0007362c       _close_nolock_internal     000000014007462c f   libucrt:close.obj
 0001:000736fc       ?__acrt_stdio_allocate_stream@@YA?AV__crt_stdio_stream@@XZ 00000001400746fc f   libucrt:stream.obj
 0001:00073754       ?__acrt_stdio_free_stream@@YAXV__crt_stdio_stream@@@Z 0000000140074754 f   libucrt:stream.obj
 0001:000738e8       _commit                    00000001400748e8 f   libucrt:commit.obj
 0001:000741a8       _write                     00000001400751a8 f   libucrt:write.obj
 0001:00074240       _write_internal            0000000140075240 f   libucrt:write.obj
 0001:00074360       _write_nolock              0000000140075360 f   libucrt:write.obj
 0001:00074690       __acrt_stdio_refill_and_read_narrow_nolock 0000000140075690 f   libucrt:_filbuf.obj
 0001:00074cf4       _ftelli64                  0000000140075cf4 f   libucrt:ftell.obj
 0001:00074d90       _ftelli64_nolock_internal  0000000140075d90 f   libucrt:ftell.obj
 0001:00074f18       __acrt_stdio_flush_and_write_narrow_nolock 0000000140075f18 f   libucrt:_flsbuf.obj
 0001:00075510       _read                      0000000140076510 f   libucrt:read.obj
 0001:00075630       _read_nolock               0000000140076630 f   libucrt:read.obj
 0001:00075c60       _lseeki64                  0000000140076c60 f   libucrt:lseek.obj
 0001:00075cfc       _lseeki64_internal         0000000140076cfc f   libucrt:lseek.obj
 0001:00075d04       _lseeki64_nolock           0000000140076d04 f   libucrt:lseek.obj
 0001:00075da0       _lseeki64_nolock_internal  0000000140076da0 f   libucrt:lseek.obj
 0001:00075da8       __acrt_stdio_allocate_buffer_nolock 0000000140076da8 f   libucrt:_getbuf.obj
 0001:00075e20       _dtest_inline              0000000140076e20 f i libucrt:_test.obj
 0001:00075ff8       __acrt_GetLocaleInfoA      0000000140076ff8 f   libucrt:getlocaleinfoa.obj
 0001:000761c0       __acrt_GetStringTypeA      00000001400771c0 f   libucrt:getstringtypea.obj
 0001:00076684       __acrt_LCMapStringA        0000000140077684 f   libucrt:lcmapstringa.obj
 0001:00076764       __acrt_get_sigabrt_handler 0000000140077764 f   libucrt:signal.obj
 0001:00076794       __acrt_initialize_signal_handlers 0000000140077794 f   libucrt:signal.obj
 0001:000767b4       raise                      00000001400777b4 f   libucrt:signal.obj
 0001:00076d28       mbstowcs_s                 0000000140077d28 f   libucrt:mbstowcs.obj
 0001:00077224       _wcstombs_s_l              0000000140078224 f   libucrt:wcstombs.obj
 0001:000772dc       ??$__acrt_stdio_parse_mode@_W@@YA?AU__acrt_stdio_stream_mode@@QEB_W@Z 00000001400782dc f i libucrt:openfile.obj
 0001:000775e0       _wopenfile                 00000001400785e0 f   libucrt:openfile.obj
 0001:00077680       _raise_exc                 0000000140078680 f   libucrt:fpexcept.obj
 0001:000776b0       _raise_exc_ex              00000001400786b0 f   libucrt:fpexcept.obj
 0001:000779c0       _set_errno_from_matherr    00000001400789c0 f   libucrt:fpexcept.obj
 0001:00077a00       _clrfp                     0000000140078a00 f   libucrt:fpctrl.obj
 0001:00077a20       _ctrlfp                    0000000140078a20 f   libucrt:fpctrl.obj
 0001:00077aa0       _get_fpcsr                 0000000140078aa0 f   libucrt:fpctrl.obj
 0001:00077aa0       _get_fpsr                  0000000140078aa0 f   libucrt:fpctrl.obj
 0001:00077ab0       _set_fpcsr                 0000000140078ab0 f   libucrt:fpctrl.obj
 0001:00077ab0       _set_fpsr                  0000000140078ab0 f   libucrt:fpctrl.obj
 0001:00077ac0       _set_statfp                0000000140078ac0 f   libucrt:fpctrl.obj
 0001:00077ae0       _statfp                    0000000140078ae0 f   libucrt:fpctrl.obj
 0001:00077af0       __acrt_MultiByteToWideChar 0000000140078af0 f   libucrt:multibytetowidechar.obj
 0001:00077b80       __acrt_WideCharToMultiByte 0000000140078b80 f   libucrt:widechartomultibyte.obj
 0001:00077c60       __acrt_initialize_timeset  0000000140078c60 f   libucrt:timeset.obj
 0001:00077cb0       __acrt_app_verifier_enabled 0000000140078cb0 f   libucrt:peb_access.obj
 0001:00077ccc       __acrt_is_secure_process   0000000140078ccc f   libucrt:peb_access.obj
 0001:00077ce4       __acrt_get_process_end_policy 0000000140078ce4 f   libucrt:win_policies.obj
 0001:000782b0       __acrt_expand_wide_argv_wildcards 00000001400792b0 f   libucrt:argv_wildcards.obj
 0001:00078ac0       __acrt_initialize_multibyte 0000000140079ac0 f   libucrt:mbctype.obj
 0001:00078b20       __acrt_update_thread_multibyte_data 0000000140079b20 f   libucrt:mbctype.obj
 0001:00078b3c       _setmbcp_nolock            0000000140079b3c f   libucrt:mbctype.obj
 0001:00078e04       __dcrt_get_wide_environment_from_os 0000000140079e04 f   libucrt:get_environment_from_os.obj
 0001:00078ea0       _get_heap_handle           0000000140079ea0 f   libucrt:heap_handle.obj
 0001:00078eb0       __acrt_initialize_heap     0000000140079eb0 f   libucrt:heap_handle.obj
 0001:00078ee0       __acrt_uninitialize_heap   0000000140079ee0 f   libucrt:heap_handle.obj
 0001:00078f00       __acrt_getheap             0000000140079f00 f   libucrt:heap_handle.obj
 0001:00078f08       __acrt_execute_initializers 0000000140079f08 f   libucrt:shared_initialization.obj
 0001:00078f88       __acrt_execute_uninitializers 0000000140079f88 f   libucrt:shared_initialization.obj
 0001:00078fd0       wcscat_s                   0000000140079fd0 f   libucrt:wcscat_s.obj
 0001:00079060       __acrt_lowio_create_handle_array 000000014007a060 f   libucrt:osfinfo.obj
 0001:00079108       __acrt_lowio_destroy_handle_array 000000014007a108 f   libucrt:osfinfo.obj
 0001:00079158       __acrt_lowio_ensure_fh_exists 000000014007a158 f   libucrt:osfinfo.obj
 0001:00079200       __acrt_lowio_lock_fh       000000014007a200 f   libucrt:osfinfo.obj
 0001:00079228       __acrt_lowio_set_os_handle 000000014007a228 f   libucrt:osfinfo.obj
 0001:000792e8       __acrt_lowio_unlock_fh     000000014007a2e8 f   libucrt:osfinfo.obj
 0001:00079310       _alloc_osfhnd              000000014007a310 f   libucrt:osfinfo.obj
 0001:00079450       _free_osfhnd               000000014007a450 f   libucrt:osfinfo.obj
 0001:0007950c       _get_osfhandle             000000014007a50c f   libucrt:osfinfo.obj
 0001:00079584       __acrt_initialize_fmode    000000014007a584 f   libucrt:txtmode.obj
 0001:0007959c       __acrt_locale_free_monetary 000000014007a59c f   libucrt:initmon.obj
 0001:000796a8       __acrt_locale_initialize_monetary 000000014007a6a8 f   libucrt:initmon.obj
 0001:00079bc4       __acrt_locale_free_numeric 000000014007abc4 f   libucrt:initnum.obj
 0001:00079c30       __acrt_locale_initialize_numeric 000000014007ac30 f   libucrt:initnum.obj
 0001:0007a28c       __acrt_locale_free_time    000000014007b28c f   libucrt:inittime.obj
 0001:0007a394       __acrt_locale_initialize_time 000000014007b394 f   libucrt:inittime.obj
 0001:0007a430       wcsncat_s                  000000014007b430 f   libucrt:wcsncat_s.obj
 0001:0007a570       wcscspn                    000000014007b570 f   libucrt:wcscspn.obj
 0001:0007a5d0       wcspbrk                    000000014007b5d0 f   libucrt:wcspbrk.obj
 0001:0007a628       __acrt_add_locale_ref      000000014007b628 f   libucrt:locale_refcounting.obj
 0001:0007a6b4       __acrt_free_locale         000000014007b6b4 f   libucrt:locale_refcounting.obj
 0001:0007a82c       __acrt_locale_add_lc_time_reference 000000014007b82c f   libucrt:locale_refcounting.obj
 0001:0007a854       __acrt_locale_free_lc_time_if_unreferenced 000000014007b854 f   libucrt:locale_refcounting.obj
 0001:0007a88c       __acrt_locale_release_lc_time_reference 000000014007b88c f   libucrt:locale_refcounting.obj
 0001:0007a8b4       __acrt_release_locale_ref  000000014007b8b4 f   libucrt:locale_refcounting.obj
 0001:0007a95c       __acrt_update_thread_locale_data 000000014007b95c f   libucrt:locale_refcounting.obj
 0001:0007a9cc       _updatetlocinfoEx_nolock   000000014007b9cc f   libucrt:locale_refcounting.obj
 0001:0007b1ec       __acrt_get_qualified_locale 000000014007c1ec f   libucrt:get_qualified_locale.obj
 0001:0007bc4c       __acrt_get_qualified_locale_downlevel 000000014007cc4c f   libucrt:getqloc_downlevel.obj
 0001:0007bf9c       __acrt_fp_strflt_to_string 000000014007cf9c f   libucrt:_fptostr.obj
 0001:0007c0ac       __acrt_fltout              000000014007d0ac f   libucrt:cfout.obj
 0001:0007d32c       ?__c32rtomb_utf8@__crt_mbstring@@YA_KPEAD_UPEAU_Mbstatet@@AEAV__crt_cached_ptd_host@@@Z 000000014007e32c f   libucrt:c32rtomb.obj
 0001:0007d3d0       ?reset_and_return@__crt_mbstring@@YA_K_KPEAU_Mbstatet@@@Z 000000014007e3d0 f   libucrt:common_utf8.obj
 0001:0007d3d8       ?return_illegal_sequence@__crt_mbstring@@YA_KPEAU_Mbstatet@@AEAV__crt_cached_ptd_host@@@Z 000000014007e3d8 f   libucrt:common_utf8.obj
 0001:0007d3ec       _isatty                    000000014007e3ec f   libucrt:isatty.obj
 0001:0007d44c       __acrt_GetStringTypeW      000000014007e44c f   libucrt:getstringtypew.obj
 0001:0007d454       __acrt_LCMapStringW        000000014007e454 f   libucrt:lcmapstringw.obj
 0001:0007d4e0       __acrt_fenv_get_common_round_control 000000014007e4e0 f   libucrt:_fenvutils.obj
 0001:0007d4f0       __acrt_fenv_get_control    000000014007e4f0 f   libucrt:_fenvutils.obj
 0001:0007d5d0       __acrt_fenv_get_status     000000014007e5d0 f   libucrt:_fenvutils.obj
 0001:0007d630       __acrt_fenv_set_control    000000014007e630 f   libucrt:_fenvutils.obj
 0001:0007d760       __acrt_fenv_set_status     000000014007e760 f   libucrt:_fenvutils.obj
 0001:0007d7d4       __acrt_DownlevelLCIDToLocaleName 000000014007e7d4 f   libucrt:lcidtoname_downlevel.obj
 0001:0007d8bc       __acrt_DownlevelLocaleNameToLCID 000000014007e8bc f   libucrt:lcidtoname_downlevel.obj
 0001:0007d964       _putwch_nolock             000000014007e964 f   libucrt:putwch.obj
 0001:0007d9b0       strncpy_s                  000000014007e9b0 f   libucrt:strncpy_s.obj
 0001:0007dadc       ?__wcsrtombs_utf8@__crt_mbstring@@YA_KPEADPEAPEB_W_KPEAU_Mbstatet@@AEAV__crt_cached_ptd_host@@@Z 000000014007eadc f   libucrt:wcrtomb.obj
 0001:0007dc30       __ascii_wcsnicmp           000000014007ec30 f   libucrt:wcsnicmp.obj
 0001:0007dca0       _wcsnicmp                  000000014007eca0 f   libucrt:wcsnicmp.obj
 0001:0007dcd0       _wcsnicmp_l                000000014007ecd0 f   libucrt:wcsnicmp.obj
 0001:0007e4c8       _wsopen_nolock             000000014007f4c8 f   libucrt:open.obj
 0001:0007e8dc       _wsopen_s                  000000014007f8dc f   libucrt:open.obj
 0001:0007e910       qsort                      000000014007f910 f   libucrt:qsort.obj
 0001:0007edfc       _itow_s                    000000014007fdfc f   libucrt:xtoa.obj
 0001:0007ee20       wcscmp                     000000014007fe20 f   libucrt:wcscmpc.obj
 0001:0007ee60       _controlfp_s               000000014007fe60 f   libucrt:contrlfp.obj
 0001:0007eed0       fegetenv                   000000014007fed0 f   libucrt:fegetenv.obj
 0001:0007eef0       fesetenv                   000000014007fef0 f   libucrt:fesetenv.obj
 0001:0007ef60       feholdexcept               000000014007ff60 f   libucrt:feholdexcept.obj
 0001:0007efc0       ceil                       000000014007ffc0 f   libucrt:ceil.obj
 0001:0007f090       log10                      0000000140080090 f   libucrt:log10.obj
 0001:0007f63c       __dcrt_lowio_ensure_console_output_initialized 000000014008063c f   libucrt:initcon.obj
 0001:0007f690       __dcrt_terminate_console_output 0000000140080690 f   libucrt:initcon.obj
 0001:0007f6ac       __dcrt_write_console       00000001400806ac f   libucrt:initcon.obj
 0001:0007f76c       _chsize_nolock             000000014008076c f   libucrt:chsize.obj
 0001:0007f804       _chsize_nolock_internal    0000000140080804 f   libucrt:chsize.obj
 0001:0007f994       _guard_check_icall         0000000140080994 f i libucrt:checkcfg.obj
 0001:0007f9b0       _clearfp                   00000001400809b0 f   libucrt:ieee.obj
 0001:0007fa20       _control87                 0000000140080a20 f   libucrt:ieee.obj
 0001:0007fcd0       __acrt_initialize_fma3     0000000140080cd0 f   libucrt:fma3_available.obj
 0001:0007fd90       _log10_special             0000000140080d90 f   libucrt:log_special.obj
 0001:0007fe50       _FindPESection             0000000140080e50 f   LIBCMT:pesect.obj
 0001:0007fea0       _IsNonwritableInCurrentImage 0000000140080ea0 f   LIBCMT:pesect.obj
 0001:0007fef0       _ValidateImageBase         0000000140080ef0 f   LIBCMT:pesect.obj
 0001:0007ff1c       __GSHandlerCheck_SEH       0000000140080f1c f   LIBCMT:gshandlerseh.obj
 0001:0007ffa4       __GSHandlerCheck_EH        0000000140080fa4 f   LIBCMT:gshandlereh.obj
 0001:00080024       _local_unwind              0000000140081024 f   libvcruntime:jmpuwind.obj
 0001:00080050       __C_specific_handler_noexcept 0000000140081050 f   libvcruntime:chandler_noexcept.obj
 0001:0008009c       strrchr                    000000014008109c f   libvcruntime:strrchr.obj
 0001:000801cc       wcschr                     00000001400811cc f   libvcruntime:wcschr.obj
 0001:00080260       _guard_dispatch_icall_nop  0000000140081260 f   LIBCMT:guard_dispatch.obj
 0001:00080280       _guard_xfg_dispatch_icall_nop 0000000140081280 f   LIBCMT:guard_xfg_dispatch.obj
 0001:000802a0       _guard_dispatch_icall      00000001400812a0 f   libucrt:dispatchcfg.obj
 0001:000802a0       _guard_dispatch_icall_$fo_default$ 00000001400812a0     libucrt:dispatchcfg.obj
 0001:000802d0       memcpy_repmovs             00000001400812d0 f   libvcruntime:memcpy.obj
 0001:000802e0       memcpy                     00000001400812e0 f   libvcruntime:memcpy.obj
 0001:000802e0       memcpy_$fo_default$        00000001400812e0     libvcruntime:memcpy.obj
 0001:000802e0       memmove                    00000001400812e0 f   libvcruntime:memcpy.obj
 0001:00080970       memset_repstos             0000000140081970 f   libvcruntime:memset.obj
 0001:00080980       memset                     0000000140081980 f   libvcruntime:memset.obj
 0001:00080d20       memcmp                     0000000140081d20 f   libvcruntime:memcmp.obj
 0001:00080e10       strlen                     0000000140081e10 f   libucrt:strlen.obj
 0001:00080ed0       strcmp                     0000000140081ed0 f   libucrt:strcmp.obj
 0001:00080f50       strncmp                    0000000140081f50 f   libucrt:strncmp.obj
 0001:00085c90       ??__FstrHeap@?1??GetInstance@CAtlStringMgr@ATL@@SAPEAUIAtlStringMgr@2@XZ@YAXXZ 0000000140086c90 f i app.obj
 0001:00085cc0       ??__FstrMgr@?1??GetInstance@CAtlStringMgr@ATL@@SAPEAUIAtlStringMgr@2@XZ@YAXXZ 0000000140086cc0 f i app.obj
 0002:00000000       __imp_LookupPrivilegeValueW 0000000140087000     advapi32:ADVAPI32.dll
 0002:00000008       __imp_RegCreateKeyExW      0000000140087008     advapi32:ADVAPI32.dll
 0002:00000010       __imp_RegDeleteValueW      0000000140087010     advapi32:ADVAPI32.dll
 0002:00000018       __imp_RegFlushKey          0000000140087018     advapi32:ADVAPI32.dll
 0002:00000020       __imp_StartServiceW        0000000140087020     advapi32:ADVAPI32.dll
 0002:00000028       __imp_StartServiceCtrlDispatcherW 0000000140087028     advapi32:ADVAPI32.dll
 0002:00000030       __imp_SetServiceStatus     0000000140087030     advapi32:ADVAPI32.dll
 0002:00000038       __imp_RegisterServiceCtrlHandlerExW 0000000140087038     advapi32:ADVAPI32.dll
 0002:00000040       __imp_QueryServiceStatusEx 0000000140087040     advapi32:ADVAPI32.dll
 0002:00000048       __imp_OpenServiceW         0000000140087048     advapi32:ADVAPI32.dll
 0002:00000050       __imp_OpenSCManagerW       0000000140087050     advapi32:ADVAPI32.dll
 0002:00000058       __imp_ControlService       0000000140087058     advapi32:ADVAPI32.dll
 0002:00000060       __imp_CloseServiceHandle   0000000140087060     advapi32:ADVAPI32.dll
 0002:00000068       __imp_ChangeServiceConfigW 0000000140087068     advapi32:ADVAPI32.dll
 0002:00000070       __imp_CreateProcessAsUserW 0000000140087070     advapi32:ADVAPI32.dll
 0002:00000078       __imp_ConvertStringSecurityDescriptorToSecurityDescriptorW 0000000140087078     advapi32:ADVAPI32.dll
 0002:00000080       __imp_RegCloseKey          0000000140087080     advapi32:ADVAPI32.dll
 0002:00000088       __imp_FreeSid              0000000140087088     advapi32:ADVAPI32.dll
 0002:00000090       __imp_CheckTokenMembership 0000000140087090     advapi32:ADVAPI32.dll
 0002:00000098       __imp_AllocateAndInitializeSid 0000000140087098     advapi32:ADVAPI32.dll
 0002:000000a0       __imp_AdjustTokenPrivileges 00000001400870a0     advapi32:ADVAPI32.dll
 0002:000000a8       __imp_OpenProcessToken     00000001400870a8     advapi32:ADVAPI32.dll
 0002:000000b0       __imp_RegOpenKeyExW        00000001400870b0     advapi32:ADVAPI32.dll
 0002:000000b8       __imp_RegEnumKeyExW        00000001400870b8     advapi32:ADVAPI32.dll
 0002:000000c0       __imp_RegDeleteKeyW        00000001400870c0     advapi32:ADVAPI32.dll
 0002:000000c8       __imp_RegSetValueExW       00000001400870c8     advapi32:ADVAPI32.dll
 0002:000000d0       __imp_RegQueryValueExW     00000001400870d0     advapi32:ADVAPI32.dll
 0002:000000d8       __imp_RegQueryInfoKeyW     00000001400870d8     advapi32:ADVAPI32.dll
 0002:000000e0       __imp_RegEnumValueW        00000001400870e0     advapi32:ADVAPI32.dll
 0002:000000e8       \177ADVAPI32_NULL_THUNK_DATA 00000001400870e8     advapi32:ADVAPI32.dll
 0002:000000f0       __imp_LoadIconWithScaleDown 00000001400870f0     comctl32:COMCTL32.dll
 0002:000000f8       __imp_TaskDialogIndirect   00000001400870f8     comctl32:COMCTL32.dll
 0002:00000100       \177COMCTL32_NULL_THUNK_DATA 0000000140087100     comctl32:COMCTL32.dll
 0002:00000108       __imp_Polygon              0000000140087108     gdi32:GDI32.dll
 0002:00000110       __imp_SelectObject         0000000140087110     gdi32:GDI32.dll
 0002:00000118       __imp_DeleteObject         0000000140087118     gdi32:GDI32.dll
 0002:00000120       __imp_CreatePen            0000000140087120     gdi32:GDI32.dll
 0002:00000128       __imp_CreateCompatibleDC   0000000140087128     gdi32:GDI32.dll
 0002:00000130       __imp_CreateCompatibleBitmap 0000000140087130     gdi32:GDI32.dll
 0002:00000138       __imp_DeleteDC             0000000140087138     gdi32:GDI32.dll
 0002:00000140       __imp_GetDeviceCaps        0000000140087140     gdi32:GDI32.dll
 0002:00000148       \177GDI32_NULL_THUNK_DATA  0000000140087148     gdi32:GDI32.dll
 0002:00000150       __imp_CreateMutexW         0000000140087150     kernel32:KERNEL32.dll
 0002:00000158       __imp_OpenEventW           0000000140087158     kernel32:KERNEL32.dll
 0002:00000160       __imp_Sleep                0000000140087160     kernel32:KERNEL32.dll
 0002:00000168       __imp_WaitForMultipleObjects 0000000140087168     kernel32:KERNEL32.dll
 0002:00000170       __imp_GetCurrentProcess    0000000140087170     kernel32:KERNEL32.dll
 0002:00000178       __imp_GetCurrentProcessId  0000000140087178     kernel32:KERNEL32.dll
 0002:00000180       __imp_CreateProcessW       0000000140087180     kernel32:KERNEL32.dll
 0002:00000188       __imp_OpenProcess          0000000140087188     kernel32:KERNEL32.dll
 0002:00000190       __imp_GetTickCount         0000000140087190     kernel32:KERNEL32.dll
 0002:00000198       __imp_GetTickCount64       0000000140087198     kernel32:KERNEL32.dll
 0002:000001a0       __imp_FindResourceExW      00000001400871a0     kernel32:KERNEL32.dll
 0002:000001a8       __imp_FreeLibrary          00000001400871a8     kernel32:KERNEL32.dll
 0002:000001b0       __imp_GetModuleFileNameW   00000001400871b0     kernel32:KERNEL32.dll
 0002:000001b8       __imp_GetModuleHandleW     00000001400871b8     kernel32:KERNEL32.dll
 0002:000001c0       __imp_GetProcAddress       00000001400871c0     kernel32:KERNEL32.dll
 0002:000001c8       __imp_LoadLibraryExW       00000001400871c8     kernel32:KERNEL32.dll
 0002:000001d0       __imp_LoadResource         00000001400871d0     kernel32:KERNEL32.dll
 0002:000001d8       __imp_LockResource         00000001400871d8     kernel32:KERNEL32.dll
 0002:000001e0       __imp_SizeofResource       00000001400871e0     kernel32:KERNEL32.dll
 0002:000001e8       __imp_FindResourceW        00000001400871e8     kernel32:KERNEL32.dll
 0002:000001f0       __imp_lstrcmpiW            00000001400871f0     kernel32:KERNEL32.dll
 0002:000001f8       __imp_QueryFullProcessImageNameW 00000001400871f8     kernel32:KERNEL32.dll
 0002:00000200       __imp_MultiByteToWideChar  0000000140087200     kernel32:KERNEL32.dll
 0002:00000208       __imp_CreateToolhelp32Snapshot 0000000140087208     kernel32:KERNEL32.dll
 0002:00000210       __imp_Process32FirstW      0000000140087210     kernel32:KERNEL32.dll
 0002:00000218       __imp_Process32NextW       0000000140087218     kernel32:KERNEL32.dll
 0002:00000220       __imp_K32GetModuleFileNameExW 0000000140087220     kernel32:KERNEL32.dll
 0002:00000228       __imp_LoadLibraryW         0000000140087228     kernel32:KERNEL32.dll
 0002:00000230       __imp_ResetEvent           0000000140087230     kernel32:KERNEL32.dll
 0002:00000238       __imp_CreateEventW         0000000140087238     kernel32:KERNEL32.dll
 0002:00000240       __imp_LCMapStringEx        0000000140087240     kernel32:KERNEL32.dll
 0002:00000248       __imp_GetVersionExW        0000000140087248     kernel32:KERNEL32.dll
 0002:00000250       __imp_LocalFree            0000000140087250     kernel32:KERNEL32.dll
 0002:00000258       __imp_OpenMutexW           0000000140087258     kernel32:KERNEL32.dll
 0002:00000260       __imp_GetProcessTimes      0000000140087260     kernel32:KERNEL32.dll
 0002:00000268       __imp_ProcessIdToSessionId 0000000140087268     kernel32:KERNEL32.dll
 0002:00000270       __imp_GetSystemTimeAsFileTime 0000000140087270     kernel32:KERNEL32.dll
 0002:00000278       __imp_GetWindowsDirectoryW 0000000140087278     kernel32:KERNEL32.dll
 0002:00000280       __imp_OpenFileMappingW     0000000140087280     kernel32:KERNEL32.dll
 0002:00000288       __imp_MapViewOfFile        0000000140087288     kernel32:KERNEL32.dll
 0002:00000290       __imp_UnmapViewOfFile      0000000140087290     kernel32:KERNEL32.dll
 0002:00000298       __imp_LocaleNameToLCID     0000000140087298     kernel32:KERNEL32.dll
 0002:000002a0       __imp_SetThreadUILanguage  00000001400872a0     kernel32:KERNEL32.dll
 0002:000002a8       __imp_GetThreadUILanguage  00000001400872a8     kernel32:KERNEL32.dll
 0002:000002b0       __imp_WaitForMultipleObjectsEx 00000001400872b0     kernel32:KERNEL32.dll
 0002:000002b8       __imp_CreateFileMappingW   00000001400872b8     kernel32:KERNEL32.dll
 0002:000002c0       __imp_DebugBreak           00000001400872c0     kernel32:KERNEL32.dll
 0002:000002c8       __imp_ReleaseSemaphore     00000001400872c8     kernel32:KERNEL32.dll
 0002:000002d0       __imp_WaitForSingleObjectEx 00000001400872d0     kernel32:KERNEL32.dll
 0002:000002d8       __imp_OpenSemaphoreW       00000001400872d8     kernel32:KERNEL32.dll
 0002:000002e0       __imp_CreateMutexExW       00000001400872e0     kernel32:KERNEL32.dll
 0002:000002e8       __imp_CreateSemaphoreExW   00000001400872e8     kernel32:KERNEL32.dll
 0002:000002f0       __imp_GetModuleFileNameA   00000001400872f0     kernel32:KERNEL32.dll
 0002:000002f8       __imp_GetModuleHandleExW   00000001400872f8     kernel32:KERNEL32.dll
 0002:00000300       __imp_WideCharToMultiByte  0000000140087300     kernel32:KERNEL32.dll
 0002:00000308       __imp_ExpandEnvironmentStringsW 0000000140087308     kernel32:KERNEL32.dll
 0002:00000310       __imp_FindFirstChangeNotificationW 0000000140087310     kernel32:KERNEL32.dll
 0002:00000318       __imp_FindNextChangeNotification 0000000140087318     kernel32:KERNEL32.dll
 0002:00000320       __imp_GetFileSizeEx        0000000140087320     kernel32:KERNEL32.dll
 0002:00000328       __imp_GetFileTime          0000000140087328     kernel32:KERNEL32.dll
 0002:00000330       __imp_MulDiv               0000000140087330     kernel32:KERNEL32.dll
 0002:00000338       __imp_lstrcmpW             0000000140087338     kernel32:KERNEL32.dll
 0002:00000340       __imp_SetEnvironmentVariableW 0000000140087340     kernel32:KERNEL32.dll
 0002:00000348       __imp_GetFileAttributesW   0000000140087348     kernel32:KERNEL32.dll
 0002:00000350       __imp_GetFileSize          0000000140087350     kernel32:KERNEL32.dll
 0002:00000358       __imp_SetEndOfFile         0000000140087358     kernel32:KERNEL32.dll
 0002:00000360       __imp_SetFilePointer       0000000140087360     kernel32:KERNEL32.dll
 0002:00000368       __imp_FlushFileBuffers     0000000140087368     kernel32:KERNEL32.dll
 0002:00000370       __imp_EnumSystemLocalesW   0000000140087370     kernel32:KERNEL32.dll
 0002:00000378       __imp_GetUserDefaultLCID   0000000140087378     kernel32:KERNEL32.dll
 0002:00000380       __imp_IsValidLocale        0000000140087380     kernel32:KERNEL32.dll
 0002:00000388       __imp_GetLocaleInfoW       0000000140087388     kernel32:KERNEL32.dll
 0002:00000390       __imp_LCMapStringW         0000000140087390     kernel32:KERNEL32.dll
 0002:00000398       __imp_VirtualProtect       0000000140087398     kernel32:KERNEL32.dll
 0002:000003a0       __imp_FlsFree              00000001400873a0     kernel32:KERNEL32.dll
 0002:000003a8       __imp_FlsSetValue          00000001400873a8     kernel32:KERNEL32.dll
 0002:000003b0       __imp_ReleaseMutex         00000001400873b0     kernel32:KERNEL32.dll
 0002:000003b8       __imp_FlsAlloc             00000001400873b8     kernel32:KERNEL32.dll
 0002:000003c0       __imp_GetFileType          00000001400873c0     kernel32:KERNEL32.dll
 0002:000003c8       __imp_GetStdHandle         00000001400873c8     kernel32:KERNEL32.dll
 0002:000003d0       __imp_ExitProcess          00000001400873d0     kernel32:KERNEL32.dll
 0002:000003d8       __imp_GetCommandLineW      00000001400873d8     kernel32:KERNEL32.dll
 0002:000003e0       __imp_GetCommandLineA      00000001400873e0     kernel32:KERNEL32.dll
 0002:000003e8       __imp_TlsFree              00000001400873e8     kernel32:KERNEL32.dll
 0002:000003f0       __imp_TlsSetValue          00000001400873f0     kernel32:KERNEL32.dll
 0002:000003f8       __imp_TlsGetValue          00000001400873f8     kernel32:KERNEL32.dll
 0002:00000400       __imp_TlsAlloc             0000000140087400     kernel32:KERNEL32.dll
 0002:00000408       __imp_InitializeCriticalSectionAndSpinCount 0000000140087408     kernel32:KERNEL32.dll
 0002:00000410       __imp_RtlUnwindEx          0000000140087410     kernel32:KERNEL32.dll
 0002:00000418       __imp_RtlPcToFileHeader    0000000140087418     kernel32:KERNEL32.dll
 0002:00000420       __imp_GetStartupInfoW      0000000140087420     kernel32:KERNEL32.dll
 0002:00000428       __imp_SleepConditionVariableSRW 0000000140087428     kernel32:KERNEL32.dll
 0002:00000430       __imp_WakeAllConditionVariable 0000000140087430     kernel32:KERNEL32.dll
 0002:00000438       __imp_IsProcessorFeaturePresent 0000000140087438     kernel32:KERNEL32.dll
 0002:00000440       __imp_TerminateProcess     0000000140087440     kernel32:KERNEL32.dll
 0002:00000448       __imp_SetUnhandledExceptionFilter 0000000140087448     kernel32:KERNEL32.dll
 0002:00000450       __imp_UnhandledExceptionFilter 0000000140087450     kernel32:KERNEL32.dll
 0002:00000458       __imp_RtlVirtualUnwind     0000000140087458     kernel32:KERNEL32.dll
 0002:00000460       __imp_RtlLookupFunctionEntry 0000000140087460     kernel32:KERNEL32.dll
 0002:00000468       __imp_RtlCaptureContext    0000000140087468     kernel32:KERNEL32.dll
 0002:00000470       __imp_GetCPInfo            0000000140087470     kernel32:KERNEL32.dll
 0002:00000478       __imp_GetStringTypeW       0000000140087478     kernel32:KERNEL32.dll
 0002:00000480       __imp_QueryPerformanceCounter 0000000140087480     kernel32:KERNEL32.dll
 0002:00000488       __imp_TryAcquireSRWLockExclusive 0000000140087488     kernel32:KERNEL32.dll
 0002:00000490       __imp_AcquireSRWLockExclusive 0000000140087490     kernel32:KERNEL32.dll
 0002:00000498       __imp_ReleaseSRWLockExclusive 0000000140087498     kernel32:KERNEL32.dll
 0002:000004a0       __imp_GetFileInformationByHandleEx 00000001400874a0     kernel32:KERNEL32.dll
 0002:000004a8       __imp_AreFileApisANSI      00000001400874a8     kernel32:KERNEL32.dll
 0002:000004b0       __imp_SetFileInformationByHandle 00000001400874b0     kernel32:KERNEL32.dll
 0002:000004b8       __imp_GetFileInformationByHandle 00000001400874b8     kernel32:KERNEL32.dll
 0002:000004c0       __imp_GetFileAttributesExW 00000001400874c0     kernel32:KERNEL32.dll
 0002:000004c8       __imp_FindNextFileW        00000001400874c8     kernel32:KERNEL32.dll
 0002:000004d0       __imp_FindFirstFileExW     00000001400874d0     kernel32:KERNEL32.dll
 0002:000004d8       __imp_FindFirstFileW       00000001400874d8     kernel32:KERNEL32.dll
 0002:000004e0       __imp_FindClose            00000001400874e0     kernel32:KERNEL32.dll
 0002:000004e8       __imp_CreateDirectoryW     00000001400874e8     kernel32:KERNEL32.dll
 0002:000004f0       __imp_SetEvent             00000001400874f0     kernel32:KERNEL32.dll
 0002:000004f8       __imp_RtlUnwind            00000001400874f8     kernel32:KERNEL32.dll
 0002:00000500       __imp_DeleteCriticalSection 0000000140087500     kernel32:KERNEL32.dll
 0002:00000508       __imp_InitializeCriticalSectionEx 0000000140087508     kernel32:KERNEL32.dll
 0002:00000510       __imp_LeaveCriticalSection 0000000140087510     kernel32:KERNEL32.dll
 0002:00000518       __imp_EnterCriticalSection 0000000140087518     kernel32:KERNEL32.dll
 0002:00000520       __imp_GetProcessHeap       0000000140087520     kernel32:KERNEL32.dll
 0002:00000528       __imp_HeapSize             0000000140087528     kernel32:KERNEL32.dll
 0002:00000530       __imp_WaitForSingleObject  0000000140087530     kernel32:KERNEL32.dll
 0002:00000538       __imp_HeapFree             0000000140087538     kernel32:KERNEL32.dll
 0002:00000540       __imp_HeapReAlloc          0000000140087540     kernel32:KERNEL32.dll
 0002:00000548       __imp_HeapAlloc            0000000140087548     kernel32:KERNEL32.dll
 0002:00000550       __imp_HeapDestroy          0000000140087550     kernel32:KERNEL32.dll
 0002:00000558       __imp_RaiseException       0000000140087558     kernel32:KERNEL32.dll
 0002:00000560       __imp_DecodePointer        0000000140087560     kernel32:KERNEL32.dll
 0002:00000568       __imp_ReadFile             0000000140087568     kernel32:KERNEL32.dll
 0002:00000570       __imp_FindCloseChangeNotification 0000000140087570     kernel32:KERNEL32.dll
 0002:00000578       __imp_DeleteFileW          0000000140087578     kernel32:KERNEL32.dll
 0002:00000580       __imp_WritePrivateProfileStringW 0000000140087580     kernel32:KERNEL32.dll
 0002:00000588       __imp_GetPrivateProfileStringW 0000000140087588     kernel32:KERNEL32.dll
 0002:00000590       __imp_FormatMessageW       0000000140087590     kernel32:KERNEL32.dll
 0002:00000598       __imp_GetCurrentThreadId   0000000140087598     kernel32:KERNEL32.dll
 0002:000005a0       __imp_SetLastError         00000001400875a0     kernel32:KERNEL32.dll
 0002:000005a8       __imp_GetLastError         00000001400875a8     kernel32:KERNEL32.dll
 0002:000005b0       __imp_CloseHandle          00000001400875b0     kernel32:KERNEL32.dll
 0002:000005b8       __imp_IsDebuggerPresent    00000001400875b8     kernel32:KERNEL32.dll
 0002:000005c0       __imp_WriteFile            00000001400875c0     kernel32:KERNEL32.dll
 0002:000005c8       __imp_CreateFileW          00000001400875c8     kernel32:KERNEL32.dll
 0002:000005d0       __imp_OutputDebugStringW   00000001400875d0     kernel32:KERNEL32.dll
 0002:000005d8       __imp_GetConsoleOutputCP   00000001400875d8     kernel32:KERNEL32.dll
 0002:000005e0       __imp_GetConsoleMode       00000001400875e0     kernel32:KERNEL32.dll
 0002:000005e8       __imp_SetFilePointerEx     00000001400875e8     kernel32:KERNEL32.dll
 0002:000005f0       __imp_ReadConsoleW         00000001400875f0     kernel32:KERNEL32.dll
 0002:000005f8       __imp_IsValidCodePage      00000001400875f8     kernel32:KERNEL32.dll
 0002:00000600       __imp_GetACP               0000000140087600     kernel32:KERNEL32.dll
 0002:00000608       __imp_GetOEMCP             0000000140087608     kernel32:KERNEL32.dll
 0002:00000610       __imp_GetEnvironmentStringsW 0000000140087610     kernel32:KERNEL32.dll
 0002:00000618       __imp_FreeEnvironmentStringsW 0000000140087618     kernel32:KERNEL32.dll
 0002:00000620       __imp_GetLocaleInfoEx      0000000140087620     kernel32:KERNEL32.dll
 0002:00000628       __imp_FormatMessageA       0000000140087628     kernel32:KERNEL32.dll
 0002:00000630       __imp_LoadLibraryExA       0000000140087630     kernel32:KERNEL32.dll
 0002:00000638       __imp_VirtualFree          0000000140087638     kernel32:KERNEL32.dll
 0002:00000640       __imp_VirtualAlloc         0000000140087640     kernel32:KERNEL32.dll
 0002:00000648       __imp_FlushInstructionCache 0000000140087648     kernel32:KERNEL32.dll
 0002:00000650       __imp_InterlockedPushEntrySList 0000000140087650     kernel32:KERNEL32.dll
 0002:00000658       __imp_InterlockedPopEntrySList 0000000140087658     kernel32:KERNEL32.dll
 0002:00000660       __imp_InitializeSListHead  0000000140087660     kernel32:KERNEL32.dll
 0002:00000668       __imp_EncodePointer        0000000140087668     kernel32:KERNEL32.dll
 0002:00000670       __imp_SetStdHandle         0000000140087670     kernel32:KERNEL32.dll
 0002:00000678       __imp_WriteConsoleW        0000000140087678     kernel32:KERNEL32.dll
 0002:00000680       __imp_FlsGetValue          0000000140087680     kernel32:KERNEL32.dll
 0002:00000688       \177KERNEL32_NULL_THUNK_DATA 0000000140087688     kernel32:KERNEL32.dll
 0002:00000690       __imp_VarUI4FromStr        0000000140087690     oleaut32:OLEAUT32.dll
 0002:00000698       __imp_SysFreeString        0000000140087698     oleaut32:OLEAUT32.dll
 0002:000006a0       __imp_VarI4FromStr         00000001400876a0     oleaut32:OLEAUT32.dll
 0002:000006a8       __imp_VarR8FromStr         00000001400876a8     oleaut32:OLEAUT32.dll
 0002:000006b0       __imp_VarDateFromStr       00000001400876b0     oleaut32:OLEAUT32.dll
 0002:000006b8       __imp_VarDecFromStr        00000001400876b8     oleaut32:OLEAUT32.dll
 0002:000006c0       __imp_VarDecCmp            00000001400876c0     oleaut32:OLEAUT32.dll
 0002:000006c8       __imp_SysAllocString       00000001400876c8     oleaut32:OLEAUT32.dll
 0002:000006d0       __imp_VariantInit          00000001400876d0     oleaut32:OLEAUT32.dll
 0002:000006d8       __imp_VariantClear         00000001400876d8     oleaut32:OLEAUT32.dll
 0002:000006e0       \177OLEAUT32_NULL_THUNK_DATA 00000001400876e0     oleaut32:OLEAUT32.dll
 0002:000006e8       __imp_ShellExecuteW        00000001400876e8     shell32:SHELL32.dll
 0002:000006f0       __imp_SHQueryUserNotificationState 00000001400876f0     shell32:SHELL32.dll
 0002:000006f8       __imp_Shell_NotifyIconW    00000001400876f8     shell32:SHELL32.dll
 0002:00000700       __imp_SetCurrentProcessExplicitAppUserModelID 0000000140087700     shell32:SHELL32.dll
 0002:00000708       \177SHELL32_NULL_THUNK_DATA 0000000140087708     shell32:SHELL32.dll
 0002:00000710       __imp_DispatchMessageW     0000000140087710     user32:USER32.dll
 0002:00000718       __imp_PeekMessageW         0000000140087718     user32:USER32.dll
 0002:00000720       __imp_PostMessageW         0000000140087720     user32:USER32.dll
 0002:00000728       __imp_UnregisterClassW     0000000140087728     user32:USER32.dll
 0002:00000730       __imp_GetMessageW          0000000140087730     user32:USER32.dll
 0002:00000738       __imp_GetClassInfoExW      0000000140087738     user32:USER32.dll
 0002:00000740       __imp_CreateWindowExW      0000000140087740     user32:USER32.dll
 0002:00000748       __imp_DestroyWindow        0000000140087748     user32:USER32.dll
 0002:00000750       __imp_CharNextW            0000000140087750     user32:USER32.dll
 0002:00000758       __imp_EnableWindow         0000000140087758     user32:USER32.dll
 0002:00000760       __imp_GetSystemMetrics     0000000140087760     user32:USER32.dll
 0002:00000768       __imp_AllowSetForegroundWindow 0000000140087768     user32:USER32.dll
 0002:00000770       __imp_MessageBoxA          0000000140087770     user32:USER32.dll
 0002:00000778       __imp_MessageBoxW          0000000140087778     user32:USER32.dll
 0002:00000780       __imp_SetWindowLongPtrW    0000000140087780     user32:USER32.dll
 0002:00000788       __imp_FindWindowW          0000000140087788     user32:USER32.dll
 0002:00000790       __imp_GetWindowThreadProcessId 0000000140087790     user32:USER32.dll
 0002:00000798       __imp_LoadCursorW          0000000140087798     user32:USER32.dll
 0002:000007a0       __imp_DestroyIcon          00000001400877a0     user32:USER32.dll
 0002:000007a8       __imp_LoadStringW          00000001400877a8     user32:USER32.dll
 0002:000007b0       __imp_SetWindowPos         00000001400877b0     user32:USER32.dll
 0002:000007b8       __imp_GetDC                00000001400877b8     user32:USER32.dll
 0002:000007c0       __imp_TranslateMessage     00000001400877c0     user32:USER32.dll
 0002:000007c8       __imp_SetUserObjectInformationW 00000001400877c8     user32:USER32.dll
 0002:000007d0       __imp_GetClientRect        00000001400877d0     user32:USER32.dll
 0002:000007d8       __imp_RegisterClassExW     00000001400877d8     user32:USER32.dll
 0002:000007e0       __imp_IsDialogMessageW     00000001400877e0     user32:USER32.dll
 0002:000007e8       __imp_GetWindowRect        00000001400877e8     user32:USER32.dll
 0002:000007f0       __imp_GetWindowTextLengthW 00000001400877f0     user32:USER32.dll
 0002:000007f8       __imp_GetWindowTextW       00000001400877f8     user32:USER32.dll
 0002:00000800       __imp_DrawTextW            0000000140087800     user32:USER32.dll
 0002:00000808       __imp_EnumWindows          0000000140087808     user32:USER32.dll
 0002:00000810       __imp_IsIconic             0000000140087810     user32:USER32.dll
 0002:00000818       __imp_MonitorFromWindow    0000000140087818     user32:USER32.dll
 0002:00000820       __imp_SystemParametersInfoW 0000000140087820     user32:USER32.dll
 0002:00000828       __imp_LoadImageW           0000000140087828     user32:USER32.dll
 0002:00000830       __imp_GetWindow            0000000140087830     user32:USER32.dll
 0002:00000838       __imp_GetDesktopWindow     0000000140087838     user32:USER32.dll
 0002:00000840       __imp_FillRect             0000000140087840     user32:USER32.dll
 0002:00000848       __imp_GetSysColorBrush     0000000140087848     user32:USER32.dll
 0002:00000850       __imp_GetSysColor          0000000140087850     user32:USER32.dll
 0002:00000858       __imp_SetCursor            0000000140087858     user32:USER32.dll
 0002:00000860       __imp_SetWindowTextW       0000000140087860     user32:USER32.dll
 0002:00000868       __imp_RedrawWindow         0000000140087868     user32:USER32.dll
 0002:00000870       __imp_ReleaseDC            0000000140087870     user32:USER32.dll
 0002:00000878       __imp_GetDlgCtrlID         0000000140087878     user32:USER32.dll
 0002:00000880       __imp_SetDlgItemTextW      0000000140087880     user32:USER32.dll
 0002:00000888       __imp_GetDlgItem           0000000140087888     user32:USER32.dll
 0002:00000890       __imp_IsWindowVisible      0000000140087890     user32:USER32.dll
 0002:00000898       __imp_IsWindow             0000000140087898     user32:USER32.dll
 0002:000008a0       __imp_ChangeWindowMessageFilterEx 00000001400878a0     user32:USER32.dll
 0002:000008a8       __imp_GetMonitorInfoW      00000001400878a8     user32:USER32.dll
 0002:000008b0       __imp_MonitorFromPoint     00000001400878b0     user32:USER32.dll
 0002:000008b8       __imp_MapWindowPoints      00000001400878b8     user32:USER32.dll
 0002:000008c0       __imp_GetLastActivePopup   00000001400878c0     user32:USER32.dll
 0002:000008c8       __imp_GetWindowLongPtrW    00000001400878c8     user32:USER32.dll
 0002:000008d0       __imp_GetCursorPos         00000001400878d0     user32:USER32.dll
 0002:000008d8       __imp_SetForegroundWindow  00000001400878d8     user32:USER32.dll
 0002:000008e0       __imp_TrackPopupMenu       00000001400878e0     user32:USER32.dll
 0002:000008e8       __imp_AppendMenuW          00000001400878e8     user32:USER32.dll
 0002:000008f0       __imp_DestroyMenu          00000001400878f0     user32:USER32.dll
 0002:000008f8       __imp_CreatePopupMenu      00000001400878f8     user32:USER32.dll
 0002:00000900       __imp_KillTimer            0000000140087900     user32:USER32.dll
 0002:00000908       __imp_SetTimer             0000000140087908     user32:USER32.dll
 0002:00000910       __imp_MsgWaitForMultipleObjectsEx 0000000140087910     user32:USER32.dll
 0002:00000918       __imp_CreateDialogParamW   0000000140087918     user32:USER32.dll
 0002:00000920       __imp_ShowWindow           0000000140087920     user32:USER32.dll
 0002:00000928       __imp_CallWindowProcW      0000000140087928     user32:USER32.dll
 0002:00000930       __imp_PostQuitMessage      0000000140087930     user32:USER32.dll
 0002:00000938       __imp_DefWindowProcW       0000000140087938     user32:USER32.dll
 0002:00000940       __imp_SendMessageW         0000000140087940     user32:USER32.dll
 0002:00000948       __imp_UnregisterHotKey     0000000140087948     user32:USER32.dll
 0002:00000950       __imp_RegisterHotKey       0000000140087950     user32:USER32.dll
 0002:00000958       __imp_RegisterWindowMessageW 0000000140087958     user32:USER32.dll
 0002:00000960       __imp_GetClassNameW        0000000140087960     user32:USER32.dll
 0002:00000968       __imp_EnumChildWindows     0000000140087968     user32:USER32.dll
 0002:00000970       __imp_GetParent            0000000140087970     user32:USER32.dll
 0002:00000978       __imp_SetWindowLongW       0000000140087978     user32:USER32.dll
 0002:00000980       __imp_GetWindowLongW       0000000140087980     user32:USER32.dll
 0002:00000988       __imp_InvalidateRect       0000000140087988     user32:USER32.dll
 0002:00000990       \177USER32_NULL_THUNK_DATA 0000000140087990     user32:USER32.dll
 0002:00000998       __imp_DestroyEnvironmentBlock 0000000140087998     userenv:USERENV.dll
 0002:000009a0       __imp_CreateEnvironmentBlock 00000001400879a0     userenv:USERENV.dll
 0002:000009a8       \177USERENV_NULL_THUNK_DATA 00000001400879a8     userenv:USERENV.dll
 0002:000009b0       __imp_SetWindowTheme       00000001400879b0     uxtheme:UxTheme.dll
 0002:000009b8       \177UxTheme_NULL_THUNK_DATA 00000001400879b8     uxtheme:UxTheme.dll
 0002:000009c0       __imp_WinHttpSetStatusCallback 00000001400879c0     Winhttp:WINHTTP.dll
 0002:000009c8       __imp_WinHttpReadData      00000001400879c8     Winhttp:WINHTTP.dll
 0002:000009d0       __imp_WinHttpWriteData     00000001400879d0     Winhttp:WINHTTP.dll
 0002:000009d8       __imp_WinHttpSendRequest   00000001400879d8     Winhttp:WINHTTP.dll
 0002:000009e0       __imp_WinHttpAddRequestHeaders 00000001400879e0     Winhttp:WINHTTP.dll
 0002:000009e8       __imp_WinHttpOpenRequest   00000001400879e8     Winhttp:WINHTTP.dll
 0002:000009f0       __imp_WinHttpSetOption     00000001400879f0     Winhttp:WINHTTP.dll
 0002:000009f8       __imp_WinHttpConnect       00000001400879f8     Winhttp:WINHTTP.dll
 0002:00000a00       __imp_WinHttpOpen          0000000140087a00     Winhttp:WINHTTP.dll
 0002:00000a08       __imp_WinHttpCrackUrl      0000000140087a08     Winhttp:WINHTTP.dll
 0002:00000a10       __imp_WinHttpQueryHeaders  0000000140087a10     Winhttp:WINHTTP.dll
 0002:00000a18       __imp_WinHttpReceiveResponse 0000000140087a18     Winhttp:WINHTTP.dll
 0002:00000a20       __imp_WinHttpQueryAuthSchemes 0000000140087a20     Winhttp:WINHTTP.dll
 0002:00000a28       __imp_WinHttpSetCredentials 0000000140087a28     Winhttp:WINHTTP.dll
 0002:00000a30       __imp_WinHttpCloseHandle   0000000140087a30     Winhttp:WINHTTP.dll
 0002:00000a38       \177WINHTTP_NULL_THUNK_DATA 0000000140087a38     Winhttp:WINHTTP.dll
 0002:00000a40       __imp_WTSQuerySessionInformationW 0000000140087a40     wtsapi32:WTSAPI32.dll
 0002:00000a48       __imp_WTSFreeMemory        0000000140087a48     wtsapi32:WTSAPI32.dll
 0002:00000a50       __imp_WTSQueryUserToken    0000000140087a50     wtsapi32:WTSAPI32.dll
 0002:00000a58       __imp_WTSEnumerateSessionsW 0000000140087a58     wtsapi32:WTSAPI32.dll
 0002:00000a60       \177WTSAPI32_NULL_THUNK_DATA 0000000140087a60     wtsapi32:WTSAPI32.dll
 0002:00000a68       __imp_CoCreateInstance     0000000140087a68     ole32:ole32.dll
 0002:00000a70       __imp_CoTaskMemFree        0000000140087a70     ole32:ole32.dll
 0002:00000a78       __imp_CoTaskMemAlloc       0000000140087a78     ole32:ole32.dll
 0002:00000a80       __imp_CoTaskMemRealloc     0000000140087a80     ole32:ole32.dll
 0002:00000a88       __imp_CoUninitialize       0000000140087a88     ole32:ole32.dll
 0002:00000a90       __imp_CoInitialize         0000000140087a90     ole32:ole32.dll
 0002:00000a98       __imp_IIDFromString        0000000140087a98     ole32:ole32.dll
 0002:00000aa0       __imp_CoCreateGuid         0000000140087aa0     ole32:ole32.dll
 0002:00000aa8       __imp_StringFromGUID2      0000000140087aa8     ole32:ole32.dll
 0002:00000ab0       \177ole32_NULL_THUNK_DATA  0000000140087ab0     ole32:ole32.dll
 0002:00000ab8       __imp_EvtNext              0000000140087ab8     wevtapi:wevtapi.dll
 0002:00000ac0       __imp_EvtClose             0000000140087ac0     wevtapi:wevtapi.dll
 0002:00000ac8       __imp_EvtRender            0000000140087ac8     wevtapi:wevtapi.dll
 0002:00000ad0       __imp_EvtSubscribe         0000000140087ad0     wevtapi:wevtapi.dll
 0002:00000ad8       __imp_EvtCreateRenderContext 0000000140087ad8     wevtapi:wevtapi.dll
 0002:00000ae0       \177wevtapi_NULL_THUNK_DATA 0000000140087ae0     wevtapi:wevtapi.dll
 0002:00000ae8       __guard_check_icall_fptr   0000000140087ae8     LIBCMT:guard_support.obj
 0002:00000af0       __guard_xfg_check_icall_fptr 0000000140087af0     LIBCMT:guard_support.obj
 0002:00000af8       __guard_dispatch_icall_fptr 0000000140087af8     LIBCMT:guard_support.obj
 0002:00000b00       __guard_xfg_dispatch_icall_fptr 0000000140087b00     LIBCMT:guard_support.obj
 0002:00000b08       __guard_xfg_table_dispatch_icall_fptr 0000000140087b08     LIBCMT:guard_support.obj
 0002:00000b10       __castguard_check_failure_os_handled_fptr 0000000140087b10     LIBCMT:guard_support.obj
 0002:00000b18       __guard_memcpy_fptr        0000000140087b18     libvcruntime:softmemtag.obj
 0002:00000b20       __xc_a                     0000000140087b20     LIBCMT:initializers.obj
 0002:00000bc0       __xc_z                     0000000140087bc0     LIBCMT:initializers.obj
 0002:00000bc8       __xi_a                     0000000140087bc8     LIBCMT:initializers.obj
 0002:00000be8       __acrt_stdio_initializer   0000000140087be8     libucrt:stdio_initializer.obj
 0002:00000bf0       __acrt_timeset_initializer 0000000140087bf0     libucrt:timeset_initializer.obj
 0002:00000bf8       __acrt_multibyte_initializer 0000000140087bf8     libucrt:multibyte_initializer.obj
 0002:00000c00       __acrt_fmode_initializer   0000000140087c00     libucrt:fmode_initializer.obj
 0002:00000c08       __acrt_tran_fma3_initializer 0000000140087c08     libucrt:fma3_initializer.obj
 0002:00000c10       __xi_z                     0000000140087c10     LIBCMT:initializers.obj
 0002:00000c18       __xl_a                     0000000140087c18     LIBCMT:tlssup.obj
 0002:00000c20       __xl_z                     0000000140087c20     LIBCMT:tlssup.obj
 0002:00000c28       __xp_a                     0000000140087c28     LIBCMT:initializers.obj
 0002:00000c30       __acrt_locale_terminator   0000000140087c30     libucrt:locale_initializer.obj
 0002:00000c38       __dcrt_console_output_terminator 0000000140087c38     libucrt:console_output_initializer.obj
 0002:00000c40       __acrt_stdio_terminator    0000000140087c40     libucrt:stdio_initializer.obj
 0002:00000c48       __xp_z                     0000000140087c48     LIBCMT:initializers.obj
 0002:00000c50       __xt_a                     0000000140087c50     LIBCMT:initializers.obj
 0002:00000c58       __xt_z                     0000000140087c58     LIBCMT:initializers.obj
 0002:00000c68       ??_7exception@std@@6B@     0000000140087c68     portable_settings.obj
 0002:00000c78       ??_C@_0BC@EOODALEL@Unknown?5exception@ 0000000140087c78     portable_settings.obj
 0002:00000c98       ??_7bad_alloc@std@@6B@     0000000140087c98     portable_settings.obj
 0002:00000cb0       ??_7bad_array_new_length@std@@6B@ 0000000140087cb0     portable_settings.obj
 0002:00000cc0       ??_C@_0BF@KINCDENJ@bad?5array?5new?5length@ 0000000140087cc0     portable_settings.obj
 0002:00000cd8       ??_C@_0BA@JFNIOLAK@string?5too?5long@ 0000000140087cd8     portable_settings.obj
 0002:00000cf0       ??_7logic_error@std@@6B@   0000000140087cf0     portable_settings.obj
 0002:00000d08       ??_7invalid_argument@std@@6B@ 0000000140087d08     portable_settings.obj
 0002:00000d18       ??_C@_00CNPNBAHC@@         0000000140087d18     portable_settings.obj
 0002:00000d20       ??_C@_0BG@HBEOPAA@invalid?5stol?5argument@ 0000000140087d20     portable_settings.obj
 0002:00000d38       ??_C@_0BL@CNHODNBK@stol?5argument?5out?5of?5range@ 0000000140087d38     portable_settings.obj
 0002:00000d58       ??_C@_09FBNMMHMJ@Exception@ 0000000140087d58     portable_settings.obj
 0002:00000d68       ??_C@_08PHCNGLJD@ReturnNt@ 0000000140087d68     portable_settings.obj
 0002:00000d78       ??_C@_08KFPKLAKH@ReturnHr@ 0000000140087d78     portable_settings.obj
 0002:00000d84       ??_C@_05LKGDKHFF@LogNt@    0000000140087d84     portable_settings.obj
 0002:00000d8c       ??_C@_05OILEHMGB@LogHr@    0000000140087d8c     portable_settings.obj
 0002:00000d98       ??_C@_08IAOKKAJK@FailFast@ 0000000140087d98     portable_settings.obj
 0002:00000da8       ??_C@_1CC@NCIPMFAO@?$AA?$CF?$AAh?$AAs?$AA?$CI?$AA?$CF?$AAu?$AA?$CJ?$AA?2?$AA?$CF?$AAh?$AAs?$AA?$CB?$AA?$CF?$AAp?$AA?3@ 0000000140087da8     portable_settings.obj
 0002:00000dd0       ??_C@_1BC@HOGHCIFF@?$AA?$CF?$AAh?$AAs?$AA?$CB?$AA?$CF?$AAp?$AA?3?$AA?5@ 0000000140087dd0     portable_settings.obj
 0002:00000de8       ??_C@_1BM@EAHLIJPA@?$AA?$CI?$AAc?$AAa?$AAl?$AAl?$AAe?$AAr?$AA?3?$AA?5?$AA?$CF?$AAp?$AA?$CJ?$AA?5@ 0000000140087de8     portable_settings.obj
 0002:00000e08       ??_C@_1DC@MFHOKFOG@?$AA?$CF?$AAh?$AAs?$AA?$CI?$AA?$CF?$AAd?$AA?$CJ?$AA?5?$AAt?$AAi?$AAd?$AA?$CI?$AA?$CF?$AAx?$AA?$CJ@ 0000000140087e08     portable_settings.obj
 0002:00000e40       ??_C@_19NMAFMAH@?$AA?5?$AA?5?$AA?5?$AA?5@ 0000000140087e40     portable_settings.obj
 0002:00000e50       ??_C@_1BG@MCLOHHAM@?$AAM?$AAs?$AAg?$AA?3?$AA?$FL?$AA?$CF?$AAw?$AAs?$AA?$FN?$AA?5@ 0000000140087e50     portable_settings.obj
 0002:00000e68       ??_C@_1CG@CGJKEFKG@?$AAC?$AAa?$AAl?$AAl?$AAC?$AAo?$AAn?$AAt?$AAe?$AAx?$AAt?$AA?3?$AA?$FL?$AA?$CF?$AAh@ 0000000140087e68     portable_settings.obj
 0002:00000e90       ??_C@_1BI@PKOCHLJN@?$AA?$FL?$AA?$CF?$AAh?$AAs?$AA?$CI?$AA?$CF?$AAh?$AAs?$AA?$CJ?$AA?$FN?$AA?6@ 0000000140087e90     portable_settings.obj
 0002:00000ea8       ??_C@_1O@PJKHPDBK@?$AA?$FL?$AA?$CF?$AAh?$AAs?$AA?$FN?$AA?6@ 0000000140087ea8     portable_settings.obj
 0002:00000eb8       ??_C@_13LBAGMAIH@?$AA?6@   0000000140087eb8     portable_settings.obj
 0002:00000ec0       ??_C@_0BA@FOIKENOD@vector?5too?5long@ 0000000140087ec0     portable_settings.obj
 0002:00000ed0       ??_C@_0BI@CFPLBAOH@invalid?5string?5position@ 0000000140087ed0     portable_settings.obj
 0002:00000ef0       ??_7RegistrySettings@@6B@  0000000140087ef0     portable_settings.obj
 0002:00000f48       ??_7IniFileSettings@@6B@   0000000140087f48     portable_settings.obj
 0002:00000fa0       ??_7?$EnumIteratorImpl@H@@6B@ 0000000140087fa0     portable_settings.obj
 0002:00000fc0       ??_7?$EnumIteratorRegistryBase@H@@6B@ 0000000140087fc0     portable_settings.obj
 0002:00000fe0       ??_7EnumIteratorRegistryInt@@6B@ 0000000140087fe0     portable_settings.obj
 0002:00001000       ??_7?$EnumIteratorImpl@V?$basic_string@_WU?$char_traits@_W@std@@V?$allocator@_W@2@@std@@@@6B@ 0000000140088000     portable_settings.obj
 0002:00001020       ??_7?$EnumIteratorRegistryBase@V?$basic_string@_WU?$char_traits@_W@std@@V?$allocator@_W@2@@std@@@@6B@ 0000000140088020     portable_settings.obj
 0002:00001040       ??_7EnumIteratorRegistryString@@6B@ 0000000140088040     portable_settings.obj
 0002:00001058       ??_C@_0BN@PIGJJKFN@shared?2portable_settings?4cpp@ 0000000140088058     portable_settings.obj
 0002:00001078       ??_C@_0BC@IJHGPFDC@invalid?5hex?5digit@ 0000000140088078     portable_settings.obj
 0002:00001098       ??_7?$EnumIteratorIniFileBase@H@@6B@ 0000000140088098     portable_settings.obj
 0002:000010b8       ??_7EnumIteratorIniFileInt@@6B@ 00000001400880b8     portable_settings.obj
 0002:000010d8       ??_7?$EnumIteratorIniFileBase@V?$basic_string@_WU?$char_traits@_W@std@@V?$allocator@_W@2@@std@@@@6B@ 00000001400880d8     portable_settings.obj
 0002:000010f8       ??_7EnumIteratorIniFileString@@6B@ 00000001400880f8     portable_settings.obj
 0002:00001110       ??_C@_02DEBJNODD@?$PP?$PO@ 0000000140088110     portable_settings.obj
 0002:00001114       ??_C@_15JNBOKNOG@?$AA?$AN?$AA?6@ 0000000140088114     portable_settings.obj
 0002:00001120       ??_C@_0L@BNKBKFNE@odd?5length@ 0000000140088120     portable_settings.obj
 0002:00001158       ??_C@_0CA@DKOHHGJO@shared?2libraries?2wil?2safecast?4h@ 0000000140088158     portable_settings.obj
 0002:00001180       __xmm@00000000000000070000000000000000 0000000140088180     portable_settings.obj
 0002:00001190       _GUID_00000146_0000_0000_c000_000000000046 0000000140088190     app.obj
 0002:000011a8       ??_7CComModule@ATL@@6B@    00000001400881a8     app.obj
 0002:00001200       ??_7CAppModule@WTL@@6B@    0000000140088200     app.obj
 0002:00001250       ??_C@_0BA@LILAPHGE@RegDeleteKeyExW@ 0000000140088250     app.obj
 0002:00001260       ??_C@_1M@PPPPCDEP@?$AAA?$AAP?$AAP?$AAI?$AAD@ 0000000140088260     app.obj
 0002:00001270       ??_C@_1M@KANJNLFF@?$AAC?$AAL?$AAS?$AAI?$AAD@ 0000000140088270     app.obj
 0002:00001280       ??_C@_1M@EJNEECMJ@?$AAA?$AAp?$AAp?$AAI?$AAD@ 0000000140088280     app.obj
 0002:0000128c       ??_C@_13HADIAKP@?$AAS@     000000014008828c     app.obj
 0002:00001290       ??_C@_13LHMFKAAD@?$AAM@    0000000140088290     app.obj
 0002:00001294       ??_C@_13MKMNOPIJ@?$AAD@    0000000140088294     app.obj
 0002:00001298       ??_C@_13OPKGLAFF@?$AAB@    0000000140088298     app.obj
 0002:000012a0       ??_C@_17LLMMEOJD@?$AAV?$AAa?$AAl@ 00000001400882a0     app.obj
 0002:000012a8       ??_C@_1BI@JFAIJMHL@?$AAF?$AAo?$AAr?$AAc?$AAe?$AAR?$AAe?$AAm?$AAo?$AAv?$AAe@ 00000001400882a8     app.obj
 0002:000012c0       ??_C@_1BC@GCKHIPE@?$AAN?$AAo?$AAR?$AAe?$AAm?$AAo?$AAv?$AAe@ 00000001400882c0     app.obj
 0002:000012d8       ??_C@_1O@JDLOHAN@?$AAD?$AAe?$AAl?$AAe?$AAt?$AAe@ 00000001400882d8     app.obj
 0002:000012f0       ?rgszNeverDelete@CRegParser@ATL@@1QBQEB_WB 00000001400882f0     app.obj
 0002:00001358       ??_7CRegObject@ATL@@6B@    0000000140088358     app.obj
 0002:00001388       ??_C@_1CK@OEKPKBNA@?$AAC?$AAo?$AAm?$AAp?$AAo?$AAn?$AAe?$AAn?$AAt?$AA?5?$AAC?$AAa?$AAt?$AAe?$AAg@ 0000000140088388     app.obj
 0002:000013b8       ??_C@_1BC@NKMMNMGL@?$AAF?$AAi?$AAl?$AAe?$AAT?$AAy?$AAp?$AAe@ 00000001400883b8     app.obj
 0002:000013d0       ??_C@_1BE@EKPAFMCP@?$AAI?$AAn?$AAt?$AAe?$AAr?$AAf?$AAa?$AAc?$AAe@ 00000001400883d0     app.obj
 0002:000013e8       ??_C@_1BC@MAICEHGI@?$AAH?$AAa?$AAr?$AAd?$AAw?$AAa?$AAr?$AAe@ 00000001400883e8     app.obj
 0002:00001400       ??_C@_19HLLLM@?$AAM?$AAi?$AAm?$AAe@ 0000000140088400     app.obj
 0002:00001410       ??_C@_17OMAOINJK@?$AAS?$AAA?$AAM@ 0000000140088410     app.obj
 0002:00001418       ??_C@_1BC@IBECJAAI@?$AAS?$AAE?$AAC?$AAU?$AAR?$AAI?$AAT?$AAY@ 0000000140088418     app.obj
 0002:00001430       ??_C@_1O@GBFINDKL@?$AAS?$AAY?$AAS?$AAT?$AAE?$AAM@ 0000000140088430     app.obj
 0002:00001440       ??_C@_1BC@EAHCMADO@?$AAS?$AAo?$AAf?$AAt?$AAw?$AAa?$AAr?$AAe@ 0000000140088440     app.obj
 0002:00001458       ??_C@_1BA@JIHHIEDE@?$AAT?$AAy?$AAp?$AAe?$AAL?$AAi?$AAb@ 0000000140088458     app.obj
 0002:00001470       ?map@?1??HKeyFromString@CRegParser@ATL@@KAPEAUHKEY__@@PEA_W@Z@4QBUkeymap@?1??123@KAPEAU4@0@Z@B 0000000140088470     app.obj
 0002:00001550       ??_C@_19NCHLBIN@?$AAH?$AAK?$AAC?$AAR@ 0000000140088550     app.obj
 0002:00001560       ??_C@_19JAPAIJDE@?$AAH?$AAK?$AAC?$AAU@ 0000000140088560     app.obj
 0002:00001570       ??_C@_19PEALEEJB@?$AAH?$AAK?$AAL?$AAM@ 0000000140088570     app.obj
 0002:00001580       ??_C@_17PJOJPMPB@?$AAH?$AAK?$AAU@ 0000000140088580     app.obj
 0002:00001588       ??_C@_19PNBHMJPL@?$AAH?$AAK?$AAP?$AAD@ 0000000140088588     app.obj
 0002:00001598       ??_C@_19GFFAIJHG@?$AAH?$AAK?$AAD?$AAD@ 0000000140088598     app.obj
 0002:000015a8       ??_C@_19OFICIBHH@?$AAH?$AAK?$AAC?$AAC@ 00000001400885a8     app.obj
 0002:000015b8       ??_C@_1CE@PACHPJFI@?$AAH?$AAK?$AAE?$AAY?$AA_?$AAC?$AAL?$AAA?$AAS?$AAS?$AAE?$AAS?$AA_?$AAR?$AAO@ 00000001400885b8     app.obj
 0002:000015e0       ??_C@_1CE@HLHNCBPM@?$AAH?$AAK?$AAE?$AAY?$AA_?$AAC?$AAU?$AAR?$AAR?$AAE?$AAN?$AAT?$AA_?$AAU?$AAS@ 00000001400885e0     app.obj
 0002:00001608       ??_C@_1CG@GFBEANJL@?$AAH?$AAK?$AAE?$AAY?$AA_?$AAL?$AAO?$AAC?$AAA?$AAL?$AA_?$AAM?$AAA?$AAC?$AAH@ 0000000140088608     app.obj
 0002:00001630       ??_C@_1BG@BGODANIO@?$AAH?$AAK?$AAE?$AAY?$AA_?$AAU?$AAS?$AAE?$AAR?$AAS@ 0000000140088630     app.obj
 0002:00001648       ??_C@_1CM@KHNNAOIC@?$AAH?$AAK?$AAE?$AAY?$AA_?$AAP?$AAE?$AAR?$AAF?$AAO?$AAR?$AAM?$AAA?$AAN?$AAC@ 0000000140088648     app.obj
 0002:00001678       ??_C@_1BM@HAGMMHIA@?$AAH?$AAK?$AAE?$AAY?$AA_?$AAD?$AAY?$AAN?$AA_?$AAD?$AAA?$AAT?$AAA@ 0000000140088678     app.obj
 0002:00001698       ??_C@_1CI@BBJOACGG@?$AAH?$AAK?$AAE?$AAY?$AA_?$AAC?$AAU?$AAR?$AAR?$AAE?$AAN?$AAT?$AA_?$AAC?$AAO@ 0000000140088698     app.obj
 0002:000016c0       ??_C@_1EA@NHKLICFA@?$AAH?$AAK?$AAC?$AAU?$AA?$AN?$AA?6?$AA?$HL?$AA?7?$AAS?$AAo?$AAf?$AAt?$AAw?$AAa?$AAr@ 00000001400886c0     app.obj
 0002:00001700       ??_C@_1BE@LJOLIMEM@?$AA?$AN?$AA?6?$AA?7?$AA?$HN?$AA?$AN?$AA?6?$AA?$HN?$AA?$AN?$AA?6@ 0000000140088700     app.obj
 0002:00001718       ??_C@_1O@MNLDABAF@?$AAM?$AAo?$AAd?$AAu?$AAl?$AAe@ 0000000140088718     app.obj
 0002:00001728       ??_C@_1BG@JBACFMF@?$AAM?$AAo?$AAd?$AAu?$AAl?$AAe?$AA_?$AAR?$AAa?$AAw@ 0000000140088728     app.obj
 0002:00001740       ??_C@_1BC@KAILKFFG@?$AAR?$AAE?$AAG?$AAI?$AAS?$AAT?$AAR?$AAY@ 0000000140088740     app.obj
 0002:00001754       ??_C@_11LOCGONAA@@         0000000140088754     app.obj
 0002:00001760       ??_7CWin32Heap@ATL@@6B@    0000000140088760     app.obj
 0002:00001788       ??_C@_1BK@BIGILECK@?$AAA?$AAd?$AAv?$AAa?$AAp?$AAi?$AA3?$AA2?$AA?4?$AAd?$AAl?$AAl@ 0000000140088788     app.obj
 0002:000017a8       ??_C@_0BG@EKFFMJIO@RegOpenKeyTransactedW@ 00000001400887a8     app.obj
 0002:000017c0       ??_C@_0BI@MNCFCPFK@RegCreateKeyTransactedW@ 00000001400887c0     app.obj
 0002:000017d8       ??_C@_0BI@HAKLOOGP@RegDeleteKeyTransactedW@ 00000001400887d8     app.obj
 0002:000017f8       ??_7CAtlStringMgr@ATL@@6B@ 00000001400887f8     app.obj
 0002:00001830       ??_7CMessageLoop@WTL@@6B@  0000000140088830     app.obj
 0002:00001850       ??_C@_1O@GBFKGNEO@?$AAA?$AAT?$AAL?$AA?3?$AA?$CF?$AAp@ 0000000140088850     app.obj
 0002:00001868       ??_7bad_optional_access@std@@6B@ 0000000140088868     app.obj
 0002:00001878       ??_C@_0BE@LMOOKEAD@Bad?5optional?5access@ 0000000140088878     app.obj
 0002:00001898       ??_7CHandle@WinHTTPWrappers@@6B@ 0000000140088898     app.obj
 0002:000018b8       ??_7CAsyncDownloader@WinHTTPWrappers@@6B@ 00000001400888b8     app.obj
 0002:00001940       ??_C@_1CM@KBGJEPPN@?$AAR?$AAa?$AAn?$AAg?$AAe?$AA?3?$AA?5?$AAb?$AAy?$AAt?$AAe?$AAs?$AA?$DN?$AA?$CF?$AAI@ 0000000140088940     app.obj
 0002:00001970       ??_C@_1DA@DEIBDDLO@?$AAC?$AAo?$AAn?$AAt?$AAe?$AAn?$AAt?$AA?9?$AAL?$AAe?$AAn?$AAg?$AAt?$AAh?$AA?3@ 0000000140088970     app.obj
 0002:000019a0       ??_C@_03KGBNGMMC@wil@      00000001400889a0     app.obj
 0002:000019a8       ??_C@_0CA@IMBMGMGL@shared?2libraries?2wil?2resource?4h@ 00000001400889a8     app.obj
 0002:000019c8       ??_C@_0CF@JDAAONOL@shared?2libraries?2wil?2win32_help@ 00000001400889c8     app.obj
 0002:000019f8       ??_7?$__base@$$A6AJPEA_W_KPEA_K@Z@__function@wistd@@6B@ 00000001400889f8     app.obj
 0002:00001a28       ??_7CSimpleWinHTTPDownloader@CWinHTTPSimple@@6B@ 0000000140088a28     app.obj
 0002:00001ac0       ??_C@_1BO@KKGOJFAG@?$AAW?$AAi?$AAn?$AAd?$AAh?$AAa?$AAw?$AAk?$AAD?$AAa?$AAe?$AAm?$AAo?$AAn@ 0000000140088ac0     app.obj
 0002:00001ae0       ??_C@_1CO@CLMDEAOO@?$AAR?$AAa?$AAm?$AAe?$AAn?$AAS?$AAo?$AAf?$AAt?$AAw?$AAa?$AAr?$AAe?$AA?4?$AAW@ 0000000140088ae0     app.obj
 0002:00001b10       ??_C@_1BC@LGMDIKCH@?$AA?9?$AAs?$AAe?$AAr?$AAv?$AAi?$AAc?$AAe@ 0000000140088b10     app.obj
 0002:00001b28       ??_C@_1BO@DJAPBGJI@?$AA?9?$AAs?$AAe?$AAr?$AAv?$AAi?$AAc?$AAe?$AA?9?$AAs?$AAt?$AAa?$AAr?$AAt@ 0000000140088b28     app.obj
 0002:00001b48       ??_C@_1BM@MIBBMOMC@?$AA?9?$AAs?$AAe?$AAr?$AAv?$AAi?$AAc?$AAe?$AA?9?$AAs?$AAt?$AAo?$AAp@ 0000000140088b48     app.obj
 0002:00001b68       ??_C@_1BA@KEFGLDN@?$AA?9?$AAr?$AAu?$AAn?$AA?9?$AAu?$AAi@ 0000000140088b68     app.obj
 0002:00001b78       ??_C@_1CC@IJBKPGPH@?$AA?9?$AAr?$AAu?$AAn?$AA?9?$AAu?$AAi?$AA?9?$AAa?$AAs?$AA?9?$AAa?$AAd?$AAm?$AAi@ 0000000140088b78     app.obj
 0002:00001ba0       ??_C@_1CK@LHLJGAJN@?$AA?9?$AAr?$AAu?$AAn?$AA?9?$AAu?$AAi?$AA?9?$AAi?$AAn?$AA?9?$AAs?$AAa?$AAf?$AAe@ 0000000140088ba0     app.obj
 0002:00001bd0       ??_C@_1DE@CHAFANIF@?$AA?9?$AAs?$AAe?$AAr?$AAv?$AAi?$AAc?$AAe?$AA?9?$AAs?$AAt?$AAa?$AAr?$AAt?$AA?9@ 0000000140088bd0     app.obj
 0002:00001c08       ??_C@_1CG@OFIGKCNI@?$AA?9?$AAc?$AAh?$AAe?$AAc?$AAk?$AA?9?$AAf?$AAo?$AAr?$AA?9?$AAu?$AAp?$AAd?$AAa@ 0000000140088c08     app.obj
 0002:00001c30       ??_C@_1CG@HJKEMCPE@?$AA?9?$AAn?$AAe?$AAw?$AA?9?$AAu?$AAp?$AAd?$AAa?$AAt?$AAe?$AAs?$AA?9?$AAf?$AAo@ 0000000140088c30     app.obj
 0002:00001c58       ??_C@_1CM@ICBEJPC@?$AA?9?$AAa?$AAp?$AAp?$AA?9?$AAs?$AAe?$AAt?$AAt?$AAi?$AAn?$AAg?$AAs?$AA?9?$AAc@ 0000000140088c58     app.obj
 0002:00001c88       ??_C@_1M@IBGJMPMO@?$AA?9?$AAe?$AAx?$AAi?$AAt@ 0000000140088c88     app.obj
 0002:00001c98       ??_C@_1BC@HEDBHNJF@?$AA?9?$AAr?$AAe?$AAs?$AAt?$AAa?$AAr?$AAt@ 0000000140088c98     app.obj
 0002:00001cb0       ??_C@_1BI@NGDIOKKK@?$AA?9?$AAr?$AAe?$AAs?$AAt?$AAa?$AAr?$AAt?$AA?9?$AAb?$AAg@ 0000000140088cb0     app.obj
 0002:00001cc8       ??_C@_0P@IGCNAHKG@Windhawk?5error@ 0000000140088cc8     app.obj
 0002:00001cd8       ??_C@_08GBIGGCJG@wWinMain@ 0000000140088cd8     app.obj
 0002:00001ce8       ??_C@_1BO@CJDPGKLP@?$AA?$FL?$AAW?$AAH?$AA?$FN?$AA?5?$AA?$FL?$AA?$CF?$AAS?$AA?$FN?$AA?3?$AA?5?$AA?$CF?$AAS?$AA?6@ 0000000140088ce8     app.obj
 0002:00001d08       ??_C@_0BL@GGDFKNOH@?$GAanonymous?9namespace?8?3?3Run@ 0000000140088d08     app.obj
 0002:00001d28       ??_C@_1DI@DBPFOKN@?$AA?$FL?$AAW?$AAH?$AA?$FN?$AA?5?$AA?$FL?$AA?$CF?$AAS?$AA?$FN?$AA?3?$AA?5?$AAR?$AAu?$AAn?$AAn@ 0000000140088d28     app.obj
 0002:00001d60       ??_C@_1DK@JABKOGNM@?$AA?$FL?$AAW?$AAH?$AA?$FN?$AA?5?$AA?$FL?$AA?$CF?$AAS?$AA?$FN?$AA?3?$AA?5?$AAS?$AAt?$AAa?$AAr@ 0000000140088d60     app.obj
 0002:00001da0       ??_C@_1DK@EEFHPHND@?$AA?$FL?$AAW?$AAH?$AA?$FN?$AA?5?$AA?$FL?$AA?$CF?$AAS?$AA?$FN?$AA?3?$AA?5?$AAS?$AAt?$AAo?$AAp@ 0000000140088da0     app.obj
 0002:00001de0       ??_C@_1CG@KOICNEAN@?$AA?9?$AAa?$AAl?$AAs?$AAo?$AA?9?$AAn?$AAo?$AA?9?$AAa?$AAu?$AAt?$AAo?$AAs?$AAt@ 0000000140088de0     app.obj
 0002:00001e10       ??_C@_1EA@BLJOGHIO@?$AA?$FL?$AAW?$AAH?$AA?$FN?$AA?5?$AA?$FL?$AA?$CF?$AAS?$AA?$FN?$AA?3?$AA?5?$AAR?$AAu?$AAn?$AAn@ 0000000140088e10     app.obj
 0002:00001e50       ??_C@_1CO@NGEIJKBJ@?$AA?$FL?$AAW?$AAH?$AA?$FN?$AA?5?$AA?$FL?$AA?$CF?$AAS?$AA?$FN?$AA?3?$AA?5?$AAR?$AAu?$AAn?$AAn@ 0000000140088e50     app.obj
 0002:00001e80       ??_C@_1EI@GEFIMBPJ@?$AA?$FL?$AAW?$AAH?$AA?$FN?$AA?5?$AA?$FL?$AA?$CF?$AAS?$AA?$FN?$AA?3?$AA?5?$AAR?$AAu?$AAn?$AAn@ 0000000140088e80     app.obj
 0002:00001ed0       ??_C@_1FI@LMBBEHCP@?$AA?$FL?$AAW?$AAH?$AA?$FN?$AA?5?$AA?$FL?$AA?$CF?$AAS?$AA?$FN?$AA?3?$AA?5?$AAS?$AAt?$AAa?$AAr@ 0000000140088ed0     app.obj
 0002:00001f30       ??_C@_1EC@NKIDBMMH@?$AA?$FL?$AAW?$AAH?$AA?$FN?$AA?5?$AA?$FL?$AA?$CF?$AAS?$AA?$FN?$AA?3?$AA?5?$AAC?$AAh?$AAe?$AAc@ 0000000140088f30     app.obj
 0002:00001f80       ??_C@_1FM@KEJCMOOO@?$AA?$FL?$AAW?$AAH?$AA?$FN?$AA?5?$AA?$FL?$AA?$CF?$AAS?$AA?$FN?$AA?3?$AA?5?$AAN?$AAo?$AAt?$AAi@ 0000000140088f80     app.obj
 0002:00001fe0       ??_C@_1GC@PADBGAGF@?$AA?$FL?$AAW?$AAH?$AA?$FN?$AA?5?$AA?$FL?$AA?$CF?$AAS?$AA?$FN?$AA?3?$AA?5?$AAN?$AAo?$AAt?$AAi@ 0000000140088fe0     app.obj
 0002:00002048       ??_C@_1DA@CPPBHDBO@?$AA?$FL?$AAW?$AAH?$AA?$FN?$AA?5?$AA?$FL?$AA?$CF?$AAS?$AA?$FN?$AA?3?$AA?5?$AAE?$AAx?$AAi?$AAt@ 0000000140089048     app.obj
 0002:00002078       ??_C@_1BC@CIJPHDOC@?$AA?9?$AAt?$AAi?$AAm?$AAe?$AAo?$AAu?$AAt@ 0000000140089078     app.obj
 0002:00002090       ??_C@_1M@MBMGLEBL@?$AA?9?$AAw?$AAa?$AAi?$AAt@ 0000000140089090     app.obj
 0002:000020a0       ??_C@_1DG@HMJEBOAL@?$AA?$FL?$AAW?$AAH?$AA?$FN?$AA?5?$AA?$FL?$AA?$CF?$AAS?$AA?$FN?$AA?3?$AA?5?$AAR?$AAe?$AAs?$AAt@ 00000001400890a0     app.obj
 0002:000020d8       ??_C@_1BG@LJBCAFPA@?$AA?9?$AAt?$AAr?$AAa?$AAy?$AA?9?$AAo?$AAn?$AAl?$AAy@ 00000001400890d8     app.obj
 0002:000020f0       ??_C@_1EM@CDCLKDOP@?$AA?$FL?$AAW?$AAH?$AA?$FN?$AA?5?$AA?$FL?$AA?$CF?$AAS?$AA?$FN?$AA?3?$AA?5?$AAR?$AAe?$AAs?$AAt@ 00000001400890f0     app.obj
 0002:00002140       ??_C@_1EI@NEDOINAG@?$AA?$FL?$AAW?$AAH?$AA?$FN?$AA?5?$AA?$FL?$AA?$CF?$AAS?$AA?$FN?$AA?3?$AA?5?$AAR?$AAu?$AAn?$AAn@ 0000000140089140     app.obj
 0002:000021b0       ??_C@_1BG@BDAOMNME@?$AA?9?$AAs?$AAa?$AAf?$AAe?$AA?9?$AAm?$AAo?$AAd?$AAe@ 00000001400891b0     app.obj
 0002:000021c8       ??_C@_0M@HMHHNJBP@app?2app?4cpp@ 00000001400891c8     app.obj
 0002:000021d8       ??_C@_0CB@FLNOFPFO@?$GAanonymous?9namespace?8?3?3RunDaemo@ 00000001400891d8     app.obj
 0002:00002200       ??_C@_1GG@HBCOGFGK@?$AA?$FL?$AAW?$AAH?$AA?$FN?$AA?5?$AA?$FL?$AA?$CF?$AAS?$AA?$FN?$AA?3?$AA?5?$AAS?$AAe?$AAt?$AAD@ 0000000140089200     app.obj
 0002:00002270       ??_C@_1GI@HNPCDBCF@?$AAG?$AAl?$AAo?$AAb?$AAa?$AAl?$AA?2?$AAW?$AAi?$AAn?$AAd?$AAh?$AAa?$AAw?$AAk@ 0000000140089270     app.obj
 0002:000022e0       ??_C@_1EO@MFHDMJMB@?$AAW?$AAi?$AAn?$AAd?$AAh?$AAa?$AAw?$AAk?$AAA?$AAp?$AAp?$AAS?$AAe?$AAt?$AAt@ 00000001400892e0     app.obj
 0002:00002330       ??_C@_1GO@OLBNLJOG@?$AAG?$AAl?$AAo?$AAb?$AAa?$AAl?$AA?2?$AAW?$AAi?$AAn?$AAd?$AAh?$AAa?$AAw?$AAk@ 0000000140089330     app.obj
 0002:000023a0       ??_C@_1BC@PFDDLKEP@?$AAS?$AAe?$AAt?$AAt?$AAi?$AAn?$AAg?$AAs@ 00000001400893a0     app.obj
 0002:000023b8       ??_C@_1BC@EIJJHGED@?$AAS?$AAa?$AAf?$AAe?$AAM?$AAo?$AAd?$AAe@ 00000001400893b8     app.obj
 0002:000023d0       ??_C@_1BK@JJOCIDHP@?$AAw?$AAi?$AAn?$AAd?$AAh?$AAa?$AAw?$AAk?$AA?4?$AAe?$AAx?$AAe@ 00000001400893d0     app.obj
 0002:000023f0       ??_C@_1BM@IHCPGAAE@?$AAu?$AAn?$AAi?$AAn?$AAs?$AAt?$AAa?$AAl?$AAl?$AA?4?$AAe?$AAx?$AAe@ 00000001400893f0     app.obj
 0002:00002410       ??_C@_0DK@LHHIFILO@?$GAanonymous?9namespace?8?3?3WaitForR@ 0000000140089410     app.obj
 0002:00002450       ??_C@_1EA@DGBGJDFI@?$AA?$FL?$AAW?$AAH?$AA?$FN?$AA?5?$AA?$FL?$AA?$CF?$AAS?$AA?$FN?$AA?3?$AA?5?$AAW?$AAa?$AAi?$AAt@ 0000000140089450     app.obj
 0002:00002490       ??_C@_1JG@PGAEFOON@?$AA?$FL?$AAW?$AAH?$AA?$FN?$AA?5?$AA?$FL?$AA?$CF?$AAS?$AA?$FN?$AA?3?$AA?5?$AAQ?$AAu?$AAe?$AAr@ 0000000140089490     app.obj
 0002:00002530       ??_C@_1HC@OEBKPNPF@?$AA?$FL?$AAW?$AAH?$AA?$FN?$AA?5?$AA?$FL?$AA?$CF?$AAS?$AA?$FN?$AA?3?$AA?5?$AAO?$AAp?$AAe?$AAn@ 0000000140089530     app.obj
 0002:000025b0       ??_C@_1EK@MAEIPMPF@?$AA?$FL?$AAW?$AAH?$AA?$FN?$AA?5?$AA?$FL?$AA?$CF?$AAS?$AA?$FN?$AA?3?$AA?5?$AAW?$AAa?$AAi?$AAt@ 00000001400895b0     app.obj
 0002:000025fc       ??_C@_13NEIAEHFG@?$AA?$CC@ 00000001400895fc     app.obj
 0002:00002600       ??_C@_1M@CDHIAJCD@?$AAr?$AAu?$AAn?$AAa?$AAs@ 0000000140089600     app.obj
 0002:00002618       ??_7?$__func@V<lambda_1>@?1???$QueryFullProcessImageNameW@V?$basic_string@_WU?$char_traits@_W@std@@V?$allocator@_W@2@@std@@$0BAA@@wil@@YAJPEAXKAEAV?$basic_string@_WU?$char_traits@_W@std@@V?$allocator@_W@2@@std@@@Z@$$A6AJPEA_W_KPEA_K@Z@__function@wistd@@6B@ 0000000140089618     app.obj
 0002:00002648       ??_7?$__func@V<lambda_1>@?1???$K32GetModuleFileNameExW@V?$basic_string@_WU?$char_traits@_W@std@@V?$allocator@_W@2@@std@@$0IA@@wil@@YAJPEAXPEAUHINSTANCE__@@AEAV?$basic_string@_WU?$char_traits@_W@std@@V?$allocator@_W@2@@std@@@Z@$$A6AJPEA_W_KPEA_K@Z@__function@wistd@@6B@ 0000000140089648     app.obj
 0002:00002678       ??_7runtime_error@std@@6B@ 0000000140089678     engine_control.obj
 0002:00002688       ??_C@_17LGGGMOOB@?$AA?$CF?$AAh?$AAs@ 0000000140089688     engine_control.obj
 0002:00002690       ??_C@_1BK@LAAHIMOG@?$AAw?$AAi?$AAn?$AAd?$AAh?$AAa?$AAw?$AAk?$AA?4?$AAd?$AAl?$AAl@ 0000000140089690     engine_control.obj
 0002:000026b0       ??_C@_0GP@FABDJMMA@Failed?5to?5load?5engine?5library?3?5@ 00000001400896b0     engine_control.obj
 0002:00002720       ??_C@_0BH@HPBEGPLI@app?2engine_control?4cpp@ 0000000140089720     engine_control.obj
 0002:00002738       ??_C@_0BH@EIGCDCIG@GlobalHookSessionStart@ 0000000140089738     engine_control.obj
 0002:00002750       ??_C@_0CE@NPJNBBHL@GlobalHookSessionHandleNewProce@ 0000000140089750     engine_control.obj
 0002:00002778       ??_C@_0BF@MDGEJKCB@GlobalHookSessionEnd@ 0000000140089778     engine_control.obj
 0002:00002790       ??_C@_0CL@PDFKHMNP@Failed?5to?5start?5the?5global?5hook@ 0000000140089790     engine_control.obj
 0002:000027c0       ??_C@_0CD@JGPFFIMJ@app?2event_viewer_crash_monitor?4@ 00000001400897c0     event_viewer_crash_monitor.obj
 0002:000027e8       ??_C@_1BI@JBDNBBGL@?$AAA?$AAp?$AAp?$AAl?$AAi?$AAc?$AAa?$AAt?$AAi?$AAo?$AAn@ 00000001400897e8     event_viewer_crash_monitor.obj
 0002:00002800       ??_C@_1GK@MHCIIJJ@?$AAE?$AAv?$AAe?$AAn?$AAt?$AA?1?$AAS?$AAy?$AAs?$AAt?$AAe?$AAm?$AA?$FL?$AAL?$AAe@ 0000000140089800     event_viewer_crash_monitor.obj
 0002:00002870       ??_C@_0CO@FAHHGJJL@EventViewerCrashMonitor?3?3GetAmo@ 0000000140089870     event_viewer_crash_monitor.obj
 0002:000028a0       ??_C@_0CB@IJHIHLLO@Unexpected?5result?5from?5EvtRende@ 00000001400898a0     event_viewer_crash_monitor.obj
 0002:000028c8       ??_C@_0CI@PDLCCDIE@EventViewerCrashMonitor?3?3DoesEv@ 00000001400898c8     event_viewer_crash_monitor.obj
 0002:000028f0       ??_C@_1FI@LLBKBDGN@?$AA?$FL?$AAW?$AAH?$AA?$FN?$AA?5?$AA?$FL?$AA?$CF?$AAS?$AA?$FN?$AA?3?$AA?5?$AAN?$AAo?$AAt?$AA?5@ 00000001400898f0     event_viewer_crash_monitor.obj
 0002:00002950       ??_C@_1GA@HCOOCIGC@?$AA?$FL?$AAW?$AAH?$AA?$FN?$AA?5?$AA?$FL?$AA?$CF?$AAS?$AA?$FN?$AA?3?$AA?5?$AAU?$AAn?$AAe?$AAx@ 0000000140089950     event_viewer_crash_monitor.obj
 0002:000029b0       ??_C@_1BK@MGMFAEKH@?$AAk?$AAe?$AAr?$AAn?$AAe?$AAl?$AA3?$AA2?$AA?4?$AAd?$AAl?$AAl@ 00000001400899b0     functions.obj
 0002:000029d0       ??_C@_1BE@GJOFHIHD@?$AAn?$AAt?$AAd?$AAl?$AAl?$AA?4?$AAd?$AAl?$AAl@ 00000001400899d0     functions.obj
 0002:000029e8       ??_C@_0BD@EJALDNPB@NtPowerInformation@ 00000001400899e8     functions.obj
 0002:00002a00       ??_C@_1CC@DMDJMJLM@?$AAS?$AAe?$AAD?$AAe?$AAb?$AAu?$AAg?$AAP?$AAr?$AAi?$AAv?$AAi?$AAl?$AAe?$AAg@ 0000000140089a00     functions.obj
 0002:00002a30       ??_C@_1EE@OFOCIELB@?$AAD?$AA?3?$AA?$CI?$AAA?$AA?$DL?$AA?$DL?$AA0?$AAx?$AA0?$AA0?$AA0?$AA2?$AA?$DL?$AA?$DL?$AA?$DL@ 0000000140089a30     functions.obj
 0002:00002a78       ??_C@_1DE@DPPEFADK@?$AA?$CI?$AAC?$AAo?$AAu?$AAl?$AAd?$AA?5?$AAn?$AAo?$AAt?$AA?5?$AAl?$AAo?$AAa?$AAd@ 0000000140089a78     functions.obj
 0002:00002ab0       ??_C@_1BG@OILDLIOJ@?$AAu?$AAs?$AAe?$AAr?$AA3?$AA2?$AA?4?$AAd?$AAl?$AAl@ 0000000140089ab0     functions.obj
 0002:00002ac8       ??_C@_0BA@LGGPEDOH@GetDpiForWindow@ 0000000140089ac8     functions.obj
 0002:00002ad8       ??_C@_0BH@HPKNFNCE@GetSystemMetricsForDpi@ 0000000140089ad8     functions.obj
 0002:00002af0       ??_C@_0BK@EGDDIFMK@NtQueryInformationProcess@ 0000000140089af0     functions.obj
 0002:00002b10       ??_C@_0BH@OLGOMKMH@RtlGetNtVersionNumbers@ 0000000140089b10     functions.obj
 0002:00002b28       ??_C@_19PLOBJMHF@?$AAE?$AAd?$AAi?$AAt@ 0000000140089b28     functions.obj
 0002:00002b38       ??_C@_1CC@EPFAMDMB@?$AAL?$AAo?$AAg?$AAg?$AAi?$AAn?$AAg?$AAV?$AAe?$AAr?$AAb?$AAo?$AAs?$AAi?$AAt@ 0000000140089b38     logger.obj
 0002:00002ca8       ??_7CMainWindow@@6B?$CWindowImpl@VCMainWindow@@VCWindow@ATL@@V?$CWinTraits@$0A@$0A@@3@@ATL@@@ 0000000140089ca8     main_window.obj
 0002:00002cd0       ??_7CMainWindow@@6BCMessageFilter@WTL@@@ 0000000140089cd0     main_window.obj
 0002:00002ce0       ??_7CMainWindow@@6BCIdleHandler@WTL@@@ 0000000140089ce0     main_window.obj
 0002:00002ce8       ??_C@_1BM@GLLFNEEF@?$AAS?$AAh?$AAe?$AAl?$AAl?$AA_?$AAT?$AAr?$AAa?$AAy?$AAW?$AAn?$AAd@ 0000000140089ce8     main_window.obj
 0002:00002d08       ??_C@_1BO@NBGJACOC@?$AAT?$AAa?$AAs?$AAk?$AAb?$AAa?$AAr?$AAC?$AAr?$AAe?$AAa?$AAt?$AAe?$AAd@ 0000000140089d08     main_window.obj
 0002:00002d28       ??_C@_0BE@LLPFFMLJ@CMainWindow?3?3OnIdle@ 0000000140089d28     main_window.obj
 0002:00002d40       ??_C@_1GA@FGKJMJLJ@?$AA?$FL?$AAW?$AAH?$AA?$FN?$AA?5?$AA?$FL?$AA?$CF?$AAS?$AA?$FN?$AA?3?$AA?5?$AAT?$AAa?$AAs?$AAk@ 0000000140089d40     main_window.obj
 0002:00002da0       ??_C@_1GG@EAFNOKAA@?$AA?$FL?$AAW?$AAH?$AA?$FN?$AA?5?$AA?$FL?$AA?$CF?$AAS?$AA?$FN?$AA?3?$AA?5?$AAS?$AAt?$AAa?$AAt@ 0000000140089da0     main_window.obj
 0002:00002e10       ??_C@_1FM@PFGJDFPA@?$AA?$FL?$AAW?$AAH?$AA?$FN?$AA?5?$AA?$FL?$AA?$CF?$AAS?$AA?$FN?$AA?3?$AA?5?$AAE?$AAx?$AAp?$AAl@ 0000000140089e10     main_window.obj
 0002:00002e70       ??_C@_1FO@HHBHIIPC@?$AA?$FL?$AAW?$AAH?$AA?$FN?$AA?5?$AA?$FL?$AA?$CF?$AAS?$AA?$FN?$AA?3?$AA?5?$AAE?$AAx?$AAp?$AAl@ 0000000140089e70     main_window.obj
 0002:00002ed0       ??_C@_0BO@EDNAMAKI@Could?5not?5initialize?5Windhawk@ 0000000140089ed0     main_window.obj
 0002:00002ef0       ??_C@_1BC@KKLCINDK@?$AAm?$AAo?$AAd?$AA?9?$AAt?$AAa?$AAs?$AAk@ 0000000140089ef0     main_window.obj
 0002:00002f08       ??_C@_0BG@OPCFKHFL@CMainWindow?3?3OnCreate@ 0000000140089f08     main_window.obj
 0002:00002f20       ??_C@_1GA@NAPCPPN@?$AA?$FL?$AAW?$AAH?$AA?$FN?$AA?5?$AA?$FL?$AA?$CF?$AAS?$AA?$FN?$AA?3?$AA?5?$AAT?$AAa?$AAs?$AAk@ 0000000140089f20     main_window.obj
 0002:00002f80       ??_C@_1EM@BELCHACH@?$AA?$FL?$AAW?$AAH?$AA?$FN?$AA?5?$AA?$FL?$AA?$CF?$AAS?$AA?$FN?$AA?3?$AA?5?$AAR?$AAe?$AAg?$AAi@ 0000000140089f80     main_window.obj
 0002:00002fd0       ??_C@_0BF@FAGLFHJB@CMainWindow?3?3OnTimer@ 0000000140089fd0     main_window.obj
 0002:00002ff0       ??_C@_1EK@JLNFBILD@?$AA?$FL?$AAW?$AAH?$AA?$FN?$AA?5?$AA?$FL?$AA?$CF?$AAS?$AA?$FN?$AA?3?$AA?5?$AAU?$AAp?$AAd?$AAa@ 0000000140089ff0     main_window.obj
 0002:00003040       ??_C@_1CA@CJFAGNJ@?$AAL?$AAa?$AAs?$AAt?$AAU?$AAp?$AAd?$AAa?$AAt?$AAe?$AAC?$AAh?$AAe?$AAc?$AAk@ 000000014008a040     main_window.obj
 0002:00003060       ??_C@_13COJANIEC@?$AA0@    000000014008a060     main_window.obj
 0002:00003068       ??_C@_0BO@EIENCBKH@CMainWindow?3?3OnPowerBroadcast@ 000000014008a068     main_window.obj
 0002:00003090       ??_C@_1FO@GKIOHAHF@?$AA?$FL?$AAW?$AAH?$AA?$FN?$AA?5?$AA?$FL?$AA?$CF?$AAS?$AA?$FN?$AA?3?$AA?5?$AAG?$AAe?$AAt?$AAt@ 000000014008a090     main_window.obj
 0002:000030f0       ??_C@_1BI@DGENFMEP@?$AA?7?$AAC?$AAt?$AAr?$AAl?$AA?$CL?$AAW?$AAi?$AAn?$AA?$CL?$AAW@ 000000014008a0f0     main_window.obj
 0002:00003108       ??_C@_0BE@PKMBHJEG@app?2main_window?4cpp@ 000000014008a108     main_window.obj
 0002:00003120       ??_C@_0CH@EAGACODJ@CMainWindow?3?3InitForNonPortable@ 000000014008a120     main_window.obj
 0002:00003150       ??_C@_1GO@FEJINGBJ@?$AA?$FL?$AAW?$AAH?$AA?$FN?$AA?5?$AA?$FL?$AA?$CF?$AAS?$AA?$FN?$AA?3?$AA?5?$AAV?$AAe?$AAr?$AAs@ 000000014008a150     main_window.obj
 0002:000031c0       ??_C@_1BC@KHBNKMMK@?$AAL?$AAa?$AAn?$AAg?$AAu?$AAa?$AAg?$AAe@ 000000014008a1c0     main_window.obj
 0002:000031d4       ??_C@_15MNPNEAIF@?$AAe?$AAn@ 000000014008a1d4     main_window.obj
 0002:000031e0       ??_C@_1BK@CBNNFKLB@?$AAH?$AAi?$AAd?$AAe?$AAT?$AAr?$AAa?$AAy?$AAI?$AAc?$AAo?$AAn@ 000000014008a1e0     main_window.obj
 0002:00003200       ??_C@_1CG@HLCPILOC@?$AAD?$AAi?$AAs?$AAa?$AAb?$AAl?$AAe?$AAU?$AAp?$AAd?$AAa?$AAt?$AAe?$AAC?$AAh@ 000000014008a200     main_window.obj
 0002:00003228       ??_C@_1CI@CABPFAEL@?$AAD?$AAo?$AAn?$AAt?$AAA?$AAu?$AAt?$AAo?$AAS?$AAh?$AAo?$AAw?$AAT?$AAo?$AAo@ 000000014008a228     main_window.obj
 0002:00003250       ??_C@_1CK@DKGHDNON@?$AAD?$AAi?$AAs?$AAa?$AAb?$AAl?$AAe?$AAT?$AAo?$AAo?$AAl?$AAk?$AAi?$AAt?$AAH@ 000000014008a250     main_window.obj
 0002:00003280       ??_C@_1CI@MBJFOMAF@?$AAM?$AAo?$AAd?$AAT?$AAa?$AAs?$AAk?$AAs?$AAD?$AAi?$AAa?$AAl?$AAo?$AAg?$AAD@ 000000014008a280     main_window.obj
 0002:000032a8       ??_C@_0BI@GEMMIMIP@Could?5not?5load?5settings@ 000000014008a2a8     main_window.obj
 0002:000032c0       ??_C@_1BM@ENECIFHC@?$AA?2?$AAe?$AAx?$AAp?$AAl?$AAo?$AAr?$AAe?$AAr?$AA?4?$AAe?$AAx?$AAe@ 000000014008a2c0     main_window.obj
 0002:000032e0       ??_C@_0BK@NNOIAPFA@CMainWindow?3?3LoadSettings@ 000000014008a2e0     main_window.obj
 0002:00003300       ??_C@_1EC@PJIKGFPK@?$AA?9?$AAs?$AAe?$AAr?$AAv?$AAi?$AAc?$AAe?$AA?9?$AAs?$AAt?$AAo?$AAp?$AA?5?$AA?9@ 000000014008a300     main_window.obj
 0002:00003350       ??_C@_0JG@DOIHEHOE@Exiting?5failed?5with?5the?5error?5b@ 000000014008a350     main_window.obj
 0002:000033e8       ??_C@_0P@CBOLDCK@Exiting?5failed@ 000000014008a3e8     main_window.obj
 0002:000033f8       ??_C@_05NAOIJFC@Error@     000000014008a3f8     main_window.obj
 0002:00003400       ??_C@_0CA@EFHAENNF@Could?5not?5launch?5the?5UI?5process@ 000000014008a400     main_window.obj
 0002:00003420       ??_C@_0BF@JNLAJPN@CMainWindow?3?3CloseUI@ 000000014008a420     main_window.obj
 0002:00003438       ??_C@_1DO@OBKPMLAI@?$AA?$FL?$AAW?$AAH?$AA?$FN?$AA?5?$AA?$FL?$AA?$CF?$AAS?$AA?$FN?$AA?3?$AA?5?$AAC?$AAl?$AAo?$AAs@ 000000014008a438     main_window.obj
 0002:00003478       ??_C@_0BP@BNMBOFCJ@CMainWindow?3?3SetLastUpdateTime@ 000000014008a478     main_window.obj
 0002:00003498       ??_C@_0CB@KGLIAGPC@CMainWindow?3?3ResetLastUpdateTim@ 000000014008a498     main_window.obj
 0002:000034c0       ??_C@_1FI@IHAGCAKG@?$AAh?$AAt?$AAt?$AAp?$AAs?$AA?3?$AA?1?$AA?1?$AAw?$AAi?$AAn?$AAd?$AAh?$AAa?$AAw@ 000000014008a4c0     main_window.obj
 0002:00003518       ??_C@_1M@ILHOPKA@?$AAE?$AAr?$AAr?$AAo?$AAr@ 000000014008a518     main_window.obj
 0002:00003530       ??_C@_1IA@MIKEAAPJ@?$AAC?$AAo?$AAu?$AAl?$AAd?$AA?5?$AAn?$AAo?$AAt?$AA?5?$AAo?$AAp?$AAe?$AAn?$AA?5@ 000000014008a530     main_window.obj
 0002:000035b0       ??_C@_1BG@MDFIMHKE@?$AAm?$AAo?$AAd?$AA?9?$AAs?$AAt?$AAa?$AAt?$AAu?$AAs@ 000000014008a5b0     main_window.obj
 0002:000035c8       ??_C@_0CC@IDJAMJAO@CMainWindow?3?3ShowLoadedModsDial@ 000000014008a5c8     main_window.obj
 0002:000035f0       ??_C@_1GG@BLPLAMEE@?$AA?$FL?$AAW?$AAH?$AA?$FN?$AA?5?$AA?$FL?$AA?$CF?$AAS?$AA?$FN?$AA?3?$AA?5?$AAS?$AAt?$AAa?$AAt@ 000000014008a5f0     main_window.obj
 0002:00003658       ??_C@_1BA@LFDBPOH@?$AA?$CC?$AA?5?$AA?9?$AAw?$AAa?$AAi?$AAt@ 000000014008a658     main_window.obj
 0002:00003668       ??_C@_0BO@GPJEIOI@CMainWindow?3?3SwitchToSafeMode@ 000000014008a668     main_window.obj
 0002:00003688       ??_C@_0CB@LNDNOIBE@CMainWindow?3?3HandleExplorerCras@ 000000014008a688     main_window.obj
 0002:000036b0       ??_C@_1FC@ICNIGCAD@?$AA?$FL?$AAW?$AAH?$AA?$FN?$AA?5?$AA?$FL?$AA?$CF?$AAS?$AA?$FN?$AA?3?$AA?5?$AAD?$AAe?$AAt?$AAe@ 000000014008a6b0     main_window.obj
 0002:00003710       ??_C@_1IG@CCDGNLKG@?$AA?$FL?$AAW?$AAH?$AA?$FN?$AA?5?$AA?$FL?$AA?$CF?$AAS?$AA?$FN?$AA?3?$AA?5?$AAT?$AAa?$AAs?$AAk@ 000000014008a710     main_window.obj
 0002:000039d0       ??_7?$__func@V<lambda_1>@?1???$GetWindowsDirectoryW@V?$basic_string@_WU?$char_traits@_W@std@@V?$allocator@_W@2@@std@@$0BAA@@wil@@YAJAEAV?$basic_string@_WU?$char_traits@_W@std@@V?$allocator@_W@2@@std@@@Z@$$A6AJPEA_W_KPEA_K@Z@__function@wistd@@6B@ 000000014008a9d0     main_window.obj
 0002:00003ba0       ??_C@_1EE@DOCGNLJK@?$AAD?$AA?3?$AA?$CI?$AAA?$AA?$DL?$AA?$DL?$AA0?$AAx?$AA0?$AA0?$AA0?$AA4?$AA?$DL?$AA?$DL?$AA?$DL@ 000000014008aba0     service.obj
 0002:00003be8       ??_C@_0BA@PJFDGCHE@app?2service?4cpp@ 000000014008abe8     service.obj
 0002:00003c00       ??_C@_1EM@KPBAOFKJ@?$AAD?$AA?3?$AA?$CI?$AAA?$AA?$DL?$AA?$DL?$AA0?$AAx?$AA0?$AA0?$AA1?$AA0?$AA0?$AA0?$AA0@ 000000014008ac00     service.obj
 0002:00003c50       ??_C@_0BJ@JOAPGADM@ServiceInstance?3?3SvcMain@ 000000014008ac50     service.obj
 0002:00003c70       ??_C@_1DI@LHCAMOBB@?$AA?$FL?$AAW?$AAH?$AA?$FN?$AA?5?$AA?$FL?$AA?$CF?$AAS?$AA?$FN?$AA?3?$AA?5?$AAR?$AAu?$AAn?$AAn@ 000000014008ac70     service.obj
 0002:00003ca8       ??_C@_1DO@BCFBKLHE@?$AA?$FL?$AAW?$AAH?$AA?$FN?$AA?5?$AA?$FL?$AA?$CF?$AAS?$AA?$FN?$AA?3?$AA?5?$AAS?$AAv?$AAc?$AAI@ 000000014008aca8     service.obj
 0002:00003ce8       ??_C@_1DG@NCMIIJHK@?$AA?$FL?$AAW?$AAH?$AA?$FN?$AA?5?$AA?$FL?$AA?$CF?$AAS?$AA?$FN?$AA?3?$AA?5?$AAR?$AAu?$AAn?$AAn@ 000000014008ace8     service.obj
 0002:00003d20       ??_C@_1DM@KMNOEKPB@?$AA?$FL?$AAW?$AAH?$AA?$FN?$AA?5?$AA?$FL?$AA?$CF?$AAS?$AA?$FN?$AA?3?$AA?5?$AAS?$AAv?$AAc?$AAR@ 000000014008ad20     service.obj
 0002:00003d60       ??_C@_1EM@GBKOAALO@?$AA?$FL?$AAW?$AAH?$AA?$FN?$AA?5?$AA?$FL?$AA?$CF?$AAS?$AA?$FN?$AA?3?$AA?5?$AAR?$AAe?$AAp?$AAo@ 000000014008ad60     service.obj
 0002:00003db0       ??_C@_0BJ@IDMBCMHB@ServiceInstance?3?3SvcInit@ 000000014008adb0     service.obj
 0002:00003dd0       ??_C@_1BK@NKJOAPIG@?$AA?$CC?$AA?5?$AA?9?$AAt?$AAr?$AAa?$AAy?$AA?9?$AAo?$AAn?$AAl?$AAy@ 000000014008add0     service.obj
 0002:00003df0       ??_C@_0BI@JNOLAJPK@ServiceInstance?3?3SvcRun@ 000000014008adf0     service.obj
 0002:00003e10       ??_C@_1GE@FHPJPPLE@?$AA?$FL?$AAW?$AAH?$AA?$FN?$AA?5?$AA?$FL?$AA?$CF?$AAS?$AA?$FN?$AA?3?$AA?5?$AAC?$AAr?$AAe?$AAa@ 000000014008ae10     service.obj
 0002:00003e80       ??_C@_1EA@FPKNEOLI@?$AA?$FL?$AAW?$AAH?$AA?$FN?$AA?5?$AA?$FL?$AA?$CF?$AAS?$AA?$FN?$AA?3?$AA?5?$AAR?$AAe?$AAc?$AAe@ 000000014008ae80     service.obj
 0002:00003ec0       ??_C@_1FM@LEDKMGBE@?$AA?$FL?$AAW?$AAH?$AA?$FN?$AA?5?$AA?$FL?$AA?$CF?$AAS?$AA?$FN?$AA?3?$AA?5?$AAR?$AAe?$AAc?$AAe@ 000000014008aec0     service.obj
 0002:00003f20       ??_C@_1FE@KNFBFPEM@?$AA?$FL?$AAW?$AAH?$AA?$FN?$AA?5?$AA?$FL?$AA?$CF?$AAS?$AA?$FN?$AA?3?$AA?5?$AAR?$AAe?$AAc?$AAe@ 000000014008af20     service.obj
 0002:00003f80       ??_C@_1FE@DDOCJJFC@?$AA?$FL?$AAW?$AAH?$AA?$FN?$AA?5?$AA?$FL?$AA?$CF?$AAS?$AA?$FN?$AA?3?$AA?5?$AAR?$AAe?$AAc?$AAe@ 000000014008af80     service.obj
 0002:00003fe0       ??_C@_1EM@DACMBBBG@?$AA?$FL?$AAW?$AAH?$AA?$FN?$AA?5?$AA?$FL?$AA?$CF?$AAS?$AA?$FN?$AA?3?$AA?5?$AAR?$AAe?$AAc?$AAe@ 000000014008afe0     service.obj
 0002:00004030       ??_C@_0CC@IMBHMPMP@ServiceInstance?3?3SvcCtrlHandler@ 000000014008b030     service.obj
 0002:00004060       ??_C@_1FE@EJLDIAIP@?$AA?$FL?$AAW?$AAH?$AA?$FN?$AA?5?$AA?$FL?$AA?$CF?$AAS?$AA?$FN?$AA?3?$AA?5?$AAH?$AAa?$AAn?$AAd@ 000000014008b060     service.obj
 0002:000040c0       ??_C@_1EO@KEIJONPD@?$AA?$FL?$AAW?$AAH?$AA?$FN?$AA?5?$AA?$FL?$AA?$CF?$AAS?$AA?$FN?$AA?3?$AA?5?$AAH?$AAa?$AAn?$AAd@ 000000014008b0c0     service.obj
 0002:00004110       ??_C@_1GC@BNIHGILH@?$AA?$FL?$AAW?$AAH?$AA?$FN?$AA?5?$AA?$FL?$AA?$CF?$AAS?$AA?$FN?$AA?3?$AA?5?$AAW?$AAT?$AAS?$AA_@ 000000014008b110     service.obj
 0002:00004178       ??_C@_07NPCNPGEO@SvcMain@  000000014008b178     service.obj
 0002:00004180       ??_C@_1DO@MOECAKGP@?$AA?$FL?$AAW?$AAH?$AA?$FN?$AA?5?$AA?$FL?$AA?$CF?$AAS?$AA?$FN?$AA?3?$AA?5?$AAS?$AAv?$AAc?$AAM@ 000000014008b180     service.obj
 0002:000041c0       ??_C@_0BO@ELAFCPOP@RtlDisownModuleHeapAllocation@ 000000014008b1c0     stdafx.obj
 0002:000041e0       ??_C@_1CM@DFICJNGJ@?$AAL?$AAo?$AAc?$AAa?$AAl?$AA?2?$AAS?$AAM?$AA0?$AA?3?$AA?$CF?$AAl?$AAu?$AA?3?$AA?$CF@ 000000014008b1e0     stdafx.obj
 0002:00004210       ??_C@_1BO@MFOKJHPK@?$AAk?$AAe?$AAr?$AAn?$AAe?$AAl?$AAb?$AAa?$AAs?$AAe?$AA?4?$AAd?$AAl?$AAl@ 000000014008b210     stdafx.obj
 0002:00004230       ??_C@_0BH@EEDPADAA@RaiseFailFastException@ 000000014008b230     stdafx.obj
 0002:00004248       ??_C@_17ONNCDEJM@?$AA_?$AAp?$AA0@ 000000014008b248     stdafx.obj
 0002:00004250       ??_C@_13CACJPPAP@?$AAh@    000000014008b250     stdafx.obj
 0002:00004260       ??_7ResultException@wil@@6B@ 000000014008b260     stdafx.obj
 0002:00004270       ??_C@_0O@KIMGFJMA@WIL?5Exception@ 000000014008b270     stdafx.obj
 0002:00004280       ??_C@_1CI@KEGLKJIE@?$AAs?$AAt?$AAd?$AA?3?$AA?3?$AAe?$AAx?$AAc?$AAe?$AAp?$AAt?$AAi?$AAo?$AAn?$AA?3@ 000000014008b280     stdafx.obj
 0002:000042a8       ??_C@_0M@BENCEGID@WilError_03@ 000000014008b2a8     stdafx.obj
 0002:000042b4       ?value@?$static_const@Uto_json_fn@detail@nlohmann@@@detail@nlohmann@@2Uto_json_fn@23@B 000000014008b2b4     stdafx.obj
 0002:000042c0       ??_7bad_variant_access@std@@6B@ 000000014008b2c0     storage_manager.obj
 0002:000042d0       ??_C@_0BD@FGIAGBIG@bad?5variant?5access@ 000000014008b2d0     storage_manager.obj
 0002:000042f0       ??_7_System_error@std@@6B@ 000000014008b2f0     storage_manager.obj
 0002:00004300       ??_C@_02LMMGGCAJ@?3?5@     000000014008b300     storage_manager.obj
 0002:00004310       ??_7system_error@std@@6B@  000000014008b310     storage_manager.obj
 0002:00004328       ??_7_Generic_error_category@std@@6B@ 000000014008b328     storage_manager.obj
 0002:00004358       ??_C@_07DCLBNMLN@generic@  000000014008b358     storage_manager.obj
 0002:00004368       ??_7_System_error_category@std@@6B@ 000000014008b368     storage_manager.obj
 0002:00004398       ??_C@_06FHFOAHML@system@   000000014008b398     storage_manager.obj
 0002:000043a0       ?_Unknown_error@?6??message@_System_error_category@std@@UEBA?AV?$basic_string@DU?$char_traits@D@std@@V?$allocator@D@2@@3@H@Z@4QBDB 000000014008b3a0     storage_manager.obj
 0002:000043b0       ??_C@_13JOFGPIOO@?$AA?4@   000000014008b3b0     storage_manager.obj
 0002:000043b4       ??_C@_15DDHGOCBH@?$AA?4?$AA?4@ 000000014008b3b4     storage_manager.obj
 0002:000043c8       ??_7filesystem_error@filesystem@std@@6B@ 000000014008b3c8     storage_manager.obj
 0002:000043d8       ??_C@_03NONCDIOG@?3?5?$CC@ 000000014008b3d8     storage_manager.obj
 0002:000043dc       ??_C@_04PHMHGEMA@?$CC?0?5?$CC@ 000000014008b3dc     storage_manager.obj
 0002:000043e4       ??_C@_06DJIHEMFI@status@   000000014008b3e4     storage_manager.obj
 0002:000043f0       ??_C@_0BF@GMINJHOM@Missing?5path?5value?3?5@ 000000014008b3f0     storage_manager.obj
 0002:00004408       ??_C@_1BK@LOEJHKPH@?$AAM?$AAo?$AAd?$AAs?$AAW?$AAr?$AAi?$AAt?$AAa?$AAb?$AAl?$AAe@ 000000014008b408     storage_manager.obj
 0002:00004424       ??_C@_15JGPBBLHF@?$AA3?$AA2@ 000000014008b424     storage_manager.obj
 0002:0000442c       ??_C@_15ODFHNFBK@?$AA6?$AA4@ 000000014008b42c     storage_manager.obj
 0002:00004438       ??_C@_1M@CDOFHCHO@?$AAa?$AAr?$AAm?$AA6?$AA4@ 000000014008b438     storage_manager.obj
 0002:00004448       ??_C@_0BF@PAAHKDFF@Unknown?5architecture@ 000000014008b448     storage_manager.obj
 0002:00004460       ??_C@_1O@LIBPHGOH@?$AAU?$AAI?$AAD?$AAa?$AAt?$AAa@ 000000014008b460     storage_manager.obj
 0002:00004470       ??_C@_1CA@PMIJDFKD@?$AAE?$AAd?$AAi?$AAt?$AAo?$AAr?$AAW?$AAo?$AAr?$AAk?$AAs?$AAp?$AAa?$AAc?$AAe@ 000000014008b470     storage_manager.obj
 0002:00004490       ??_C@_1CC@IGHEDKD@?$AAu?$AAs?$AAe?$AAr?$AAp?$AAr?$AAo?$AAf?$AAi?$AAl?$AAe?$AA?4?$AAj?$AAs?$AAo@ 000000014008b490     storage_manager.obj
 0002:000044b4       ??_C@_03GOODKOKO@ini@      000000014008b4b4     storage_manager.obj
 0002:000044b8       ??_C@_1BA@KMCEMKEI@?$AAS?$AAt?$AAo?$AAr?$AAa?$AAg?$AAe@ 000000014008b4b8     storage_manager.obj
 0002:000044c8       ??_C@_1BG@DOPBBHOI@?$AAE?$AAn?$AAg?$AAi?$AAn?$AAe?$AAP?$AAa?$AAt?$AAh@ 000000014008b4c8     storage_manager.obj
 0002:000044e0       ??_C@_1O@OLFCBIPP@?$AAU?$AAI?$AAP?$AAa?$AAt?$AAh@ 000000014008b4e0     storage_manager.obj
 0002:000044f0       ??_C@_1BK@KIIIDJGH@?$AAC?$AAo?$AAm?$AAp?$AAi?$AAl?$AAe?$AAr?$AAP?$AAa?$AAt?$AAh@ 000000014008b4f0     storage_manager.obj
 0002:00004510       ??_C@_1BI@HCGPBLCP@?$AAA?$AAp?$AAp?$AAD?$AAa?$AAt?$AAa?$AAP?$AAa?$AAt?$AAh@ 000000014008b510     storage_manager.obj
 0002:00004528       ??_C@_1BC@EIAJDLIM@?$AAP?$AAo?$AAr?$AAt?$AAa?$AAb?$AAl?$AAe@ 000000014008b528     storage_manager.obj
 0002:00004540       ??_C@_1BK@BDLHIEGA@?$AAs?$AAe?$AAt?$AAt?$AAi?$AAn?$AAg?$AAs?$AA?4?$AAi?$AAn?$AAi@ 000000014008b540     storage_manager.obj
 0002:00004560       ??_C@_1BI@PJNLJJGH@?$AAR?$AAe?$AAg?$AAi?$AAs?$AAt?$AAr?$AAy?$AAK?$AAe?$AAy@ 000000014008b560     storage_manager.obj
 0002:00004578       ??_C@_0BK@LMMIEMIN@Missing?5RegistryKey?5value@ 000000014008b578     storage_manager.obj
 0002:00004598       ??_C@_0BK@NBAMLEHE@Invalid?5RegistryKey?5value@ 000000014008b598     storage_manager.obj
 0002:000045b8       ??_C@_0BO@LNGLPCAK@Unsupported?5RegistryKey?5value@ 000000014008b5b8     storage_manager.obj
 0002:000045d8       ??_C@_1O@OIKEGNDA@?$AAE?$AAn?$AAg?$AAi?$AAn?$AAe@ 000000014008b5d8     storage_manager.obj
 0002:000045e8       ??_C@_0BI@JCHAIIDN@app?2storage_manager?4cpp@ 000000014008b5e8     storage_manager.obj
 0002:00004608       ??_7?$__func@V<lambda_1>@?1???$ExpandEnvironmentStringsW@V?$basic_string@_WU?$char_traits@_W@std@@V?$allocator@_W@2@@std@@$0BAA@@wil@@YAJPEB_WAEAV?$basic_string@_WU?$char_traits@_W@std@@V?$allocator@_W@2@@std@@@Z@$$A6AJPEA_W_KPEA_K@Z@__function@wistd@@6B@ 000000014008b608     storage_manager.obj
 0002:00004630       ??_C@_0O@OGDGDABE@DllGetVersion@ 000000014008b630     task_manager_dlg.obj
 0002:00004640       ??_C@_1BK@JKBHGHPP@?$AAc?$AAo?$AAm?$AAc?$AAt?$AAl?$AA3?$AA2?$AA?4?$AAd?$AAl?$AAl@ 000000014008b640     task_manager_dlg.obj
 0002:00004660       ??_C@_1BI@BNFKGMFK@?$AAs?$AAh?$AAe?$AAl?$AAl?$AA3?$AA2?$AA?4?$AAd?$AAl?$AAl@ 000000014008b660     task_manager_dlg.obj
 0002:00004680       ??_7CSortListViewCtrl@WTL@@6B@ 000000014008b680     task_manager_dlg.obj
 0002:000046a0       ??_C@_0BH@DPNNDOEK@invalid?5stoul?5argument@ 000000014008b6a0     task_manager_dlg.obj
 0002:000046b8       ??_C@_0BM@MOLGGFGJ@stoul?5argument?5out?5of?5range@ 000000014008b6b8     task_manager_dlg.obj
 0002:000046d8       ??_C@_0BI@DIFNIIHI@invalid?5stoull?5argument@ 000000014008b6d8     task_manager_dlg.obj
 0002:000046f0       ??_C@_0BN@NGMOKJGA@stoull?5argument?5out?5of?5range@ 000000014008b6f0     task_manager_dlg.obj
 0002:00004710       ??_C@_0BI@LBKDNGFK@directory_entry?3?3status@ 000000014008b710     task_manager_dlg.obj
 0002:00004728       ??_C@_13BBDEGPLJ@?$AA?$CK@ 000000014008b728     task_manager_dlg.obj
 0002:00004730       ??_C@_0CH@GANCNKKD@directory_iterator?3?3directory_i@ 000000014008b730     task_manager_dlg.obj
 0002:00004758       ??_C@_0BP@DPMCMHCK@directory_iterator?3?3operator?$CL?$CL@ 000000014008b758     task_manager_dlg.obj
 0002:00004778       ??_C@_06OGCODMJI@exists@   000000014008b778     task_manager_dlg.obj
 0002:00004788       ??_7?$_Ref_count_obj2@U_Dir_enum_impl@filesystem@std@@@std@@6B@ 000000014008b788     task_manager_dlg.obj
 0002:000047b0       ??_7CTaskManagerDlg@@6B@   000000014008b7b0     task_manager_dlg.obj
 0002:000047d0       ?theMap@?1??GetDlgResizeMap@CTaskManagerDlg@@SAPEBU_AtlDlgResizeMap@WTL@@XZ@4QBU34@B 000000014008b7d0     task_manager_dlg.obj
 0002:000047e8       ??_C@_0BJ@POIAOFFH@app?2task_manager_dlg?4cpp@ 000000014008b7e8     task_manager_dlg.obj
 0002:00004808       ??_C@_1BG@GCBDAABL@?$AAP?$AAe?$AAn?$AAd?$AAi?$AAn?$AAg?$AA?4?$AA?4?$AA?4@ 000000014008b808     task_manager_dlg.obj
 0002:00004820       ??_C@_1BG@IPGMPLAM@?$AAL?$AAo?$AAa?$AAd?$AAi?$AAn?$AAg?$AA?4?$AA?4?$AA?4@ 000000014008b820     task_manager_dlg.obj
 0002:00004838       ??_C@_1O@JJDHCMCP@?$AAL?$AAo?$AAa?$AAd?$AAe?$AAd@ 000000014008b838     task_manager_dlg.obj
 0002:00004848       ??_C@_1BC@ILOENEMO@?$AAU?$AAn?$AAl?$AAo?$AAa?$AAd?$AAe?$AAd@ 000000014008b848     task_manager_dlg.obj
 0002:00004860       ??_C@_1CA@CPAJBOA@?$AAI?$AAn?$AAi?$AAt?$AAi?$AAa?$AAl?$AAi?$AAz?$AAi?$AAn?$AAg?$AA?4?$AA?4?$AA?4@ 000000014008b860     task_manager_dlg.obj
 0002:00004880       ??_C@_1CE@MNKCPMGJ@?$AAU?$AAn?$AAi?$AAn?$AAi?$AAt?$AAi?$AAa?$AAl?$AAi?$AAz?$AAi?$AAn?$AAg?$AA?4@ 000000014008b880     task_manager_dlg.obj
 0002:000048a8       ??_C@_1CG@GFPINLC@?$AAL?$AAo?$AAa?$AAd?$AAi?$AAn?$AAg?$AA?5?$AAs?$AAy?$AAm?$AAb?$AAo?$AAl?$AAs@ 000000014008b8a8     task_manager_dlg.obj
 0002:000048d0       ??_C@_1CO@BDIADPMN@?$AAW?$AAa?$AAi?$AAt?$AAi?$AAn?$AAg?$AA?5?$AAf?$AAo?$AAr?$AA?5?$AAs?$AAy?$AAm@ 000000014008b8d0     task_manager_dlg.obj
 0002:00004900       ??_C@_1BC@EBLNLBPD@?$AAW?$AAi?$AAn?$AAd?$AAh?$AAa?$AAw?$AAk@ 000000014008b900     task_manager_dlg.obj
 0002:00004918       ??_C@_1BM@BKHOCPPO@?$AA?$CF?$AAs?$AA?5?$AA?9?$AA?5?$AAW?$AAi?$AAn?$AAd?$AAh?$AAa?$AAw?$AAk@ 000000014008b918     task_manager_dlg.obj
 0002:00004938       ??_C@_0BK@GKDNNIAN@Failed?5to?5initialize?5data@ 000000014008b938     task_manager_dlg.obj
 0002:00004958       ??_C@_1BC@PKEHKAEB@?$AAE?$AAx?$AAp?$AAl?$AAo?$AAr?$AAe?$AAr@ 000000014008b958     task_manager_dlg.obj
 0002:00004970       ??_C@_17GFKDCKHB@?$AAM?$AAo?$AAd@ 000000014008b970     task_manager_dlg.obj
 0002:00004978       ??_C@_1BA@NMDNJJOO@?$AAP?$AAr?$AAo?$AAc?$AAe?$AAs?$AAs@ 000000014008b978     task_manager_dlg.obj
 0002:00004988       ??_C@_17PDNKEHJO@?$AAP?$AAI?$AAD@ 000000014008b988     task_manager_dlg.obj
 0002:00004990       ??_C@_1O@GGDILBNB@?$AAS?$AAt?$AAa?$AAt?$AAu?$AAs@ 000000014008b990     task_manager_dlg.obj
 0002:000049a0       ??_C@_0BO@FDIJOGHP@CTaskManagerDlg?3?3LoadTaskList@ 000000014008b9a0     task_manager_dlg.obj
 0002:000049c0       ??_C@_1DG@MMCMAG@?$AA?$FL?$AAW?$AAH?$AA?$FN?$AA?5?$AA?$FL?$AA?$CF?$AAS?$AA?$FN?$AA?3?$AA?5?$AAD?$AAi?$AAd?$AAn@ 000000014008b9c0     task_manager_dlg.obj
 0002:00004a00       ??_C@_1EE@JKLPPILI@?$AA?$FL?$AAW?$AAH?$AA?$FN?$AA?5?$AA?$FL?$AA?$CF?$AAS?$AA?$FN?$AA?3?$AA?5?$AAE?$AAr?$AAr?$AAo@ 000000014008ba00     task_manager_dlg.obj
 0002:00004a48       ??_C@_0BP@JJHLPBGN@CTaskManagerDlg?3?3AddItemToList@ 000000014008ba48     task_manager_dlg.obj
 0002:00004a70       ??_C@_1HM@CNOPFBI@?$AA?$FL?$AAW?$AAH?$AA?$FN?$AA?5?$AA?$FL?$AA?$CF?$AAS?$AA?$FN?$AA?3?$AA?5?$AAF?$AAa?$AAi?$AAl@ 000000014008ba70     task_manager_dlg.obj
 0002:00004af0       ??_C@_0BG@FJECJBNG@Failed?5to?5update?5data@ 000000014008baf0     task_manager_dlg.obj
 0002:00004b08       ??_C@_0CB@MAHLEBIN@CTaskManagerDlg?3?3RefreshTaskLis@ 000000014008bb08     task_manager_dlg.obj
 0002:00004b30       ??_C@_1BE@PNDFOHKG@?$AAS?$AAC?$AAR?$AAO?$AAL?$AAL?$AAB?$AAA?$AAR@ 000000014008bb30     task_manager_dlg.obj
 0002:00004b48       ??_C@_0BL@GOIGLPKN@unordered_map?1set?5too?5long@ 000000014008bb48     task_manager_dlg.obj
 0002:00004b68       ??_C@_0BK@OGNNAFAB@invalid?5hash?5bucket?5count@ 000000014008bb68     task_manager_dlg.obj
 0002:00004b84       __real@5f000000            000000014008bb84     task_manager_dlg.obj
 0002:00004b90       __xmm@00000009000000020000000400000007 000000014008bb90     task_manager_dlg.obj
 0002:00004ba0       __xmm@00000009000000070000000400000002 000000014008bba0     task_manager_dlg.obj
 0002:00004bb0       __xmm@0000000f000000100000000000000000 000000014008bbb0     task_manager_dlg.obj
 0002:00004bc0       ??_C@_0BJ@PGBLBGEK@telemetry?4telemetryLevel@ 000000014008bbc0     ui_control.obj
 0002:00004bdc       ??_C@_03MCADLMAF@off@      000000014008bbdc     ui_control.obj
 0002:00004be0       ??_C@_0M@MMHEJMLD@update?4mode@ 000000014008bbe0     ui_control.obj
 0002:00004bec       ??_C@_04CGFJFPFD@none@     000000014008bbec     ui_control.obj
 0002:00004bf8       ??_C@_0BI@HIFFHBC@update?4showReleaseNotes@ 000000014008bbf8     ui_control.obj
 0002:00004c10       ??_C@_0BM@BLMFDDMA@extensions?4autoCheckUpdates@ 000000014008bc10     ui_control.obj
 0002:00004c30       ??_C@_0BG@PGIPKGDN@extensions?4autoUpdate@ 000000014008bc30     ui_control.obj
 0002:00004c48       ??_C@_0P@ICHNIPJF@files?4autoSave@ 000000014008bc48     ui_control.obj
 0002:00004c58       ??_C@_0L@JEGLBFIM@afterDelay@ 000000014008bc58     ui_control.obj
 0002:00004c68       ??_C@_0N@FLBPNILH@window?4title@ 000000014008bc68     ui_control.obj
 0002:00004c78       ??_C@_0DD@PNNFOIAP@$?$HLdirty?$HN$?$HLactiveEditorShort?$HN$?$HLs@ 000000014008bc78     ui_control.obj
 0002:00004cb0       ??_C@_0BM@LDEMFJAC@workbench?4enableExperiments@ 000000014008bcb0     ui_control.obj
 0002:00004cd0       ??_C@_0CP@PGOAIKEJ@workbench?4settings?4enableNatura@ 000000014008bcd0     ui_control.obj
 0002:00004d00       ??_C@_0CC@HOBMJPBK@workbench?4editor?4restoreViewSta@ 000000014008bd00     ui_control.obj
 0002:00004d28       ??_C@_0BH@DMPKJFHH@workbench?4tips?4enabled@ 000000014008bd28     ui_control.obj
 0002:00004d40       ??_C@_0BI@LJPNMOFJ@workbench?4startupEditor@ 000000014008bd40     ui_control.obj
 0002:00004d58       ??_C@_0CA@DHHAGNBL@workbench?4layoutControl?4enabled@ 000000014008bd58     ui_control.obj
 0002:00004d78       ??_C@_0CB@PIBIPPH@security?4workspace?4trust?4enable@ 000000014008bd78     ui_control.obj
 0002:00004da0       ??_C@_0BK@MOGLOCBB@editor?4inlayHints?4enabled@ 000000014008bda0     ui_control.obj
 0002:00004dc0       ??_C@_0P@CBPLAKIJ@editor?4tabSize@ 000000014008bdc0     ui_control.obj
 0002:00004dd0       ??_C@_0BE@FBCOHNCN@editor?4insertSpaces@ 000000014008bdd0     ui_control.obj
 0002:00004de8       ??_C@_0BJ@FHGCPIJO@editor?4detectIndentation@ 000000014008bde8     ui_control.obj
 0002:00004e08       ??_C@_0M@DHEJECHH@clangd?4path@ 000000014008be08     ui_control.obj
 0002:00004e18       ??_C@_0CN@JDAGHHNA@$?$HLenv?3WINDHAWK_COMPILER_PATH?$HN?2b@ 000000014008be18     ui_control.obj
 0002:00004e48       ??_C@_0BB@FFBEGLIG@clangd?4arguments@ 000000014008be48     ui_control.obj
 0002:00004e60       ??_C@_0BI@DKAKOGEF@?9header?9insertion?$DNnever@ 000000014008be60     ui_control.obj
 0002:00004e78       ??_C@_0BE@PLFHOGOG@clangd?4checkUpdates@ 000000014008be78     ui_control.obj
 0002:00004e90       ??_C@_0BJ@HMIBANDA@window?4menuBarVisibility@ 000000014008be90     ui_control.obj
 0002:00004eb0       ??_C@_07HGKHBOGE@compact@  000000014008beb0     ui_control.obj
 0002:00004eb8       ??_C@_0BO@BICJBGPI@workbench?4activityBar?4visible@ 000000014008beb8     ui_control.obj
 0002:00004ed8       ??_C@_0BK@LCHNPMBN@workbench?4editor?4showTabs@ 000000014008bed8     ui_control.obj
 0002:00004ef8       ??_C@_0BM@MJHMCILM@workbench?4statusBar?4visible@ 000000014008bef8     ui_control.obj
 0002:00004f18       ??_C@_0M@BLENOGBP@git?4enabled@ 000000014008bf18     ui_control.obj
 0002:00004f28       ??_C@_0BB@NMDMFOLN@git?4showProgress@ 000000014008bf28     ui_control.obj
 0002:00004f40       ??_C@_0BI@NNKGMFCJ@git?4decorations?4enabled@ 000000014008bf40     ui_control.obj
 0002:00004f58       ??_C@_0BM@NBKFPGAL@git?4ignoreMissingGitWarning@ 000000014008bf58     ui_control.obj
 0002:00004f78       ??_C@_0BI@KBHMFGCG@git?4ignoreLegacyWarning@ 000000014008bf78     ui_control.obj
 0002:00004f90       ??_C@_0BO@GEMOAFBI@git?4ignoreWindowsGit27Warning@ 000000014008bf90     ui_control.obj
 0002:00004fb0       ??_C@_0EO@MCPBOCMC@$?$HLenv?3WINDHAWK_UI_PATH?$HN?2resourc@ 000000014008bfb0     ui_control.obj
 0002:00005000       ??_C@_13FPGAJAPJ@?$AA?2@   000000014008c000     ui_control.obj
 0002:00005010       ??_7_Iostream_error_category2@std@@6B@ 000000014008c010     ui_control.obj
 0002:00005040       ??_C@_08LLGCOLLL@iostream@ 000000014008c040     ui_control.obj
 0002:00005050       ?_Iostream_error@?4??message@_Iostream_error_category2@std@@UEBA?AV?$basic_string@DU?$char_traits@D@std@@V?$allocator@D@2@@3@H@Z@4QBDB 000000014008c050     ui_control.obj
 0002:00005070       ??_7bad_cast@std@@6B@      000000014008c070     ui_control.obj
 0002:00005080       ??_C@_08EPJLHIJG@bad?5cast@ 000000014008c080     ui_control.obj
 0002:00005098       ??_7_Facet_base@std@@6B@   000000014008c098     ui_control.obj
 0002:000050b0       ??_C@_0BA@ELKIONDK@bad?5locale?5name@ 000000014008c0b0     ui_control.obj
 0002:000050c0       ??_C@_05LAPONLG@false@     000000014008c0c0     ui_control.obj
 0002:000050c8       ??_C@_04LOAJBDKD@true@     000000014008c0c8     ui_control.obj
 0002:000050d8       ??_7?$ctype@D@std@@6B@     000000014008c0d8     ui_control.obj
 0002:00005138       ??_7failure@ios_base@std@@6B@ 000000014008c138     ui_control.obj
 0002:00005150       ??_7ios_base@std@@6B@      000000014008c150     ui_control.obj
 0002:00005158       ??_C@_0BF@PHHKMMFD@ios_base?3?3badbit?5set@ 000000014008c158     ui_control.obj
 0002:00005170       ??_C@_0BG@FMKFHCIL@ios_base?3?3failbit?5set@ 000000014008c170     ui_control.obj
 0002:00005188       ??_C@_0BF@OOHOMBOF@ios_base?3?3eofbit?5set@ 000000014008c188     ui_control.obj
 0002:000051a0       ??_C@_01LFCBOECM@?4@       000000014008c1a0     ui_control.obj
 0002:000051b0       ??_7?$basic_ios@DU?$char_traits@D@std@@@std@@6B@ 000000014008c1b0     ui_control.obj
 0002:000051c0       ??_7?$basic_ostream@DU?$char_traits@D@std@@@std@@6B@ 000000014008c1c0     ui_control.obj
 0002:000051d0       ??_7?$basic_streambuf@DU?$char_traits@D@std@@@std@@6B@ 000000014008c1d0     ui_control.obj
 0002:00005248       ??_C@_0BD@EPABGGCG@create_directories@ 000000014008c248     ui_control.obj
 0002:00005268       ??_7exception@detail@nlohmann@@6B@ 000000014008c268     ui_control.obj
 0002:00005278       ??_C@_02PBFOLPKM@?$FN?5@   000000014008c278     ui_control.obj
 0002:00005280       ??_C@_0BB@DHAIOKED@?$FLjson?4exception?4@ 000000014008c280     ui_control.obj
 0002:000052a0       ??_7parse_error@detail@nlohmann@@6B@ 000000014008c2a0     ui_control.obj
 0002:000052b0       ??_C@_0M@BJIBBOFC@parse?5error@ 000000014008c2b0     ui_control.obj
 0002:000052c0       ??_C@_0M@DKBLOJA@parse_error@ 000000014008c2c0     ui_control.obj
 0002:000052d0       ??_C@_09LIPKCAOI@?0?5column?5@ 000000014008c2d0     ui_control.obj
 0002:000052e0       ??_C@_09BEOCNAAM@?5at?5line?5@ 000000014008c2e0     ui_control.obj
 0002:000052f8       ??_7invalid_iterator@detail@nlohmann@@6B@ 000000014008c2f8     ui_control.obj
 0002:00005308       ??_C@_0BB@NIGHFCLN@invalid_iterator@ 000000014008c308     ui_control.obj
 0002:00005328       ??_7type_error@detail@nlohmann@@6B@ 000000014008c328     ui_control.obj
 0002:00005338       ??_C@_0L@CJHFOHFM@type_error@ 000000014008c338     ui_control.obj
 0002:00005350       ??_7out_of_range@detail@nlohmann@@6B@ 000000014008c350     ui_control.obj
 0002:00005360       ??_C@_0N@EPJFPCBB@out_of_range@ 000000014008c360     ui_control.obj
 0002:00005378       ??_7other_error@detail@nlohmann@@6B@ 000000014008c378     ui_control.obj
 0002:00005388       ??_C@_0M@DLKELGHM@other_error@ 000000014008c388     ui_control.obj
 0002:000053a0       ??_7?$basic_istream@DU?$char_traits@D@std@@@std@@6B@ 000000014008c3a0     ui_control.obj
 0002:000053b0       ?kCachedPowers@?1??get_cached_power_for_binary_exponent@dtoa_impl@detail@nlohmann@@YA?AUcached_power@234@H@Z@4V?$array@Ucached_power@dtoa_impl@detail@nlohmann@@$0EP@@std@@B 000000014008c3b0     ui_control.obj
 0002:000058a0       ??_C@_0CF@GKBMNDBC@shared?2libraries?2wil?2result_mac@ 000000014008c8a0     ui_control.obj
 0002:000058c8       ??_C@_05MFEJDJP@value@     000000014008c8c8     ui_control.obj
 0002:000058d0       ??_C@_0BB@GBBPBDAB@cannot?5get?5value@ 000000014008c8d0     ui_control.obj
 0002:000058e4       ??_C@_01GEODFPGF@?8@       000000014008c8e4     ui_control.obj
 0002:000058e8       ??_C@_0L@GEOKNAJI@object?5key@ 000000014008c8e8     ui_control.obj
 0002:000058f8       ??_C@_0BB@NAEMOGCE@object?5separator@ 000000014008c8f8     ui_control.obj
 0002:00005910       ??_C@_0BK@GBHGKIGD@number?5overflow?5parsing?5?8@ 000000014008c910     ui_control.obj
 0002:0000592c       ??_C@_05HIFJDKLD@array@    000000014008c92c     ui_control.obj
 0002:00005934       ??_C@_06IEOJBDIK@object@   000000014008c934     ui_control.obj
 0002:00005940       ??_C@_08HEDMEGDA@?$DMU?$CL?$CF?44X?$DO@ 000000014008c940     ui_control.obj
 0002:00005950       ??_C@_0O@DLFJJHJG@syntax?5error?5@ 000000014008c950     ui_control.obj
 0002:00005960       ??_C@_01CLKCMJKC@?5@       000000014008c960     ui_control.obj
 0002:00005968       ??_C@_0P@ENHBMBLC@while?5parsing?5@ 000000014008c968     ui_control.obj
 0002:00005978       ??_C@_02KFKPNHPM@?9?5@     000000014008c978     ui_control.obj
 0002:00005980       ??_C@_0P@CPMJEHAD@?$DL?5last?5read?3?5?8@ 000000014008c980     ui_control.obj
 0002:00005990       ??_C@_0M@GHJKFFPF@unexpected?5@ 000000014008c990     ui_control.obj
 0002:000059a0       ??_C@_0M@DKPGADPC@?$DL?5expected?5@ 000000014008c9a0     ui_control.obj
 0002:000059b0       ??_C@_0CK@IFEIPALN@cannot?5use?5key?$CI?$CJ?5for?5non?9object@ 000000014008c9b0     ui_control.obj
 0002:000059e0       ??_C@_0DB@MMKEGCHK@cannot?5compare?5iterators?5of?5dif@ 000000014008c9e0     ui_control.obj
 0002:00005a14       ??_C@_04MLLLIHIP@null@     000000014008ca14     ui_control.obj
 0002:00005a1c       ??_C@_06ICGJLFIM@string@   000000014008ca1c     ui_control.obj
 0002:00005a28       ??_C@_07GOBOHMJA@boolean@  000000014008ca28     ui_control.obj
 0002:00005a30       ??_C@_06FNFBAEBE@binary@   000000014008ca30     ui_control.obj
 0002:00005a38       ??_C@_09BHELGMBL@discarded@ 000000014008ca38     ui_control.obj
 0002:00005a44       ??_C@_06EBGNBFIA@number@   000000014008ca44     ui_control.obj
 0002:00005a50       ??_C@_0BH@FCBMNGHJ@excessive?5array?5size?3?5@ 000000014008ca50     ui_control.obj
 0002:00005a68       ??_C@_0BI@JLEGJFPM@excessive?5object?5size?3?5@ 000000014008ca68     ui_control.obj
 0002:00005a80       ??_C@_0CN@IONLHPJF@invalid?5BOM?$DL?5must?5be?50xEF?50xBB?5@ 000000014008ca80     ui_control.obj
 0002:00005ab0       ??_C@_0BA@NMKHNIFD@invalid?5literal@ 000000014008cab0     ui_control.obj
 0002:00005ac0       ??_C@_0CP@HEACOJGN@961c151d2e87f2686a955a9be24d316@ 000000014008cac0     ui_control.obj
 0002:00005af0       ??_C@_0BA@JFDABGPH@?$DMuninitialized?$DO@ 000000014008caf0     ui_control.obj
 0002:00005b00       ??_C@_0N@GBJNOFKB@true?5literal@ 000000014008cb00     ui_control.obj
 0002:00005b10       ??_C@_0O@GPPJPPBD@false?5literal@ 000000014008cb10     ui_control.obj
 0002:00005b20       ??_C@_0N@LCPDBNFG@null?5literal@ 000000014008cb20     ui_control.obj
 0002:00005b30       ??_C@_0P@JJFCJNC@string?5literal@ 000000014008cb30     ui_control.obj
 0002:00005b40       ??_C@_0P@CMLFDPOO@number?5literal@ 000000014008cb40     ui_control.obj
 0002:00005b50       ??_C@_03FJHCMEFA@?8?$FL?8@ 000000014008cb50     ui_control.obj
 0002:00005b54       ??_C@_03GBDPICLA@?8?$HL?8@ 000000014008cb54     ui_control.obj
 0002:00005b58       ??_C@_03FNPPLIOC@?8?$FN?8@ 000000014008cb58     ui_control.obj
 0002:00005b5c       ??_C@_03GFLCPOAC@?8?$HN?8@ 000000014008cb5c     ui_control.obj
 0002:00005b60       ??_C@_03BAGHGFEH@?8?3?8@   000000014008cb60     ui_control.obj
 0002:00005b64       ??_C@_03IMMLKIF@?8?0?8@    000000014008cb64     ui_control.obj
 0002:00005b68       ??_C@_0O@JLFFEAGH@?$DMparse?5error?$DO@ 000000014008cb68     ui_control.obj
 0002:00005b78       ??_C@_0N@KMCIHGPC@end?5of?5input@ 000000014008cb78     ui_control.obj
 0002:00005b88       ??_C@_0BH@EOPOIFBB@?8?$FL?8?0?5?8?$HL?8?0?5or?5a?5literal@ 000000014008cb88     ui_control.obj
 0002:00005ba0       ??_C@_0O@IDJJBCJJ@unknown?5token@ 000000014008cba0     ui_control.obj
 0002:00005bb0       ??_C@_0CE@BGJPELCC@iterator?5does?5not?5fit?5current?5v@ 000000014008cbb0     ui_control.obj
 0002:00005bd8       ??_C@_0BG@OAOABPIO@iterator?5out?5of?5range@ 000000014008cbd8     ui_control.obj
 0002:00005bf0       ??_C@_0BJ@NPKCAHHP@cannot?5use?5erase?$CI?$CJ?5with?5@ 000000014008cbf0     ui_control.obj
 0002:00005c10       ??_C@_0CJ@CDLKIENK@invalid?5number?$DL?5expected?5digit?5@ 000000014008cc10     ui_control.obj
 0002:00005c40       ??_C@_0CJ@CBPMDKID@invalid?5number?$DL?5expected?5digit?5@ 000000014008cc40     ui_control.obj
 0002:00005c70       ??_C@_0DL@FABMJCCP@invalid?5number?$DL?5expected?5?8?$CL?8?0?5?8@ 000000014008cc70     ui_control.obj
 0002:00005cb0       ??_C@_0DD@LINOMLFL@invalid?5number?$DL?5expected?5digit?5@ 000000014008ccb0     ui_control.obj
 0002:00005ce8       ??_C@_0CG@NNDMIEDH@invalid?5comment?$DL?5missing?5closin@ 000000014008cce8     ui_control.obj
 0002:00005d10       ??_C@_0DA@PAGCIHNF@invalid?5comment?$DL?5expecting?5?8?1?8?5@ 000000014008cd10     ui_control.obj
 0002:00005d40       ??_C@_0CG@MLGKFPBE@invalid?5string?3?5missing?5closing@ 000000014008cd40     ui_control.obj
 0002:00005d68       ??_C@_0DG@LMKKCLLH@invalid?5string?3?5?8?2u?8?5must?5be?5fo@ 000000014008cd68     ui_control.obj
 0002:00005da0       ??_C@_0EM@NBBIGKDA@invalid?5string?3?5surrogate?5U?$CLD80@ 000000014008cda0     ui_control.obj
 0002:00005df0       ??_C@_0EE@JEFCKMMK@invalid?5string?3?5surrogate?5U?$CLDC0@ 000000014008cdf0     ui_control.obj
 0002:00005e38       ??_C@_0DE@FDKDLPFL@invalid?5string?3?5forbidden?5chara@ 000000014008ce38     ui_control.obj
 0002:00005e70       ??_C@_0EJ@NABLKLLF@invalid?5string?3?5control?5charact@ 000000014008ce70     ui_control.obj
 0002:00005ec0       ??_C@_0EJ@CGIOMNAN@invalid?5string?3?5control?5charact@ 000000014008cec0     ui_control.obj
 0002:00005f10       ??_C@_0EJ@OKNGOHIK@invalid?5string?3?5control?5charact@ 000000014008cf10     ui_control.obj
 0002:00005f60       ??_C@_0EJ@BPGBHIAL@invalid?5string?3?5control?5charact@ 000000014008cf60     ui_control.obj
 0002:00005fb0       ??_C@_0EJ@FKCGPJCG@invalid?5string?3?5control?5charact@ 000000014008cfb0     ui_control.obj
 0002:00006000       ??_C@_0EJ@GPLGMBKM@invalid?5string?3?5control?5charact@ 000000014008d000     ui_control.obj
 0002:00006050       ??_C@_0EJ@JAMEJLH@invalid?5string?3?5control?5charact@ 000000014008d050     ui_control.obj
 0002:000060a0       ??_C@_0EJ@FMJJFDDO@invalid?5string?3?5control?5charact@ 000000014008d0a0     ui_control.obj
 0002:000060f0       ??_C@_0EO@HAMNCDCJ@invalid?5string?3?5control?5charact@ 000000014008d0f0     ui_control.obj
 0002:00006140       ??_C@_0EO@GMAPOODH@invalid?5string?3?5control?5charact@ 000000014008d140     ui_control.obj
 0002:00006190       ??_C@_0EO@BDKKLBCN@invalid?5string?3?5control?5charact@ 000000014008d190     ui_control.obj
 0002:000061e0       ??_C@_0EI@DPPPKLPC@invalid?5string?3?5control?5charact@ 000000014008d1e0     ui_control.obj
 0002:00006230       ??_C@_0EO@IFHEDFEP@invalid?5string?3?5control?5charact@ 000000014008d230     ui_control.obj
 0002:00006280       ??_C@_0EO@PJJBEEPG@invalid?5string?3?5control?5charact@ 000000014008d280     ui_control.obj
 0002:000062d0       ??_C@_0EI@LAJMIDAP@invalid?5string?3?5control?5charact@ 000000014008d2d0     ui_control.obj
 0002:00006320       ??_C@_0EI@FBMHLBEA@invalid?5string?3?5control?5charact@ 000000014008d320     ui_control.obj
 0002:00006370       ??_C@_0EJ@MNJGJMON@invalid?5string?3?5control?5charact@ 000000014008d370     ui_control.obj
 0002:000063c0       ??_C@_0EJ@MKMIGOL@invalid?5string?3?5control?5charact@ 000000014008d3c0     ui_control.obj
 0002:00006410       ??_C@_0EJ@OPAPENBO@invalid?5string?3?5control?5charact@ 000000014008d410     ui_control.obj
 0002:00006460       ??_C@_0EJ@LBJBPEEN@invalid?5string?3?5control?5charact@ 000000014008d460     ui_control.obj
 0002:000064b0       ??_C@_0EJ@PDDJNMLF@invalid?5string?3?5control?5charact@ 000000014008d4b0     ui_control.obj
 0002:00006500       ??_C@_0EJ@KGLCIOHO@invalid?5string?3?5control?5charact@ 000000014008d500     ui_control.obj
 0002:00006550       ??_C@_0EJ@DANDDHBM@invalid?5string?3?5control?5charact@ 000000014008d550     ui_control.obj
 0002:000065a0       ??_C@_0EJ@MJEDHOMH@invalid?5string?3?5control?5charact@ 000000014008d5a0     ui_control.obj
 0002:000065f0       ??_C@_0EJ@CMNKNMME@invalid?5string?3?5control?5charact@ 000000014008d5f0     ui_control.obj
 0002:00006640       ??_C@_0EI@PODKIIEG@invalid?5string?3?5control?5charact@ 000000014008d640     ui_control.obj
 0002:00006690       ??_C@_0EJ@GHGHBGJE@invalid?5string?3?5control?5charact@ 000000014008d690     ui_control.obj
 0002:000066e0       ??_C@_0EJ@DKHNKOP@invalid?5string?3?5control?5charact@ 000000014008d6e0     ui_control.obj
 0002:00006730       ??_C@_0EI@LHNMAEPO@invalid?5string?3?5control?5charact@ 000000014008d730     ui_control.obj
 0002:00006780       ??_C@_0EI@EECAIDOI@invalid?5string?3?5control?5charact@ 000000014008d780     ui_control.obj
 0002:000067d0       ??_C@_0EI@NGMGHBHA@invalid?5string?3?5control?5charact@ 000000014008d7d0     ui_control.obj
 0002:00006820       ??_C@_0EI@BDNODKJO@invalid?5string?3?5control?5charact@ 000000014008d820     ui_control.obj
 0002:00006868       ??_C@_0CG@DBODJMKB@invalid?5string?3?5ill?9formed?5UTF?9@ 000000014008d868     ui_control.obj
 0002:00006890       ??_C@_0BG@EOMJEIFA@vector?$DMbool?$DO?5too?5long@ 000000014008d890     ui_control.obj
 0002:000068b0       ??_7?$basic_filebuf@DU?$char_traits@D@std@@@std@@6B@ 000000014008d8b0     ui_control.obj
 0002:00006930       ??_7?$basic_ifstream@DU?$char_traits@D@std@@@std@@6B@ 000000014008d930     ui_control.obj
 0002:00006938       ??_8?$basic_ifstream@DU?$char_traits@D@std@@@std@@7B@ 000000014008d938     ui_control.obj
 0002:00006948       ??_7?$basic_ofstream@DU?$char_traits@D@std@@@std@@6B@ 000000014008d948     ui_control.obj
 0002:00006950       ??_8?$basic_ofstream@DU?$char_traits@D@std@@@std@@7B@ 000000014008d950     ui_control.obj
 0002:00006958       ??_C@_19PIJILKAI@?$AAU?$AAs?$AAe?$AAr@ 000000014008d958     ui_control.obj
 0002:00006968       ??_C@_1BE@COGPIAIO@?$AAu?$AAs?$AAe?$AAr?$AA?9?$AAd?$AAa?$AAt?$AAa@ 000000014008d968     ui_control.obj
 0002:00006980       ??_C@_1BM@IOABMDPN@?$AAs?$AAe?$AAt?$AAt?$AAi?$AAn?$AAg?$AAs?$AA?4?$AAj?$AAs?$AAo?$AAn@ 000000014008d980     ui_control.obj
 0002:000069a0       ??_C@_0CJ@DOKNNELK@?$GAanonymous?9namespace?8?3?3PrepareU@ 000000014008d9a0     ui_control.obj
 0002:000069d0       ??_C@_1FK@IMAJPNNI@?$AA?$FL?$AAW?$AAH?$AA?$FN?$AA?5?$AA?$FL?$AA?$CF?$AAS?$AA?$FN?$AA?3?$AA?5?$AAP?$AAa?$AAr?$AAs@ 000000014008d9d0     ui_control.obj
 0002:00006a30       ??_C@_0BA@JBBGLKFP@IsWow64Process2@ 000000014008da30     ui_control.obj
 0002:00006a40       ??_C@_1CA@KJBFCFLP@?$AAV?$AAS?$AAC?$AAO?$AAD?$AAE?$AA_?$AAP?$AAO?$AAR?$AAT?$AAA?$AAB?$AAL?$AAE@ 000000014008da40     ui_control.obj
 0002:00006a60       ??_C@_1CC@IELEFHGN@?$AAW?$AAI?$AAN?$AAD?$AAH?$AAA?$AAW?$AAK?$AA_?$AAU?$AAI?$AA_?$AAP?$AAA?$AAT@ 000000014008da60     ui_control.obj
 0002:00006a88       ??_C@_1CO@GMMELMOG@?$AAW?$AAI?$AAN?$AAD?$AAH?$AAA?$AAW?$AAK?$AA_?$AAC?$AAO?$AAM?$AAP?$AAI?$AAL@ 000000014008da88     ui_control.obj
 0002:00006ab8       ??_C@_13JGCMLPCH@?$AA1@    000000014008dab8     ui_control.obj
 0002:00006ac0       ??_C@_1CO@EDKHIOBL@?$AAW?$AAI?$AAN?$AAD?$AAH?$AAA?$AAW?$AAK?$AA_?$AAA?$AAR?$AAM?$AA6?$AA4?$AA_@ 000000014008dac0     ui_control.obj
 0002:00006af0       ??_C@_1BK@FCDPLLNM@?$AAV?$AAS?$AAC?$AAo?$AAd?$AAi?$AAu?$AAm?$AA?4?$AAe?$AAx?$AAe@ 000000014008daf0     ui_control.obj
 0002:00006b10       ??_C@_1BC@HINCHJAG@?$AAC?$AAo?$AAd?$AAe?$AA?4?$AAe?$AAx?$AAe@ 000000014008db10     ui_control.obj
 0002:00006b28       ??_C@_0BD@FMAEFMJL@app?2ui_control?4cpp@ 000000014008db28     ui_control.obj
 0002:00006b40       ??_C@_1GC@LAJHLGAA@?$AA?$CC?$AA?5?$AA?9?$AA?9?$AAl?$AAo?$AAc?$AAa?$AAl?$AAe?$AA?$DN?$AAe?$AAn?$AA?5?$AA?9@ 000000014008db40     ui_control.obj
 0002:00006ba8       ??_C@_17CMBJCHDO@?$AA?$CC?$AA?5?$AA?$CC@ 000000014008dba8     ui_control.obj
 0002:00006bb0       ??_C@_1CE@LGBOBMIL@?$AAW?$AAi?$AAn?$AAd?$AAh?$AAa?$AAw?$AAk?$AAR?$AAu?$AAn?$AAU?$AAI?$AAT?$AAa@ 000000014008dbb0     ui_control.obj
 0002:00006bd8       ??_C@_1CG@JLODHMDF@?$AAC?$AAh?$AAr?$AAo?$AAm?$AAe?$AA_?$AAW?$AAi?$AAd?$AAg?$AAe?$AAt?$AAW?$AAi@ 000000014008dbd8     ui_control.obj
 0002:00006c00       ??_C@_0DF@NOFIFNJC@UIControl?3?3GetOpenUIWindows?3?3?$DMl@ 000000014008dc00     ui_control.obj
 0002:00006c40       ??_C@_1HI@PANMPPBF@?$AA?$FL?$AAW?$AAH?$AA?$FN?$AA?5?$AA?$FL?$AA?$CF?$AAS?$AA?$FN?$AA?3?$AA?5?$AAE?$AAn?$AAu?$AAm@ 000000014008dc40     ui_control.obj
 0002:00006cb8       ??_C@_0BP@KCJIFGG@UIControl?3?3RunUIOrBringToFront@ 000000014008dcb8     ui_control.obj
 0002:00006ce0       ??_C@_1FA@GJOGPHGK@?$AA?$FL?$AAW?$AAH?$AA?$FN?$AA?5?$AA?$FL?$AA?$CF?$AAS?$AA?$FN?$AA?3?$AA?5?$AAR?$AAu?$AAn?$AAU@ 000000014008dce0     ui_control.obj
 0002:00006d30       _GUID_2faba4c7_4da9_4013_9697_20cc3fd40f85 000000014008dd30     ui_control.obj
 0002:00006d40       ??_C@_0DD@MKOBOCJE@cannot?5use?5operator?$FL?$FN?5with?5a?5st@ 000000014008dd40     ui_control.obj
 0002:00006d78       ??_C@_0CL@PMFMHANH@cannot?5create?5object?5from?5initi@ 000000014008dd78     ui_control.obj
 0002:00006db0       ??_7?$codecvt@DDU_Mbstatet@@@std@@6B@ 000000014008ddb0     ui_control.obj
 0002:00006e00       ??_C@_02MCILKGOH@?$HL?$HN@ 000000014008de00     ui_control.obj
 0002:00006e04       ??_C@_02KCPFEJNG@?$HL?6@   000000014008de04     ui_control.obj
 0002:00006e08       ??_C@_03GIPIADLC@?$CC?3?5@ 000000014008de08     ui_control.obj
 0002:00006e0c       ??_C@_02MLAGHBOD@?0?6@     000000014008de0c     ui_control.obj
 0002:00006e10       ??_C@_02BONOGKBK@?$CC?3@   000000014008de10     ui_control.obj
 0002:00006e14       ??_C@_02GPECMEKF@?$FL?$FN@ 000000014008de14     ui_control.obj
 0002:00006e18       ??_C@_02JKLIAPDG@?$FL?6@   000000014008de18     ui_control.obj
 0002:00006e20       ??_C@_0L@PKCNPMFP@?$CCbytes?$CC?3?5?$FL@ 000000014008de20     ui_control.obj
 0002:00006e2c       ??_C@_02KEGNLNML@?0?5@     000000014008de2c     ui_control.obj
 0002:00006e30       ??_C@_03CMGEKAJC@?$FN?0?6@ 000000014008de30     ui_control.obj
 0002:00006e38       ??_C@_0M@MIEMHDME@?$CCsubtype?$CC?3?5@ 000000014008de38     ui_control.obj
 0002:00006e48       ??_C@_0L@EHLNBIHC@?$HL?$CCbytes?$CC?3?$FL@ 000000014008de48     ui_control.obj
 0002:00006e58       ??_C@_0N@JHCCFCOC@?$FN?0?$CCsubtype?$CC?3@ 000000014008de58     ui_control.obj
 0002:00006e68       ??_C@_05OHFNCCIN@null?$HN@ 000000014008de68     ui_control.obj
 0002:00006e70       ??_C@_0M@MKMGJFPL@?$DMdiscarded?$DO@ 000000014008de70     ui_control.obj
 0002:00006e88       ??_7?$output_stream_adapter@D@detail@nlohmann@@6B@ 000000014008de88     ui_control.obj
 0002:00006ea0       ?digits_to_99@?1???$dump_integer@E$0A@@?$serializer@V?$basic_json@Uordered_map@nlohmann@@Vvector@std@@V?$basic_string@DU?$char_traits@D@std@@V?$allocator@D@2@@4@_N_J_KNVallocator@4@Uadl_serializer@2@V?$vector@EV?$allocator@E@std@@@4@@nlohmann@@@detail@nlohmann@@AEAAXE@Z@4V?$array@V?$array@D$01@std@@$0GE@@std@@B 000000014008dea0     ui_control.obj
 0002:00006f70       ?digits_to_99@?1???$dump_integer@_J$0A@@?$serializer@V?$basic_json@Uordered_map@nlohmann@@Vvector@std@@V?$basic_string@DU?$char_traits@D@std@@V?$allocator@D@2@@4@_N_J_KNVallocator@4@Uadl_serializer@2@V?$vector@EV?$allocator@E@std@@@4@@nlohmann@@@detail@nlohmann@@AEAAX_J@Z@4V?$array@V?$array@D$01@std@@$0GE@@std@@B 000000014008df70     ui_control.obj
 0002:00007040       ?digits_to_99@?1???$dump_integer@_K$0A@@?$serializer@V?$basic_json@Uordered_map@nlohmann@@Vvector@std@@V?$basic_string@DU?$char_traits@D@std@@V?$allocator@D@2@@4@_N_J_KNVallocator@4@Uadl_serializer@2@V?$vector@EV?$allocator@E@std@@@4@@nlohmann@@@detail@nlohmann@@AEAAX_K@Z@4V?$array@V?$array@D$01@std@@$0GE@@std@@B 000000014008e040     ui_control.obj
 0002:00007110       ??_7?$_Ref_count_obj2@V?$output_stream_adapter@D@detail@nlohmann@@@std@@6B@ 000000014008e110     ui_control.obj
 0002:00007130       ??_C@_06OAIHNJFH@?2u?$CF04x@ 000000014008e130     ui_control.obj
 0002:00007138       ??_C@_0N@MOBGICJD@?2u?$CF04x?2u?$CF04x@ 000000014008e138     ui_control.obj
 0002:00007148       ??_C@_04CFJMJGDJ@?$CF?42X@ 000000014008e148     ui_control.obj
 0002:00007150       ??_C@_04LBPDBBJF@?3?50x@   000000014008e150     ui_control.obj
 0002:00007158       ??_C@_0BN@FGKMDFDN@invalid?5UTF?98?5byte?5at?5index?5@ 000000014008e158     ui_control.obj
 0002:00007178       ??_C@_0CH@OBGEFBNA@incomplete?5UTF?98?5string?$DL?5last?5b@ 000000014008e178     ui_control.obj
 0002:000071a0       ??_C@_06JIPNAMDD@?2ufffd@  000000014008e1a0     ui_control.obj
 0002:000071a8       ??_C@_03MPMOBIFF@?o?$LP?$LN@ 000000014008e1a8     ui_control.obj
 0002:000071b0       ?utf8d@?1??decode@?$serializer@V?$basic_json@Uordered_map@nlohmann@@Vvector@std@@V?$basic_string@DU?$char_traits@D@std@@V?$allocator@D@2@@4@_N_J_KNVallocator@4@Uadl_serializer@2@V?$vector@EV?$allocator@E@std@@@4@@nlohmann@@@detail@nlohmann@@CAEAEAEAEAIE@Z@4V?$array@E$0BJA@@std@@B 000000014008e1b0     ui_control.obj
 0002:00007340       __xmm@000000000000000f0000000000000000 000000014008e340     ui_control.obj
 0002:00007350       __xmm@000000000000000f0000000000000001 000000014008e350     ui_control.obj
 0002:00007360       __xmm@000000000000000f0000000000000005 000000014008e360     ui_control.obj
 0002:00007370       __xmm@000000000000000f0000000000000006 000000014008e370     ui_control.obj
 0002:00007380       __xmm@000000000000000f000000000000000a 000000014008e380     ui_control.obj
 0002:00007390       __xmm@000000000000000f000000000000000b 000000014008e390     ui_control.obj
 0002:000073a0       __xmm@000000000000000f000000000000000c 000000014008e3a0     ui_control.obj
 0002:000073b0       __xmm@000000000000001f0000000000000010 000000014008e3b0     ui_control.obj
 0002:000073c0       __xmm@000000000000020f0000000000000200 000000014008e3c0     ui_control.obj
 0002:000073d0       __xmm@000000bf000000800000008f00000080 000000014008e3d0     ui_control.obj
 0002:000073e0       __xmm@000000bf000000800000009f00000080 000000014008e3e0     ui_control.obj
 0002:000073f0       __xmm@000000bf00000080000000bf00000080 000000014008e3f0     ui_control.obj
 0002:00007400       __xmm@000000bf00000080000000bf00000090 000000014008e400     ui_control.obj
 0002:00007410       __xmm@000000bf00000080000000bf000000a0 000000014008e410     ui_control.obj
 0002:00007420       __xmm@80000000000000008000000000000000 000000014008e420     ui_control.obj
 0002:00007430       ??_C@_0BG@GBJCDJOP@CreateFileTransactedW@ 000000014008e430     update_checker.obj
 0002:00007450       ??_7CSession@WinHTTPWrappers@@6B@ 000000014008e450     update_checker.obj
 0002:00007470       ??_7CConnection@WinHTTPWrappers@@6B@ 000000014008e470     update_checker.obj
 0002:00007490       ??_C@_1FE@CMMDNGN@?$AAh?$AAt?$AAt?$AAp?$AAs?$AA?3?$AA?1?$AA?1?$AAu?$AAp?$AAd?$AAa?$AAt?$AAe?$AA?4@ 000000014008e490     update_checker.obj
 0002:000074e8       ??_C@_1CC@MEDHCMFN@?$AAW?$AAi?$AAn?$AAd?$AAh?$AAa?$AAw?$AAk?$AA?1?$AA1?$AA?4?$AA7?$AA?4?$AA3?$AA?5@ 000000014008e4e8     update_checker.obj
 0002:00007510       ??_C@_1BG@GBNCPONI@?$AA?$DL?$AA?5?$AAp?$AAo?$AAr?$AAt?$AAa?$AAb?$AAl?$AAe@ 000000014008e510     update_checker.obj
 0002:00007528       ??_C@_13DIBMAFH@?$AA?$CJ@  000000014008e528     update_checker.obj
 0002:00007530       ??_C@_19JLKJCDCM@?$AAP?$AAO?$AAS?$AAT@ 000000014008e530     update_checker.obj
 0002:00007540       ??_C@_1DO@PAKGOMDL@?$AAC?$AAo?$AAn?$AAt?$AAe?$AAn?$AAt?$AA?9?$AAT?$AAy?$AAp?$AAe?$AA?3?$AA?5?$AAa@ 000000014008e540     update_checker.obj
 0002:00007580       ??_C@_0BH@LPBOOLNI@app?2update_checker?4cpp@ 000000014008e580     update_checker.obj
 0002:00007598       ??_C@_0BO@BHEJDDPC@UpdateChecker?3?3HandleResponse@ 000000014008e598     update_checker.obj
 0002:000075c0       ??_C@_1GA@NBKIFCFA@?$AA?$FL?$AAW?$AAH?$AA?$FN?$AA?5?$AA?$FL?$AA?$CF?$AAS?$AA?$FN?$AA?3?$AA?5?$AAH?$AAa?$AAn?$AAd@ 000000014008e5c0     update_checker.obj
 0002:00007620       ??_C@_0BN@PBOPNPGJ@UpdateChecker?3?3OnRequestDone@ 000000014008e620     update_checker.obj
 0002:00007640       ??_C@_1EG@LADFGPFO@?$AA?$FL?$AAW?$AAH?$AA?$FN?$AA?5?$AA?$FL?$AA?$CF?$AAS?$AA?$FN?$AA?3?$AA?5?$AAG?$AAe?$AAt?$AA?5@ 000000014008e640     update_checker.obj
 0002:000076f8       ??_C@_0BB@GCADKGJO@map?1set?5too?5long@ 000000014008e6f8     userprofile.obj
 0002:00007710       ??_C@_0DD@IDPNBBOI@?$GAanonymous?9namespace?8?3?3ReadUser@ 000000014008e710     userprofile.obj
 0002:00007750       ??_C@_1GA@PPOIJFEC@?$AA?$FL?$AAW?$AAH?$AA?$FN?$AA?5?$AA?$FL?$AA?$CF?$AAS?$AA?$FN?$AA?3?$AA?5?$AAP?$AAa?$AAr?$AAs@ 000000014008e750     userprofile.obj
 0002:000077b0       ??_C@_02EGCJHIOB@id@       000000014008e7b0     userprofile.obj
 0002:000077b4       ??_C@_02EHCHIAMF@os@       000000014008e7b4     userprofile.obj
 0002:000077b8       ??_C@_03CGOPKBCD@app@      000000014008e7b8     userprofile.obj
 0002:000077c0       ??_C@_07CPCPJPKL@version@  000000014008e7c0     userprofile.obj
 0002:000077c8       ??_C@_05FEKONFPD@1?47?43@  000000014008e7c8     userprofile.obj
 0002:000077d0       ??_C@_0CO@LPLFOLPH@?$GAanonymous?9namespace?8?3?3GetLocal@ 000000014008e7d0     userprofile.obj
 0002:00007800       ??_C@_1GE@HOHMOANL@?$AA?$FL?$AAW?$AAH?$AA?$FN?$AA?5?$AA?$FL?$AA?$CF?$AAS?$AA?$FN?$AA?3?$AA?5?$AAU?$AAp?$AAd?$AAa@ 000000014008e800     userprofile.obj
 0002:00007868       ??_C@_0O@KBHDGKDP@latestVersion@ 000000014008e868     userprofile.obj
 0002:00007878       ??_C@_04HAPGBFIC@mods@     000000014008e878     userprofile.obj
 0002:00007880       ??_C@_0CJ@NCGEAAJD@UserProfile?3?3UpdateContentWithO@ 000000014008e880     userprofile.obj
 0002:000078b0       ??_C@_0M@BPLKEMIM@?8?5not?5found@ 000000014008e8b0     userprofile.obj
 0002:000078bc       ??_C@_05IJGDECGL@key?5?8@  000000014008e8bc     userprofile.obj
 0002:000078c8       ??_C@_0BG@GLMDJNDN@cannot?5use?5at?$CI?$CJ?5with?5@ 000000014008e8c8     userprofile.obj
 0002:000078e0       ??_C@_0BG@BBKNOMOH@invalid?5map?$DMK?0?5T?$DO?5key@ 000000014008e8e0     userprofile.obj
 0002:00007900       ??_7?$output_string_adapter@DV?$basic_string@DU?$char_traits@D@std@@V?$allocator@D@2@@std@@@detail@nlohmann@@6B@ 000000014008e900     userprofile.obj
 0002:00007920       ?digits_to_99@?1???$dump_integer@E$0A@@?$serializer@V?$basic_json@Vmap@std@@Vvector@2@V?$basic_string@DU?$char_traits@D@std@@V?$allocator@D@2@@2@_N_J_KNVallocator@2@Uadl_serializer@nlohmann@@V?$vector@EV?$allocator@E@std@@@2@@nlohmann@@@detail@nlohmann@@AEAAXE@Z@4V?$array@V?$array@D$01@std@@$0GE@@std@@B 000000014008e920     userprofile.obj
 0002:000079f0       ?digits_to_99@?1???$dump_integer@_J$0A@@?$serializer@V?$basic_json@Vmap@std@@Vvector@2@V?$basic_string@DU?$char_traits@D@std@@V?$allocator@D@2@@2@_N_J_KNVallocator@2@Uadl_serializer@nlohmann@@V?$vector@EV?$allocator@E@std@@@2@@nlohmann@@@detail@nlohmann@@AEAAX_J@Z@4V?$array@V?$array@D$01@std@@$0GE@@std@@B 000000014008e9f0     userprofile.obj
 0002:00007ac0       ?digits_to_99@?1???$dump_integer@_K$0A@@?$serializer@V?$basic_json@Vmap@std@@Vvector@2@V?$basic_string@DU?$char_traits@D@std@@V?$allocator@D@2@@2@_N_J_KNVallocator@2@Uadl_serializer@nlohmann@@V?$vector@EV?$allocator@E@std@@@2@@nlohmann@@@detail@nlohmann@@AEAAX_K@Z@4V?$array@V?$array@D$01@std@@$0GE@@std@@B 000000014008eac0     userprofile.obj
 0002:00007b90       ??_7?$_Ref_count_obj2@V?$output_string_adapter@DV?$basic_string@DU?$char_traits@D@std@@V?$allocator@D@2@@std@@@detail@nlohmann@@@std@@6B@ 000000014008eb90     userprofile.obj
 0002:00007bb0       ??_C@_0BN@GPCBHMHC@type?5must?5be?5string?0?5but?5is?5@ 000000014008ebb0     userprofile.obj
 0002:00007bd0       ?utf8d@?1??decode@?$serializer@V?$basic_json@Vmap@std@@Vvector@2@V?$basic_string@DU?$char_traits@D@std@@V?$allocator@D@2@@2@_N_J_KNVallocator@2@Uadl_serializer@nlohmann@@V?$vector@EV?$allocator@E@std@@@2@@nlohmann@@@detail@nlohmann@@CAEAEAEAEAIE@Z@4V?$array@E$0BJA@@std@@B 000000014008ebd0     userprofile.obj
 0002:00007d60       __xmm@000000000000000f0000000000000003 000000014008ed60     userprofile.obj
 0002:00007d70       __xmm@000000000000000f0000000000000004 000000014008ed70     userprofile.obj
 0002:00007d80       __xmm@000000000000000f0000000000000007 000000014008ed80     userprofile.obj
 0002:00007d90       __xmm@000000000000000f0000000000000008 000000014008ed90     userprofile.obj
 0002:00007da8       ??_7CToolkitDlg@@6B@       000000014008eda8     toolkit_dlg.obj
 0002:00007dd0       __xmm@000003ed000003ec000003eb00000001 000000014008edd0     toolkit_dlg.obj
 0002:00007de0       CLSID_TaskScheduler        000000014008ede0     taskschd:taskschd.obj
 0002:00007df0       CLSID_StdGlobalInterfaceTable 000000014008edf0     uuid:cguid_i.obj
 0002:00007e00       GUID_ATLVer110             000000014008ee00     atls:atlbase.obj
 0002:00007e10       ??_C@_1IC@ONKHOIDK@?$AAE?$AAR?$AAR?$AAO?$AAR?$AA?5?$AA?3?$AA?5?$AAU?$AAn?$AAa?$AAb?$AAl?$AAe?$AA?5@ 000000014008ee10     atls:atlbase.obj
 0002:00007e98       ??_C@_0N@FJEPLCIH@atlthunk?4dll@ 000000014008ee98     atls:atlthunk.obj
 0002:00007ea8       ??_C@_0BG@GAKFHCBM@AtlThunk_AllocateData@ 000000014008eea8     atls:atlthunk.obj
 0002:00007ec0       ??_C@_0BC@JKONFIAH@AtlThunk_InitData@ 000000014008eec0     atls:atlthunk.obj
 0002:00007ed8       ??_C@_0BE@IAOEELAK@AtlThunk_DataToCode@ 000000014008eed8     atls:atlthunk.obj
 0002:00007ef0       ??_C@_0BC@GBGKAIPI@AtlThunk_FreeData@ 000000014008eef0     atls:atlthunk.obj
 0002:00007f08       ??_C@_0P@GHFPNOJB@bad?5allocation@ 000000014008ef08     libcpmt:xthrow.obj
 0002:00007f20       ??_7bad_function_call@std@@6B@ 000000014008ef20     libcpmt:xthrow.obj
 0002:00007f30       ??_C@_0BC@DPJNKNAF@bad?5function?5call@ 000000014008ef30     libcpmt:xthrow.obj
 0002:00007f50       ??_7length_error@std@@6B@  000000014008ef50     libcpmt:xthrow.obj
 0002:00007f68       ??_7out_of_range@std@@6B@  000000014008ef68     libcpmt:xthrow.obj
 0002:0000a4d0       __xmm@ff00ff00ff00ff00ff00ff00ff00ff00 00000001400914d0     libcpmt:vector_algorithms.obj
 0002:0000a4e0       __xmm@ffffffffffffffffffffffffffffffff 00000001400914e0     libcpmt:vector_algorithms.obj
 0002:0000a500       __ymm@0000001f0000001f0000001f0000001f0000001f0000001f0000001f0000001f 0000000140091500     libcpmt:vector_algorithms.obj
 0002:0000a520       __ymm@ffffff00ffffff00ffffff00ffffff00ffffff00ffffff00ffffff00ffffff00 0000000140091520     libcpmt:vector_algorithms.obj
 0002:0000a540       ?nothrow@std@@3Unothrow_t@1@B 0000000140091540     libcpmt:nothrow.obj
 0002:0000a650       ??_C@_1CM@BFAMBNFD@?$AA?$CB?$AAx?$AA?9?$AAs?$AAy?$AAs?$AA?9?$AAd?$AAe?$AAf?$AAa?$AAu?$AAl?$AAt?$AA?9@ 0000000140091650     libcpmt:syserror_import_lib.obj
 0002:0000ae10       ??_C@_07IPNMCAN@success@   0000000140091e10     libcpmt:syserror.obj
 0002:0000ae18       ??_C@_0BN@LKKBCCDB@address?5family?5not?5supported@ 0000000140091e18     libcpmt:syserror.obj
 0002:0000ae38       ??_C@_0P@LDMLAFHI@address?5in?5use@ 0000000140091e38     libcpmt:syserror.obj
 0002:0000ae48       ??_C@_0BG@DHPCNBJB@address?5not?5available@ 0000000140091e48     libcpmt:syserror.obj
 0002:0000ae60       ??_C@_0BC@DFIBIBIL@already?5connected@ 0000000140091e60     libcpmt:syserror.obj
 0002:0000ae78       ??_C@_0BH@CAKOHOMI@argument?5list?5too?5long@ 0000000140091e78     libcpmt:syserror.obj
 0002:0000ae90       ??_C@_0BH@CGIMPKIM@argument?5out?5of?5domain@ 0000000140091e90     libcpmt:syserror.obj
 0002:0000aea8       ??_C@_0M@KGHGGJGL@bad?5address@ 0000000140091ea8     libcpmt:syserror.obj
 0002:0000aeb8       ??_C@_0BE@MPJPGCEO@bad?5file?5descriptor@ 0000000140091eb8     libcpmt:syserror.obj
 0002:0000aed0       ??_C@_0M@PMMIEFCP@bad?5message@ 0000000140091ed0     libcpmt:syserror.obj
 0002:0000aee0       ??_C@_0M@KPHOFDBE@broken?5pipe@ 0000000140091ee0     libcpmt:syserror.obj
 0002:0000aef0       ??_C@_0BD@MGNDDEGM@connection?5aborted@ 0000000140091ef0     libcpmt:syserror.obj
 0002:0000af08       ??_C@_0BP@KAIHPOGN@connection?5already?5in?5progress@ 0000000140091f08     libcpmt:syserror.obj
 0002:0000af28       ??_C@_0BD@PJLIIJEL@connection?5refused@ 0000000140091f28     libcpmt:syserror.obj
 0002:0000af40       ??_C@_0BB@IECNJNOI@connection?5reset@ 0000000140091f40     libcpmt:syserror.obj
 0002:0000af58       ??_C@_0BC@PPHBOELF@cross?5device?5link@ 0000000140091f58     libcpmt:syserror.obj
 0002:0000af70       ??_C@_0BN@KDMIFEIP@destination?5address?5required@ 0000000140091f70     libcpmt:syserror.obj
 0002:0000af90       ??_C@_0BI@NGCEHDD@device?5or?5resource?5busy@ 0000000140091f90     libcpmt:syserror.obj
 0002:0000afa8       ??_C@_0BE@JIDOCPHM@directory?5not?5empty@ 0000000140091fa8     libcpmt:syserror.obj
 0002:0000afc0       ??_C@_0BI@BNCLIGPB@executable?5format?5error@ 0000000140091fc0     libcpmt:syserror.obj
 0002:0000afd8       ??_C@_0M@MIDIAGJP@file?5exists@ 0000000140091fd8     libcpmt:syserror.obj
 0002:0000afe8       ??_C@_0P@DNAJLBJK@file?5too?5large@ 0000000140091fe8     libcpmt:syserror.obj
 0002:0000aff8       ??_C@_0BC@EJHOMAAK@filename?5too?5long@ 0000000140091ff8     libcpmt:syserror.obj
 0002:0000b010       ??_C@_0BH@KEFGLDAF@function?5not?5supported@ 0000000140092010     libcpmt:syserror.obj
 0002:0000b028       ??_C@_0BB@DHFDFGDM@host?5unreachable@ 0000000140092028     libcpmt:syserror.obj
 0002:0000b040       ??_C@_0BD@JPHBMONG@identifier?5removed@ 0000000140092040     libcpmt:syserror.obj
 0002:0000b058       ??_C@_0BG@CDNPAGJK@illegal?5byte?5sequence@ 0000000140092058     libcpmt:syserror.obj
 0002:0000b070       ??_C@_0CD@BNPLBMNA@inappropriate?5io?5control?5operat@ 0000000140092070     libcpmt:syserror.obj
 0002:0000b098       ??_C@_0M@EGEKIIMP@interrupted@ 0000000140092098     libcpmt:syserror.obj
 0002:0000b0a8       ??_C@_0BB@FCMFBGOM@invalid?5argument@ 00000001400920a8     libcpmt:syserror.obj
 0002:0000b0c0       ??_C@_0N@OHAFKDEK@invalid?5seek@ 00000001400920c0     libcpmt:syserror.obj
 0002:0000b0d0       ??_C@_08GLNPIFBN@io?5error@ 00000001400920d0     libcpmt:syserror.obj
 0002:0000b0e0       ??_C@_0P@FLLDBIDK@is?5a?5directory@ 00000001400920e0     libcpmt:syserror.obj
 0002:0000b0f0       ??_C@_0N@IFLPBIOP@message?5size@ 00000001400920f0     libcpmt:syserror.obj
 0002:0000b100       ??_C@_0N@KIIEAAIO@network?5down@ 0000000140092100     libcpmt:syserror.obj
 0002:0000b110       ??_C@_0O@FNPDBHEE@network?5reset@ 0000000140092110     libcpmt:syserror.obj
 0002:0000b120       ??_C@_0BE@IFNCKGE@network?5unreachable@ 0000000140092120     libcpmt:syserror.obj
 0002:0000b138       ??_C@_0BA@PFFCAOFK@no?5buffer?5space@ 0000000140092138     libcpmt:syserror.obj
 0002:0000b148       ??_C@_0BB@IEPBLJHK@no?5child?5process@ 0000000140092148     libcpmt:syserror.obj
 0002:0000b160       ??_C@_07PLECNNKG@no?5link@ 0000000140092160     libcpmt:syserror.obj
 0002:0000b168       ??_C@_0BC@NJECKMKE@no?5lock?5available@ 0000000140092168     libcpmt:syserror.obj
 0002:0000b180       ??_C@_0BF@PBGGPKKE@no?5message?5available@ 0000000140092180     libcpmt:syserror.obj
 0002:0000b198       ??_C@_0L@EDOLMPAK@no?5message@ 0000000140092198     libcpmt:syserror.obj
 0002:0000b1a8       ??_C@_0BD@EAMBFIDF@no?5protocol?5option@ 00000001400921a8     libcpmt:syserror.obj
 0002:0000b1c0       ??_C@_0BD@IJDJKDEA@no?5space?5on?5device@ 00000001400921c0     libcpmt:syserror.obj
 0002:0000b1d8       ??_C@_0BE@MKFDAFMP@no?5stream?5resources@ 00000001400921d8     libcpmt:syserror.obj
 0002:0000b1f0       ??_C@_0BK@IMCPHCBI@no?5such?5device?5or?5address@ 00000001400921f0     libcpmt:syserror.obj
 0002:0000b210       ??_C@_0P@FDINDDOK@no?5such?5device@ 0000000140092210     libcpmt:syserror.obj
 0002:0000b220       ??_C@_0BK@NDOCBPGE@no?5such?5file?5or?5directory@ 0000000140092220     libcpmt:syserror.obj
 0002:0000b240       ??_C@_0BA@ENLPPKBN@no?5such?5process@ 0000000140092240     libcpmt:syserror.obj
 0002:0000b250       ??_C@_0BA@DOCPFFJG@not?5a?5directory@ 0000000140092250     libcpmt:syserror.obj
 0002:0000b260       ??_C@_0N@POEIPGGF@not?5a?5socket@ 0000000140092260     libcpmt:syserror.obj
 0002:0000b270       ??_C@_0N@LGAPMMPI@not?5a?5stream@ 0000000140092270     libcpmt:syserror.obj
 0002:0000b280       ??_C@_0O@GLMIBBEG@not?5connected@ 0000000140092280     libcpmt:syserror.obj
 0002:0000b290       ??_C@_0BC@ENOOLCNF@not?5enough?5memory@ 0000000140092290     libcpmt:syserror.obj
 0002:0000b2a8       ??_C@_0O@NHEDABJP@not?5supported@ 00000001400922a8     libcpmt:syserror.obj
 0002:0000b2b8       ??_C@_0BD@MOLBPMEA@operation?5canceled@ 00000001400922b8     libcpmt:syserror.obj
 0002:0000b2d0       ??_C@_0BG@KDKHOPCO@operation?5in?5progress@ 00000001400922d0     libcpmt:syserror.obj
 0002:0000b2e8       ??_C@_0BI@OHIEJAAB@operation?5not?5permitted@ 00000001400922e8     libcpmt:syserror.obj
 0002:0000b300       ??_C@_0BI@LNEGIFLN@operation?5not?5supported@ 0000000140092300     libcpmt:syserror.obj
 0002:0000b318       ??_C@_0BG@OEMDKMEE@operation?5would?5block@ 0000000140092318     libcpmt:syserror.obj
 0002:0000b330       ??_C@_0L@BLPOFLNJ@owner?5dead@ 0000000140092330     libcpmt:syserror.obj
 0002:0000b340       ??_C@_0BC@CIJDGCDI@permission?5denied@ 0000000140092340     libcpmt:syserror.obj
 0002:0000b358       ??_C@_0P@FNPOCJBE@protocol?5error@ 0000000140092358     libcpmt:syserror.obj
 0002:0000b368       ??_C@_0BH@JPPPLHJB@protocol?5not?5supported@ 0000000140092368     libcpmt:syserror.obj
 0002:0000b380       ??_C@_0BG@EICBIHDP@read?5only?5file?5system@ 0000000140092380     libcpmt:syserror.obj
 0002:0000b398       ??_C@_0BO@BJBOMOEJ@resource?5deadlock?5would?5occur@ 0000000140092398     libcpmt:syserror.obj
 0002:0000b3b8       ??_C@_0BP@LKNGHENJ@resource?5unavailable?5try?5again@ 00000001400923b8     libcpmt:syserror.obj
 0002:0000b3d8       ??_C@_0BE@GOIPJJHG@result?5out?5of?5range@ 00000001400923d8     libcpmt:syserror.obj
 0002:0000b3f0       ??_C@_0BG@MPLKFPAE@state?5not?5recoverable@ 00000001400923f0     libcpmt:syserror.obj
 0002:0000b408       ??_C@_0P@DIIFGFCG@stream?5timeout@ 0000000140092408     libcpmt:syserror.obj
 0002:0000b418       ??_C@_0P@IPFDMIFL@text?5file?5busy@ 0000000140092418     libcpmt:syserror.obj
 0002:0000b428       ??_C@_09KJPPMAOI@timed?5out@ 0000000140092428     libcpmt:syserror.obj
 0002:0000b438       ??_C@_0BO@HACHBEKI@too?5many?5files?5open?5in?5system@ 0000000140092438     libcpmt:syserror.obj
 0002:0000b458       ??_C@_0BE@GHAFMPAH@too?5many?5files?5open@ 0000000140092458     libcpmt:syserror.obj
 0002:0000b470       ??_C@_0P@HCOMKFCC@too?5many?5links@ 0000000140092470     libcpmt:syserror.obj
 0002:0000b480       ??_C@_0BO@EFGOJEF@too?5many?5symbolic?5link?5levels@ 0000000140092480     libcpmt:syserror.obj
 0002:0000b4a0       ??_C@_0BA@KGKGOOJA@value?5too?5large@ 00000001400924a0     libcpmt:syserror.obj
 0002:0000b4b0       ??_C@_0BE@MIEJDDNH@wrong?5protocol?5type@ 00000001400924b0     libcpmt:syserror.obj
 0002:0000b4c8       ??_C@_0O@BFJCFAAK@unknown?5error@ 00000001400924c8     libcpmt:syserror.obj
 0002:0000b4d8       ??_C@_0O@NNMIPI@GetTempPath2W@ 00000001400924d8     libcpmt:filesystem.obj
 0002:0000b4f0       ??_7_Locimp@locale@std@@6B@ 00000001400924f0     libcpmt:locale0.obj
 0002:0000b508       ??_C@_01NBENCBCI@?$CK@     0000000140092508     libcpmt:locale0.obj
 0002:0000b50c       ??_C@_01GFHCPBMG@C@        000000014009250c     libcpmt:locale0.obj
 0002:0000b510       ?_BADOFF@std@@3_JB         0000000140092510     libcpmt:ios.obj
 0002:0000b5c8       ??_C@_13BPINEIPE@?$AAr@    00000001400925c8     libcpmt:fiopen.obj
 0002:0000b5cc       ??_C@_13CIFDLIMG@?$AAw@    00000001400925cc     libcpmt:fiopen.obj
 0002:0000b5d0       ??_C@_13FNCBLAIF@?$AAa@    00000001400925d0     libcpmt:fiopen.obj
 0002:0000b5d4       ??_C@_15JJPIMNBO@?$AAr?$AAb@ 00000001400925d4     libcpmt:fiopen.obj
 0002:0000b5dc       ??_C@_15MJDFFMKN@?$AAw?$AAb@ 00000001400925dc     libcpmt:fiopen.obj
 0002:0000b5e4       ??_C@_15BMLKLNCL@?$AAa?$AAb@ 00000001400925e4     libcpmt:fiopen.obj
 0002:0000b5ec       ??_C@_15HPOENKKJ@?$AAr?$AA?$CL@ 00000001400925ec     libcpmt:fiopen.obj
 0002:0000b5f4       ??_C@_15CPCJELBK@?$AAw?$AA?$CL@ 00000001400925f4     libcpmt:fiopen.obj
 0002:0000b5fc       ??_C@_15PKKGKKJM@?$AAa?$AA?$CL@ 00000001400925fc     libcpmt:fiopen.obj
 0002:0000b608       ??_C@_17IIOMHMAG@?$AAr?$AA?$CL?$AAb@ 0000000140092608     libcpmt:fiopen.obj
 0002:0000b610       ??_C@_17MAAMHCGC@?$AAw?$AA?$CL?$AAb@ 0000000140092610     libcpmt:fiopen.obj
 0002:0000b618       ??_C@_17HKNIEKMO@?$AAa?$AA?$CL?$AAb@ 0000000140092618     libcpmt:fiopen.obj
 0002:0000b620       ??_C@_15PGJBOLFG@?$AAw?$AAx@ 0000000140092620     libcpmt:fiopen.obj
 0002:0000b628       ??_C@_17PPKIMFJJ@?$AAw?$AA?$CL?$AAx@ 0000000140092628     libcpmt:fiopen.obj
 0002:0000b630       ??_C@_17NHPPJODN@?$AAw?$AAb?$AAx@ 0000000140092630     libcpmt:fiopen.obj
 0002:0000b638       ??_C@_19EHELFBEK@?$AAw?$AA?$CL?$AAb?$AAx@ 0000000140092638     libcpmt:fiopen.obj
 0002:0000b69c       ??_C@_01JOAMLHOP@?9@       000000014009269c     libcpmt:wlocale.obj
 0002:0000b6a0       ??_C@_13IMODFHAA@?$AA?9@   00000001400926a0     libcpmt:wlocale.obj
 0002:0000b748       ??_C@_0BP@FPNJPEJC@GetSystemTimePreciseAsFileTime@ 0000000140092748     libcpmt:winapisupp.obj
 0002:0000b780       ??_7type_info@@6B@         0000000140092780     LIBCMT:std_type_info_static.obj
 0002:0000b788       _pDestructExceptionObject  0000000140092788     libvcruntime:ehhelpers.obj
 0002:0000b790       ?s_negLengthTab@FH4@@3QBCB 0000000140092790     libvcruntime:risctrnsctrl.obj
 0002:0000b7a0       ?s_shiftTab@FH4@@3QBEB     00000001400927a0     libvcruntime:risctrnsctrl.obj
 0002:0000b8f0       ??_7bad_exception@std@@6B@ 00000001400928f0     libvcruntime:frame.obj
 0002:0000b900       ??_C@_0O@DPKOEFFH@bad?5exception@ 0000000140092900     libvcruntime:frame.obj
 0002:0000c020       ??_C@_08EHJDFFNH@__based?$CI@ 0000000140093020     libvcruntime:undname.obj
 0002:0000c030       ??_C@_07KOLFKCDI@__cdecl@  0000000140093030     libvcruntime:undname.obj
 0002:0000c038       ??_C@_09IFJBGAPI@__stdcall@ 0000000140093038     libvcruntime:undname.obj
 0002:0000c048       ??_C@_0L@NPHFGOKO@__thiscall@ 0000000140093048     libvcruntime:undname.obj
 0002:0000c058       ??_C@_0L@JMKHOMEK@__fastcall@ 0000000140093058     libvcruntime:undname.obj
 0002:0000c068       ??_C@_0N@BCKKPABJ@__vectorcall@ 0000000140093068     libvcruntime:undname.obj
 0002:0000c078       ??_C@_0BA@NAGGFLJK@__preserve_none@ 0000000140093078     libvcruntime:undname.obj
 0002:0000c088       ??_C@_09HIJEGCPM@__clrcall@ 0000000140093088     libvcruntime:undname.obj
 0002:0000c094       ??_C@_06GHPCKEAG@__eabi@   0000000140093094     libvcruntime:undname.obj
 0002:0000c0a0       ??_C@_09IOPIDJLG@__swift_1@ 00000001400930a0     libvcruntime:undname.obj
 0002:0000c0b0       ??_C@_09KFNFGKHF@__swift_2@ 00000001400930b0     libvcruntime:undname.obj
 0002:0000c0c0       ??_C@_09LMMOFLDE@__swift_3@ 00000001400930c0     libvcruntime:undname.obj
 0002:0000c0d0       ??_C@_07JOMMBBKO@__ptr64@  00000001400930d0     libvcruntime:undname.obj
 0002:0000c0d8       ??_C@_0L@PILCLIHE@__restrict@ 00000001400930d8     libvcruntime:undname.obj
 0002:0000c0e8       ??_C@_0M@GFIIJFMG@__unaligned@ 00000001400930e8     libvcruntime:undname.obj
 0002:0000c0f8       ??_C@_09DHDLOLLB@restrict?$CI@ 00000001400930f8     libvcruntime:undname.obj
 0002:0000c104       ??_C@_04NIHEBCM@?5new@     0000000140093104     libvcruntime:undname.obj
 0002:0000c110       ??_C@_07FPCDHGMM@?5delete@ 0000000140093110     libvcruntime:undname.obj
 0002:0000c118       ??_C@_01NEMOKFLO@?$DN@     0000000140093118     libvcruntime:undname.obj
 0002:0000c11c       ??_C@_02GPIOPFAK@?$DO?$DO@ 000000014009311c     libvcruntime:undname.obj
 0002:0000c120       ??_C@_02FODMEDOG@?$DM?$DM@ 0000000140093120     libvcruntime:undname.obj
 0002:0000c124       ??_C@_01DCLJPIOD@?$CB@     0000000140093124     libvcruntime:undname.obj
 0002:0000c128       ??_C@_02EGOFBIJA@?$DN?$DN@ 0000000140093128     libvcruntime:undname.obj
 0002:0000c12c       ??_C@_02FDNJECIE@?$CB?$DN@ 000000014009312c     libvcruntime:undname.obj
 0002:0000c130       ??_C@_08LHJFAFGD@operator@ 0000000140093130     libvcruntime:undname.obj
 0002:0000c13c       ??_C@_02HBOOOICD@?9?$DO@   000000014009313c     libvcruntime:undname.obj
 0002:0000c140       ??_C@_02ECNGHCIF@?$CL?$CL@ 0000000140093140     libvcruntime:undname.obj
 0002:0000c144       ??_C@_02BAABKJLB@?9?9@     0000000140093144     libvcruntime:undname.obj
 0002:0000c148       ??_C@_01MIFGBAGJ@?$CL@     0000000140093148     libvcruntime:undname.obj
 0002:0000c14c       ??_C@_01HNPIGOCE@?$CG@     000000014009314c     libvcruntime:undname.obj
 0002:0000c150       ??_C@_03MNHNFDLC@?9?$DO?$CK@ 0000000140093150     libvcruntime:undname.obj
 0002:0000c154       ??_C@_01KMDKNFGN@?1@       0000000140093154     libvcruntime:undname.obj
 0002:0000c158       ??_C@_01FGNFDNOH@?$CF@     0000000140093158     libvcruntime:undname.obj
 0002:0000c15c       ??_C@_01MNNFJEPP@?$DM@     000000014009315c     libvcruntime:undname.obj
 0002:0000c160       ??_C@_02EHCHHCKH@?$DM?$DN@ 0000000140093160     libvcruntime:undname.obj
 0002:0000c164       ??_C@_01PPODPGHN@?$DO@     0000000140093164     libvcruntime:undname.obj
 0002:0000c168       ??_C@_02EEKDKGMJ@?$DO?$DN@ 0000000140093168     libvcruntime:undname.obj
 0002:0000c16c       ??_C@_01IHBHIGKO@?0@       000000014009316c     libvcruntime:undname.obj
 0002:0000c170       ??_C@_02HCKGKOFO@?$CI?$CJ@ 0000000140093170     libvcruntime:undname.obj
 0002:0000c174       ??_C@_01PJKLJHI@?$HO@      0000000140093174     libvcruntime:undname.obj
 0002:0000c178       ??_C@_01JKBOJNNK@?$FO@     0000000140093178     libvcruntime:undname.obj
 0002:0000c17c       ??_C@_01DNKMNLPK@?$HM@     000000014009317c     libvcruntime:undname.obj
 0002:0000c180       ??_C@_02PPKAJPJL@?$CG?$CG@ 0000000140093180     libvcruntime:undname.obj
 0002:0000c184       ??_C@_02NONPIBCD@?$HM?$HM@ 0000000140093184     libvcruntime:undname.obj
 0002:0000c188       ??_C@_02FPIMKNGF@?$CK?$DN@ 0000000140093188     libvcruntime:undname.obj
 0002:0000c18c       ??_C@_02FOEOMHFC@?$CL?$DN@ 000000014009318c     libvcruntime:undname.obj
 0002:0000c190       ??_C@_02FKMDLLOA@?9?$DN@   0000000140093190     libvcruntime:undname.obj
 0002:0000c194       ??_C@_02FJEHGPIO@?1?$DN@   0000000140093194     libvcruntime:undname.obj
 0002:0000c198       ??_C@_02FENAOKFI@?$CF?$DN@ 0000000140093198     libvcruntime:undname.obj
 0002:0000c19c       ??_C@_03IKFCCPFF@?$DO?$DO?$DN@ 000000014009319c     libvcruntime:undname.obj
