 windhawk

 Timestamp is 69bae8af (Wed Mar 18 18:02:23 2026)

 Preferred load address is 0000000180000000

 Start         Length     Name                   Class
 0001:00000000 00000560H .text                   CODE
 0001:00000560 00000280H .text$di                CODE
 0001:000007e0 0016f6e0H .text$mn                CODE
 0001:0016fec0 00000040H .text$mn$00             CODE
 0001:0016ff00 00001730H .text$mn$21             CODE
 0001:00171630 00004460H .text$x                 CODE
 0001:00175a90 000001f0H .text$yd                CODE
 0002:00000000 000005f8H .idata$5                DATA
 0002:000005f8 00000020H .00cfg                  DATA
 0002:00000618 00000008H .CRT$XCA                DATA
 0002:00000620 00000038H .CRT$XCU                DATA
 0002:00000658 00000008H .CRT$XCZ                DATA
 0002:00000660 00000008H .CRT$XIA                DATA
 0002:00000668 00000010H .CRT$XIC                DATA
 0002:00000678 00000008H .CRT$XIZ                DATA
 0002:00000680 00000008H .CRT$XLA                DATA
 0002:00000688 00000008H .CRT$XLZ                DATA
 0002:00000690 00000008H .CRT$XPA                DATA
 0002:00000698 00000010H .CRT$XPX                DATA
 0002:000006a8 00000008H .CRT$XPXA               DATA
 0002:000006b0 00000008H .CRT$XPZ                DATA
 0002:000006b8 00000008H .CRT$XTA                DATA
 0002:000006c0 00000010H .CRT$XTZ                DATA
 0002:000006c8 00000000H .gehcont$y              DATA
 0002:000006c8 00000000H .gfids$y                DATA
 0002:000006c8 00000000H .giats$y                DATA
 0002:000006d0 000217b0H .rdata                  DATA
 0002:00021e80 00000000H .rdata$CastGuardVftablesA DATA
 0002:00021e80 00000000H .rdata$CastGuardVftablesC DATA
 0002:00021e80 00000028H .rdata$T                DATA
 0002:00021ea8 00001b7cH .rdata$r                DATA
 0002:00023a24 000003acH .rdata$zzzdbg           DATA
 0002:00023dd0 00000008H .rtc$IAA                DATA
 0002:00023dd8 00000008H .rtc$IZZ                DATA
 0002:00023de0 00000008H .rtc$TAA                DATA
 0002:00023de8 00000008H .rtc$TZZ                DATA
 0002:00023df0 00000004H .tls                    DATA
 0002:00023df4 00000004H .tls$                   DATA
 0002:00023df8 00000008H .tls$ZZZ                DATA
 0002:00023e00 0000aec0H .xdata                  DATA
 0002:0002ecc0 000005e0H .xdata$x                DATA
 0002:0002f2a0 0000047cH .edata                  DATA
 0002:0002f71c 0000003cH .idata$2                DATA
 0002:0002f758 00000018H .idata$3                DATA
 0002:0002f770 000005f8H .idata$4                DATA
 0002:0002fd68 00000eeaH .idata$6                DATA
 0003:00000000 00001300H .data                   DATA
 0003:00001300 00000620H .data$r                 DATA
 0003:00001920 000010b0H .data$rs                DATA
 0003:000029d0 00001bb0H .bss                    DATA
 0004:00000000 00005a80H .pdata                  DATA
 0005:00000000 00000100H .fptable                DATA
 0006:00000000 00000060H .rsrc$01                DATA
 0006:00000060 00000238H .rsrc$02                DATA

  Address         Publics by Value              Rva+Base               Lib:Object

 0000:00000000       __AbsoluteZero             0000000000000000     <absolute>
 0000:00000000       ___safe_se_handler_count   0000000000000000     <absolute>
 0000:00000000       ___safe_se_handler_table   0000000000000000     <absolute>
 0000:00000000       __arm64x_extra_rfe_table   0000000000000000     <absolute>
 0000:00000000       __arm64x_extra_rfe_table_size 0000000000000000     <absolute>
 0000:00000000       __arm64x_native_entrypoint 0000000000000000     <absolute>
 0000:00000000       __arm64x_redirection_metadata 0000000000000000     <absolute>
 0000:00000000       __arm64x_redirection_metadata_count 0000000000000000     <absolute>
 0000:00000000       __dynamic_value_reloc_table 0000000000000000     <absolute>
 0000:00000000       __enclave_config           0000000000000000     <absolute>
 0000:00000000       __guard_check_icall_a64n_fptr 0000000000000000     <absolute>
 0000:00000000       __guard_eh_cont_count      0000000000000000     <absolute>
 0000:00000000       __guard_eh_cont_table      0000000000000000     <absolute>
 0000:00000000       __guard_fids_count         0000000000000000     <absolute>
 0000:00000000       __guard_fids_table         0000000000000000     <absolute>
 0000:00000000       __guard_iat_count          0000000000000000     <absolute>
 0000:00000000       __guard_iat_table          0000000000000000     <absolute>
 0000:00000000       __guard_longjmp_count      0000000000000000     <absolute>
 0000:00000000       __guard_longjmp_table      0000000000000000     <absolute>
 0000:00000000       __hybrid_auxiliary_delayload_iat 0000000000000000     <absolute>
 0000:00000000       __hybrid_auxiliary_delayload_iat_copy 0000000000000000     <absolute>
 0000:00000000       __hybrid_auxiliary_iat     0000000000000000     <absolute>
 0000:00000000       __hybrid_auxiliary_iat_copy 0000000000000000     <absolute>
 0000:00000000       __hybrid_code_map          0000000000000000     <absolute>
 0000:00000000       __hybrid_code_map_count    0000000000000000     <absolute>
 0000:00000000       __hybrid_image_info_bitfield 0000000000000000     <absolute>
 0000:00000000       __volatile_metadata        0000000000000000     <absolute>
 0000:00000000       __x64_code_ranges_to_entry_points 0000000000000000     <absolute>
 0000:00000000       __x64_code_ranges_to_entry_points_count 0000000000000000     <absolute>
 0000:00000000       _guard_check_icall_$fo_default$ 0000000000000000     <absolute>
 0000:00000000       memcmp_$fo_default$        0000000000000000     <absolute>
 0000:00000000       memcpy_$fo_default$        0000000000000000     <absolute>
 0000:00000000       memmove_$fo_default$       0000000000000000     <absolute>
 0000:00000000       memset_$fo_default$        0000000000000000     <absolute>
 0000:00000000       strlen_$fo_default$        0000000000000000     <absolute>
 0000:00000100       __guard_flags              0000000000000100     <absolute>
 0000:00000000       __ImageBase                0000000180000000     <linker-defined>
 0001:00000000       __security_check_cookie    0000000180001000 f   LIBCMT:arm64secgs.obj
 0001:00000018       __gsfailure                0000000180001018 f   LIBCMT:arm64secgs.obj
 0001:00000050       __security_push_cookie     0000000180001050 f   LIBCMT:secpushpop.obj
 0001:00000070       __security_pop_cookie      0000000180001070 f   LIBCMT:secpushpop.obj
 0001:000000a0       __ppgsfailure              00000001800010a0 f   LIBCMT:secpushpop.obj
 0001:000000c0       _InterlockedAdd            00000001800010c0 f   LIBCMT:atomics.obj
 0001:000000c0       _InterlockedAdd_Function   00000001800010c0 f   LIBCMT:atomics.obj
 0001:00000100       _InterlockedAdd_rel        0000000180001100 f   LIBCMT:atomics.obj
 0001:00000100       _InterlockedAdd_rel_Function 0000000180001100 f   LIBCMT:atomics.obj
 0001:00000140       _InterlockedAdd_nf         0000000180001140 f   LIBCMT:atomics.obj
 0001:00000140       _InterlockedAdd_nf_Function 0000000180001140 f   LIBCMT:atomics.obj
 0001:00000180       _InterlockedAnd            0000000180001180 f   LIBCMT:atomics.obj
 0001:00000180       _InterlockedAnd_Function   0000000180001180 f   LIBCMT:atomics.obj
 0001:000001c0       _InterlockedCompareExchange64 00000001800011c0 f   LIBCMT:atomics.obj
 0001:000001c0       _InterlockedCompareExchange64_Function 00000001800011c0 f   LIBCMT:atomics.obj
 0001:000001c0       _InterlockedCompareExchangePointer 00000001800011c0 f   LIBCMT:atomics.obj
 0001:00000200       _InterlockedDecrement      0000000180001200 f   LIBCMT:atomics.obj
 0001:00000200       _InterlockedDecrement_Function 0000000180001200 f   LIBCMT:atomics.obj
 0001:00000210       _InterlockedDecrement_rel  0000000180001210 f   LIBCMT:atomics.obj
 0001:00000210       _InterlockedDecrement_rel_Function 0000000180001210 f   LIBCMT:atomics.obj
 0001:00000220       _InterlockedDecrement_nf   0000000180001220 f   LIBCMT:atomics.obj
 0001:00000220       _InterlockedDecrement_nf_Function 0000000180001220 f   LIBCMT:atomics.obj
 0001:00000230       _InterlockedExchange       0000000180001230 f   LIBCMT:atomics.obj
 0001:00000230       _InterlockedExchange_Function 0000000180001230 f   LIBCMT:atomics.obj
 0001:00000270       _InterlockedExchange64     0000000180001270 f   LIBCMT:atomics.obj
 0001:00000270       _InterlockedExchange64_Function 0000000180001270 f   LIBCMT:atomics.obj
 0001:00000270       _InterlockedExchangePointer 0000000180001270 f   LIBCMT:atomics.obj
 0001:000002b0       _InterlockedIncrement      00000001800012b0 f   LIBCMT:atomics.obj
 0001:000002b0       _InterlockedIncrement_Function 00000001800012b0 f   LIBCMT:atomics.obj
 0001:000002c0       _InterlockedIncrement_nf   00000001800012c0 f   LIBCMT:atomics.obj
 0001:000002c0       _InterlockedIncrement_nf_Function 00000001800012c0 f   LIBCMT:atomics.obj
 0001:000002d0       _InterlockedOr             00000001800012d0 f   LIBCMT:atomics.obj
 0001:000002d0       _InterlockedOr_Function    00000001800012d0 f   LIBCMT:atomics.obj
 0001:00000310       _InterlockedDetectSupportEH 0000000180001310 f   LIBCMT:atomics.obj
 0001:00000360       _InterlockedDetectSupport  0000000180001360 f   LIBCMT:atomics.obj
 0001:000003b0       _guard_dispatch_icall_nop  00000001800013b0 f   LIBCMT:guard_dispatch.obj
 0001:000003b8       _NLG_Notify                00000001800013b8 f   libvcruntime:notify.obj
 0001:000003cc       __NLG_Dispatch2            00000001800013cc     libvcruntime:notify.obj
 0001:000003d4       __NLG_Return2              00000001800013d4 f   libvcruntime:notify.obj
 0001:000003e0       __C_ExecuteExceptionFilter 00000001800013e0 f   libvcruntime:handler.obj
 0001:00000434       __C_ExecuteTerminationHandler 0000000180001434 f   libvcruntime:handler.obj
 0001:00000488       _CallSettingFrame          0000000180001488 f   libvcruntime:handlers.obj
 0001:00000530       __chkstk                   0000000180001530 f   LIBCMT:chkstk.obj
 0001:00000530       _alloca_probe              0000000180001530 f   LIBCMT:chkstk.obj
 0001:000007e0       ?GetVerbosity@LoggerBase@@QEAA?AW4Verbosity@1@XZ 00000001800017e0 f   logger_base.obj
 0001:000007e8       ?LogLine@LoggerBase@@QEAAXPEB_WZZ 00000001800017e8 f   logger_base.obj
 0001:000008d8       __local_stdio_printf_options 00000001800018d8 f i logger_base.obj
 0001:00000d40       ?next@EnumIteratorRegistryInt@@UEAAXXZ 0000000180001d40 f i portable_settings.obj
 0001:000010c8       ?clone@EnumIteratorRegistryInt@@UEBA?AV?$unique_ptr@V?$EnumIteratorImpl@H@@U?$default_delete@V?$EnumIteratorImpl@H@@@std@@@std@@XZ 00000001800020c8 f i portable_settings.obj
 0001:00001178       ??_E?$EnumIteratorRegistryBase@H@@UEAAPEAXI@Z 0000000180002178 f i * CIL library *:* CIL module *
 0001:00001178       ??_EEnumIteratorRegistryInt@@UEAAPEAXI@Z 0000000180002178 f i * CIL library *:* CIL module *
 0001:00001178       ??_G?$EnumIteratorRegistryBase@H@@UEAAPEAXI@Z 0000000180002178 f i portable_settings.obj
 0001:00001178       ??_GEnumIteratorRegistryInt@@UEAAPEAXI@Z 0000000180002178 f i portable_settings.obj
 0001:000011d8       ??1?$EnumIteratorImpl@H@@UEAA@XZ 00000001800021d8 f i portable_settings.obj
 0001:000011d8       ??1?$EnumIteratorRegistryBase@H@@UEAA@XZ 00000001800021d8 f i portable_settings.obj
 0001:00001228       ??1?$optional@V?$tuple@V?$basic_string@_WU?$char_traits@_W@std@@V?$allocator@_W@2@@std@@V12@KK@std@@@std@@QEAA@XZ 0000000180002228 f i portable_settings.obj
 0001:00001298       ?next@EnumIteratorRegistryString@@UEAAXXZ 0000000180002298 f i portable_settings.obj
 0001:00001630       ?clone@EnumIteratorRegistryString@@UEBA?AV?$unique_ptr@V?$EnumIteratorImpl@V?$basic_string@_WU?$char_traits@_W@std@@V?$allocator@_W@2@@std@@@@U?$default_delete@V?$EnumIteratorImpl@V?$basic_string@_WU?$char_traits@_W@std@@V?$allocator@_W@2@@std@@@@@std@@@std@@XZ 0000000180002630 f i portable_settings.obj
 0001:000016f0       ??_E?$EnumIteratorRegistryBase@V?$basic_string@_WU?$char_traits@_W@std@@V?$allocator@_W@2@@std@@@@UEAAPEAXI@Z 00000001800026f0 f i * CIL library *:* CIL module *
 0001:000016f0       ??_EEnumIteratorRegistryString@@UEAAPEAXI@Z 00000001800026f0 f i * CIL library *:* CIL module *
 0001:000016f0       ??_G?$EnumIteratorRegistryBase@V?$basic_string@_WU?$char_traits@_W@std@@V?$allocator@_W@2@@std@@@@UEAAPEAXI@Z 00000001800026f0 f i portable_settings.obj
 0001:000016f0       ??_GEnumIteratorRegistryString@@UEAAPEAXI@Z 00000001800026f0 f i portable_settings.obj
 0001:00001778       ??1?$EnumIteratorImpl@V?$basic_string@_WU?$char_traits@_W@std@@V?$allocator@_W@2@@std@@@@UEAA@XZ 0000000180002778 f i portable_settings.obj
 0001:00001778       ??1?$EnumIteratorRegistryBase@V?$basic_string@_WU?$char_traits@_W@std@@V?$allocator@_W@2@@std@@@@UEAA@XZ 0000000180002778 f i portable_settings.obj
 0001:000017e0       ??0RegistrySettings@@QEAA@PEAUHKEY__@@PEB_W_N@Z 00000001800027e0 f   portable_settings.obj
 0001:00001880       ??_ERegistrySettings@@UEAAPEAXI@Z 0000000180002880 f i * CIL library *:* CIL module *
 0001:00001880       ??_GRegistrySettings@@UEAAPEAXI@Z 0000000180002880 f i portable_settings.obj
 0001:000018c8       ??1?$unique_any_t@V?$unique_storage@U?$resource_policy@PEAUHKEY__@@P6AJPEAU1@@Z$1?RegCloseKey@@YAJ0@ZU?$integral_constant@_K$0A@@wistd@@PEAU1@PEAU1@$0A@$$T@details@wil@@@details@wil@@@wil@@QEAA@XZ 00000001800028c8 f i portable_settings.obj
 0001:000018f0       ?GetString@RegistrySettings@@UEBA?AV?$optional@V?$basic_string@_WU?$char_traits@_W@std@@V?$allocator@_W@2@@std@@@std@@PEB_W@Z 00000001800028f0 f   portable_settings.obj
 0001:000019e8       ??1?$optional@URawData@RegistrySettings@@@std@@QEAA@XZ 00000001800029e8 f i portable_settings.obj
 0001:00001a38       ??1?$optional@V?$basic_string@_WU?$char_traits@_W@std@@V?$allocator@_W@2@@std@@@std@@QEAA@XZ 0000000180002a38 f i portable_settings.obj
 0001:00001a88       ?SetString@RegistrySettings@@UEAAXPEB_W0@Z 0000000180002a88 f   portable_settings.obj
 0001:00001b48       ?GetInt@RegistrySettings@@UEBA?AV?$optional@H@std@@PEB_W@Z 0000000180002b48 f   portable_settings.obj
 0001:00001bf0       ?SetInt@RegistrySettings@@UEAAXPEB_WH@Z 0000000180002bf0 f   portable_settings.obj
 0001:00001c48       ?GetBinary@RegistrySettings@@UEBA?AV?$optional@V?$vector@EV?$allocator@E@std@@@std@@@std@@PEB_W@Z 0000000180002c48 f   portable_settings.obj
 0001:00001de8       ?SetBinary@RegistrySettings@@UEAAXPEB_WPEBE_K@Z 0000000180002de8 f   portable_settings.obj
 0001:00001e88       ?Remove@RegistrySettings@@UEAAXPEB_W@Z 0000000180002e88 f   portable_settings.obj
 0001:00001ed0       ?EnumIntValues@RegistrySettings@@UEBA?AV?$EnumIterator@H@PortableSettings@@XZ 0000000180002ed0 f   portable_settings.obj
 0001:00001f68       ?EnumStringValues@RegistrySettings@@UEBA?AV?$EnumIterator@V?$basic_string@_WU?$char_traits@_W@std@@V?$allocator@_W@2@@std@@@PortableSettings@@XZ 0000000180002f68 f   portable_settings.obj
 0001:00002008       ?GetRaw@RegistrySettings@@AEBA?AV?$optional@URawData@RegistrySettings@@@std@@PEB_W@Z 0000000180003008 f   portable_settings.obj
 0001:000021b0       ??0invalid_argument@std@@QEAA@AEBV01@@Z 00000001800031b0 f i portable_settings.obj
 0001:00002200       ??0logic_error@std@@QEAA@AEBV01@@Z 0000000180003200 f i portable_settings.obj
 0001:00002250       ?next@EnumIteratorIniFileInt@@UEAAXXZ 0000000180003250 f i portable_settings.obj
 0001:00002430       ?clone@EnumIteratorIniFileInt@@UEBA?AV?$unique_ptr@V?$EnumIteratorImpl@H@@U?$default_delete@V?$EnumIteratorImpl@H@@@std@@@std@@XZ 0000000180003430 f i portable_settings.obj
 0001:000024e8       ??_E?$EnumIteratorIniFileBase@H@@UEAAPEAXI@Z 00000001800034e8 f i * CIL library *:* CIL module *
 0001:000024e8       ??_EEnumIteratorIniFileInt@@UEAAPEAXI@Z 00000001800034e8 f i * CIL library *:* CIL module *
 0001:000024e8       ??_G?$EnumIteratorIniFileBase@H@@UEAAPEAXI@Z 00000001800034e8 f i portable_settings.obj
 0001:000024e8       ??_GEnumIteratorIniFileInt@@UEAAPEAXI@Z 00000001800034e8 f i portable_settings.obj
 0001:00002570       ??1?$EnumIteratorIniFileBase@H@@UEAA@XZ 0000000180003570 f i portable_settings.obj
 0001:000025d8       ?next@EnumIteratorIniFileString@@UEAAXXZ 00000001800035d8 f i portable_settings.obj
 0001:00002878       ?clone@EnumIteratorIniFileString@@UEBA?AV?$unique_ptr@V?$EnumIteratorImpl@V?$basic_string@_WU?$char_traits@_W@std@@V?$allocator@_W@2@@std@@@@U?$default_delete@V?$EnumIteratorImpl@V?$basic_string@_WU?$char_traits@_W@std@@V?$allocator@_W@2@@std@@@@@std@@@std@@XZ 0000000180003878 f i portable_settings.obj
 0001:00002948       ??_E?$EnumIteratorIniFileBase@V?$basic_string@_WU?$char_traits@_W@std@@V?$allocator@_W@2@@std@@@@UEAAPEAXI@Z 0000000180003948 f i * CIL library *:* CIL module *
 0001:00002948       ??_EEnumIteratorIniFileString@@UEAAPEAXI@Z 0000000180003948 f i * CIL library *:* CIL module *
 0001:00002948       ??_G?$EnumIteratorIniFileBase@V?$basic_string@_WU?$char_traits@_W@std@@V?$allocator@_W@2@@std@@@@UEAAPEAXI@Z 0000000180003948 f i portable_settings.obj
 0001:00002948       ??_GEnumIteratorIniFileString@@UEAAPEAXI@Z 0000000180003948 f i portable_settings.obj
 0001:000029f8       ??1?$EnumIteratorIniFileBase@V?$basic_string@_WU?$char_traits@_W@std@@V?$allocator@_W@2@@std@@@@UEAA@XZ 00000001800039f8 f i portable_settings.obj
 0001:00002a88       ??0IniFileSettings@@QEAA@PEB_W0_N@Z 0000000180003a88 f   portable_settings.obj
 0001:00002bd0       ??_EIniFileSettings@@UEAAPEAXI@Z 0000000180003bd0 f i * CIL library *:* CIL module *
 0001:00002bd0       ??_GIniFileSettings@@UEAAPEAXI@Z 0000000180003bd0 f i portable_settings.obj
 0001:00002c58       ??1IniFileSettings@@UEAA@XZ 0000000180003c58 f i portable_settings.obj
 0001:00002cc0       ?GetString@IniFileSettings@@UEBA?AV?$optional@V?$basic_string@_WU?$char_traits@_W@std@@V?$allocator@_W@2@@std@@@std@@PEB_W@Z 0000000180003cc0 f   portable_settings.obj
 0001:00002f98       ?SetString@IniFileSettings@@UEAAXPEB_W0@Z 0000000180003f98 f   portable_settings.obj
 0001:000032e0       ?GetInt@IniFileSettings@@UEBA?AV?$optional@H@std@@PEB_W@Z 00000001800042e0 f   portable_settings.obj
 0001:000033e8       ?SetInt@IniFileSettings@@UEAAXPEB_WH@Z 00000001800043e8 f   portable_settings.obj
 0001:000035c8       ?GetBinary@IniFileSettings@@UEBA?AV?$optional@V?$vector@EV?$allocator@E@std@@@std@@@std@@PEB_W@Z 00000001800045c8 f   portable_settings.obj
 0001:00003930       ?SetBinary@IniFileSettings@@UEAAXPEB_WPEBE_K@Z 0000000180004930 f   portable_settings.obj
 0001:00003c40       ?Remove@IniFileSettings@@UEAAXPEB_W@Z 0000000180004c40 f   portable_settings.obj
 0001:00003ce0       ?EnumIntValues@IniFileSettings@@UEBA?AV?$EnumIterator@H@PortableSettings@@XZ 0000000180004ce0 f   portable_settings.obj
 0001:00003fb8       ?EnumStringValues@IniFileSettings@@UEBA?AV?$EnumIterator@V?$basic_string@_WU?$char_traits@_W@std@@V?$allocator@_W@2@@std@@@PortableSettings@@XZ 0000000180004fb8 f   portable_settings.obj
 0001:000042a0       ??$?4U?$pair@V?$basic_string@_WU?$char_traits@_W@std@@V?$allocator@_W@2@@std@@V12@@std@@$0A@@?$pair@V?$basic_string@_WU?$char_traits@_W@std@@V?$allocator@_W@2@@std@@V12@@std@@QEAAAEAU01@$$QEAU01@@Z 00000001800052a0 f i portable_settings.obj
 0001:00004350       ??$safe_cast@K_K$0A@@wil@@YAK_K@Z 0000000180005350 f i portable_settings.obj
 0001:00004398       ??1?$_Tuple_val@V?$basic_string@_WU?$char_traits@_W@std@@V?$allocator@_W@2@@std@@@std@@QEAA@XZ 0000000180005398 f i portable_settings.obj
 0001:00004398       ??1?$basic_string@_WU?$char_traits@_W@std@@V?$allocator@_W@2@@std@@QEAA@XZ 0000000180005398 f i portable_settings.obj
 0001:00004398       ??1IniFilePath@StorageManager@@QEAA@XZ 0000000180005398 f i storage_manager.obj
 0001:00004398       ??1path@filesystem@std@@QEAA@XZ 0000000180005398 f i dll_inject.obj
 0001:000043e8       ??1?$vector@EV?$allocator@E@std@@@std@@QEAA@XZ 00000001800053e8 f i portable_settings.obj
 0001:00004428       ??_E?$EnumIteratorImpl@V?$basic_string@_WU?$char_traits@_W@std@@V?$allocator@_W@2@@std@@@@UEAAPEAXI@Z 0000000180005428 f i * CIL library *:* CIL module *
 0001:00004428       ??_G?$EnumIteratorImpl@V?$basic_string@_WU?$char_traits@_W@std@@V?$allocator@_W@2@@std@@@@UEAAPEAXI@Z 0000000180005428 f i portable_settings.obj
 0001:000044b0       ??_E?$EnumIteratorImpl@H@@UEAAPEAXI@Z 00000001800054b0 f i * CIL library *:* CIL module *
 0001:000044b0       ??_G?$EnumIteratorImpl@H@@UEAAPEAXI@Z 00000001800054b0 f i portable_settings.obj
 0001:00004510       ?_Xlength@?$vector@EV?$allocator@E@std@@@std@@CAXXZ 0000000180005510 f i portable_settings.obj
 0001:00004510       ?_Xlength@?$vector@PEAXV?$allocator@PEAX@std@@@std@@CAXXZ 0000000180005510 f i mod.obj
 0001:00004510       ?_Xlength@?$vector@PEBUtagWH_SYMBOL_HOOK@@V?$allocator@PEBUtagWH_SYMBOL_HOOK@@@std@@@std@@CAXXZ 0000000180005510 f i mod.obj
 0001:00004510       ?_Xlength@?$vector@UThreadCallStackRegionInfo@@V?$allocator@UThreadCallStackRegionInfo@@@std@@@std@@CAXXZ 0000000180005510 f i mods_manager.obj
 0001:00004510       ?_Xlength@?$vector@U_IMAGE_CHPE_RANGE_ENTRY@SymbolEnum@@V?$allocator@U_IMAGE_CHPE_RANGE_ENTRY@SymbolEnum@@@std@@@std@@CAXXZ 0000000180005510 f i symbol_enum.obj
 0001:00004510       ?_Xlength@?$vector@V?$basic_string@DU?$char_traits@D@std@@V?$allocator@D@2@@std@@V?$allocator@V?$basic_string@DU?$char_traits@D@std@@V?$allocator@D@2@@std@@@2@@std@@CAXXZ 0000000180005510 f i mod.obj
 0001:00004510       ?_Xlength@?$vector@V?$basic_string@_WU?$char_traits@_W@std@@V?$allocator@_W@2@@std@@V?$allocator@V?$basic_string@_WU?$char_traits@_W@std@@V?$allocator@_W@2@@std@@@2@@std@@CAXXZ 0000000180005510 f i functions.obj
 0001:00004510       ?_Xlength@?$vector@V?$basic_string_view@_WU?$char_traits@_W@std@@@std@@V?$allocator@V?$basic_string_view@_WU?$char_traits@_W@std@@@std@@@2@@std@@CAXXZ 0000000180005510 f i functions.obj
 0001:00004520       ?substr@?$basic_string@_WU?$char_traits@_W@std@@V?$allocator@_W@2@@std@@QEGBA?AV12@_K0@Z 0000000180005520 f i portable_settings.obj
 0001:00004640       wmemchr                    0000000180005640 f i portable_settings.obj
 0001:00004710       ??0?$basic_string@_WU?$char_traits@_W@std@@V?$allocator@_W@2@@std@@QEAA@AEBV01@@Z 0000000180005710 f i portable_settings.obj
 0001:000047f8       ??$_Construct@$00PEB_W@?$basic_string@_WU?$char_traits@_W@std@@V?$allocator@_W@2@@std@@AEAAXQEB_W_K@Z 00000001800057f8 f i portable_settings.obj
 0001:000048d8       ?_Xran@?$_String_val@U?$_Simple_types@_W@std@@@std@@SAXXZ 00000001800058d8 f i portable_settings.obj
 0001:000048e8       ?ULongLongToULong@@YAJ_KPEAK@Z 00000001800058e8 f i portable_settings.obj
 0001:00004910       ??$ReportFailure_Hr@$0A@@details@wil@@YAXPEAXIPEBD110JW4FailureFlags@1@@Z 0000000180005910 f i portable_settings.obj
 0001:00004948       ?_Throw_Hr@in1diag3@details@wil@@YAXPEAXIPEBDJ@Z 0000000180005948 f i portable_settings.obj
 0001:00004968       ?append@?$basic_string@_WU?$char_traits@_W@std@@V?$allocator@_W@2@@std@@QEAAAEAV12@QEB_W_K@Z 0000000180005968 f i portable_settings.obj
 0001:00004ac8       ?push_back@?$basic_string@_WU?$char_traits@_W@std@@V?$allocator@_W@2@@std@@QEAAX_W@Z 0000000180005ac8 f i portable_settings.obj
 0001:00004bf8       ?reserve@?$basic_string@_WU?$char_traits@_W@std@@V?$allocator@_W@2@@std@@QEAAX_K@Z 0000000180005bf8 f i portable_settings.obj
 0001:00004cf8       ??1bad_alloc@std@@UEAA@XZ  0000000180005cf8 f i portable_settings.obj
 0001:00004cf8       ??1bad_array_new_length@std@@UEAA@XZ 0000000180005cf8 f i portable_settings.obj
 0001:00004cf8       ??1bad_exception@std@@UEAA@XZ 0000000180005cf8 f i libvcruntime:frame.obj
 0001:00004cf8       ??1bad_function_call@std@@UEAA@XZ 0000000180005cf8 f i libcpmt:xthrow.obj
 0001:00004cf8       ??1bad_optional_access@std@@UEAA@XZ 0000000180005cf8 f i customization_session.obj
 0001:00004cf8       ??1bad_variant_access@std@@UEAA@XZ 0000000180005cf8 f i storage_manager.obj
 0001:00004cf8       ??1invalid_argument@std@@UEAA@XZ 0000000180005cf8 f i portable_settings.obj
 0001:00004cf8       ??1length_error@std@@UEAA@XZ 0000000180005cf8 f i libcpmt:xthrow.obj
 0001:00004cf8       ??1logic_error@std@@UEAA@XZ 0000000180005cf8 f i portable_settings.obj
 0001:00004cf8       ??1out_of_range@std@@UEAA@XZ 0000000180005cf8 f i libcpmt:xthrow.obj
 0001:00004cf8       ??1runtime_error@std@@UEAA@XZ 0000000180005cf8 f i dll_inject.obj
 0001:00004cf8       ??1system_error@std@@UEAA@XZ 0000000180005cf8 f i logger.obj
 0001:00004d08       ??_Ebad_alloc@std@@UEAAPEAXI@Z 0000000180005d08 f i * CIL library *:* CIL module *
 0001:00004d08       ??_Ebad_array_new_length@std@@UEAAPEAXI@Z 0000000180005d08 f i * CIL library *:* CIL module *
 0001:00004d08       ??_Ebad_optional_access@std@@UEAAPEAXI@Z 0000000180005d08 f i * CIL library *:* CIL module *
 0001:00004d08       ??_Ebad_variant_access@std@@UEAAPEAXI@Z 0000000180005d08 f i * CIL library *:* CIL module *
 0001:00004d08       ??_Eexception@std@@UEAAPEAXI@Z 0000000180005d08 f i * CIL library *:* CIL module *
 0001:00004d08       ??_Einvalid_argument@std@@UEAAPEAXI@Z 0000000180005d08 f i * CIL library *:* CIL module *
 0001:00004d08       ??_Elogic_error@std@@UEAAPEAXI@Z 0000000180005d08 f i * CIL library *:* CIL module *
 0001:00004d08       ??_Eruntime_error@std@@UEAAPEAXI@Z 0000000180005d08 f i * CIL library *:* CIL module *
 0001:00004d08       ??_Gbad_alloc@std@@UEAAPEAXI@Z 0000000180005d08 f i portable_settings.obj
 0001:00004d08       ??_Gbad_array_new_length@std@@UEAAPEAXI@Z 0000000180005d08 f i portable_settings.obj
 0001:00004d08       ??_Gbad_optional_access@std@@UEAAPEAXI@Z 0000000180005d08 f i customization_session.obj
 0001:00004d08       ??_Gbad_variant_access@std@@UEAAPEAXI@Z 0000000180005d08 f i storage_manager.obj
 0001:00004d08       ??_Gexception@std@@UEAAPEAXI@Z 0000000180005d08 f i portable_settings.obj
 0001:00004d08       ??_Ginvalid_argument@std@@UEAAPEAXI@Z 0000000180005d08 f i portable_settings.obj
 0001:00004d08       ??_Glogic_error@std@@UEAAPEAXI@Z 0000000180005d08 f i portable_settings.obj
 0001:00004d08       ??_Gruntime_error@std@@UEAAPEAXI@Z 0000000180005d08 f i dll_inject.obj
 0001:00004d50       ??0logic_error@std@@QEAA@PEBD@Z 0000000180005d50 f i portable_settings.obj
 0001:00004db8       ??0invalid_argument@std@@QEAA@PEBD@Z 0000000180005db8 f i portable_settings.obj
 0001:00004e20       ?RecordException@details@wil@@YAHJ@Z 0000000180005e20 f i portable_settings.obj
 0001:00004e38       ?RecordReturn@details@wil@@YAHJ@Z 0000000180005e38 f i portable_settings.obj
 0001:00004e50       ??$ReportFailure_Return@$01@details@wil@@YAXPEAXIPEBD110AEBUResultStatus@01@PEB_WW4ReportFailureOptions@01@W4FailureFlags@1@@Z 0000000180005e50 f i portable_settings.obj
 0001:00004ed8       ??$ReportFailure_Base@$01$0A@@details@wil@@YAXPEAXIPEBD110AEBUResultStatus@01@PEB_WW4ReportFailureOptions@01@W4FailureFlags@1@@Z 0000000180005ed8 f i portable_settings.obj
 0001:00004f00       ??$ReportFailure_Hr@$01@details@wil@@YAXPEAXIPEBD110JW4FailureFlags@1@@Z 0000000180005f00 f i portable_settings.obj
 0001:00004f40       ?RecordLog@details@wil@@YAHJ@Z 0000000180005f40 f i portable_settings.obj
 0001:00004f58       ?RecordFailFast@details@wil@@YAHJ@Z 0000000180005f58 f i portable_settings.obj
 0001:00004f68       ?_FailFastImmediate_Unexpected@in1diag3@details@wil@@YAXXZ 0000000180005f68 f i portable_settings.obj
 0001:00004f68       ?__throw_bad_function_call@wistd@@YAXXZ 0000000180005f68 f i functions.obj
 0001:00004f78       ?LogStringPrintf@details@wil@@YAPEA_WPEA_WPEB_W1ZZ 0000000180005f78 f i portable_settings.obj
 0001:00005050       ?GetFailureLogString@wil@@YAJPEA_W_KAEBUFailureInfo@1@@Z 0000000180006050 f i portable_settings.obj
 0001:00005340       ?LogFailure@details@wil@@YAXPEAXIPEBD110W4FailureType@2@AEBUResultStatus@12@PEB_W_NPEA_W_KPEAD7W4FailureFlags@2@PEAUFailureInfo@2@@Z 0000000180006340 f i portable_settings.obj
 0001:00005670       ?ThrowResultException@wil@@YAXAEBUFailureInfo@1@@Z 0000000180006670 f i portable_settings.obj
 0001:00005688       ?WilRaiseFailFastException@details@wil@@YAXPEAU_EXCEPTION_RECORD@@PEAU_CONTEXT@@K@Z 0000000180006688 f i portable_settings.obj
 0001:000056b8       ?WilFailFast@details@wil@@YAXAEBUFailureInfo@2@@Z 00000001800066b8 f i portable_settings.obj
 0001:00005760       ??$ReportFailure_NoReturn@$0A@@details@wil@@YAXPEAXIPEBD110AEBUResultStatus@01@PEB_WW4ReportFailureOptions@01@@Z 0000000180006760 f i portable_settings.obj
 0001:00005a08       ??$ReportFailure_Base@$0A@$0A@@details@wil@@YAXPEAXIPEBD110AEBUResultStatus@01@PEB_WW4ReportFailureOptions@01@W4FailureFlags@1@@Z 0000000180006a08 f i portable_settings.obj
 0001:00005a18       ?HrToNtStatus@details@wil@@YAJJ@Z 0000000180006a18 f i portable_settings.obj
 0001:00005cb0       ?FromResult@ResultStatus@details@wil@@SA?AU123@J@Z 0000000180006cb0 f i portable_settings.obj
 0001:00005cd8       ??$ReportFailure_Win32@$0A@@details@wil@@YAJPEAXIPEBD110K@Z 0000000180006cd8 f i portable_settings.obj
 0001:00005d20       ?Throw_Win32@in1diag3@details@wil@@YAXPEAXIPEBDK@Z 0000000180006d20 f i portable_settings.obj
 0001:00005d48       ??0?$basic_string@_WU?$char_traits@_W@std@@V?$allocator@_W@2@@std@@QEAA@$$QEAV01@@Z 0000000180006d48 f i portable_settings.obj
 0001:00005d70       ??4?$basic_string@_WU?$char_traits@_W@std@@V?$allocator@_W@2@@std@@QEAAAEAV01@$$QEAV01@@Z 0000000180006d70 f i portable_settings.obj
 0001:00005d70       ??4path@filesystem@std@@QEAAAEAV012@$$QEAV012@@Z 0000000180006d70 f i storage_manager.obj
 0001:00005dd8       ?_Xlen_string@std@@YAXXZ   0000000180006dd8 f i portable_settings.obj
 0001:00005de8       ??0bad_array_new_length@std@@QEAA@XZ 0000000180006de8 f i portable_settings.obj
 0001:00005e08       ??0bad_array_new_length@std@@QEAA@AEBV01@@Z 0000000180006e08 f i portable_settings.obj
 0001:00005e58       ??0bad_alloc@std@@QEAA@AEBV01@@Z 0000000180006e58 f i portable_settings.obj
 0001:00005ea8       ??0exception@std@@QEAA@AEBV01@@Z 0000000180006ea8 f i portable_settings.obj
 0001:00005ef0       ?_Throw_bad_array_new_length@std@@YAXXZ 0000000180006ef0 f i portable_settings.obj
 0001:00005f18       ??$_Reallocate_grow_by@V<lambda_1>@?1??append@?$basic_string@_WU?$char_traits@_W@std@@V?$allocator@_W@2@@std@@QEAAAEAV34@_K_W@Z@_K_W@?$basic_string@_WU?$char_traits@_W@std@@V?$allocator@_W@2@@std@@AEAAAEAV01@_KV<lambda_1>@?1??append@01@QEAAAEAV01@0_W@Z@_K_W@Z 0000000180006f18 f i portable_settings.obj
 0001:00006048       ?resize@?$basic_string@_WU?$char_traits@_W@std@@V?$allocator@_W@2@@std@@QEAAX_K_W@Z 0000000180007048 f i portable_settings.obj
 0001:000061c8       ?what@exception@std@@UEBAPEBDXZ 00000001800071c8 f i portable_settings.obj
 0001:000061e0       ?DllInject@0@YAXPEAX000_N@Z 00000001800071e0 f   dll_inject.obj
 0001:00007370       ?__autoclassinit2@?$unique_ptr@VPortableSettings@@U?$default_delete@VPortableSettings@@@std@@@std@@QEAAX_K@Z 0000000180008370 f i dll_inject.obj
 0001:00007378       ??1?$unique_any_t@V?$unique_storage@U?$handle_invalid_resource_policy@P6AHPEAX@Z$1?CloseHandle@@YAH0@Z@details@wil@@@details@wil@@@wil@@QEAA@XZ 0000000180008378 f i mod.obj
 0001:00007378       ??1?$unique_any_t@V?$unique_storage@U?$handle_null_resource_policy@P6AHPEAX@Z$1?CloseHandle@@YAH0@Z@details@wil@@@details@wil@@@wil@@QEAA@XZ 0000000180008378 f i dll_inject.obj
 0001:000073a8       ??1?$unique_any_t@V?$unique_storage@U?$handle_null_only_resource_policy@P6AHPEAX@Z$1?CloseHandle@@YAH0@Z@details@wil@@@details@wil@@@wil@@QEAA@XZ 00000001800083a8 f i dll_inject.obj
 0001:000073d0       ??$value_or@H@?$optional@H@std@@QEHAAH$$QEAH@Z 00000001800083d0 f i dll_inject.obj
 0001:000073e8       ??$?0$$BY0N@_W$0A@@path@filesystem@std@@QEAA@AEAY0N@$$CB_WW4format@012@@Z 00000001800083e8 f i dll_inject.obj
 0001:00007440       ??$?HDU?$char_traits@D@std@@V?$allocator@D@1@@std@@YA?AV?$basic_string@DU?$char_traits@D@std@@V?$allocator@D@2@@0@QEBD$$QEAV10@@Z 0000000180008440 f i dll_inject.obj
 0001:000075c8       ??C?$unique_ptr@VPortableSettings@@U?$default_delete@VPortableSettings@@@std@@@std@@QEBAPEAVPortableSettings@@XZ 00000001800085c8 f i dll_inject.obj
 0001:000075d0       ??1?$unique_ptr@VPortableSettings@@U?$default_delete@VPortableSettings@@@std@@@std@@QEAA@XZ 00000001800085d0 f i dll_inject.obj
 0001:000075f0       ?insert@?$basic_string@DU?$char_traits@D@std@@V?$allocator@D@2@@std@@QEAAAEAV12@_KQEBD0@Z 00000001800085f0 f i dll_inject.obj
 0001:00007780       ??1_Init_once_completer@std@@QEAA@XZ 0000000180008780 f i dll_inject.obj
 0001:000077b8       ??$_Integral_to_string@DJ@std@@YA?AV?$basic_string@DU?$char_traits@D@std@@V?$allocator@D@2@@0@J@Z 00000001800087b8 f i dll_inject.obj
 0001:00007930       ??1?$basic_string@DU?$char_traits@D@std@@V?$allocator@D@2@@std@@QEAA@XZ 0000000180008930 f i dll_inject.obj
 0001:00007980       ?to_string@std@@YA?AV?$basic_string@DU?$char_traits@D@std@@V?$allocator@D@2@@1@J@Z 0000000180008980 f i dll_inject.obj
 0001:000079a8       ??0runtime_error@std@@QEAA@AEBV?$basic_string@DU?$char_traits@D@std@@V?$allocator@D@2@@1@@Z 00000001800089a8 f i dll_inject.obj
 0001:00007a20       ?_Find_root_name_end@filesystem@std@@YAPEB_WQEB_W0@Z 0000000180008a20 f i dll_inject.obj
 0001:00007b58       ?compare@?$_WChar_traits@_W@std@@SAHQEB_W0_K@Z 0000000180008b58 f i dll_inject.obj
 0001:00007c58       ?assign@?$basic_string@_WU?$char_traits@_W@std@@V?$allocator@_W@2@@std@@QEAAAEAV12@QEB_W_K@Z 0000000180008c58 f i dll_inject.obj
 0001:00007d78       ??_0path@filesystem@std@@QEAAAEAV012@AEBV012@@Z 0000000180008d78 f i dll_inject.obj
 0001:00007f90       ??Kfilesystem@std@@YA?AVpath@01@AEBV201@0@Z 0000000180008f90 f i dll_inject.obj
 0001:000081e0       ??Bpath@filesystem@std@@QEBA?AV?$basic_string@_WU?$char_traits@_W@std@@V?$allocator@_W@2@@2@XZ 00000001800091e0 f i dll_inject.obj
 0001:00008210       ?GetLastErrorFail@details@wil@@YAKPEAXIPEBD110@Z 0000000180009210 f i dll_inject.obj
 0001:00008288       ??$ReportFailure_GetLastError@$0A@@details@wil@@YAKPEAXIPEBD110@Z 0000000180009288 f i dll_inject.obj
 0001:000082f0       ?_Throw_GetLastError@in1diag3@details@wil@@YAXPEAXIPEBD@Z 00000001800092f0 f i dll_inject.obj
 0001:00008308       ??0runtime_error@std@@QEAA@AEBV01@@Z 0000000180009308 f i dll_inject.obj
 0001:00008358       ?NtStatusToHr@details@wil@@YAJJ@Z 0000000180009358 f i dll_inject.obj
 0001:000083f8       ?FromStatus@ResultStatus@details@wil@@SA?AU123@J@Z 00000001800093f8 f i dll_inject.obj
 0001:00008428       ??$ReportFailure_NtStatus@$0A@@details@wil@@YAJPEAXIPEBD110J@Z 0000000180009428 f i dll_inject.obj
 0001:00008470       ?_Throw_NtStatus@in1diag3@details@wil@@YAXPEAXIPEBDJ@Z 0000000180009470 f i dll_inject.obj
 0001:00008490       ??0runtime_error@std@@QEAA@PEBD@Z 0000000180009490 f i dll_inject.obj
 0001:00008580       ?PatchEtwEventWrite@EtwStealth@@YA_NXZ 0000000180009580 f   etw_stealth.obj
 0001:000087c8       ?SuppressForCurrentThread@EtwStealth@@YAXXZ 00000001800097c8 f   etw_stealth.obj
 0001:00008818       ?ResumeForCurrentThread@EtwStealth@@YAXXZ 0000000180009818 f   etw_stealth.obj
 0001:00008868       ?wcsmatch@Functions@@YA_NPEB_W_K01@Z 0000000180009868 f   functions.obj
 0001:00008950       ?SplitStringToViews@Functions@@YA?AV?$vector@V?$basic_string_view@_WU?$char_traits@_W@std@@@std@@V?$allocator@V?$basic_string_view@_WU?$char_traits@_W@std@@@std@@@2@@std@@V?$basic_string_view@_WU?$char_traits@_W@std@@@3@_W@Z 0000000180009950 f   functions.obj
 0001:00008b58       ?ReplaceAll@Functions@@YA?AV?$basic_string@_WU?$char_traits@_W@std@@V?$allocator@_W@2@@std@@V?$basic_string_view@_WU?$char_traits@_W@std@@@3@00_N@Z 0000000180009b58 f   functions.obj
 0001:00008e18       ?DoesPathMatchPattern@Functions@@YA_NV?$basic_string_view@_WU?$char_traits@_W@std@@@std@@0_N@Z 0000000180009e18 f   functions.obj
 0001:00009498       ?MyCreateRemoteThread@Functions@@YAPEAXPEAXP6AK0@Z0K@Z 000000018000a498 f   functions.obj
 0001:000096a8       ?ModuleGetPDBInfo@Functions@@YA_NPEAXPEAU_GUID@@PEAK@Z 000000018000a6a8 f   functions.obj
 0001:00009858       ?GetModuleVersion@Functions@@YA?AV?$basic_string@DU?$char_traits@D@std@@V?$allocator@D@2@@std@@PEAUHINSTANCE__@@@Z 000000018000a858 f   functions.obj
 0001:00009bc8       ?SetThreadDescriptionIfAvailable@Functions@@YAJPEAXPEB_W@Z 000000018000abc8 f   functions.obj
 0001:00009d40       ??$ExpandEnvironmentStringsW@V?$basic_string@_WU?$char_traits@_W@std@@V?$allocator@_W@2@@std@@$0BAA@@wil@@YA?AV?$basic_string@_WU?$char_traits@_W@std@@V?$allocator@_W@2@@std@@PEB_W@Z 000000018000ad40 f i functions.obj
 0001:00009de8       ??1?$vector@V?$basic_string@_WU?$char_traits@_W@std@@V?$allocator@_W@2@@std@@V?$allocator@V?$basic_string@_WU?$char_traits@_W@std@@V?$allocator@_W@2@@std@@@2@@std@@QEAA@XZ 000000018000ade8 f i functions.obj
 0001:00009e80       ?find@?$basic_string@_WU?$char_traits@_W@std@@V?$allocator@_W@2@@std@@QEBA_K_W_K@Z 000000018000ae80 f i functions.obj
 0001:00009ed0       ??E_Iterator@?$split_view@V?$basic_string_view@_WU?$char_traits@_W@std@@@std@@V?$single_view@_W@ranges@2@@ranges@std@@QEAAAEAV0123@XZ 000000018000aed0 f i functions.obj
 0001:00009fb0       ??$AdaptFixedSizeToAllocatedResult@V?$basic_string@_WU?$char_traits@_W@std@@V?$allocator@_W@2@@std@@$0BAA@@wil@@YAJAEAV?$basic_string@_WU?$char_traits@_W@std@@V?$allocator@_W@2@@std@@V?$function@$$A6AJPEA_W_KPEA_K@Z@wistd@@@Z 000000018000afb0 f i functions.obj
 0001:0000a298       ?_Xran@?$basic_string_view@_WU?$char_traits@_W@std@@@std@@CAXXZ 000000018000b298 f i functions.obj
 0001:0000a2a8       ?__clone@?$__func@V<lambda_1>@?1???$ExpandEnvironmentStringsW@V?$basic_string@_WU?$char_traits@_W@std@@V?$allocator@_W@2@@std@@$0BAA@@wil@@YAJPEB_WAEAV?$basic_string@_WU?$char_traits@_W@std@@V?$allocator@_W@2@@std@@@Z@$$A6AJPEA_W_KPEA_K@Z@__function@wistd@@UEBAXPEAV?$__base@$$A6AJPEA_W_KPEA_K@Z@23@@Z 000000018000b2a8 f i functions.obj
 0001:0000a2a8       ?__move@?$__func@V<lambda_1>@?1???$ExpandEnvironmentStringsW@V?$basic_string@_WU?$char_traits@_W@std@@V?$allocator@_W@2@@std@@$0BAA@@wil@@YAJPEB_WAEAV?$basic_string@_WU?$char_traits@_W@std@@V?$allocator@_W@2@@std@@@Z@$$A6AJPEA_W_KPEA_K@Z@__function@wistd@@UEAAXPEAV?$__base@$$A6AJPEA_W_KPEA_K@Z@23@@Z 000000018000b2a8 f i functions.obj
 0001:0000a2c0       ??C?$optional@VMainLoopRunner@CustomizationSession@@@std@@QEAAPEAVMainLoopRunner@CustomizationSession@@XZ 000000018000b2c0 f i customization_session.obj
 0001:0000a2c0       ?destroy@?$__func@V<lambda_1>@?1???$ExpandEnvironmentStringsW@V?$basic_string@_WU?$char_traits@_W@std@@V?$allocator@_W@2@@std@@$0BAA@@wil@@YAJPEB_WAEAV?$basic_string@_WU?$char_traits@_W@std@@V?$allocator@_W@2@@std@@@Z@$$A6AJPEA_W_KPEA_K@Z@__function@wistd@@UEAAXXZ 000000018000b2c0 f i functions.obj
 0001:0000a2c0       ?destroy@?$__func@V<lambda_1>@?1???$GetEnvironmentVariableW@V?$basic_string@_WU?$char_traits@_W@std@@V?$allocator@_W@2@@std@@$0IA@@wil@@YAJPEB_WAEAV?$basic_string@_WU?$char_traits@_W@std@@V?$allocator@_W@2@@std@@@Z@$$A6AJPEA_W_KPEA_K@Z@__function@wistd@@UEAAXXZ 000000018000b2c0 f i storage_manager.obj
 0001:0000a2c0       ?destroy@?$__func@V<lambda_1>@?1???$K32GetModuleFileNameExW@V?$basic_string@_WU?$char_traits@_W@std@@V?$allocator@_W@2@@std@@$0IA@@wil@@YAJPEAXPEAUHINSTANCE__@@AEAV?$basic_string@_WU?$char_traits@_W@std@@V?$allocator@_W@2@@std@@@Z@$$A6AJPEA_W_KPEA_K@Z@__function@wistd@@UEAAXXZ 000000018000b2c0 f i mod.obj
 0001:0000a2c0       ?destroy@?$__func@V<lambda_1>@?1???$QueryFullProcessImageNameW@V?$basic_string@_WU?$char_traits@_W@std@@V?$allocator@_W@2@@std@@$0BAA@@wil@@YAJPEAXKAEAV?$basic_string@_WU?$char_traits@_W@std@@V?$allocator@_W@2@@std@@@Z@$$A6AJPEA_W_KPEA_K@Z@__function@wistd@@UEAAXXZ 000000018000b2c0 f i mod.obj
 0001:0000a2c0       _guard_check_icall_nop     000000018000b2c0 f i LIBCMT:guard_support.obj
 0001:0000a2c8       ??R?$__func@V<lambda_1>@?1???$ExpandEnvironmentStringsW@V?$basic_string@_WU?$char_traits@_W@std@@V?$allocator@_W@2@@std@@$0BAA@@wil@@YAJPEB_WAEAV?$basic_string@_WU?$char_traits@_W@std@@V?$allocator@_W@2@@std@@@Z@$$A6AJPEA_W_KPEA_K@Z@__function@wistd@@UEAAJ$$QEAPEA_W$$QEA_K$$QEAPEA_K@Z 000000018000b2c8 f i functions.obj
 0001:0000a338       ??_E?$__func@V<lambda_1>@?1???$ExpandEnvironmentStringsW@V?$basic_string@_WU?$char_traits@_W@std@@V?$allocator@_W@2@@std@@$0BAA@@wil@@YAJPEB_WAEAV?$basic_string@_WU?$char_traits@_W@std@@V?$allocator@_W@2@@std@@@Z@$$A6AJPEA_W_KPEA_K@Z@__function@wistd@@UEAAPEAXI@Z 000000018000b338 f i * CIL library *:* CIL module *
 0001:0000a338       ??_E?$__func@V<lambda_1>@?1???$GetEnvironmentVariableW@V?$basic_string@_WU?$char_traits@_W@std@@V?$allocator@_W@2@@std@@$0IA@@wil@@YAJPEB_WAEAV?$basic_string@_WU?$char_traits@_W@std@@V?$allocator@_W@2@@std@@@Z@$$A6AJPEA_W_KPEA_K@Z@__function@wistd@@UEAAPEAXI@Z 000000018000b338 f i * CIL library *:* CIL module *
 0001:0000a338       ??_G?$__func@V<lambda_1>@?1???$ExpandEnvironmentStringsW@V?$basic_string@_WU?$char_traits@_W@std@@V?$allocator@_W@2@@std@@$0BAA@@wil@@YAJPEB_WAEAV?$basic_string@_WU?$char_traits@_W@std@@V?$allocator@_W@2@@std@@@Z@$$A6AJPEA_W_KPEA_K@Z@__function@wistd@@UEAAPEAXI@Z 000000018000b338 f i functions.obj
 0001:0000a338       ??_G?$__func@V<lambda_1>@?1???$GetEnvironmentVariableW@V?$basic_string@_WU?$char_traits@_W@std@@V?$allocator@_W@2@@std@@$0IA@@wil@@YAJPEB_WAEAV?$basic_string@_WU?$char_traits@_W@std@@V?$allocator@_W@2@@std@@@Z@$$A6AJPEA_W_KPEA_K@Z@__function@wistd@@UEAAPEAXI@Z 000000018000b338 f i storage_manager.obj
 0001:0000a370       ??_E?$__base@$$A6AJPEA_W_KPEA_K@Z@__function@wistd@@UEAAPEAXI@Z 000000018000b370 f i * CIL library *:* CIL module *
 0001:0000a370       ??_G?$__base@$$A6AJPEA_W_KPEA_K@Z@__function@wistd@@UEAAPEAXI@Z 000000018000b370 f i functions.obj
 0001:0000a3a8       ??$ReportFailure_Hr@$00@details@wil@@YAXPEAXIPEBD110JW4FailureFlags@1@@Z 000000018000b3a8 f i functions.obj
 0001:0000a3e0       ?Return_Hr@in1diag3@details@wil@@YAXPEAXIPEBDJ@Z 000000018000b3e0 f i functions.obj
 0001:0000a408       ??0?$basic_string@_WU?$char_traits@_W@std@@V?$allocator@_W@2@@std@@QEAA@_K_W@Z 000000018000b408 f i functions.obj
 0001:0000a508       ?make@?$string_maker@V?$basic_string@_WU?$char_traits@_W@std@@V?$allocator@_W@2@@std@@@details@wil@@QEAAJPEB_W_K@Z 000000018000b508 f i functions.obj
 0001:0000a6d8       ??$ReportFailure_Return@$00@details@wil@@YAXPEAXIPEBD110AEBUResultStatus@01@PEB_WW4ReportFailureOptions@01@W4FailureFlags@1@@Z 000000018000b6d8 f i functions.obj
 0001:0000a958       ??$ReportFailure_Base@$00$0A@@details@wil@@YAXPEAXIPEBD110AEBUResultStatus@01@PEB_WW4ReportFailureOptions@01@W4FailureFlags@1@@Z 000000018000b958 f i functions.obj
 0001:0000a968       ??$ReportFailure_GetLastErrorHr@$00@details@wil@@YAJPEAXIPEBD110@Z 000000018000b968 f i functions.obj
 0001:0000aa30       ?Return_GetLastError@in1diag3@details@wil@@YAJPEAXIPEBD@Z 000000018000ba30 f i functions.obj
 0001:0000aa58       ?ULongLongToInt@@YAJ_KPEAH@Z 000000018000ba58 f i functions.obj
 0001:0000aa80       ??Y?$basic_string@DU?$char_traits@D@std@@V?$allocator@D@2@@std@@QEAAAEAV01@D@Z 000000018000ba80 f i functions.obj
 0001:0000aba0       ?to_string@std@@YA?AV?$basic_string@DU?$char_traits@D@std@@V?$allocator@D@2@@1@H@Z 000000018000bba0 f i functions.obj
 0001:0000ad18       ?append@?$basic_string@DU?$char_traits@D@std@@V?$allocator@D@2@@std@@QEAAAEAV12@QEBD_K@Z 000000018000bd18 f i functions.obj
 0001:0000ae68       ??1?$vector@UThreadCallStackRegionInfo@@V?$allocator@UThreadCallStackRegionInfo@@@std@@@std@@QEAA@XZ 000000018000be68 f i mods_manager.obj
 0001:0000ae68       ??1?$vector@V?$basic_string_view@_WU?$char_traits@_W@std@@@std@@V?$allocator@V?$basic_string_view@_WU?$char_traits@_W@std@@@std@@@2@@std@@QEAA@XZ 000000018000be68 f i functions.obj
 0001:0000b298       ??1?$_Hash_vec@V?$allocator@V?$_List_unchecked_const_iterator@V?$_List_val@U?$_List_simple_types@V?$basic_string@_WU?$char_traits@_W@std@@V?$allocator@_W@2@@std@@@std@@@std@@U_Iterator_base0@2@@std@@@std@@@std@@QEAA@XZ 000000018000c298 f i mods_manager.obj
 0001:0000b298       ??1?$_Hash_vec@V?$allocator@V?$_List_unchecked_iterator@V?$_List_val@U?$_List_simple_types@U?$pair@$$CBV?$basic_string@_WU?$char_traits@_W@std@@V?$allocator@_W@2@@std@@VMod@@@std@@@std@@@std@@@std@@@std@@@std@@QEAA@XZ 000000018000c298 f i mods_manager.obj
 0001:0000b298       ??1?$_Hash_vec@V?$allocator@V?$_List_unchecked_iterator@V?$_List_val@U?$_List_simple_types@U?$pair@QEAXURegionInfo@InjectionMonitor@@@std@@@std@@@std@@@std@@@std@@@std@@QEAA@XZ 000000018000c298 f i injection_monitor.obj
 0001:0000b298       ??1?$vector@PEAXV?$allocator@PEAX@std@@@std@@QEAA@XZ 000000018000c298 f i mod.obj
 0001:0000b298       ??1?$vector@PEBUtagWH_SYMBOL_HOOK@@V?$allocator@PEBUtagWH_SYMBOL_HOOK@@@std@@@std@@QEAA@XZ 000000018000c298 f i mod.obj
 0001:0000b2d8       ??1?$list@U?$pair@QEAXURegionInfo@InjectionMonitor@@@std@@V?$allocator@U?$pair@QEAXURegionInfo@InjectionMonitor@@@std@@@2@@std@@QEAA@XZ 000000018000c2d8 f i injection_monitor.obj
 0001:0000b338       ??1?$_Alloc_construct_ptr@V?$allocator@U?$_List_node@U?$pair@QEAXURegionInfo@InjectionMonitor@@@std@@PEAX@std@@@std@@@std@@QEAA@XZ 000000018000c338 f i injection_monitor.obj
 0001:0000b338       ??1?$_Alloc_construct_ptr@V?$allocator@U?$_List_node@V?$basic_string@_WU?$char_traits@_W@std@@V?$allocator@_W@2@@std@@PEAX@std@@@std@@@std@@QEAA@XZ 000000018000c338 f i mods_manager.obj
 0001:0000b338       ??1?$_List_node_emplace_op2@V?$allocator@U?$_List_node@U?$pair@QEAXURegionInfo@InjectionMonitor@@@std@@PEAX@std@@@std@@@std@@QEAA@XZ 000000018000c338 f i injection_monitor.obj
 0001:0000b350       ?_Assign_grow@?$_Hash_vec@V?$allocator@V?$_List_unchecked_const_iterator@V?$_List_val@U?$_List_simple_types@V?$basic_string@_WU?$char_traits@_W@std@@V?$allocator@_W@2@@std@@@std@@@std@@U_Iterator_base0@2@@std@@@std@@@std@@QEAAX_KV?$_List_unchecked_const_iterator@V?$_List_val@U?$_List_simple_types@V?$basic_string@_WU?$char_traits@_W@std@@V?$allocator@_W@2@@std@@@std@@@std@@U_Iterator_base0@2@@2@@Z 000000018000c350 f i mods_manager.obj
 0001:0000b350       ?_Assign_grow@?$_Hash_vec@V?$allocator@V?$_List_unchecked_iterator@V?$_List_val@U?$_List_simple_types@U?$pair@$$CBV?$basic_string@_WU?$char_traits@_W@std@@V?$allocator@_W@2@@std@@VMod@@@std@@@std@@@std@@@std@@@std@@@std@@QEAAX_KV?$_List_unchecked_iterator@V?$_List_val@U?$_List_simple_types@U?$pair@$$CBV?$basic_string@_WU?$char_traits@_W@std@@V?$allocator@_W@2@@std@@VMod@@@std@@@std@@@std@@@2@@Z 000000018000c350 f i mods_manager.obj
 0001:0000b350       ?_Assign_grow@?$_Hash_vec@V?$allocator@V?$_List_unchecked_iterator@V?$_List_val@U?$_List_simple_types@U?$pair@QEAXURegionInfo@InjectionMonitor@@@std@@@std@@@std@@@std@@@std@@@std@@QEAAX_KV?$_List_unchecked_iterator@V?$_List_val@U?$_List_simple_types@U?$pair@QEAXURegionInfo@InjectionMonitor@@@std@@@std@@@std@@@2@@Z 000000018000c350 f i injection_monitor.obj
 0001:0000b420       ?_Fnv1a_append_bytes@std@@YA_K_KQEBE_K@Z 000000018000c420 f i injection_monitor.obj
 0001:0000b4b0       ??1?$lock_guard@Vmutex@std@@@std@@QEAA@XZ 000000018000c4b0 f i injection_monitor.obj
 0001:0000b5a0       ??1ScopedThreadVerbosity@Logger@@QEAA@XZ 000000018000c5a0 f   logger.obj
 0001:0000b638       ?GetInstance@Logger@@SAAEAV1@XZ 000000018000c638 f   logger.obj
 0001:0000b718       ?ShouldLog@Logger@@QEAA_NW4Verbosity@LoggerBase@@@Z 000000018000c718 f   logger.obj
 0001:0000b760       ?GetThreadVerbosity@Logger@@CAAEAV?$optional@W4Verbosity@LoggerBase@@@std@@XZ 000000018000c760 f   logger.obj
 0001:0000ba10       ??1?$_Func_class@PEAPEAUCallbacks@SymbolEnum@@$$V@std@@QEAA@XZ 000000018000ca10 f i symbol_enum.obj
 0001:0000ba10       ??1?$_Func_class@PEAV?$optional@W4Verbosity@LoggerBase@@@std@@$$V@std@@QEAA@XZ 000000018000ca10 f i logger.obj
 0001:0000ba10       ??1?$_Func_class@XPEAPEAUCallbacks@SymbolEnum@@@std@@QEAA@XZ 000000018000ca10 f i symbol_enum.obj
 0001:0000ba10       ??1?$_Func_class@XPEAV?$optional@W4Verbosity@LoggerBase@@@std@@@std@@QEAA@XZ 000000018000ca10 f i logger.obj
 0001:0000ba10       ??1?$function@$$A6APEAPEAUCallbacks@SymbolEnum@@XZ@std@@QEAA@XZ 000000018000ca10 f i symbol_enum.obj
 0001:0000ba10       ??1?$function@$$A6APEAV?$optional@W4Verbosity@LoggerBase@@@std@@XZ@std@@QEAA@XZ 000000018000ca10 f i logger.obj
 0001:0000ba10       ??1?$function@$$A6AXPEAPEAUCallbacks@SymbolEnum@@@Z@std@@QEAA@XZ 000000018000ca10 f i symbol_enum.obj
 0001:0000ba10       ??1?$function@$$A6AXPEAV?$optional@W4Verbosity@LoggerBase@@@std@@@Z@std@@QEAA@XZ 000000018000ca10 f i logger.obj
 0001:0000ba10       ??1?$function@$$A6AXPEB_W@Z@std@@QEAA@XZ 000000018000ca10 f i mods_manager.obj
 0001:0000ba50       ?default_exit@?$ThreadLocal@PEAUCallbacks@SymbolEnum@@@@CAXPEAX@Z 000000018000ca50 f i symbol_enum.obj
 0001:0000ba50       ?default_exit@?$ThreadLocal@V?$optional@W4Verbosity@LoggerBase@@@std@@@@CAXPEAX@Z 000000018000ca50 f i logger.obj
 0001:0000baa8       ?_Delete_this@?$_Func_impl_no_alloc@U?$default_delete@PEAUCallbacks@SymbolEnum@@@std@@XPEAPEAUCallbacks@SymbolEnum@@@std@@EEAAX_N@Z 000000018000caa8 f i symbol_enum.obj
 0001:0000baa8       ?_Delete_this@?$_Func_impl_no_alloc@U?$default_delete@V?$optional@W4Verbosity@LoggerBase@@@std@@@std@@XPEAV?$optional@W4Verbosity@LoggerBase@@@2@@std@@EEAAX_N@Z 000000018000caa8 f i logger.obj
 0001:0000baa8       ?_Delete_this@?$_Func_impl_no_alloc@V<lambda_5_>@?0???0?$ThreadLocal@PEAUCallbacks@SymbolEnum@@@@QEAA@XZ@PEAPEAUCallbacks@SymbolEnum@@$$V@std@@EEAAX_N@Z 000000018000caa8 f i symbol_enum.obj
 0001:0000baa8       ?_Delete_this@?$_Func_impl_no_alloc@V<lambda_5_>@?0???0?$ThreadLocal@V?$optional@W4Verbosity@LoggerBase@@@std@@@@QEAA@XZ@PEAV?$optional@W4Verbosity@LoggerBase@@@std@@$$V@std@@EEAAX_N@Z 000000018000caa8 f i logger.obj
 0001:0000bab8       ?_Get@?$_Func_impl_no_alloc@U?$default_delete@PEAUCallbacks@SymbolEnum@@@std@@XPEAPEAUCallbacks@SymbolEnum@@@std@@EEBAPEBXXZ 000000018000cab8 f i symbol_enum.obj
 0001:0000bab8       ?_Get@?$_Func_impl_no_alloc@U?$default_delete@V?$optional@W4Verbosity@LoggerBase@@@std@@@std@@XPEAV?$optional@W4Verbosity@LoggerBase@@@2@@std@@EEBAPEBXXZ 000000018000cab8 f i logger.obj
 0001:0000bab8       ?_Get@?$_Func_impl_no_alloc@V<lambda_5_>@?0???0?$ThreadLocal@PEAUCallbacks@SymbolEnum@@@@QEAA@XZ@PEAPEAUCallbacks@SymbolEnum@@$$V@std@@EEBAPEBXXZ 000000018000cab8 f i symbol_enum.obj
 0001:0000bab8       ?_Get@?$_Func_impl_no_alloc@V<lambda_5_>@?0???0?$ThreadLocal@V?$optional@W4Verbosity@LoggerBase@@@std@@@@QEAA@XZ@PEAV?$optional@W4Verbosity@LoggerBase@@@std@@$$V@std@@EEBAPEBXXZ 000000018000cab8 f i logger.obj
 0001:0000bac0       ?_Target_type@?$_Func_impl_no_alloc@U?$default_delete@V?$optional@W4Verbosity@LoggerBase@@@std@@@std@@XPEAV?$optional@W4Verbosity@LoggerBase@@@2@@std@@EEBAAEBVtype_info@@XZ 000000018000cac0 f i logger.obj
 0001:0000bad0       ?_Do_call@?$_Func_impl_no_alloc@U?$default_delete@PEAUCallbacks@SymbolEnum@@@std@@XPEAPEAUCallbacks@SymbolEnum@@@std@@EEAAX$$QEAPEAPEAUCallbacks@SymbolEnum@@@Z 000000018000cad0 f i symbol_enum.obj
 0001:0000bad0       ?_Do_call@?$_Func_impl_no_alloc@U?$default_delete@V?$optional@W4Verbosity@LoggerBase@@@std@@@std@@XPEAV?$optional@W4Verbosity@LoggerBase@@@2@@std@@EEAAX$$QEAPEAV?$optional@W4Verbosity@LoggerBase@@@2@@Z 000000018000cad0 f i logger.obj
 0001:0000bae0       ?_Copy@?$_Func_impl_no_alloc@U?$default_delete@V?$optional@W4Verbosity@LoggerBase@@@std@@@std@@XPEAV?$optional@W4Verbosity@LoggerBase@@@2@@std@@EEBAPEAV?$_Func_base@XPEAV?$optional@W4Verbosity@LoggerBase@@@std@@@2@PEAX@Z 000000018000cae0 f i logger.obj
 0001:0000bae0       ?_Move@?$_Func_impl_no_alloc@U?$default_delete@V?$optional@W4Verbosity@LoggerBase@@@std@@@std@@XPEAV?$optional@W4Verbosity@LoggerBase@@@2@@std@@EEAAPEAV?$_Func_base@XPEAV?$optional@W4Verbosity@LoggerBase@@@std@@@2@PEAX@Z 000000018000cae0 f i logger.obj
 0001:0000baf8       ?_Target_type@?$_Func_impl_no_alloc@V<lambda_5_>@?0???0?$ThreadLocal@V?$optional@W4Verbosity@LoggerBase@@@std@@@@QEAA@XZ@PEAV?$optional@W4Verbosity@LoggerBase@@@std@@$$V@std@@EEBAAEBVtype_info@@XZ 000000018000caf8 f i logger.obj
 0001:0000bb08       ?_Do_call@?$_Func_impl_no_alloc@V<lambda_5_>@?0???0?$ThreadLocal@V?$optional@W4Verbosity@LoggerBase@@@std@@@@QEAA@XZ@PEAV?$optional@W4Verbosity@LoggerBase@@@std@@$$V@std@@EEAAPEAV?$optional@W4Verbosity@LoggerBase@@@2@XZ 000000018000cb08 f i logger.obj
 0001:0000bb28       ?_Copy@?$_Func_impl_no_alloc@V<lambda_5_>@?0???0?$ThreadLocal@V?$optional@W4Verbosity@LoggerBase@@@std@@@@QEAA@XZ@PEAV?$optional@W4Verbosity@LoggerBase@@@std@@$$V@std@@EEBAPEAV?$_Func_base@PEAV?$optional@W4Verbosity@LoggerBase@@@std@@$$V@2@PEAX@Z 000000018000cb28 f i logger.obj
 0001:0000bb28       ?_Move@?$_Func_impl_no_alloc@V<lambda_5_>@?0???0?$ThreadLocal@V?$optional@W4Verbosity@LoggerBase@@@std@@@@QEAA@XZ@PEAV?$optional@W4Verbosity@LoggerBase@@@std@@$$V@std@@EEAAPEAV?$_Func_base@PEAV?$optional@W4Verbosity@LoggerBase@@@std@@$$V@2@PEAX@Z 000000018000cb28 f i logger.obj
 0001:0000bb40       ??0system_error@std@@QEAA@AEBV01@@Z 000000018000cb40 f i logger.obj
 0001:0000bba8       ??0_System_error@std@@QEAA@AEBV01@@Z 000000018000cba8 f i logger.obj
 0001:0000bc00       ??_E_Generic_error_category@std@@UEAAPEAXI@Z 000000018000cc00 f i * CIL library *:* CIL module *
 0001:0000bc00       ??_E_System_error_category@std@@UEAAPEAXI@Z 000000018000cc00 f i * CIL library *:* CIL module *
 0001:0000bc00       ??_G_Generic_error_category@std@@UEAAPEAXI@Z 000000018000cc00 f i logger.obj
 0001:0000bc00       ??_G_System_error_category@std@@UEAAPEAXI@Z 000000018000cc00 f i logger.obj
 0001:0000bc30       ?name@_System_error_category@std@@UEBAPEBDXZ 000000018000cc30 f i logger.obj
 0001:0000bc40       ??1_System_error_message@std@@QEAA@XZ 000000018000cc40 f i logger.obj
 0001:0000bc48       ?message@_System_error_category@std@@UEBA?AV?$basic_string@DU?$char_traits@D@std@@V?$allocator@D@2@@2@H@Z 000000018000cc48 f i logger.obj
 0001:0000bd18       ?name@_Generic_error_category@std@@UEBAPEBDXZ 000000018000cd18 f i logger.obj
 0001:0000bd28       ?message@_Generic_error_category@std@@UEBA?AV?$basic_string@DU?$char_traits@D@std@@V?$allocator@D@2@@2@H@Z 000000018000cd28 f i logger.obj
 0001:0000bd80       ?generic_category@std@@YAAEBVerror_category@1@XZ 000000018000cd80 f i logger.obj
 0001:0000bd90       ?default_error_condition@_System_error_category@std@@UEBA?AVerror_condition@2@H@Z 000000018000cd90 f i logger.obj
 0001:0000be08       ?equivalent@error_category@std@@UEBA_NAEBVerror_code@2@H@Z 000000018000ce08 f i logger.obj
 0001:0000be38       ?default_error_condition@error_category@std@@UEBA?AVerror_condition@2@H@Z 000000018000ce38 f i logger.obj
 0001:0000be48       ?equivalent@error_category@std@@UEBA_NHAEBVerror_condition@2@@Z 000000018000ce48 f i logger.obj
 0001:0000bea8       ?system_category@std@@YAAEBVerror_category@1@XZ 000000018000cea8 f i logger.obj
 0001:0000beb8       ??0?$basic_string@DU?$char_traits@D@std@@V?$allocator@D@2@@std@@QEAA@AEBV01@@Z 000000018000ceb8 f i logger.obj
 0001:0000bf88       ??_E_System_error@std@@UEAAPEAXI@Z 000000018000cf88 f i * CIL library *:* CIL module *
 0001:0000bf88       ??_Esystem_error@std@@UEAAPEAXI@Z 000000018000cf88 f i * CIL library *:* CIL module *
 0001:0000bf88       ??_G_System_error@std@@UEAAPEAXI@Z 000000018000cf88 f i logger.obj
 0001:0000bf88       ??_Gsystem_error@std@@UEAAPEAXI@Z 000000018000cf88 f i logger.obj
 0001:0000bfd0       ??0_System_error@std@@IEAA@Verror_code@1@AEBV?$basic_string@DU?$char_traits@D@std@@V?$allocator@D@2@@1@@Z 000000018000cfd0 f i logger.obj
 0001:0000c150       ??$_Construct@$00PEBD@?$basic_string@DU?$char_traits@D@std@@V?$allocator@D@2@@std@@AEAAXQEBD_K@Z 000000018000d150 f i logger.obj
 0001:0000c210       ??0?$basic_string@DU?$char_traits@D@std@@V?$allocator@D@2@@std@@QEAA@QEBD@Z 000000018000d210 f i logger.obj
 0001:0000c260       ??0system_error@std@@QEAA@HAEBVerror_category@1@PEBD@Z 000000018000d260 f i logger.obj
 0001:0000c3b0       ??1Callbacks@SymbolEnum@@QEAA@XZ 000000018000d3b0 f i mod.obj
 0001:0000c410       ??0Callbacks@SymbolEnum@@QEAA@$$QEAU01@@Z 000000018000d410 f i mod.obj
 0001:0000ca10       ??1?$unique_any_t@V?$unique_storage@U?$resource_policy@PEAXP6APEAXPEAX@Z$1?LocalFree@@YAPEAX0@ZU?$integral_constant@_K$0A@@wistd@@PEAXPEAX$0A@$$T@details@wil@@@details@wil@@@wil@@QEAA@XZ 000000018000da10 f i mod.obj
 0001:0000da50       ??1?$unique_any_t@V?$unique_storage@U?$resource_policy@PEAUHINSTANCE__@@P6AHPEAU1@@Z$1?FreeLibrary@@YAH0@ZU?$integral_constant@_K$0A@@wistd@@PEAU1@PEAU1@$0A@$$T@details@wil@@@details@wil@@@wil@@QEAA@XZ 000000018000ea50 f i mod.obj
 0001:00010a40       ??0LoadedMod@@QEAA@PEB_W00_N11@Z 0000000180011a40 f   mod.obj
 0001:000111e0       ??1LoadedMod@@QEAA@XZ      00000001800121e0 f   mod.obj
 0001:00011788       ?GetIntValue@LoadedMod@@QEAAHPEB_WH@Z 0000000180012788 f   mod.obj
 0001:00011a90       ?SetIntValue@LoadedMod@@QEAAHPEB_WH@Z 0000000180012a90 f   mod.obj
 0001:00011d88       ?GetStringValue@LoadedMod@@QEAA_KPEB_WPEA_W_K@Z 0000000180012d88 f   mod.obj
 0001:00012188       ?SetStringValue@LoadedMod@@QEAAHPEB_W0@Z 0000000180013188 f   mod.obj
 0001:00012480       ?GetBinaryValue@LoadedMod@@QEAA_KPEB_WPEAX_K@Z 0000000180013480 f   mod.obj
 0001:000127d0       ?SetBinaryValue@LoadedMod@@QEAAHPEB_WPEBX_K@Z 00000001800137d0 f   mod.obj
 0001:000129f8       ?DeleteValue@LoadedMod@@QEAAHPEB_W@Z 00000001800139f8 f   mod.obj
 0001:00012c08       ?GetModStoragePath@LoadedMod@@QEAA_KPEA_W_K@Z 0000000180013c08 f   mod.obj
 0001:00012e48       ?GetIntSetting@LoadedMod@@QEAAHPEB_WPEAD@Z 0000000180013e48 f   mod.obj
 0001:000132d8       ?GetStringSetting@LoadedMod@@QEAAPEB_WPEB_WPEAD@Z 00000001800142d8 f   mod.obj
 0001:00013848       ?SetFunctionHook@LoadedMod@@QEAAHPEAX0PEAPEAX@Z 0000000180014848 f   mod.obj
 0001:00013c28       ?FindFirstSymbol4@LoadedMod@@QEAAPEAXPEAUHINSTANCE__@@PEBUtagWH_FIND_SYMBOL_OPTIONS@@PEAUtagWH_FIND_SYMBOL@@@Z 0000000180014c28 f   mod.obj
 0001:00015070       ?FindNextSymbol2@LoadedMod@@QEAAHPEAXPEAUtagWH_FIND_SYMBOL@@@Z 0000000180016070 f   mod.obj
 0001:00015560       ??1SymbolEnum@@QEAA@XZ     0000000180016560 f i mod.obj
 0001:00015630       ??1ModuleInfo@SymbolEnum@@QEAA@XZ 0000000180016630 f i mod.obj
 0001:00015670       ??1?$unique_any_t@V?$unique_storage@U?$resource_policy@PEA_WP6AXPEA_W@Z$1?MySysFreeString@@YAX0@ZU?$integral_constant@_K$0A@@wistd@@PEA_WPEA_W$0A@$$T@details@wil@@@details@wil@@@wil@@QEAA@XZ 0000000180016670 f i mod.obj
 0001:00015698       ?HookSymbols@LoadedMod@@QEAAHPEAUHINSTANCE__@@PEBUtagWH_SYMBOL_HOOK@@_KPEBUtagWH_HOOK_SYMBOLS_OPTIONS@@@Z 0000000180016698 f   mod.obj
 0001:000166c0       ?GetUrlContent@LoadedMod@@QEAAPEBUtagWH_URL_CONTENT@@PEB_WPEBUtagWH_GET_URL_CONTENT_OPTIONS@@@Z 00000001800176c0 f   mod.obj
 0001:00017840       ?HookSymbolsGetOnlineCache@LoadedMod@@AEAA?AV?$optional@V?$basic_string@_WU?$char_traits@_W@std@@V?$allocator@_W@2@@std@@@std@@PEB_WV?$basic_string_view@_WU?$char_traits@_W@std@@@3@@Z 0000000180018840 f   mod.obj
 0001:000181f8       ?SetTask@LoadedMod@@AEAAXPEB_W@Z 00000001800191f8 f   mod.obj
 0001:00018240       ?LogFunctionError@LoadedMod@@AEAAXAEBVexception@std@@@Z 0000000180019240 f   mod.obj
 0001:000183a0       ??0Mod@@QEAA@PEB_W@Z       00000001800193a0 f   mod.obj
 0001:000189b8       ?Load@Mod@@QEAA_N_N@Z      00000001800199b8 f   mod.obj
 0001:00019418       ?BeforeUninit@Mod@@QEAAXXZ 000000018001a418 f   mod.obj
 0001:00019600       ?Uninitialize@Mod@@QEAAXXZ 000000018001a600 f   mod.obj
 0001:000196a0       ?ApplyChangedSettings@Mod@@QEAA_NPEA_N@Z 000000018001a6a0 f   mod.obj
 0001:000199e0       ?ShouldLoadInRunningProcess@Mod@@SA_NPEB_W@Z 000000018001a9e0 f   mod.obj
 0001:0001a140       ?SetStatus@Mod@@AEAAXPEB_W@Z 000000018001b140 f   mod.obj
 0001:0001a188       ??$?H_WU?$char_traits@_W@std@@V?$allocator@_W@1@@std@@YA?AV?$basic_string@_WU?$char_traits@_W@std@@V?$allocator@_W@2@@0@$$QEAV10@QEB_W@Z 000000018001b188 f i mod.obj
 0001:0001a1f0       ??$?H_WU?$char_traits@_W@std@@V?$allocator@_W@1@@std@@YA?AV?$basic_string@_WU?$char_traits@_W@std@@V?$allocator@_W@2@@0@$$QEAV10@0@Z 000000018001b1f0 f i mod.obj
 0001:0001a3c8       ??$QueryFullProcessImageNameW@V?$basic_string@_WU?$char_traits@_W@std@@V?$allocator@_W@2@@std@@$0BAA@@wil@@YA?AV?$basic_string@_WU?$char_traits@_W@std@@V?$allocator@_W@2@@std@@PEAXK@Z 000000018001b3c8 f i mod.obj
 0001:0001a478       ??$?H_WU?$char_traits@_W@std@@V?$allocator@_W@1@@std@@YA?AV?$basic_string@_WU?$char_traits@_W@std@@V?$allocator@_W@2@@0@AEBV10@_W@Z 000000018001b478 f i mod.obj
 0001:0001a578       ??$?8_WU?$char_traits@_W@std@@V?$allocator@_W@1@@std@@YA_NAEBV?$basic_string@_WU?$char_traits@_W@std@@V?$allocator@_W@2@@0@QEB_W@Z 000000018001b578 f i mod.obj
 0001:0001a5e0       ??$value_or@AEAY00$$CB_W@?$optional@V?$basic_string@_WU?$char_traits@_W@std@@V?$allocator@_W@2@@std@@@std@@QEHAA?AV?$basic_string@_WU?$char_traits@_W@std@@V?$allocator@_W@2@@1@AEAY00$$CB_W@Z 000000018001b5e0 f i mod.obj
 0001:0001a660       ??$GetModuleFileNameW@V?$basic_string@_WU?$char_traits@_W@std@@V?$allocator@_W@2@@std@@$0IA@@wil@@YA?AV?$basic_string@_WU?$char_traits@_W@std@@V?$allocator@_W@2@@std@@PEAUHINSTANCE__@@@Z 000000018001b660 f i mod.obj
 0001:0001a710       ??$swprintf_s@$0CJ@@@YAHAEAY0CJ@_WPEB_WZZ 000000018001b710 f i mod.obj
 0001:0001a770       ??$?H_WU?$char_traits@_W@std@@V?$allocator@_W@1@@std@@YA?AV?$basic_string@_WU?$char_traits@_W@std@@V?$allocator@_W@2@@0@QEB_WAEBV10@@Z 000000018001b770 f i mod.obj
 0001:0001a8a0       ??$?H_WU?$char_traits@_W@std@@V?$allocator@_W@1@@std@@YA?AV?$basic_string@_WU?$char_traits@_W@std@@V?$allocator@_W@2@@0@QEB_W$$QEAV10@@Z 000000018001b8a0 f i mod.obj
 0001:0001aaa8       ??$make_unique@VSymbolEnum@@PEB_WAEAPEAUHINSTANCE__@@AEAY00$$CB_WAEAW4UndecorateMode@1@$0A@@std@@YA?AV?$unique_ptr@VSymbolEnum@@U?$default_delete@VSymbolEnum@@@std@@@0@$$QEAPEB_WAEAPEAUHINSTANCE__@@AEAY00$$CB_WAEAW4UndecorateMode@SymbolEnum@@@Z 000000018001baa8 f i mod.obj
 0001:0001aba0       ??$swprintf_s@$0DN@@@YAHAEAY0DN@_WPEB_WZZ 000000018001bba0 f i mod.obj
 0001:0001acf0       ??1?$vector@V?$basic_string@DU?$char_traits@D@std@@V?$allocator@D@2@@std@@V?$allocator@V?$basic_string@DU?$char_traits@D@std@@V?$allocator@D@2@@std@@@2@@std@@QEAA@XZ 000000018001bcf0 f i mod.obj
 0001:0001ad88       ??1?$unique_ptr@UtagWH_URL_CONTENT@@U?$default_delete@UtagWH_URL_CONTENT@@@std@@@std@@QEAA@XZ 000000018001bd88 f i mod.obj
 0001:0001ad88       ??1?$unique_ptr@VSandboxObject@ModSandbox@@U?$default_delete@VSandboxObject@ModSandbox@@@std@@@std@@QEAA@XZ 000000018001bd88 f i mod.obj
 0001:0001af70       ??1?$unique_ptr@VSymbolEnum@@U?$default_delete@VSymbolEnum@@@std@@@std@@QEAA@XZ 000000018001bf70 f i mod.obj
 0001:0001b000       ??1?$com_ptr_t@UIDiaDataSource@@Uerr_exception_policy@wil@@@wil@@QEAA@XZ 000000018001c000 f i symbol_enum.obj
 0001:0001b000       ??1?$com_ptr_t@UIDiaEnumSymbols@@Uerr_exception_policy@wil@@@wil@@QEAA@XZ 000000018001c000 f i mod.obj
 0001:0001b000       ??1?$com_ptr_t@UIDiaSession@@Uerr_exception_policy@wil@@@wil@@QEAA@XZ 000000018001c000 f i symbol_enum.obj
 0001:0001b000       ??1?$com_ptr_t@UIDiaSymbol@@Uerr_exception_policy@wil@@@wil@@QEAA@XZ 000000018001c000 f i mod.obj
 0001:0001b030       ??1?$unique_ptr@VLoadedMod@@U?$default_delete@VLoadedMod@@@std@@@std@@QEAA@XZ 000000018001c030 f i mod.obj
 0001:0001b068       ?push_back@?$vector@PEAXV?$allocator@PEAX@std@@@std@@QEAAXAEBQEAX@Z 000000018001c068 f i mod.obj
 0001:0001bc90       ??$AdaptFixedSizeToAllocatedResult@V?$basic_string@_WU?$char_traits@_W@std@@V?$allocator@_W@2@@std@@$0IA@@wil@@YAJAEAV?$basic_string@_WU?$char_traits@_W@std@@V?$allocator@_W@2@@std@@V?$function@$$A6AJPEA_W_KPEA_K@Z@wistd@@@Z 000000018001cc90 f i mod.obj
 0001:0001bf58       ??$_Uninitialized_move@PEAV?$basic_string@DU?$char_traits@D@std@@V?$allocator@D@2@@std@@V?$allocator@V?$basic_string@DU?$char_traits@D@std@@V?$allocator@D@2@@std@@@2@@std@@YAPEAV?$basic_string@DU?$char_traits@D@std@@V?$allocator@D@2@@0@QEAV10@0PEAV10@AEAV?$allocator@V?$basic_string@DU?$char_traits@D@std@@V?$allocator@D@2@@std@@@0@@Z 000000018001cf58 f i mod.obj
 0001:0001bfa0       ?__clone@?$__func@V<lambda_1>@?1???$QueryFullProcessImageNameW@V?$basic_string@_WU?$char_traits@_W@std@@V?$allocator@_W@2@@std@@$0BAA@@wil@@YAJPEAXKAEAV?$basic_string@_WU?$char_traits@_W@std@@V?$allocator@_W@2@@std@@@Z@$$A6AJPEA_W_KPEA_K@Z@__function@wistd@@UEBAXPEAV?$__base@$$A6AJPEA_W_KPEA_K@Z@23@@Z 000000018001cfa0 f i mod.obj
 0001:0001bfa0       ?__move@?$__func@V<lambda_1>@?1???$QueryFullProcessImageNameW@V?$basic_string@_WU?$char_traits@_W@std@@V?$allocator@_W@2@@std@@$0BAA@@wil@@YAJPEAXKAEAV?$basic_string@_WU?$char_traits@_W@std@@V?$allocator@_W@2@@std@@@Z@$$A6AJPEA_W_KPEA_K@Z@__function@wistd@@UEAAXPEAV?$__base@$$A6AJPEA_W_KPEA_K@Z@23@@Z 000000018001cfa0 f i mod.obj
 0001:0001bfb8       ??R?$__func@V<lambda_1>@?1???$QueryFullProcessImageNameW@V?$basic_string@_WU?$char_traits@_W@std@@V?$allocator@_W@2@@std@@$0BAA@@wil@@YAJPEAXKAEAV?$basic_string@_WU?$char_traits@_W@std@@V?$allocator@_W@2@@std@@@Z@$$A6AJPEA_W_KPEA_K@Z@__function@wistd@@UEAAJ$$QEAPEA_W$$QEA_K$$QEAPEA_K@Z 000000018001cfb8 f i mod.obj
 0001:0001c108       ??_E?$__func@V<lambda_1>@?1???$K32GetModuleFileNameExW@V?$basic_string@_WU?$char_traits@_W@std@@V?$allocator@_W@2@@std@@$0IA@@wil@@YAJPEAXPEAUHINSTANCE__@@AEAV?$basic_string@_WU?$char_traits@_W@std@@V?$allocator@_W@2@@std@@@Z@$$A6AJPEA_W_KPEA_K@Z@__function@wistd@@UEAAPEAXI@Z 000000018001d108 f i * CIL library *:* CIL module *
 0001:0001c108       ??_E?$__func@V<lambda_1>@?1???$QueryFullProcessImageNameW@V?$basic_string@_WU?$char_traits@_W@std@@V?$allocator@_W@2@@std@@$0BAA@@wil@@YAJPEAXKAEAV?$basic_string@_WU?$char_traits@_W@std@@V?$allocator@_W@2@@std@@@Z@$$A6AJPEA_W_KPEA_K@Z@__function@wistd@@UEAAPEAXI@Z 000000018001d108 f i * CIL library *:* CIL module *
 0001:0001c108       ??_G?$__func@V<lambda_1>@?1???$K32GetModuleFileNameExW@V?$basic_string@_WU?$char_traits@_W@std@@V?$allocator@_W@2@@std@@$0IA@@wil@@YAJPEAXPEAUHINSTANCE__@@AEAV?$basic_string@_WU?$char_traits@_W@std@@V?$allocator@_W@2@@std@@@Z@$$A6AJPEA_W_KPEA_K@Z@__function@wistd@@UEAAPEAXI@Z 000000018001d108 f i mod.obj
 0001:0001c108       ??_G?$__func@V<lambda_1>@?1???$QueryFullProcessImageNameW@V?$basic_string@_WU?$char_traits@_W@std@@V?$allocator@_W@2@@std@@$0BAA@@wil@@YAJPEAXKAEAV?$basic_string@_WU?$char_traits@_W@std@@V?$allocator@_W@2@@std@@@Z@$$A6AJPEA_W_KPEA_K@Z@__function@wistd@@UEAAPEAXI@Z 000000018001d108 f i mod.obj
 0001:0001c140       ??$_Emplace_reallocate@PEBUtagWH_SYMBOL_HOOK@@@?$vector@PEBUtagWH_SYMBOL_HOOK@@V?$allocator@PEBUtagWH_SYMBOL_HOOK@@@std@@@std@@AEAAPEAPEBUtagWH_SYMBOL_HOOK@@QEAPEBU2@$$QEAPEBU2@@Z 000000018001d140 f i mod.obj
 0001:0001c268       ?__clone@?$__func@V<lambda_1>@?1???$K32GetModuleFileNameExW@V?$basic_string@_WU?$char_traits@_W@std@@V?$allocator@_W@2@@std@@$0IA@@wil@@YAJPEAXPEAUHINSTANCE__@@AEAV?$basic_string@_WU?$char_traits@_W@std@@V?$allocator@_W@2@@std@@@Z@$$A6AJPEA_W_KPEA_K@Z@__function@wistd@@UEBAXPEAV?$__base@$$A6AJPEA_W_KPEA_K@Z@23@@Z 000000018001d268 f i mod.obj
 0001:0001c268       ?__move@?$__func@V<lambda_1>@?1???$K32GetModuleFileNameExW@V?$basic_string@_WU?$char_traits@_W@std@@V?$allocator@_W@2@@std@@$0IA@@wil@@YAJPEAXPEAUHINSTANCE__@@AEAV?$basic_string@_WU?$char_traits@_W@std@@V?$allocator@_W@2@@std@@@Z@$$A6AJPEA_W_KPEA_K@Z@__function@wistd@@UEAAXPEAV?$__base@$$A6AJPEA_W_KPEA_K@Z@23@@Z 000000018001d268 f i mod.obj
 0001:0001c280       ??R?$__func@V<lambda_1>@?1???$K32GetModuleFileNameExW@V?$basic_string@_WU?$char_traits@_W@std@@V?$allocator@_W@2@@std@@$0IA@@wil@@YAJPEAXPEAUHINSTANCE__@@AEAV?$basic_string@_WU?$char_traits@_W@std@@V?$allocator@_W@2@@std@@@Z@$$A6AJPEA_W_KPEA_K@Z@__function@wistd@@UEAAJ$$QEAPEA_W$$QEA_K$$QEAPEA_K@Z 000000018001d280 f i mod.obj
 0001:0001c358       ?_Throw_Win32@in1diag3@details@wil@@YAXPEAXIPEBDK@Z 000000018001d358 f i mod.obj
 0001:0001c378       ?resize@?$basic_string@DU?$char_traits@D@std@@V?$allocator@D@2@@std@@QEAAX_KD@Z 000000018001d378 f i mod.obj
 0001:0001c4e0       ??1?$unique_ptr@$$BY0A@_WU?$default_delete@$$BY0A@_W@std@@@std@@QEAA@XZ 000000018001d4e0 f i mod.obj
 0001:0001c4f0       ?empty@?$basic_string@_WU?$char_traits@_W@std@@V?$allocator@_W@2@@std@@QEBA_NXZ 000000018001d4f0 f i mod.obj
 0001:0001c500       ??$ReportFailure_Hr@$02@details@wil@@YAXPEAXIPEBD110JW4FailureFlags@1@@Z 000000018001d500 f i mod.obj
 0001:0001c538       ?FailFast_Unexpected@in1diag3@details@wil@@YAXPEAXIPEBD@Z 000000018001d538 f i mod.obj
 0001:0001c558       ??1?$unique_any_t@V?$unique_storage@U?$resource_policy@PEAXP6AXPEAX@_E$1?ReleaseMutex@details@wil@@YAX0@ZU?$integral_constant@_K$01@wistd@@PEAXPEAX$0A@$$T@details@wil@@@details@wil@@@wil@@QEAA@XZ 000000018001d558 f i mod.obj
 0001:0001c598       ??1?$unique_any_t@V?$event_t@V?$unique_storage@U?$resource_policy@PEAXP6AXPEAX@_E$1?CloseHandle@details@wil@@YAX0@ZU?$integral_constant@_K$0A@@wistd@@PEAXPEAX$0A@$$T@details@wil@@@details@wil@@Uerr_returncode_policy@3@@wil@@@wil@@QEAA@XZ 000000018001d598 f i customization_session.obj
 0001:0001c598       ??1?$unique_any_t@V?$mutex_t@V?$unique_storage@U?$resource_policy@PEAXP6AXPEAX@_E$1?CloseHandle@details@wil@@YAX0@ZU?$integral_constant@_K$0A@@wistd@@PEAXPEAX$0A@$$T@details@wil@@@details@wil@@Uerr_returncode_policy@3@@wil@@@wil@@QEAA@XZ 000000018001d598 f i mod.obj
 0001:0001c598       ??1?$unique_any_t@V?$semaphore_t@V?$unique_storage@U?$resource_policy@PEAXP6AXPEAX@_E$1?CloseHandle@details@wil@@YAX0@ZU?$integral_constant@_K$0A@@wistd@@PEAXPEAX$0A@$$T@details@wil@@@details@wil@@Uerr_exception_policy@3@@wil@@@wil@@QEAA@XZ 000000018001d598 f i customization_session.obj
 0001:0001c598       ??1?$unique_storage@U?$resource_policy@PEAXP6AXPEAX@_E$1?CloseHandle@details@wil@@YAX0@ZU?$integral_constant@_K$0A@@wistd@@PEAXPEAX$0A@$$T@details@wil@@@details@wil@@QEAA@XZ 000000018001d598 f i mod.obj
 0001:0001c5d8       ??$ReportFailure_NoReturn@$02@details@wil@@YAXPEAXIPEBD110AEBUResultStatus@01@PEB_WW4ReportFailureOptions@01@@Z 000000018001d5d8 f i mod.obj
 0001:0001c838       ??$ReportFailure_Base@$02$0A@@details@wil@@YAXPEAXIPEBD110AEBUResultStatus@01@PEB_WW4ReportFailureOptions@01@W4FailureFlags@1@@Z 000000018001d838 f i mod.obj
 0001:0001c848       ??$ReportFailure_GetLastError@$02@details@wil@@YAKPEAXIPEBD110@Z 000000018001d848 f i mod.obj
 0001:0001c8b0       ?_FailFast_GetLastError@in1diag3@details@wil@@YAXPEAXIPEBD@Z 000000018001d8b0 f i mod.obj
 0001:0001c978       InternalWh_IsLogEnabled    000000018001d978 f   mods_api.obj
 0001:0001c9a8       InternalWh_Log             000000018001d9a8 f   mods_api.obj
 0001:0001ca30       InternalWh_GetIntValue     000000018001da30 f   mods_api.obj
 0001:0001ca38       InternalWh_SetIntValue     000000018001da38 f   mods_api.obj
 0001:0001ca40       InternalWh_GetStringValue  000000018001da40 f   mods_api.obj
 0001:0001ca48       InternalWh_SetStringValue  000000018001da48 f   mods_api.obj
 0001:0001ca50       InternalWh_GetBinaryValue  000000018001da50 f   mods_api.obj
 0001:0001ca58       InternalWh_SetBinaryValue  000000018001da58 f   mods_api.obj
 0001:0001ca60       InternalWh_DeleteValue     000000018001da60 f   mods_api.obj
 0001:0001ca68       InternalWh_GetModStoragePath 000000018001da68 f   mods_api.obj
 0001:0001ca70       InternalWh_GetIntSetting   000000018001da70 f   mods_api.obj
 0001:0001ca78       InternalWh_GetStringSetting 000000018001da78 f   mods_api.obj
 0001:0001ca80       InternalWh_FreeStringSetting 000000018001da80 f   mods_api.obj
 0001:0001cb08       InternalWh_SetFunctionHook 000000018001db08 f   mods_api.obj
 0001:0001cb10       InternalWh_RemoveFunctionHook 000000018001db10 f   mods_api.obj
 0001:0001cdf8       InternalWh_ApplyHookOperations 000000018001ddf8 f   mods_api.obj
 0001:0001d080       ?InternalWh_FindFirstSymbol@@YAPEAXPEAXPEAUHINSTANCE__@@PEB_WPEAE@Z 000000018001e080 f   mods_api.obj
 0001:0001d0e8       ?InternalWh_FindFirstSymbol2@@YAPEAXPEAXPEAUHINSTANCE__@@PEB_WPEAUtagWH_FIND_SYMBOL@@@Z 000000018001e0e8 f   mods_api.obj
 0001:0001d120       ?InternalWh_FindFirstSymbol3@@YAPEAXPEAXPEAUHINSTANCE__@@PEBEPEAUtagWH_FIND_SYMBOL@@@Z 000000018001e120 f   mods_api.obj
 0001:0001d178       InternalWh_FindFirstSymbol4 000000018001e178 f   mods_api.obj
 0001:0001d180       ?InternalWh_FindNextSymbol@@YAHPEAX0PEAE@Z 000000018001e180 f   mods_api.obj
 0001:0001d1c0       InternalWh_FindNextSymbol2 000000018001e1c0 f   mods_api.obj
 0001:0001d1c8       InternalWh_FindCloseSymbol 000000018001e1c8 f   mods_api.obj
 0001:0001d250       InternalWh_HookSymbols     000000018001e250 f   mods_api.obj
 0001:0001d258       InternalWh_Disasm          000000018001e258 f   mods_api.obj
 0001:0001d3a0       InternalWh_GetUrlContent   000000018001e3a0 f   mods_api.obj
 0001:0001d3a8       InternalWh_FreeUrlContent  000000018001e3a8 f   mods_api.obj
 0001:0001d430       ??0ModsManager@@QEAA@XZ    000000018001e430 f   mods_manager.obj
 0001:0001d5a0       ??1?$unordered_map@V?$basic_string@_WU?$char_traits@_W@std@@V?$allocator@_W@2@@std@@VMod@@U?$hash@V?$basic_string@_WU?$char_traits@_W@std@@V?$allocator@_W@2@@std@@@2@U?$equal_to@V?$basic_string@_WU?$char_traits@_W@std@@V?$allocator@_W@2@@std@@@2@V?$allocator@U?$pair@$$CBV?$basic_string@_WU?$char_traits@_W@std@@V?$allocator@_W@2@@std@@VMod@@@std@@@2@@std@@QEAA@XZ 000000018001e5a0 f i mods_manager.obj
 0001:0001d5f8       ??1ModsManager@@QEAA@XZ    000000018001e5f8 f   mods_manager.obj
 0001:0001d8b0       ?AfterInit@ModsManager@@QEAAXXZ 000000018001e8b0 f   mods_manager.obj
 0001:0001d990       ?BeforeUninit@ModsManager@@QEAAXXZ 000000018001e990 f   mods_manager.obj
 0001:0001d9f0       ?ReloadModsAndSettings@ModsManager@@QEAAXXZ 000000018001e9f0 f   mods_manager.obj
 0001:0001ef90       ??1?$unordered_set@V?$basic_string@_WU?$char_traits@_W@std@@V?$allocator@_W@2@@std@@U?$hash@V?$basic_string@_WU?$char_traits@_W@std@@V?$allocator@_W@2@@std@@@2@U?$equal_to@V?$basic_string@_WU?$char_traits@_W@std@@V?$allocator@_W@2@@std@@@2@V?$allocator@V?$basic_string@_WU?$char_traits@_W@std@@V?$allocator@_W@2@@std@@@2@@std@@QEAA@XZ 000000018001ff90 f i mods_manager.obj
 0001:0001ef98       ??1?$_Hash@V?$_Uset_traits@V?$basic_string@_WU?$char_traits@_W@std@@V?$allocator@_W@2@@std@@V?$_Uhash_compare@V?$basic_string@_WU?$char_traits@_W@std@@V?$allocator@_W@2@@std@@U?$hash@V?$basic_string@_WU?$char_traits@_W@std@@V?$allocator@_W@2@@std@@@2@U?$equal_to@V?$basic_string@_WU?$char_traits@_W@std@@V?$allocator@_W@2@@std@@@2@@2@V?$allocator@V?$basic_string@_WU?$char_traits@_W@std@@V?$allocator@_W@2@@std@@@2@$0A@@std@@@std@@QEAA@XZ 000000018001ff98 f i mods_manager.obj
 0001:0001f050       ??$emplace@AEAPEB_WAEAPEB_W@?$_Hash@V?$_Umap_traits@V?$basic_string@_WU?$char_traits@_W@std@@V?$allocator@_W@2@@std@@VMod@@V?$_Uhash_compare@V?$basic_string@_WU?$char_traits@_W@std@@V?$allocator@_W@2@@std@@U?$hash@V?$basic_string@_WU?$char_traits@_W@std@@V?$allocator@_W@2@@std@@@2@U?$equal_to@V?$basic_string@_WU?$char_traits@_W@std@@V?$allocator@_W@2@@std@@@2@@2@V?$allocator@U?$pair@$$CBV?$basic_string@_WU?$char_traits@_W@std@@V?$allocator@_W@2@@std@@VMod@@@std@@@2@$0A@@std@@@std@@QEAA?AU?$pair@V?$_List_iterator@V?$_List_val@U?$_List_simple_types@U?$pair@$$CBV?$basic_string@_WU?$char_traits@_W@std@@V?$allocator@_W@2@@std@@VMod@@@std@@@std@@@std@@@std@@_N@1@AEAPEB_W0@Z 0000000180020050 f i mods_manager.obj
 0001:0001f320       ??$emplace@AEAPEB_W@?$_Hash@V?$_Uset_traits@V?$basic_string@_WU?$char_traits@_W@std@@V?$allocator@_W@2@@std@@V?$_Uhash_compare@V?$basic_string@_WU?$char_traits@_W@std@@V?$allocator@_W@2@@std@@U?$hash@V?$basic_string@_WU?$char_traits@_W@std@@V?$allocator@_W@2@@std@@@2@U?$equal_to@V?$basic_string@_WU?$char_traits@_W@std@@V?$allocator@_W@2@@std@@@2@@2@V?$allocator@V?$basic_string@_WU?$char_traits@_W@std@@V?$allocator@_W@2@@std@@@2@$0A@@std@@@std@@QEAA?AU?$pair@V?$_List_const_iterator@V?$_List_val@U?$_List_simple_types@V?$basic_string@_WU?$char_traits@_W@std@@V?$allocator@_W@2@@std@@@std@@@std@@@std@@_N@1@AEAPEB_W@Z 0000000180020320 f i mods_manager.obj
 0001:0001f7d0       ??$emplace_back@AEAPEB_W@?$vector@V?$basic_string@_WU?$char_traits@_W@std@@V?$allocator@_W@2@@std@@V?$allocator@V?$basic_string@_WU?$char_traits@_W@std@@V?$allocator@_W@2@@std@@@2@@std@@QEAAAEAV?$basic_string@_WU?$char_traits@_W@std@@V?$allocator@_W@2@@1@AEAPEB_W@Z 00000001800207d0 f i mods_manager.obj
 0001:0001fa70       ??1?$list@V?$basic_string@_WU?$char_traits@_W@std@@V?$allocator@_W@2@@std@@V?$allocator@V?$basic_string@_WU?$char_traits@_W@std@@V?$allocator@_W@2@@std@@@2@@std@@QEAA@XZ 0000000180020a70 f i mods_manager.obj
 0001:0001fb08       ??0?$unordered_set@V?$basic_string@_WU?$char_traits@_W@std@@V?$allocator@_W@2@@std@@U?$hash@V?$basic_string@_WU?$char_traits@_W@std@@V?$allocator@_W@2@@std@@@2@U?$equal_to@V?$basic_string@_WU?$char_traits@_W@std@@V?$allocator@_W@2@@std@@@2@V?$allocator@V?$basic_string@_WU?$char_traits@_W@std@@V?$allocator@_W@2@@std@@@2@@std@@QEAA@XZ 0000000180020b08 f i mods_manager.obj
 0001:0001fb80       ??1?$list@U?$pair@$$CBV?$basic_string@_WU?$char_traits@_W@std@@V?$allocator@_W@2@@std@@VMod@@@std@@V?$allocator@U?$pair@$$CBV?$basic_string@_WU?$char_traits@_W@std@@V?$allocator@_W@2@@std@@VMod@@@std@@@2@@std@@QEAA@XZ 0000000180020b80 f i mods_manager.obj
 0001:0001fc20       ??$_Find_last@V?$basic_string@_WU?$char_traits@_W@std@@V?$allocator@_W@2@@std@@@?$_Hash@V?$_Umap_traits@V?$basic_string@_WU?$char_traits@_W@std@@V?$allocator@_W@2@@std@@VMod@@V?$_Uhash_compare@V?$basic_string@_WU?$char_traits@_W@std@@V?$allocator@_W@2@@std@@U?$hash@V?$basic_string@_WU?$char_traits@_W@std@@V?$allocator@_W@2@@std@@@2@U?$equal_to@V?$basic_string@_WU?$char_traits@_W@std@@V?$allocator@_W@2@@std@@@2@@2@V?$allocator@U?$pair@$$CBV?$basic_string@_WU?$char_traits@_W@std@@V?$allocator@_W@2@@std@@VMod@@@std@@@2@$0A@@std@@@std@@IEBA?AU?$_Hash_find_last_result@PEAU?$_List_node@U?$pair@$$CBV?$basic_string@_WU?$char_traits@_W@std@@V?$allocator@_W@2@@std@@VMod@@@std@@PEAX@std@@@1@AEBV?$basic_string@_WU?$char_traits@_W@std@@V?$allocator@_W@2@@1@_K@Z 0000000180020c20 f i mods_manager.obj
 0001:0001fc20       ??$_Find_last@V?$basic_string@_WU?$char_traits@_W@std@@V?$allocator@_W@2@@std@@@?$_Hash@V?$_Uset_traits@V?$basic_string@_WU?$char_traits@_W@std@@V?$allocator@_W@2@@std@@V?$_Uhash_compare@V?$basic_string@_WU?$char_traits@_W@std@@V?$allocator@_W@2@@std@@U?$hash@V?$basic_string@_WU?$char_traits@_W@std@@V?$allocator@_W@2@@std@@@2@U?$equal_to@V?$basic_string@_WU?$char_traits@_W@std@@V?$allocator@_W@2@@std@@@2@@2@V?$allocator@V?$basic_string@_WU?$char_traits@_W@std@@V?$allocator@_W@2@@std@@@2@$0A@@std@@@std@@IEBA?AU?$_Hash_find_last_result@PEAU?$_List_node@V?$basic_string@_WU?$char_traits@_W@std@@V?$allocator@_W@2@@std@@PEAX@std@@@1@AEBV?$basic_string@_WU?$char_traits@_W@std@@V?$allocator@_W@2@@1@_K@Z 0000000180020c20 f i mods_manager.obj
 0001:0001fcd8       ??1?$_List_node_emplace_op2@V?$allocator@U?$_List_node@V?$basic_string@_WU?$char_traits@_W@std@@V?$allocator@_W@2@@std@@PEAX@std@@@std@@@std@@QEAA@XZ 0000000180020cd8 f i mods_manager.obj
 0001:0001fd38       ??1?$_List_node_emplace_op2@V?$allocator@U?$_List_node@U?$pair@$$CBV?$basic_string@_WU?$char_traits@_W@std@@V?$allocator@_W@2@@std@@VMod@@@std@@PEAX@std@@@std@@@std@@QEAA@XZ 0000000180020d38 f i mods_manager.obj
 0001:0001fda0       ?_Rehash_for_1@?$_Hash@V?$_Umap_traits@V?$basic_string@_WU?$char_traits@_W@std@@V?$allocator@_W@2@@std@@VMod@@V?$_Uhash_compare@V?$basic_string@_WU?$char_traits@_W@std@@V?$allocator@_W@2@@std@@U?$hash@V?$basic_string@_WU?$char_traits@_W@std@@V?$allocator@_W@2@@std@@@2@U?$equal_to@V?$basic_string@_WU?$char_traits@_W@std@@V?$allocator@_W@2@@std@@@2@@2@V?$allocator@U?$pair@$$CBV?$basic_string@_WU?$char_traits@_W@std@@V?$allocator@_W@2@@std@@VMod@@@std@@@2@$0A@@std@@@std@@IEAAXXZ 0000000180020da0 f i mods_manager.obj
 0001:00020018       ?_Insert_new_node_before@?$_Hash@V?$_Umap_traits@V?$basic_string@_WU?$char_traits@_W@std@@V?$allocator@_W@2@@std@@VMod@@V?$_Uhash_compare@V?$basic_string@_WU?$char_traits@_W@std@@V?$allocator@_W@2@@std@@U?$hash@V?$basic_string@_WU?$char_traits@_W@std@@V?$allocator@_W@2@@std@@@2@U?$equal_to@V?$basic_string@_WU?$char_traits@_W@std@@V?$allocator@_W@2@@std@@@2@@2@V?$allocator@U?$pair@$$CBV?$basic_string@_WU?$char_traits@_W@std@@V?$allocator@_W@2@@std@@VMod@@@std@@@2@$0A@@std@@@std@@IEAAPEAU?$_List_node@U?$pair@$$CBV?$basic_string@_WU?$char_traits@_W@std@@V?$allocator@_W@2@@std@@VMod@@@std@@PEAX@2@_KQEAU32@1@Z 0000000180021018 f i mods_manager.obj
 0001:00020128       ??1?$_Alloc_construct_ptr@V?$allocator@U?$_List_node@U?$pair@$$CBV?$basic_string@_WU?$char_traits@_W@std@@V?$allocator@_W@2@@std@@VMod@@@std@@PEAX@std@@@std@@@std@@QEAA@XZ 0000000180021128 f i mods_manager.obj
 0001:00020140       ??1Mod@@QEAA@XZ            0000000180021140 f i mods_manager.obj
 0001:00020208       ??$_Freenode@V?$allocator@U?$_List_node@U?$pair@$$CBV?$basic_string@_WU?$char_traits@_W@std@@V?$allocator@_W@2@@std@@VMod@@@std@@PEAX@std@@@std@@@?$_List_node@U?$pair@$$CBV?$basic_string@_WU?$char_traits@_W@std@@V?$allocator@_W@2@@std@@VMod@@@std@@PEAX@std@@SAXAEAV?$allocator@U?$_List_node@U?$pair@$$CBV?$basic_string@_WU?$char_traits@_W@std@@V?$allocator@_W@2@@std@@VMod@@@std@@PEAX@std@@@1@PEAU01@@Z 0000000180021208 f i mods_manager.obj
 0001:00020260       ??1_Reallocation_guard@?$vector@V?$basic_string@_WU?$char_traits@_W@std@@V?$allocator@_W@2@@std@@V?$allocator@V?$basic_string@_WU?$char_traits@_W@std@@V?$allocator@_W@2@@std@@@2@@std@@QEAA@XZ 0000000180021260 f i mods_manager.obj
 0001:000202e8       ??1_Clear_guard@?$_Hash@V?$_Uset_traits@V?$basic_string@_WU?$char_traits@_W@std@@V?$allocator@_W@2@@std@@V?$_Uhash_compare@V?$basic_string@_WU?$char_traits@_W@std@@V?$allocator@_W@2@@std@@U?$hash@V?$basic_string@_WU?$char_traits@_W@std@@V?$allocator@_W@2@@std@@@2@U?$equal_to@V?$basic_string@_WU?$char_traits@_W@std@@V?$allocator@_W@2@@std@@@2@@2@V?$allocator@V?$basic_string@_WU?$char_traits@_W@std@@V?$allocator@_W@2@@std@@@2@$0A@@std@@@std@@QEAA@XZ 00000001800212e8 f i mods_manager.obj
 0001:00020568       ??1_Clear_guard@?$_Hash@V?$_Umap_traits@V?$basic_string@_WU?$char_traits@_W@std@@V?$allocator@_W@2@@std@@VMod@@V?$_Uhash_compare@V?$basic_string@_WU?$char_traits@_W@std@@V?$allocator@_W@2@@std@@U?$hash@V?$basic_string@_WU?$char_traits@_W@std@@V?$allocator@_W@2@@std@@@2@U?$equal_to@V?$basic_string@_WU?$char_traits@_W@std@@V?$allocator@_W@2@@std@@@2@@2@V?$allocator@U?$pair@$$CBV?$basic_string@_WU?$char_traits@_W@std@@V?$allocator@_W@2@@std@@VMod@@@std@@@2@$0A@@std@@@std@@QEAA@XZ 0000000180021568 f i mods_manager.obj
 0001:00020800       ??1NewProcessInjector@@QEAA@XZ 0000000180021800 f   new_process_injector.obj
 0001:00020938       ?CreateProcessInternalW_Hook@NewProcessInjector@@CAHPEAXPEB_WPEA_WPEAU_SECURITY_ATTRIBUTES@@3HK01PEAU_STARTUPINFOW@@PEAU_PROCESS_INFORMATION@@PEAPEAX@Z 0000000180021938 f   new_process_injector.obj
 0001:00020a98       ?HandleCreatedProcess@NewProcessInjector@@AEAAXPEAU_PROCESS_INFORMATION@@@Z 0000000180021a98 f   new_process_injector.obj
 0001:000213a0       ??$sleep_for@_JU?$ratio@$00$00@std@@@this_thread@std@@YAXAEBV?$duration@_JU?$ratio@$00$00@std@@@chrono@1@@Z 00000001800223a0 f i new_process_injector.obj
 0001:000215c8       ?now@steady_clock@chrono@std@@SA?AV?$time_point@Usteady_clock@chrono@std@@V?$duration@_JU?$ratio@$00$0DLJKMKAA@@std@@@23@@23@XZ 00000001800225c8 f i new_process_injector.obj
 0001:000216a8       ??1thread@std@@QEAA@XZ     00000001800226a8 f i new_process_injector.obj
 0001:000216b8       swprintf_s                 00000001800226b8 f i new_process_injector.obj
 0001:00021720       DllMain                    0000000180022720 f   main.obj
 0001:00021760       ?LazyInitialize@@YA_NXZ    0000000180022760 f   main.obj
 0001:00021798       ?InjectInit@@YAHPEBULOAD_LIBRARY_REMOTE_DATA@DllInject@@@Z 0000000180022798 f   main.obj
 0001:00021fa0       ?GlobalHookSessionStart@@YAPEAXXZ 0000000180022fa0 f   main.obj
 0001:00021fa0       ?_Get_deleter@_Ref_count_base@std@@UEBAPEAXAEBVtype_info@@@Z 0000000180022fa0 f   storage_manager.obj
 0001:00021fa8       ?GlobalHookSessionEnd@@YAHPEAX@Z 0000000180022fa8 f   main.obj
 0001:00021fa8       ?GlobalHookSessionHandleNewProcesses@@YAHPEAX@Z 0000000180022fa8 f   main.obj
 0001:00021fa8       __isa_available_init       0000000180022fa8 f   LIBCMT:cpu_disp.obj
 0001:00021fb0       ??1ScopedStaticSessionManagerProcess@CustomizationSession@@QEAA@XZ 0000000180022fb0 f i customization_session.obj
 0001:00022060       ?<lambda_invoker_cdecl>@<lambda_1>@?2???R1?3??GetInstance@ScopedStaticSessionManagerProcess@CustomizationSession@@SAAEAV?$optional@V?$unique_any_t@V?$unique_storage@U?$handle_null_only_resource_policy@P6AHPEAX@Z$1?CloseHandle@@YAH0@Z@details@wil@@@details@wil@@@wil@@@std@@XZ@QEBA@XZ@SA@XZ 0000000180023060 f i customization_session.obj
 0001:000220a0       ??BScopedStaticSessionManagerProcess@CustomizationSession@@QEAAPEAXXZ 00000001800230a0 f i customization_session.obj
 0001:00022288       ?GetSessionManagerProcessId@CustomizationSession@@SAKXZ 0000000180023288 f   customization_session.obj
 0001:00022350       ?GetSessionManagerProcessCreationTime@CustomizationSession@@SA?AU_FILETIME@@XZ 0000000180023350 f   customization_session.obj
 0001:00022438       ?IsEndingSoon@CustomizationSession@@SA_NXZ 0000000180023438 f   customization_session.obj
 0001:000224f0       ??0CustomizationSession@@QEAA@UConstructorSecret@0@_N1V?$unique_any_t@V?$unique_storage@U?$handle_null_only_resource_policy@P6AHPEAX@Z$1?CloseHandle@@YAH0@Z@details@wil@@@details@wil@@@wil@@V?$unique_any_t@V?$mutex_t@V?$unique_storage@U?$resource_policy@PEAXP6AXPEAX@_E$1?CloseHandle@details@wil@@YAX0@ZU?$integral_constant@_K$0A@@wistd@@PEAXPEAX$0A@$$T@details@wil@@@details@wil@@Uerr_returncode_policy@3@@wil@@@3@@Z 00000001800234f0 f   customization_session.obj
 0001:00022eb8       ??1?$unique_any_t@V?$unique_storage@U?$handle_null_only_resource_policy@P6AXPEAX@_E$1??$ClosePrivateNamespaceHelper@$0A@@details@wil@@YAX0@Z@details@wil@@@details@wil@@@wil@@QEAA@XZ 0000000180023eb8 f i customization_session.obj
 0001:00022ee0       ??1?$optional@VMainLoopRunner@CustomizationSession@@@std@@QEAA@XZ 0000000180023ee0 f i customization_session.obj
 0001:00022ef8       ??1CustomizationSession@@QEAA@XZ 0000000180023ef8 f   customization_session.obj
 0001:00023188       ??1MinHookScopeInit@CustomizationSession@@QEAA@XZ 0000000180024188 f   customization_session.obj
 0001:000234b8       ??1MinHookScopeApply@CustomizationSession@@QEAA@XZ 00000001800244b8 f   customization_session.obj
 0001:00023748       ??0MainLoopRunner@CustomizationSession@@QEAA@XZ 0000000180024748 f   customization_session.obj
 0001:000237a0       ??1?$optional@VModConfigChangeNotification@StorageManager@@@std@@QEAA@XZ 00000001800247a0 f i customization_session.obj
 0001:000237b0       ?Run@MainLoopRunner@CustomizationSession@@QEAA?AW4Result@12@PEAXPEAK@Z 00000001800247b0 f   customization_session.obj
 0001:00023dc8       ?ContinueMonitoring@MainLoopRunner@CustomizationSession@@QEAA_NXZ 0000000180024dc8 f   customization_session.obj
 0001:00023ea8       ?GetInstance@CustomizationSession@@CAAEAV?$optional@VCustomizationSession@@@std@@XZ 0000000180024ea8 f   customization_session.obj
 0001:00023ff0       ?RunMainLoopAndDeleteThisWithThreadRecreate@CustomizationSession@@AEAAXXZ 0000000180024ff0 f   customization_session.obj
 0001:00024348       ?RunMainLoop@CustomizationSession@@AEAAXXZ 0000000180025348 f   customization_session.obj
 0001:00024720       ?DeleteThis@CustomizationSession@@AEAAXXZ 0000000180025720 f   customization_session.obj
 0001:00024958       ??$emplace@$$V@?$optional@VMainLoopRunner@CustomizationSession@@@std@@QEAAAEAVMainLoopRunner@CustomizationSession@@XZ 0000000180025958 f i customization_session.obj
 0001:000249a0       ??B?$optional@VMainLoopRunner@CustomizationSession@@@std@@QEBA_NXZ 00000001800259a0 f i customization_session.obj
 0001:000249a8       ??1?$variant@Umonostate@std@@URegistryState@ModConfigChangeNotification@StorageManager@@UIniFileState@45@@std@@QEAA@XZ 00000001800259a8 f i customization_session.obj
 0001:000249b0       ?_Destroy@?$_Variant_base@Umonostate@std@@URegistryState@ModConfigChangeNotification@StorageManager@@UIniFileState@45@@std@@QEAAXXZ 00000001800259b0 f i customization_session.obj
 0001:00024a50       ??1?$unique_any_t@V?$unique_storage@U?$handle_invalid_resource_policy@P6AHPEAX@Z$1?FindCloseChangeNotification@@YAH0@Z@details@wil@@@details@wil@@@wil@@QEAA@XZ 0000000180025a50 f i customization_session.obj
 0001:00024a80       ?Throw_GetLastError@in1diag3@details@wil@@YAXPEAXIPEBD@Z 0000000180025a80 f i customization_session.obj
 0001:00024aa8       ??0bad_optional_access@std@@QEAA@XZ 0000000180025aa8 f i customization_session.obj
 0001:00024ac0       ?what@bad_optional_access@std@@UEBAPEBDXZ 0000000180025ac0 f i customization_session.obj
 0001:00024ad0       ??0bad_optional_access@std@@QEAA@AEBV01@@Z 0000000180025ad0 f i customization_session.obj
 0001:00024b20       ?_Throw_bad_optional_access@std@@YAXXZ 0000000180025b20 f i customization_session.obj
 0001:00024b50       ??1?$unique_any_t@V?$unique_storage@U?$resource_policy@PEAXP6AXPEAX@_E$1?ReleaseSemaphore@details@wil@@YAX0@ZU?$integral_constant@_K$01@wistd@@PEAXPEAX$0A@$$T@details@wil@@@details@wil@@@wil@@QEAA@XZ 0000000180025b50 f i customization_session.obj
 0001:00024da0       ??1?$unique_any_t@V?$unique_storage@U?$handle_null_only_resource_policy@P6AXPEAX@Z$1?DeleteBoundaryDescriptor@@YAX0@Z@details@wil@@@details@wil@@@wil@@QEAA@XZ 0000000180025da0 f i session_private_namespace.obj
 0001:00024dc8       ??1?$unique_any_t@V?$unique_storage@U?$resource_policy@PEAXP6APEAXPEAX@Z$1?FreeSid@@YAPEAX0@ZU?$integral_constant@_K$0A@@wistd@@PEAXPEAX$0A@$$T@details@wil@@@details@wil@@@wil@@QEAA@XZ 0000000180025dc8 f i session_private_namespace.obj
 0001:00024e20       ?GetInstance@StorageManager@@SAAEAV1@XZ 0000000180025e20 f   storage_manager.obj
 0001:00026110       ?GetAppConfig@StorageManager@@QEAA?AV?$unique_ptr@VPortableSettings@@U?$default_delete@VPortableSettings@@@std@@@std@@PEB_W@Z 0000000180027110 f   storage_manager.obj
 0001:00026298       ?GetModConfig@StorageManager@@QEAA?AV?$unique_ptr@VPortableSettings@@U?$default_delete@VPortableSettings@@@std@@@std@@PEB_W0@Z 0000000180027298 f   storage_manager.obj
 0001:00026678       ?GetModWritableConfig@StorageManager@@QEAA?AV?$unique_ptr@VPortableSettings@@U?$default_delete@VPortableSettings@@@std@@@std@@PEB_W0_N@Z 0000000180027678 f   storage_manager.obj
 0001:00026ac8       ?EnumMods@StorageManager@@QEAAXV?$function@$$A6AXPEB_W@Z@std@@@Z 0000000180027ac8 f   storage_manager.obj
 0001:000276e0       ?GetModStoragePath@StorageManager@@QEAA?AVpath@filesystem@std@@PEB_W@Z 00000001800286e0 f   storage_manager.obj
 0001:000278e0       ?GetEnginePath@StorageManager@@QEAA?AVpath@filesystem@std@@G@Z 00000001800288e0 f   storage_manager.obj
 0001:00027c68       ?GetModsPath@StorageManager@@QEAA?AVpath@filesystem@std@@G@Z 0000000180028c68 f   storage_manager.obj
 0001:00027d70       ??1?$variant@Umonostate@std@@URegistryPath@StorageManager@@UIniFilePath@4@@std@@QEAA@XZ 0000000180028d70 f i storage_manager.obj
 0001:00027e08       ??1RegistryPath@StorageManager@@QEAA@XZ 0000000180028e08 f i storage_manager.obj
 0001:00027e58       ?RegistryEnumMods@StorageManager@@AEAAXV?$function@$$A6AXPEB_W@Z@std@@@Z 0000000180028e58 f   storage_manager.obj
 0001:000281a0       ??0ModConfigChangeNotification@StorageManager@@QEAA@XZ 00000001800291a0 f   storage_manager.obj
 0001:00028778       ??$?H_WU?$char_traits@_W@std@@V?$allocator@_W@1@@std@@YA?AV?$basic_string@_WU?$char_traits@_W@std@@V?$allocator@_W@2@@0@AEBV10@QEB_W@Z 0000000180029778 f i storage_manager.obj
 0001:000288a0       ??$?4UIniFilePath@StorageManager@@$0A@$0A@@?$variant@Umonostate@std@@URegistryPath@StorageManager@@UIniFilePath@4@@std@@QEAAAEAV01@$$QEAUIniFilePath@StorageManager@@@Z 00000001800298a0 f i storage_manager.obj
 0001:00028950       ??$?4URegistryPath@StorageManager@@$0A@$0A@@?$variant@Umonostate@std@@URegistryPath@StorageManager@@UIniFilePath@4@@std@@QEAAAEAV01@$$QEAURegistryPath@StorageManager@@@Z 0000000180029950 f i storage_manager.obj
 0001:00028a28       ??0?$function@$$A6AXPEB_W@Z@std@@QEAA@$$QEAV01@@Z 0000000180029a28 f i storage_manager.obj
 0001:00028aa8       ?_Reset@?$_Variant_base@Umonostate@std@@URegistryPath@StorageManager@@UIniFilePath@4@@std@@QEAAXXZ 0000000180029aa8 f i storage_manager.obj
 0001:00028b50       ?__clone@?$__func@V<lambda_1>@?1???$GetEnvironmentVariableW@V?$basic_string@_WU?$char_traits@_W@std@@V?$allocator@_W@2@@std@@$0IA@@wil@@YAJPEB_WAEAV?$basic_string@_WU?$char_traits@_W@std@@V?$allocator@_W@2@@std@@@Z@$$A6AJPEA_W_KPEA_K@Z@__function@wistd@@UEBAXPEAV?$__base@$$A6AJPEA_W_KPEA_K@Z@23@@Z 0000000180029b50 f i storage_manager.obj
 0001:00028b50       ?__move@?$__func@V<lambda_1>@?1???$GetEnvironmentVariableW@V?$basic_string@_WU?$char_traits@_W@std@@V?$allocator@_W@2@@std@@$0IA@@wil@@YAJPEB_WAEAV?$basic_string@_WU?$char_traits@_W@std@@V?$allocator@_W@2@@std@@@Z@$$A6AJPEA_W_KPEA_K@Z@__function@wistd@@UEAAXPEAV?$__base@$$A6AJPEA_W_KPEA_K@Z@23@@Z 0000000180029b50 f i storage_manager.obj
 0001:00028b68       ??R?$__func@V<lambda_1>@?1???$GetEnvironmentVariableW@V?$basic_string@_WU?$char_traits@_W@std@@V?$allocator@_W@2@@std@@$0IA@@wil@@YAJPEB_WAEAV?$basic_string@_WU?$char_traits@_W@std@@V?$allocator@_W@2@@std@@@Z@$$A6AJPEA_W_KPEA_K@Z@__function@wistd@@UEAAJ$$QEAPEA_W$$QEA_K$$QEAPEA_K@Z 0000000180029b68 f i storage_manager.obj
 0001:00028c10       ?GetLastErrorFailHr@details@wil@@YAJXZ 0000000180029c10 f i storage_manager.obj
 0001:00028c88       ??0filesystem_error@filesystem@std@@QEAA@AEBV?$basic_string@DU?$char_traits@D@std@@V?$allocator@D@2@@2@Verror_code@2@@Z 0000000180029c88 f i storage_manager.obj
 0001:00028d40       ?_Throw_fs_error@filesystem@std@@YAXPEBDW4__std_win_error@@@Z 0000000180029d40 f i storage_manager.obj
 0001:00028da0       ??1?$shared_ptr@U_Dir_enum_impl@filesystem@std@@@std@@QEAA@XZ 0000000180029da0 f i storage_manager.obj
 0001:00028da0       ??1directory_iterator@filesystem@std@@QEAA@XZ 0000000180029da0 f i storage_manager.obj
 0001:00028e00       ??1_Creator@_Dir_enum_impl@filesystem@std@@QEAA@XZ 0000000180029e00 f i storage_manager.obj
 0001:00028e50       ?_Destroy@?$_Ref_count_obj2@U_Dir_enum_impl@filesystem@std@@@std@@EEAAXXZ 0000000180029e50 f i storage_manager.obj
 0001:00028ea0       ??_E?$_Ref_count_obj2@U_Dir_enum_impl@filesystem@std@@@std@@UEAAPEAXI@Z 0000000180029ea0 f i * CIL library *:* CIL module *
 0001:00028ea0       ??_G?$_Ref_count_obj2@U_Dir_enum_impl@filesystem@std@@@std@@UEAAPEAXI@Z 0000000180029ea0 f i storage_manager.obj
 0001:00028ed8       ?_Delete_this@?$_Ref_count_obj2@U_Dir_enum_impl@filesystem@std@@@std@@EEAAXXZ 0000000180029ed8 f i storage_manager.obj
 0001:00028ef0       ??1directory_entry@filesystem@std@@QEAA@XZ 0000000180029ef0 f i storage_manager.obj
 0001:00028f40       ??1_Find_file_handle@filesystem@std@@QEAA@XZ 0000000180029f40 f i storage_manager.obj
 0001:00028f48       ?_Refresh@_Dir_enum_impl@filesystem@std@@QEAAXAEBU__std_fs_find_data@@@Z 0000000180029f48 f i storage_manager.obj
 0001:000290b8       ??0_Dir_enum_impl@filesystem@std@@QEAA@$$QEAU_Creator@012@W4directory_options@12@@Z 000000018002a0b8 f i storage_manager.obj
 0001:00029168       ?_Throw_fs_error@filesystem@std@@YAXPEBDAEBVerror_code@2@AEBVpath@12@@Z 000000018002a168 f i storage_manager.obj
 0001:000291d0       ?parent_path@path@filesystem@std@@QEBA?AV123@XZ 000000018002a1d0 f i storage_manager.obj
 0001:000292b8       ?create_directories@filesystem@std@@YA_NAEBVpath@12@AEAVerror_code@2@@Z 000000018002a2b8 f i storage_manager.obj
 0001:00029528       ??0error_code@std@@QEAA@XZ 000000018002a528 f i storage_manager.obj
 0001:00029540       ?__autoclassinit2@error_code@std@@QEAAX_K@Z 000000018002a540 f i storage_manager.obj
 0001:00029550       ?_Get_any_status@filesystem@std@@YA?AU_File_status_and_error@12@AEBVpath@12@W4__std_fs_stats_flags@@@Z 000000018002a550 f i storage_manager.obj
 0001:00029640       ?make_error_code@std@@YA?AVerror_code@1@W4errc@1@@Z 000000018002a640 f i storage_manager.obj
 0001:00029658       ?_Throw_system_error@std@@YAXW4errc@1@@Z 000000018002a658 f i storage_manager.obj
 0001:00029688       ??0system_error@std@@QEAA@Verror_code@1@@Z 000000018002a688 f i storage_manager.obj
 0001:00029768       ?_Throw_system_error_from_std_win_error@std@@YAXW4__std_win_error@@@Z 000000018002a768 f i storage_manager.obj
 0001:000297a0       ??$_Convert_wide_to_narrow_replace_chars@U?$char_traits@D@std@@V?$allocator@D@2@@filesystem@std@@YA?AV?$basic_string@DU?$char_traits@D@std@@V?$allocator@D@2@@1@W4__std_code_page@@V?$basic_string_view@_WU?$char_traits@_W@std@@@1@AEBV?$allocator@D@1@@Z 000000018002a7a0 f i storage_manager.obj
 0001:00029890       ?_Pretty_message@filesystem_error@filesystem@std@@CA?AV?$basic_string@DU?$char_traits@D@std@@V?$allocator@D@2@@3@V?$basic_string_view@DU?$char_traits@D@std@@@3@AEBVpath@23@1@Z 000000018002a890 f i storage_manager.obj
 0001:00029b10       ??0filesystem_error@filesystem@std@@QEAA@AEBV?$basic_string@DU?$char_traits@D@std@@V?$allocator@D@2@@2@AEBVpath@12@Verror_code@2@@Z 000000018002ab10 f i storage_manager.obj
 0001:00029bf8       ?_Make_ec@std@@YA?AVerror_code@1@W4__std_win_error@@@Z 000000018002abf8 f i storage_manager.obj
 0001:00029c10       ??1filesystem_error@filesystem@std@@UEAA@XZ 000000018002ac10 f i storage_manager.obj
 0001:00029cb0       ??_Efilesystem_error@filesystem@std@@UEAAPEAXI@Z 000000018002acb0 f i * CIL library *:* CIL module *
 0001:00029cb0       ??_Gfilesystem_error@filesystem@std@@UEAAPEAXI@Z 000000018002acb0 f i storage_manager.obj
 0001:00029d70       ?what@filesystem_error@filesystem@std@@UEBAPEBDXZ 000000018002ad70 f i storage_manager.obj
 0001:00029d90       ??0filesystem_error@filesystem@std@@QEAA@AEBV012@@Z 000000018002ad90 f i storage_manager.obj
 0001:00029e30       ?_Throw_fs_error@filesystem@std@@YAXPEBDW4__std_win_error@@AEBVpath@12@@Z 000000018002ae30 f i storage_manager.obj
 0001:00029ea0       ?is_directory@filesystem@std@@YA_NAEBVpath@12@@Z 000000018002aea0 f i storage_manager.obj
 0001:00029ef0       ??0bad_variant_access@std@@QEAA@XZ 000000018002aef0 f i storage_manager.obj
 0001:00029f08       ?what@bad_variant_access@std@@UEBAPEBDXZ 000000018002af08 f i storage_manager.obj
 0001:00029f18       ??0bad_variant_access@std@@QEAA@AEBV01@@Z 000000018002af18 f i storage_manager.obj
 0001:00029f68       ?_Throw_bad_variant_access@std@@YAXXZ 000000018002af68 f i storage_manager.obj
 0001:0002a050       ?StringCchPrintfW@@YAJPEA_W_KPEB_WZZ 000000018002b050 f i stdafx.obj
 0001:0002a120       ?ProcessHeapAlloc@details@wil@@YAPEAXK_K@Z 000000018002b120 f i stdafx.obj
 0001:0002a1e8       ?create@shared_buffer@details@wil@@QEAA_N_K@Z 000000018002b1e8 f i stdafx.obj
 0001:0002a2e8       ?GetCurrentModuleName@details@wil@@YAPEBDXZ 000000018002b2e8 f i stdafx.obj
 0001:0002a410       ?DebugBreak@details@wil@@YAXXZ 000000018002b410 f i stdafx.obj
 0001:0002a430       ?WilDynamicLoadRaiseFailFastException@details@wil@@YAXPEAU_EXCEPTION_RECORD@@PEAU_CONTEXT@@K@Z 000000018002b430 f i stdafx.obj
 0001:0002a4a0       ?SetFailureInfo@StoredFailureInfo@wil@@QEAAXAEBUFailureInfo@2@@Z 000000018002b4a0 f i stdafx.obj
 0001:0002ac70       ??0ResultException@wil@@QEAA@AEBUFailureInfo@1@@Z 000000018002bc70 f i stdafx.obj
 0001:0002acb8       ?what@ResultException@wil@@UEBAPEBDXZ 000000018002bcb8 f i stdafx.obj
 0001:0002ada0       ??_EResultException@wil@@UEAAPEAXI@Z 000000018002bda0 f i * CIL library *:* CIL module *
 0001:0002ada0       ??_GResultException@wil@@UEAAPEAXI@Z 000000018002bda0 f i stdafx.obj
 0001:0002ae60       ??1ResultException@wil@@UEAA@XZ 000000018002be60 f i stdafx.obj
 0001:0002af00       ?Rethrow@details@wil@@YAXXZ 000000018002bf00 f i stdafx.obj
 0001:0002af10       ?ThrowResultExceptionInternal@details@wil@@YAXAEBUFailureInfo@2@@Z 000000018002bf10 f i stdafx.obj
 0001:0002af38       ??0ResultException@wil@@QEAA@AEBV01@@Z 000000018002bf38 f i stdafx.obj
 0001:0002afe8       ?GetValueFromSemaphore@SemaphoreValue@details_abi@wil@@CAJPEAXPEAJ@Z 000000018002bfe8 f i stdafx.obj
 0001:0002b200       ??1ThreadLocalData@details_abi@wil@@QEAA@XZ 000000018002c200 f i stdafx.obj
 0001:0002b2a8       ?GetThreadLocalDataCache@details_abi@wil@@YAPEAUThreadLocalData@12@_N@Z 000000018002c2a8 f i stdafx.obj
 0001:0002bd30       ?GetThreadContext@ThreadFailureCallbackHolder@details@wil@@SA_NPEAUFailureInfo@3@PEAV123@PEAD_K@Z 000000018002cd30 f i stdafx.obj
 0001:0002be60       ?GetContextAndNotifyFailure@details@wil@@YAXPEAUFailureInfo@2@PEAD_K@Z 000000018002ce60 f i stdafx.obj
 0001:0002c338       ??1?$ProcessLocalStorage@UProcessLocalData@details_abi@wil@@@details_abi@wil@@QEAA@XZ 000000018002d338 f i stdafx.obj
 0001:0002c610       ?MySysFreeString@@YAXPEA_W@Z 000000018002d610 f   symbol_enum.obj
 0001:0002ce18       _get_startup_argv_mode     000000018002de18 f   LIBCMT:argv_mode.obj
 0001:0002d3b8       ??0SymbolEnum@@QEAA@PEB_WPEAUHINSTANCE__@@0W4UndecorateMode@0@UCallbacks@0@@Z 000000018002e3b8 f   symbol_enum.obj
 0001:0002d960       ?LoadMsdia@SymbolEnum@@AEAA?AV?$com_ptr_t@UIDiaDataSource@@Uerr_exception_policy@wil@@@wil@@XZ 000000018002e960 f   symbol_enum.obj
 0001:0002dd68       ??I?$unique_any_t@V?$unique_storage@U?$resource_policy@PEA_WP6AXPEA_W@Z$1?MySysFreeString@@YAX0@ZU?$integral_constant@_K$0A@@wistd@@PEA_WPEA_W$0A@$$T@details@wil@@@details@wil@@@wil@@QEAAPEAPEA_WXZ 000000018002ed68 f i symbol_enum.obj
 0001:0002ddd0       ?reset@?$unique_storage@U?$resource_policy@PEA_WP6AXPEA_W@Z$1?MySysFreeString@@YAX0@ZU?$integral_constant@_K$0A@@wistd@@PEA_WPEA_W$0A@$$T@details@wil@@@details@wil@@QEAAXPEA_W@Z 000000018002edd0 f i symbol_enum.obj
 0001:0002de38       ?_Target_type@?$_Func_impl_no_alloc@U?$default_delete@PEAUCallbacks@SymbolEnum@@@std@@XPEAPEAUCallbacks@SymbolEnum@@@std@@EEBAAEBVtype_info@@XZ 000000018002ee38 f i symbol_enum.obj
 0001:0002de48       ?_Copy@?$_Func_impl_no_alloc@U?$default_delete@PEAUCallbacks@SymbolEnum@@@std@@XPEAPEAUCallbacks@SymbolEnum@@@std@@EEBAPEAV?$_Func_base@XPEAPEAUCallbacks@SymbolEnum@@@2@PEAX@Z 000000018002ee48 f i symbol_enum.obj
 0001:0002de48       ?_Move@?$_Func_impl_no_alloc@U?$default_delete@PEAUCallbacks@SymbolEnum@@@std@@XPEAPEAUCallbacks@SymbolEnum@@@std@@EEAAPEAV?$_Func_base@XPEAPEAUCallbacks@SymbolEnum@@@2@PEAX@Z 000000018002ee48 f i symbol_enum.obj
 0001:0002de60       ?_Target_type@?$_Func_impl_no_alloc@V<lambda_5_>@?0???0?$ThreadLocal@PEAUCallbacks@SymbolEnum@@@@QEAA@XZ@PEAPEAUCallbacks@SymbolEnum@@$$V@std@@EEBAAEBVtype_info@@XZ 000000018002ee60 f i symbol_enum.obj
 0001:0002de70       ?_Do_call@?$_Func_impl_no_alloc@V<lambda_5_>@?0???0?$ThreadLocal@PEAUCallbacks@SymbolEnum@@@@QEAA@XZ@PEAPEAUCallbacks@SymbolEnum@@$$V@std@@EEAAPEAPEAUCallbacks@SymbolEnum@@XZ 000000018002ee70 f i symbol_enum.obj
 0001:0002de90       ?_Copy@?$_Func_impl_no_alloc@V<lambda_5_>@?0???0?$ThreadLocal@PEAUCallbacks@SymbolEnum@@@@QEAA@XZ@PEAPEAUCallbacks@SymbolEnum@@$$V@std@@EEBAPEAV?$_Func_base@PEAPEAUCallbacks@SymbolEnum@@$$V@2@PEAX@Z 000000018002ee90 f i symbol_enum.obj
 0001:0002de90       ?_Move@?$_Func_impl_no_alloc@V<lambda_5_>@?0???0?$ThreadLocal@PEAUCallbacks@SymbolEnum@@@@QEAA@XZ@PEAPEAUCallbacks@SymbolEnum@@$$V@std@@EEAAPEAV?$_Func_base@PEAPEAUCallbacks@SymbolEnum@@$$V@2@PEAX@Z 000000018002ee90 f i symbol_enum.obj
 0001:0002dea8       decode_spec                000000018002eea8 f   decode0.obj
 0001:00030810       decode_iclass_barriers     0000000180031810 f   decode1.obj
 0001:00030c80       decode_iclass_compbranch   0000000180031c80 f   decode1.obj
 0001:00030c98       decode_iclass_condbranch   0000000180031c98 f   decode1.obj
 0001:00030d50       decode_iclass_exception    0000000180031d50 f   decode1.obj
 0001:000312d0       decode_iclass_hints        00000001800322d0 f   decode1.obj
 0001:00031458       decode_iclass_pstate       0000000180032458 f   decode1.obj
 0001:00031610       decode_iclass_systeminstrswithreg 0000000180032610 f   decode1.obj
 0001:000317b8       decode_iclass_systemresult 00000001800327b8 f   decode1.obj
 0001:00031960       decode_iclass_branch_reg   0000000180032960 f   decode1.obj
 0001:000326d0       decode_iclass_asisdlse     00000001800336d0 f   decode1.obj
 0001:00032898       decode_iclass_asisdlsep    0000000180033898 f   decode1.obj
 0001:00032aa0       decode_iclass_asisdlso     0000000180033aa0 f   decode1.obj
 0001:00032fd0       decode_iclass_asisdlsop    0000000180033fd0 f   decode1.obj
 0001:00033888       decode_iclass_memop        0000000180034888 f   decode1.obj
 0001:00034810       decode_iclass_comswap      0000000180035810 f   decode1.obj
 0001:000348a8       decode_iclass_comswappr    00000001800358a8 f   decode1.obj
 0001:000348f8       decode_iclass_ldapstl_unscaled 00000001800358f8 f   decode1.obj
 0001:00034a50       decode_iclass_loadlit      0000000180035a50 f   decode1.obj
 0001:00034c80       decode_iclass_ldstexclp    0000000180035c80 f   decode1.obj
 0001:00034ca8       decode_iclass_ldstexclr    0000000180035ca8 f   decode1.obj
 0001:00035558       decode_iclass_ldsttags     0000000180036558 f   decode1.obj
 0001:000358f8       decode_iclass_ldstnapair_offs 00000001800368f8 f   decode1.obj
 0001:00035988       decode_iclass_ldstord      0000000180036988 f   decode1.obj
 0001:00036120       decode_iclass_ldst_immpost 0000000180037120 f   decode1.obj
 0001:00036298       decode_iclass_ldst_immpre  0000000180037298 f   decode1.obj
 0001:00036410       decode_iclass_ldst_pac     0000000180037410 f   decode1.obj
 0001:00036458       decode_iclass_ldst_regoff  0000000180037458 f   decode1.obj
 0001:000365e8       decode_iclass_ldst_unpriv  00000001800375e8 f   decode1.obj
 0001:00036720       decode_iclass_ldst_unscaled 0000000180037720 f   decode1.obj
 0001:00036888       decode_iclass_ldst_pos     0000000180037888 f   decode1.obj
 0001:000369f0       decode_iclass_ldstpair_off 00000001800379f0 f   decode1.obj
 0001:00036a80       decode_iclass_ldstpair_post 0000000180037a80 f   decode1.obj
 0001:00036b10       decode_iclass_ldstpair_pre 0000000180037b10 f   decode1.obj
 0001:00036ba0       decode_iclass_addsub_imm   0000000180037ba0 f   decode1.obj
 0001:00036be8       decode_iclass_addsub_immtags 0000000180037be8 f   decode1.obj
 0001:00036d88       decode_iclass_bitfield     0000000180037d88 f   decode1.obj
 0001:00036e58       decode_iclass_extract      0000000180037e58 f   decode1.obj
 0001:00036f08       decode_iclass_log_imm      0000000180037f08 f   decode1.obj
 0001:00036fa8       decode_iclass_movewide     0000000180037fa8 f   decode1.obj
 0001:00037048       decode_iclass_addsub_ext   0000000180038048 f   decode1.obj
 0001:000370f0       decode_iclass_addsub_shift 00000001800380f0 f   decode1.obj
 0001:00037168       decode_iclass_addsub_carry 0000000180038168 f   decode1.obj
 0001:000371b0       decode_iclass_condcmp_imm  00000001800381b0 f   decode1.obj
 0001:00037218       decode_iclass_condcmp_reg  0000000180038218 f   decode1.obj
 0001:00037280       decode_iclass_condsel      0000000180038280 f   decode1.obj
 0001:00037300       decode_iclass_dp_1src      0000000180038300 f   decode1.obj
 0001:000379d0       decode_iclass_dp_2src      00000001800389d0 f   decode1.obj
 0001:000380e8       decode_iclass_dp_3src      00000001800390e8 f   decode1.obj
 0001:00038838       decode_iclass_setf         0000000180039838 f   decode1.obj
 0001:000388e0       decode_iclass_log_shift    00000001800398e0 f   decode1.obj
 0001:000389d0       decode_iclass_rmif         00000001800399d0 f   decode1.obj
 0001:00038ae0       decode_iclass_asimdall     0000000180039ae0 f   decode1.obj
 0001:000393e8       decode_iclass_asimdins     000000018003a3e8 f   decode1.obj
 0001:00039930       decode_iclass_asimdext     000000018003a930 f   decode1.obj
 0001:00039a48       decode_iclass_asimdimm     000000018003aa48 f   decode1.obj
 0001:00039bf0       decode_iclass_asimdperm    000000018003abf0 f   decode1.obj
 0001:0003a0a0       decode_iclass_asisdone     000000018003b0a0 f   decode1.obj
 0001:0003a120       decode_iclass_asisdpair    000000018003b120 f   decode1.obj
 0001:0003a430       decode_iclass_asisdshf     000000018003b430 f   decode1.obj
 0001:0003a6f8       decode_iclass_asisddiff    000000018003b6f8 f   decode1.obj
 0001:0003a808       decode_iclass_asisdsame    000000018003b808 f   decode1.obj
 0001:0003ab40       decode_iclass_asisdsamefp16 000000018003bb40 f   decode1.obj
 0001:0003ad38       decode_iclass_asisdsame2   000000018003bd38 f   decode1.obj
 0001:0003ade8       decode_iclass_asisdmisc    000000018003bde8 f   decode1.obj
 0001:0003b198       decode_iclass_asisdmiscfp16 000000018003c198 f   decode1.obj
 0001:0003b468       decode_iclass_asisdelem    000000018003c468 f   decode1.obj
 0001:0003b730       decode_iclass_asimdshf     000000018003c730 f   decode1.obj
 0001:0003be90       decode_iclass_asimdtbl     000000018003ce90 f   decode1.obj
 0001:0003bf40       decode_iclass_asimddiff    000000018003cf40 f   decode1.obj
 0001:0003d3c0       decode_iclass_asimdsame    000000018003e3c0 f   decode1.obj
 0001:0003f680       decode_iclass_asimdsamefp16 0000000180040680 f   decode1.obj
 0001:0003f9d0       decode_iclass_asimdsame2   00000001800409d0 f   decode1.obj
 0001:00040520       decode_iclass_asimdmisc    0000000180041520 f   decode1.obj
 0001:000420c8       decode_iclass_asimdmiscfp16 00000001800430c8 f   decode1.obj
 0001:00042430       decode_iclass_asimdelem    0000000180043430 f   decode1.obj
 0001:000434a8       decode_iclass_float2fix    00000001800444a8 f   decode1.obj
 0001:000436b0       decode_iclass_float2int    00000001800446b0 f   decode1.obj
 0001:00043d70       decode_iclass_cryptoaes    0000000180044d70 f   decode1.obj
 0001:00044038       decode_iclass_crypto4      0000000180045038 f   decode1.obj
 0001:00044220       decode_iclass_cryptosha3   0000000180045220 f   decode1.obj
 0001:00044620       decode_iclass_cryptosha512_3 0000000180045620 f   decode1.obj
 0001:00044a10       decode_iclass_crypto3_imm2 0000000180045a10 f   decode1.obj
 0001:00044c80       decode_iclass_cryptosha2   0000000180045c80 f   decode1.obj
 0001:00044eb0       decode_iclass_cryptosha512_2 0000000180045eb0 f   decode1.obj
 0001:00044ff0       decode_iclass_floatcmp     0000000180045ff0 f   decode1.obj
 0001:00045150       decode_iclass_floatccmp    0000000180046150 f   decode1.obj
 0001:000451e0       decode_iclass_floatsel     00000001800461e0 f   decode1.obj
 0001:00045260       decode_iclass_floatdp1     0000000180046260 f   decode1.obj
 0001:000458b0       decode_iclass_floatdp2     00000001800468b0 f   decode1.obj
 0001:00045ac0       decode_iclass_floatdp3     0000000180046ac0 f   decode1.obj
 0001:00045b60       decode_iclass_floatimm     0000000180046b60 f   decode1.obj
 0001:00045c58       decode_iclass_sve_int_bin_pred_log 0000000180046c58 f   decode1.obj
 0001:00045f00       decode_iclass_sve_int_bin_pred_arit_0 0000000180046f00 f   decode1.obj
 0001:00046130       decode_iclass_sve_int_bin_pred_div 0000000180047130 f   decode1.obj
 0001:00046360       decode_iclass_sve_int_bin_pred_arit_1 0000000180047360 f   decode1.obj
 0001:00046750       decode_iclass_sve_int_bin_pred_arit_2 0000000180047750 f   decode1.obj
 0001:00046918       decode_iclass_sve_int_reduce_2 0000000180047918 f   decode1.obj
 0001:00046b38       decode_iclass_sve_int_movprfx_pred 0000000180047b38 f   decode1.obj
 0001:00046c58       decode_iclass_sve_int_reduce_0 0000000180047c58 f   decode1.obj
 0001:00046da8       decode_iclass_sve_int_reduce_1 0000000180047da8 f   decode1.obj
 0001:00046fd8       decode_iclass_sve_int_bin_pred_shift_0 0000000180047fd8 f   decode1.obj
 0001:000478c0       decode_iclass_sve_int_bin_pred_shift_1 00000001800488c0 f   decode1.obj
 0001:00047c80       decode_iclass_sve_int_bin_pred_shift_2 0000000180048c80 f   decode1.obj
 0001:00047e80       decode_iclass_sve_int_un_pred_arit_1 0000000180048e80 f   decode1.obj
 0001:00048308       decode_iclass_sve_int_un_pred_arit_0 0000000180049308 f   decode1.obj
 0001:000484c8       decode_iclass_sve_int_bin_cons_arit_0 00000001800494c8 f   decode1.obj
 0001:000488e0       decode_iclass_sve_int_bin_cons_log 00000001800498e0 f   decode1.obj
 0001:00048b18       decode_iclass_sve_int_tern_log 0000000180049b18 f   decode1.obj
 0001:00048e70       decode_iclass_sve_int_read_vl_a 0000000180049e70 f   decode1.obj
 0001:00048ff0       decode_iclass_sve_int_mul_b 0000000180049ff0 f   decode1.obj
 0001:00049298       decode_iclass_sve_int_bin_cons_shift_b 000000018004a298 f   decode1.obj
 0001:00049588       decode_iclass_sve_int_bin_cons_shift_a 000000018004a588 f   decode1.obj
 0001:00049790       decode_iclass_sve_int_bin_cons_misc_0_a 000000018004a790 f   decode1.obj
 0001:000497b8       decode_iclass_sve_int_bin_cons_misc_0_d 000000018004a7b8 f   decode1.obj
 0001:00049958       decode_iclass_sve_int_bin_cons_misc_0_c 000000018004a958 f   decode1.obj
 0001:00049ac0       decode_iclass_sve_int_count 000000018004aac0 f   decode1.obj
 0001:00049b18       decode_iclass_sve_int_pred_pattern_a 000000018004ab18 f   decode1.obj
 0001:00049b98       decode_iclass_sve_int_countvlv1 000000018004ab98 f   decode1.obj
 0001:00049c10       decode_iclass_sve_int_pred_pattern_b 000000018004ac10 f   decode1.obj
 0001:00049ce0       decode_iclass_sve_int_countvlv0 000000018004ace0 f   decode1.obj
 0001:0004a3f0       decode_iclass_sve_int_perm_bin_long_perm_zz 000000018004b3f0 f   decode1.obj
 0001:0004a480       decode_iclass_sve_int_log_imm 000000018004b480 f   decode1.obj
 0001:0004a680       decode_iclass_sve_int_perm_unpk 000000018004b680 f   decode1.obj
 0001:0004a698       decode_iclass_sve_int_perm_bin_perm_pp 000000018004b698 f   decode1.obj
 0001:0004a708       decode_iclass_sve_int_perm_bin_perm_zz 000000018004b708 f   decode1.obj
 0001:0004a770       decode_iclass_sve_int_perm_revd 000000018004b770 f   decode1.obj
 0001:0004a868       decode_iclass_sve_int_perm_rev 000000018004b868 f   decode1.obj
 0001:0004a978       decode_iclass_sve_int_cmp_0 000000018004b978 f   decode1.obj
 0001:0004a998       decode_iclass_sve_int_cmp_1 000000018004b998 f   decode1.obj
 0001:0004a9a8       decode_iclass_sve_int_ucmp_vi 000000018004b9a8 f   decode1.obj
 0001:0004a9b8       decode_iclass_sve_int_pred_log 000000018004b9b8 f   decode1.obj
 0001:0004b350       decode_iclass_sve_int_brkp 000000018004c350 f   decode1.obj
 0001:0004b5c0       decode_iclass_sve_int_break 000000018004c5c0 f   decode1.obj
 0001:0004b820       decode_iclass_sve_int_pfirst 000000018004c820 f   decode1.obj
 0001:0004b8f8       decode_iclass_sve_int_rdffr 000000018004c8f8 f   decode1.obj
 0001:0004ba00       decode_iclass_sve_int_rdffr_2 000000018004ca00 f   decode1.obj
 0001:0004bab8       decode_iclass_sve_int_ptest 000000018004cab8 f   decode1.obj
 0001:0004bc28       decode_iclass_sve_int_pfalse 000000018004cc28 f   decode1.obj
 0001:0004bcf0       decode_iclass_sve_int_scmp_vi 000000018004ccf0 f   decode1.obj
 0001:0004bd18       decode_iclass_sve_int_pcount_pred 000000018004cd18 f   decode1.obj
 0001:0004be50       decode_iclass_sve_int_count_r 000000018004ce50 f   decode1.obj
 0001:0004bfd8       decode_iclass_sve_int_count_v 000000018004cfd8 f   decode1.obj
 0001:0004c168       decode_iclass_sve_int_count_r_sat 000000018004d168 f   decode1.obj
 0001:0004c1b0       decode_iclass_sve_int_count_v_sat 000000018004d1b0 f   decode1.obj
 0001:0004c460       decode_iclass_sve_int_setffr 000000018004d460 f   decode1.obj
 0001:0004c530       decode_iclass_sve_int_wrffr 000000018004d530 f   decode1.obj
 0001:0004c608       decode_iclass_sve_int_cterm 000000018004d608 f   decode1.obj
 0001:0004c628       decode_iclass_sve_int_while_rr 000000018004d628 f   decode1.obj
 0001:0004cb60       decode_iclass_sve_int_dup_fpimm 000000018004db60 f   decode1.obj
 0001:0004cd10       decode_iclass_sve_int_dup_imm 000000018004dd10 f   decode1.obj
 0001:0004cea8       decode_iclass_sve_int_arith_imm0 000000018004dea8 f   decode1.obj
 0001:0004d338       decode_iclass_sve_int_arith_imm1 000000018004e338 f   decode1.obj
 0001:0004d610       decode_iclass_sve_int_arith_imm2 000000018004e610 f   decode1.obj
 0001:0004d760       decode_iclass_sve_intx_mixed_dot 000000018004e760 f   decode1.obj
 0001:0004d868       decode_iclass_sve_intx_mlal_long 000000018004e868 f   decode1.obj
 0001:0004dcb0       decode_iclass_sve_intx_qdmlal_long 000000018004ecb0 f   decode1.obj
 0001:0004df00       decode_iclass_sve_intx_pred_arith_binary 000000018004ef00 f   decode1.obj
 0001:0004e2e8       decode_iclass_sve_intx_arith_binary_pairs 000000018004f2e8 f   decode1.obj
 0001:0004e660       decode_iclass_sve_intx_pred_arith_unary 000000018004f660 f   decode1.obj
 0001:0004e918       decode_iclass_sve_intx_pred_arith_binary_sat 000000018004f918 f   decode1.obj
 0001:0004ed28       decode_iclass_sve_intx_bin_pred_shift_sat_round 000000018004fd28 f   decode1.obj
 0001:0004f2f0       decode_iclass_sve_intx_dot_by_indexed_elem 00000001800502f0 f   decode1.obj
 0001:0004f330       decode_iclass_sve_intx_mixed_dot_by_indexed_elem 0000000180050330 f   decode1.obj
 0001:0004f4c8       decode_iclass_sve_intx_cdot_by_indexed_elem 00000001800504c8 f   decode1.obj
 0001:0004f500       decode_iclass_sve_intx_cmla_by_indexed_elem 0000000180050500 f   decode1.obj
 0001:0004f538       decode_iclass_sve_intx_qrdcmla_by_indexed_elem 0000000180050538 f   decode1.obj
 0001:0004f570       decode_iclass_sve_intx_mul_by_indexed_elem 0000000180050570 f   decode1.obj
 0001:0004f598       decode_iclass_sve_intx_mul_long_by_indexed_elem 0000000180050598 f   decode1.obj
 0001:0004f600       decode_iclass_sve_intx_mla_by_indexed_elem 0000000180050600 f   decode1.obj
 0001:0004f630       decode_iclass_sve_intx_mla_long_by_indexed_elem 0000000180050630 f   decode1.obj
 0001:0004f6b8       decode_iclass_sve_intx_qdmulh_by_indexed_elem 00000001800506b8 f   decode1.obj
 0001:0004f6e8       decode_iclass_sve_intx_qdmul_long_by_indexed_elem 00000001800506e8 f   decode1.obj
 0001:0004f728       decode_iclass_sve_intx_qdmla_long_by_indexed_elem 0000000180050728 f   decode1.obj
 0001:0004f790       decode_iclass_sve_intx_qrdmlah_by_indexed_elem 0000000180050790 f   decode1.obj
 0001:0004f7c0       decode_iclass_sve_intx_cons_arith_long 00000001800507c0 f   decode1.obj
 0001:0004ff50       decode_iclass_sve_intx_cons_arith_wide 0000000180050f50 f   decode1.obj
 0001:00050398       decode_iclass_sve_intx_cons_mul_long 0000000180051398 f   decode1.obj
 0001:00050828       decode_iclass_sve_intx_mmla 0000000180051828 f   decode1.obj
 0001:00050a48       decode_iclass_sve_intx_perm_bit 0000000180051a48 f   decode1.obj
 0001:00050c70       decode_iclass_sve_intx_shift_long 0000000180051c70 f   decode1.obj
 0001:00050f88       decode_iclass_sve_intx_clong 0000000180051f88 f   decode1.obj
 0001:00051198       decode_iclass_sve_intx_sra 0000000180052198 f   decode1.obj
 0001:00051510       decode_iclass_sve_intx_aba_long 0000000180052510 f   decode1.obj
 0001:00051738       decode_iclass_sve_intx_adc_long 0000000180052738 f   decode1.obj
 0001:00051950       decode_iclass_sve_intx_shift_narrow 0000000180052950 f   decode1.obj
 0001:00052538       decode_iclass_sve_intx_arith_narrow 0000000180053538 f   decode1.obj
 0001:00052980       decode_iclass_sve_intx_extract_narrow 0000000180053980 f   decode1.obj
 0001:00052e50       decode_iclass_sve_crypto_binary_const 0000000180053e50 f   decode1.obj
 0001:00052fc0       decode_iclass_sve_crypto_binary_dest 0000000180053fc0 f   decode1.obj
 0001:000531a8       decode_iclass_sve_crypto_unary 00000001800541a8 f   decode1.obj
 0001:000532e8       decode_iclass_sve_fp_fcvt2 00000001800542e8 f   decode1.obj
 0001:00053520       decode_iclass_sve_fp_pairwise 0000000180054520 f   decode1.obj
 0001:000538a8       decode_iclass_sve_fp_fma_by_indexed_elem 00000001800548a8 f   decode1.obj
 0001:000538d8       decode_iclass_sve_fp_fcmla_by_indexed_elem 00000001800548d8 f   decode1.obj
 0001:00053910       decode_iclass_sve_fp_fmul_by_indexed_elem 0000000180054910 f   decode1.obj
 0001:00053938       decode_iclass_sve_fp_fma_long_by_indexed_elem 0000000180054938 f   decode1.obj
 0001:00053d30       decode_iclass_sve_fp_fma_long 0000000180054d30 f   decode1.obj
 0001:00054088       decode_iclass_sve_fp_fmmla 0000000180055088 f   decode1.obj
 0001:000541a0       decode_iclass_sve_fp_fast_red 00000001800551a0 f   decode1.obj
 0001:00054528       decode_iclass_sve_fp_2op_u_zd 0000000180055528 f   decode1.obj
 0001:000546d0       decode_iclass_sve_fp_2op_p_pd 00000001800556d0 f   decode1.obj
 0001:000546f8       decode_iclass_sve_fp_2op_p_vd 00000001800556f8 f   decode1.obj
 0001:00054800       decode_iclass_sve_fp_3op_u_zd 0000000180055800 f   decode1.obj
 0001:00054c10       decode_iclass_sve_fp_2op_p_zds 0000000180055c10 f   decode1.obj
 0001:00055478       decode_iclass_sve_fp_2op_i_p_zds 0000000180056478 f   decode1.obj
 0001:000559b8       decode_iclass_sve_fp_2op_p_zd_b_0 00000001800569b8 f   decode1.obj
 0001:00055bc8       decode_iclass_sve_fp_2op_p_zd_d 0000000180056bc8 f   decode1.obj
 0001:00055dc0       decode_iclass_sve_fp_2op_p_zd_a 0000000180056dc0 f   decode1.obj
 0001:00055e20       decode_iclass_sve_fp_2op_p_zd_b_1 0000000180056e20 f   decode1.obj
 0001:00055fb0       decode_iclass_sve_fp_2op_p_zd_c 0000000180056fb0 f   decode1.obj
 0001:00056088       decode_iclass_sve_fp_3op_p_pd 0000000180057088 f   decode1.obj
 0001:000560b8       decode_iclass_sve_fp_3op_p_zds_a 00000001800570b8 f   decode1.obj
 0001:00056350       decode_iclass_sve_fp_3op_p_zds_b 0000000180057350 f   decode1.obj
 0001:000565f0       decode_iclass_sve_mem_32b_gld_vs 00000001800575f0 f   decode1.obj
 0001:00056678       decode_iclass_sve_mem_32b_gld_vi 0000000180057678 f   decode1.obj
 0001:00056718       decode_iclass_sve_mem_32b_gld_sv_a 0000000180057718 f   decode1.obj
 0001:00056740       decode_iclass_sve_mem_32b_gld_sv_b 0000000180057740 f   decode1.obj
 0001:00056768       decode_iclass_sve_mem_32b_prfm_sv 0000000180057768 f   decode1.obj
 0001:00056768       decode_iclass_sve_mem_64b_prfm_sv 0000000180057768 f   decode1.obj
 0001:00056768       decode_iclass_sve_mem_64b_prfm_sv2 0000000180057768 f   decode1.obj
 0001:000567a8       decode_iclass_sve_mem_32b_prfm_vi 00000001800577a8 f   decode1.obj
 0001:000567a8       decode_iclass_sve_mem_64b_prfm_vi 00000001800577a8 f   decode1.obj
 0001:000567f0       decode_iclass_sve_mem_prfm_si 00000001800577f0 f   decode1.obj
 0001:00056ac0       decode_iclass_sve_mem_prfm_ss 0000000180057ac0 f   decode1.obj
 0001:00056d98       decode_iclass_sve_mem_ld_dup 0000000180057d98 f   decode1.obj
 0001:00057078       decode_iclass_sve_mem_32b_gldnt_vs 0000000180058078 f   decode1.obj
 0001:00057108       decode_iclass_sve_mem_cldff_ss 0000000180058108 f   decode1.obj
 0001:00057378       decode_iclass_sve_mem_cld_si 0000000180058378 f   decode1.obj
 0001:00057618       decode_iclass_sve_mem_cld_ss 0000000180058618 f   decode1.obj
 0001:000578b8       decode_iclass_sve_mem_cldnf_si 00000001800588b8 f   decode1.obj
 0001:00057b40       decode_iclass_sve_mem_cldnt_si 0000000180058b40 f   decode1.obj
 0001:00057da0       decode_iclass_sve_mem_cldnt_ss 0000000180058da0 f   decode1.obj
 0001:00058000       decode_iclass_sve_mem_ldqr_si 0000000180059000 f   decode1.obj
 0001:00058560       decode_iclass_sve_mem_ldqr_ss 0000000180059560 f   decode1.obj
 0001:00058aa0       decode_iclass_sve_mem_eld_si 0000000180059aa0 f   decode1.obj
 0001:00059328       decode_iclass_sve_mem_eld_ss 000000018005a328 f   decode1.obj
 0001:00059bb0       decode_iclass_sve_mem_64b_gld_sv 000000018005abb0 f   decode1.obj
 0001:00059c40       decode_iclass_sve_mem_64b_gld_sv2 000000018005ac40 f   decode1.obj
 0001:00059cd0       decode_iclass_sve_mem_64b_gld_vs2 000000018005acd0 f   decode1.obj
 0001:00059d80       decode_iclass_sve_mem_64b_gld_vs 000000018005ad80 f   decode1.obj
 0001:00059e30       decode_iclass_sve_mem_64b_gld_vi 000000018005ae30 f   decode1.obj
 0001:0005a1a0       decode_iclass_sve_mem_64b_gldnt_vs 000000018005b1a0 f   decode1.obj
 0001:0005a3d0       decode_iclass_sve_mem_cst_ss 000000018005b3d0 f   decode1.obj
 0001:0005a690       decode_iclass_sve_mem_cstnt_ss 000000018005b690 f   decode1.obj
 0001:0005a8f0       decode_iclass_sve_mem_est_ss 000000018005b8f0 f   decode1.obj
 0001:0005b178       decode_iclass_sve_mem_sstnt_32b_vs 000000018005c178 f   decode1.obj
 0001:0005b1c8       decode_iclass_sve_mem_sstnt_64b_vs 000000018005c1c8 f   decode1.obj
 0001:0005b2f0       decode_iclass_sve_mem_sst_vi_b 000000018005c2f0 f   decode1.obj
 0001:0005b340       decode_iclass_sve_mem_sst_sv2 000000018005c340 f   decode1.obj
 0001:0005b390       decode_iclass_sve_mem_sst_vs2 000000018005c390 f   decode1.obj
 0001:0005b390       decode_iclass_sve_mem_sst_vs_a 000000018005c390 f   decode1.obj
 0001:0005b3d8       decode_iclass_sve_mem_sst_vi_a 000000018005c3d8 f   decode1.obj
 0001:0005b500       decode_iclass_sve_mem_cstnt_si 000000018005c500 f   decode1.obj
 0001:0005b760       decode_iclass_sve_mem_cst_si 000000018005c760 f   decode1.obj
 0001:0005ba20       decode_iclass_sve_mem_est_si 000000018005ca20 f   decode1.obj
 0001:0005c2a8       decode_iclass_sve_mem_sst_sv_b 000000018005d2a8 f   decode1.obj
 0001:0005c308       decode_iclass_sve_mem_sst_vs_b 000000018005d308 f   decode1.obj
 0001:0005c358       decode_iclass_sve_mem_sst_sv_a 000000018005d358 f   decode1.obj
 0001:0005c3a8       decode_iclass_mortlach_b16f32_prod 000000018005d3a8 f   decode1.obj
 0001:0005c4c8       decode_iclass_mortlach_f16f32_prod 000000018005d4c8 f   decode1.obj
 0001:0005c5e8       decode_iclass_mortlach_f32f32_prod 000000018005d5e8 f   decode1.obj
 0001:0005c610       decode_iclass_mortlach_i8i32_prod 000000018005d610 f   decode1.obj
 0001:0005c6a0       decode_iclass_mortlach_f64f64_prod 000000018005d6a0 f   decode1.obj
 0001:0005c6c8       decode_iclass_mortlach_i16i64_prod 000000018005d6c8 f   decode1.obj
 0001:0005c758       decode_iclass_mortlach_insert_pred 000000018005d758 f   decode1.obj
 0001:0005c7c0       decode_iclass_mortlach_extract_pred 000000018005d7c0 f   decode1.obj
 0001:0005c828       decode_iclass_mortlach_addhv 000000018005d828 f   decode1.obj
 0001:0005c870       decode_iclass_mortlach_contig_load 000000018005d870 f   decode1.obj
 0001:0005cb68       decode_iclass_mortlach_ctxt_ldst 000000018005db68 f   decode1.obj
 0001:0005cc60       decode_iclass_mortlach_contig_store 000000018005dc60 f   decode1.obj
 0001:0005cf58       ABS_advsimd                000000018005df58 f   decode2.obj
 0001:0005d148       ADC                        000000018005e148 f   decode2.obj
 0001:0005d248       ADCS                       000000018005e248 f   decode2.obj
 0001:0005d348       ADDS_addsub_ext            000000018005e348 f   decode2.obj
 0001:0005d570       ADDS_addsub_imm            000000018005e570 f   decode2.obj
 0001:0005d708       ADDS_addsub_shift          000000018005e708 f   decode2.obj
 0001:0005d920       ADD_addsub_ext             000000018005e920 f   decode2.obj
 0001:0005dab0       ADD_addsub_imm             000000018005eab0 f   decode2.obj
 0001:0005dc58       ADD_addsub_shift           000000018005ec58 f   decode2.obj
 0001:0005ddd8       ADD_advsimd                000000018005edd8 f   decode2.obj
 0001:0005dff8       ADR                        000000018005eff8 f   decode2.obj
 0001:0005e0b0       ADRP                       000000018005f0b0 f   decode2.obj
 0001:0005e168       ANDS_log_imm               000000018005f168 f   decode2.obj
 0001:0005e3b0       ANDS_log_shift             000000018005f3b0 f   decode2.obj
 0001:0005e610       AND_log_imm                000000018005f610 f   decode2.obj
 0001:0005e7c0       AND_log_shift              000000018005f7c0 f   decode2.obj
 0001:0005e988       ASRV                       000000018005f988 f   decode2.obj
 0001:0005eb58       AUTDA                      000000018005fb58 f   decode2.obj
 0001:0005ec60       AUTDB                      000000018005fc60 f   decode2.obj
 0001:0005ed68       AUTIA                      000000018005fd68 f   decode2.obj
 0001:0005ef20       AUTIB                      000000018005ff20 f   decode2.obj
 0001:0005f0d8       BFM                        00000001800600d8 f   decode2.obj
 0001:0005f460       BICS                       0000000180060460 f   decode2.obj
 0001:0005f628       BIC_advsimd_imm            0000000180060628 f   decode2.obj
 0001:0005f820       BIC_log_shift              0000000180060820 f   decode2.obj
 0001:0005f9e8       BL                         00000001800609e8 f   decode2.obj
 0001:0005fa80       BLRA                       0000000180060a80 f   decode2.obj
 0001:0005fc88       BRA                        0000000180060c88 f   decode2.obj
 0001:0005fe90       BTI                        0000000180060e90 f   decode2.obj
 0001:00060078       B_uncond                   0000000180061078 f   decode2.obj
 0001:00060110       CAS                        0000000180061110 f   decode2.obj
 0001:000603c0       CASB                       00000001800613c0 f   decode2.obj
 0001:00060560       CASH                       0000000180061560 f   decode2.obj
 0001:00060700       CASP                       0000000180061700 f   decode2.obj
 0001:00060998       CBNZ                       0000000180061998 f   decode2.obj
 0001:00060a80       CBZ                        0000000180061a80 f   decode2.obj
 0001:00060b68       CCMN_imm                   0000000180061b68 f   decode2.obj
 0001:00060c68       CCMN_reg                   0000000180061c68 f   decode2.obj
 0001:00060d68       CCMP_imm                   0000000180061d68 f   decode2.obj
 0001:00060e68       CCMP_reg                   0000000180061e68 f   decode2.obj
 0001:00060f68       CLS_int                    0000000180061f68 f   decode2.obj
 0001:00061048       CLZ_int                    0000000180062048 f   decode2.obj
 0001:00061128       CMEQ_advsimd_reg           0000000180062128 f   decode2.obj
 0001:00061348       CMEQ_advsimd_zero          0000000180062348 f   decode2.obj
 0001:00061540       CMGE_advsimd_reg           0000000180062540 f   decode2.obj
 0001:00061790       CMGE_advsimd_zero          0000000180062790 f   decode2.obj
 0001:00061988       CMGT_advsimd_reg           0000000180062988 f   decode2.obj
 0001:00061bd8       CMGT_advsimd_zero          0000000180062bd8 f   decode2.obj
 0001:00061dd0       CMHI_advsimd               0000000180062dd0 f   decode2.obj
 0001:00062020       CMHS_advsimd               0000000180063020 f   decode2.obj
 0001:00062270       CMLE_advsimd               0000000180063270 f   decode2.obj
 0001:00062468       CMLT_advsimd               0000000180063468 f   decode2.obj
 0001:00062640       CMTST_advsimd              0000000180063640 f   decode2.obj
 0001:00062860       CRC32                      0000000180063860 f   decode2.obj
 0001:000629f0       CRC32C                     00000001800639f0 f   decode2.obj
 0001:00062b80       CSDB                       0000000180063b80 f   decode2.obj
 0001:00062d68       CSEL                       0000000180063d68 f   decode2.obj
 0001:00062e68       CSINC                      0000000180063e68 f   decode2.obj
 0001:000630d0       CSINV                      00000001800640d0 f   decode2.obj
 0001:00063338       CSNEG                      0000000180064338 f   decode2.obj
 0001:000634e8       DGH                        00000001800644e8 f   decode2.obj
 0001:000636d0       DSB                        00000001800646d0 f   decode2.obj
 0001:00063910       DUP_advsimd_elt            0000000180064910 f   decode2.obj
 0001:00063b98       EON                        0000000180064b98 f   decode2.obj
 0001:00063d60       EOR_log_imm                0000000180064d60 f   decode2.obj
 0001:00063f10       EOR_log_shift              0000000180064f10 f   decode2.obj
 0001:000640d8       ERETA                      00000001800650d8 f   decode2.obj
 0001:000641e0       ESB                        00000001800651e0 f   decode2.obj
 0001:000643c8       EXTR                       00000001800653c8 f   decode2.obj
 0001:000645a8       FABD_advsimd               00000001800655a8 f   decode2.obj
 0001:00064900       FABS_advsimd               0000000180065900 f   decode2.obj
 0001:00064ae8       FABS_float                 0000000180065ae8 f   decode2.obj
 0001:00064c50       FACGE_advsimd              0000000180065c50 f   decode2.obj
 0001:00065098       FACGT_advsimd              0000000180066098 f   decode2.obj
 0001:000654e0       FADDP_advsimd_pair         00000001800664e0 f   decode2.obj
 0001:000656a0       FADDP_advsimd_vec          00000001800666a0 f   decode2.obj
 0001:000658b0       FADD_advsimd               00000001800668b0 f   decode2.obj
 0001:00065ac0       FADD_float                 0000000180066ac0 f   decode2.obj
 0001:00065c18       FCCMPE_float               0000000180066c18 f   decode2.obj
 0001:00065d78       FCCMP_float                0000000180066d78 f   decode2.obj
 0001:00065ed8       FCMEQ_advsimd_reg          0000000180066ed8 f   decode2.obj
 0001:00066320       FCMEQ_advsimd_zero         0000000180067320 f   decode2.obj
 0001:00066698       FCMGE_advsimd_reg          0000000180067698 f   decode2.obj
 0001:00066ae0       FCMGE_advsimd_zero         0000000180067ae0 f   decode2.obj
 0001:00066e58       FCMGT_advsimd_reg          0000000180067e58 f   decode2.obj
 0001:000672a0       FCMGT_advsimd_zero         00000001800682a0 f   decode2.obj
 0001:00067618       FCMLA_advsimd_elt          0000000180068618 f   decode2.obj
 0001:000677b8       FCMLE_advsimd              00000001800687b8 f   decode2.obj
 0001:00067b30       FCMLT_advsimd              0000000180068b30 f   decode2.obj
 0001:00067e38       FCMPE_float                0000000180068e38 f   decode2.obj
 0001:00068030       FCMP_float                 0000000180069030 f   decode2.obj
 0001:00068220       FCSEL_float                0000000180069220 f   decode2.obj
 0001:00068368       FCVTAS_advsimd             0000000180069368 f   decode2.obj
 0001:000686d0       FCVTAS_float               00000001800696d0 f   decode2.obj
 0001:00068a60       FCVTAU_advsimd             0000000180069a60 f   decode2.obj
 0001:00068dc8       FCVTAU_float               0000000180069dc8 f   decode2.obj
 0001:00069158       FCVTMS_advsimd             000000018006a158 f   decode2.obj
 0001:00069630       FCVTMS_float               000000018006a630 f   decode2.obj
 0001:000699c0       FCVTMU_advsimd             000000018006a9c0 f   decode2.obj
 0001:00069e98       FCVTMU_float               000000018006ae98 f   decode2.obj
 0001:0006a228       FCVTNS_advsimd             000000018006b228 f   decode2.obj
 0001:0006a700       FCVTNS_float               000000018006b700 f   decode2.obj
 0001:0006aa90       FCVTNU_advsimd             000000018006ba90 f   decode2.obj
 0001:0006af68       FCVTNU_float               000000018006bf68 f   decode2.obj
 0001:0006b2f8       FCVTPS_advsimd             000000018006c2f8 f   decode2.obj
 0001:0006b7d0       FCVTPS_float               000000018006c7d0 f   decode2.obj
 0001:0006bb60       FCVTPU_advsimd             000000018006cb60 f   decode2.obj
 0001:0006c038       FCVTPU_float               000000018006d038 f   decode2.obj
 0001:0006c3c8       FCVTXN_advsimd             000000018006d3c8 f   decode2.obj
 0001:0006c570       FCVTZS_advsimd_fix         000000018006d570 f   decode2.obj
 0001:0006c7b0       FCVTZS_advsimd_int         000000018006d7b0 f   decode2.obj
 0001:0006cc88       FCVTZS_float_fix           000000018006dc88 f   decode2.obj
 0001:0006ced8       FCVTZS_float_int           000000018006ded8 f   decode2.obj
 0001:0006d268       FCVTZU_advsimd_fix         000000018006e268 f   decode2.obj
 0001:0006d4a8       FCVTZU_advsimd_int         000000018006e4a8 f   decode2.obj
 0001:0006d980       FCVTZU_float_fix           000000018006e980 f   decode2.obj
 0001:0006dbd0       FCVTZU_float_int           000000018006ebd0 f   decode2.obj
 0001:0006df60       FCVT_float                 000000018006ef60 f   decode2.obj
 0001:0006e170       FDIV_advsimd               000000018006f170 f   decode2.obj
 0001:0006e350       FDIV_float                 000000018006f350 f   decode2.obj
 0001:0006e488       FJCVTZS                    000000018006f488 f   decode2.obj
 0001:0006e708       FMADD_float                000000018006f708 f   decode2.obj
 0001:0006e868       FMAXNMP_advsimd_pair       000000018006f868 f   decode2.obj
 0001:0006ea48       FMAXNMP_advsimd_vec        000000018006fa48 f   decode2.obj
 0001:0006ec88       FMAXNMV_advsimd            000000018006fc88 f   decode2.obj
 0001:0006ee78       FMAXNM_advsimd             000000018006fe78 f   decode2.obj
 0001:0006f0b8       FMAXNM_float               00000001800700b8 f   decode2.obj
 0001:0006f230       FMAXP_advsimd_pair         0000000180070230 f   decode2.obj
 0001:0006f410       FMAXP_advsimd_vec          0000000180070410 f   decode2.obj
 0001:0006f650       FMAXV_advsimd              0000000180070650 f   decode2.obj
 0001:0006f840       FMAX_advsimd               0000000180070840 f   decode2.obj
 0001:0006fa80       FMAX_float                 0000000180070a80 f   decode2.obj
 0001:0006fbf8       FMINNMP_advsimd_pair       0000000180070bf8 f   decode2.obj
 0001:0006fdd8       FMINNMP_advsimd_vec        0000000180070dd8 f   decode2.obj
 0001:00070018       FMINNMV_advsimd            0000000180071018 f   decode2.obj
 0001:00070208       FMINNM_advsimd             0000000180071208 f   decode2.obj
 0001:00070448       FMINNM_float               0000000180071448 f   decode2.obj
 0001:000705c0       FMINP_advsimd_pair         00000001800715c0 f   decode2.obj
 0001:000707a0       FMINP_advsimd_vec          00000001800717a0 f   decode2.obj
 0001:000709e0       FMINV_advsimd              00000001800719e0 f   decode2.obj
 0001:00070bd0       FMIN_advsimd               0000000180071bd0 f   decode2.obj
 0001:00070e10       FMIN_float                 0000000180071e10 f   decode2.obj
 0001:00070f88       FMLAL_advsimd_elt          0000000180071f88 f   decode2.obj
 0001:00071298       FMLAL_advsimd_vec          0000000180072298 f   decode2.obj
 0001:00071528       FMLA_advsimd_elt           0000000180072528 f   decode2.obj
 0001:00071a48       FMLA_advsimd_vec           0000000180072a48 f   decode2.obj
 0001:00071c50       FMLSL_advsimd_elt          0000000180072c50 f   decode2.obj
 0001:00071f60       FMLSL_advsimd_vec          0000000180072f60 f   decode2.obj
 0001:000721f0       FMLS_advsimd_elt           00000001800731f0 f   decode2.obj
 0001:00072710       FMLS_advsimd_vec           0000000180073710 f   decode2.obj
 0001:00072918       FMOV_advsimd               0000000180073918 f   decode2.obj
 0001:00072c08       FMOV_float                 0000000180073c08 f   decode2.obj
 0001:00072d70       FMOV_float_gen             0000000180073d70 f   decode2.obj
 0001:000732a8       FMOV_float_imm             00000001800742a8 f   decode2.obj
 0001:00073400       FMSUB_float                0000000180074400 f   decode2.obj
 0001:00073560       FMULX_advsimd_elt          0000000180074560 f   decode2.obj
 0001:00073a60       FMULX_advsimd_vec          0000000180074a60 f   decode2.obj
 0001:00073d80       FMUL_advsimd_elt           0000000180074d80 f   decode2.obj
 0001:00074280       FMUL_advsimd_vec           0000000180075280 f   decode2.obj
 0001:00074460       FMUL_float                 0000000180075460 f   decode2.obj
 0001:000745b8       FNEG_advsimd               00000001800755b8 f   decode2.obj
 0001:000747a0       FNEG_float                 00000001800757a0 f   decode2.obj
 0001:00074908       FNMADD_float               0000000180075908 f   decode2.obj
 0001:00074a68       FNMSUB_float               0000000180075a68 f   decode2.obj
 0001:00074bc8       FNMUL_float                0000000180075bc8 f   decode2.obj
 0001:00074d20       FRECPE_advsimd             0000000180075d20 f   decode2.obj
 0001:00074ff0       FRECPS_advsimd             0000000180075ff0 f   decode2.obj
 0001:00075310       FRECPX_advsimd             0000000180076310 f   decode2.obj
 0001:00075440       FRINT32X_float             0000000180076440 f   decode2.obj
 0001:00075568       FRINT32Z_float             0000000180076568 f   decode2.obj
 0001:00075690       FRINT64X_float             0000000180076690 f   decode2.obj
 0001:000757b8       FRINT64Z_float             00000001800767b8 f   decode2.obj
 0001:000758e0       FRINTA_advsimd             00000001800768e0 f   decode2.obj
 0001:00075c98       FRINTA_float               0000000180076c98 f   decode2.obj
 0001:00075ec8       FRINTI_advsimd             0000000180076ec8 f   decode2.obj
 0001:00076280       FRINTI_float               0000000180077280 f   decode2.obj
 0001:000764b0       FRINTM_advsimd             00000001800774b0 f   decode2.obj
 0001:00076868       FRINTM_float               0000000180077868 f   decode2.obj
 0001:00076a98       FRINTN_advsimd             0000000180077a98 f   decode2.obj
 0001:00076e50       FRINTN_float               0000000180077e50 f   decode2.obj
 0001:00077080       FRINTP_advsimd             0000000180078080 f   decode2.obj
 0001:00077438       FRINTP_float               0000000180078438 f   decode2.obj
 0001:00077668       FRINTX_advsimd             0000000180078668 f   decode2.obj
 0001:00077a20       FRINTX_float               0000000180078a20 f   decode2.obj
 0001:00077c50       FRINTZ_advsimd             0000000180078c50 f   decode2.obj
 0001:00078008       FRINTZ_float               0000000180079008 f   decode2.obj
 0001:00078238       FRSQRTE_advsimd            0000000180079238 f   decode2.obj
 0001:00078508       FRSQRTS_advsimd            0000000180079508 f   decode2.obj
 0001:00078828       FSQRT_advsimd              0000000180079828 f   decode2.obj
 0001:000789d8       FSQRT_float                00000001800799d8 f   decode2.obj
 0001:00078b40       FSUB_advsimd               0000000180079b40 f   decode2.obj
 0001:00078d50       FSUB_float                 0000000180079d50 f   decode2.obj
 0001:00078ea8       HINT                       0000000180079ea8 f   decode2.obj
 0001:00079090       LD1R_advsimd               000000018007a090 f   decode2.obj
 0001:00079340       LD1_advsimd_mult           000000018007a340 f   decode2.obj
 0001:00079738       LD1_advsimd_sngl           000000018007a738 f   decode2.obj
 0001:00079bc8       LD2R_advsimd               000000018007abc8 f   decode2.obj
 0001:00079e78       LD2_advsimd_mult           000000018007ae78 f   decode2.obj
 0001:0007a100       LD2_advsimd_sngl           000000018007b100 f   decode2.obj
 0001:0007a590       LD3R_advsimd               000000018007b590 f   decode2.obj
 0001:0007a840       LD3_advsimd_mult           000000018007b840 f   decode2.obj
 0001:0007aac8       LD3_advsimd_sngl           000000018007bac8 f   decode2.obj
 0001:0007af70       LD4R_advsimd               000000018007bf70 f   decode2.obj
 0001:0007b220       LD4_advsimd_mult           000000018007c220 f   decode2.obj
 0001:0007b4a0       LD4_advsimd_sngl           000000018007c4a0 f   decode2.obj
 0001:0007b948       LDADD                      000000018007c948 f   decode2.obj
 0001:0007bd98       LDADDB                     000000018007cd98 f   decode2.obj
 0001:0007c068       LDADDH                     000000018007d068 f   decode2.obj
 0001:0007c338       LDAPR                      000000018007d338 f   decode2.obj
 0001:0007c440       LDAPURB                    000000018007d440 f   decode2.obj
 0001:0007c5e8       LDAPURH                    000000018007d5e8 f   decode2.obj
 0001:0007c790       LDAPURSB                   000000018007d790 f   decode2.obj
 0001:0007c970       LDAPURSH                   000000018007d970 f   decode2.obj
 0001:0007cb50       LDAPURSW                   000000018007db50 f   decode2.obj
 0001:0007ccf8       LDAPUR_gen                 000000018007dcf8 f   decode2.obj
 0001:0007ced8       LDAR                       000000018007ded8 f   decode2.obj
 0001:0007d010       LDAXP                      000000018007e010 f   decode2.obj
 0001:0007d180       LDAXR                      000000018007e180 f   decode2.obj
 0001:0007d2e8       LDCLR                      000000018007e2e8 f   decode2.obj
 0001:0007d738       LDCLRB                     000000018007e738 f   decode2.obj
 0001:0007da08       LDCLRH                     000000018007ea08 f   decode2.obj
 0001:0007dcd8       LDEOR                      000000018007ecd8 f   decode2.obj
 0001:0007e128       LDEORB                     000000018007f128 f   decode2.obj
 0001:0007e3f8       LDEORH                     000000018007f3f8 f   decode2.obj
 0001:0007e6c8       LDLAR                      000000018007f6c8 f   decode2.obj
 0001:0007e7f8       LDNP_fpsimd                000000018007f7f8 f   decode2.obj
 0001:0007e970       LDNP_gen                   000000018007f970 f   decode2.obj
 0001:0007eac0       LDPSW                      000000018007fac0 f   decode2.obj
 0001:0007ecc0       LDP_fpsimd                 000000018007fcc0 f   decode2.obj
 0001:0007ef50       LDP_gen                    000000018007ff50 f   decode2.obj
 0001:0007f1d8       LDRA                       00000001800801d8 f   decode2.obj
 0001:0007f380       LDRB_imm                   0000000180080380 f   decode2.obj
 0001:0007f5f0       LDRB_reg                   00000001800805f0 f   decode2.obj
 0001:0007f7a8       LDRH_imm                   00000001800807a8 f   decode2.obj
 0001:0007fa18       LDRH_reg                   0000000180080a18 f   decode2.obj
 0001:0007fbb0       LDRSB_imm                  0000000180080bb0 f   decode2.obj
 0001:0007fe80       LDRSB_reg                  0000000180080e80 f   decode2.obj
 0001:000800b0       LDRSH_imm                  00000001800810b0 f   decode2.obj
 0001:00080380       LDRSH_reg                  0000000180081380 f   decode2.obj
 0001:00080540       LDRSW_imm                  0000000180081540 f   decode2.obj
 0001:000807b0       LDRSW_reg                  00000001800817b0 f   decode2.obj
 0001:00080948       LDR_imm_fpsimd             0000000180081948 f   decode2.obj
 0001:00080dd8       LDR_imm_gen                0000000180081dd8 f   decode2.obj
 0001:000810b0       LDR_lit_fpsimd             00000001800820b0 f   decode2.obj
 0001:000811e0       LDR_lit_gen                00000001800821e0 f   decode2.obj
 0001:00081300       LDR_reg_fpsimd             0000000180082300 f   decode2.obj
 0001:00081540       LDR_reg_gen                0000000180082540 f   decode2.obj
 0001:00081700       LDSET                      0000000180082700 f   decode2.obj
 0001:00081b50       LDSETB                     0000000180082b50 f   decode2.obj
 0001:00081e20       LDSETH                     0000000180082e20 f   decode2.obj
 0001:000820f0       LDSMAX                     00000001800830f0 f   decode2.obj
 0001:00082540       LDSMAXB                    0000000180083540 f   decode2.obj
 0001:00082810       LDSMAXH                    0000000180083810 f   decode2.obj
 0001:00082ae0       LDSMIN                     0000000180083ae0 f   decode2.obj
 0001:00082f30       LDSMINB                    0000000180083f30 f   decode2.obj
 0001:00083200       LDSMINH                    0000000180084200 f   decode2.obj
 0001:000834d0       LDTR                       00000001800844d0 f   decode2.obj
 0001:00083738       LDTRB                      0000000180084738 f   decode2.obj
 0001:00083958       LDTRH                      0000000180084958 f   decode2.obj
 0001:00083b78       LDTRSB                     0000000180084b78 f   decode2.obj
 0001:00083de0       LDTRSH                     0000000180084de0 f   decode2.obj
 0001:00084048       LDTRSW                     0000000180085048 f   decode2.obj
 0001:00084268       LDUMAX                     0000000180085268 f   decode2.obj
 0001:000846b8       LDUMAXB                    00000001800856b8 f   decode2.obj
 0001:00084988       LDUMAXH                    0000000180085988 f   decode2.obj
 0001:00084c58       LDUMIN                     0000000180085c58 f   decode2.obj
 0001:000850a8       LDUMINB                    00000001800860a8 f   decode2.obj
 0001:00085378       LDUMINH                    0000000180086378 f   decode2.obj
 0001:00085648       LDURB                      0000000180086648 f   decode2.obj
 0001:000857f0       LDURH                      00000001800867f0 f   decode2.obj
 0001:00085998       LDURSB                     0000000180086998 f   decode2.obj
 0001:00085b78       LDURSH                     0000000180086b78 f   decode2.obj
 0001:00085d58       LDURSW                     0000000180086d58 f   decode2.obj
 0001:00085f00       LDUR_fpsimd                0000000180086f00 f   decode2.obj
 0001:000860f8       LDUR_gen                   00000001800870f8 f   decode2.obj
 0001:000862d8       LDXP                       00000001800872d8 f   decode2.obj
 0001:00086448       LDXR                       0000000180087448 f   decode2.obj
 0001:000865a8       LSLV                       00000001800875a8 f   decode2.obj
 0001:00086778       LSRV                       0000000180087778 f   decode2.obj
 0001:00086948       MADD                       0000000180087948 f   decode2.obj
 0001:00086ac8       MOVI_advsimd               0000000180087ac8 f   decode2.obj
 0001:00086d98       MOVK                       0000000180087d98 f   decode2.obj
 0001:00086ec0       MOVN                       0000000180087ec0 f   decode2.obj
 0001:000870b0       MOVZ                       00000001800880b0 f   decode2.obj
 0001:00087270       MOV_DUP_advsimd_elt        0000000180088270 f   decode2.obj
 0001:000872d8       MOV_mova_z_p_rza           00000001800882d8 f   decode2.obj
 0001:00087448       MOV_mova_za_p_rz           0000000180088448 f   decode2.obj
 0001:000875b8       MRS                        00000001800885b8 f   decode2.obj
 0001:00087660       MSR_imm                    0000000180088660 f   decode2.obj
 0001:00087948       MSR_reg                    0000000180088948 f   decode2.obj
 0001:000879f0       MSUB                       00000001800889f0 f   decode2.obj
 0001:00087b70       MVNI_advsimd               0000000180088b70 f   decode2.obj
 0001:00087d90       NEG_advsimd                0000000180088d90 f   decode2.obj
 0001:00087f80       NOP                        0000000180088f80 f   decode2.obj
 0001:00088168       ORN_log_shift              0000000180089168 f   decode2.obj
 0001:000883c8       ORR_advsimd_imm            00000001800893c8 f   decode2.obj
 0001:000885c0       ORR_log_imm                00000001800895c0 f   decode2.obj
 0001:000888a8       ORR_log_shift              00000001800898a8 f   decode2.obj
 0001:00088b10       PACDA                      0000000180089b10 f   decode2.obj
 0001:00088c18       PACDB                      0000000180089c18 f   decode2.obj
 0001:00088d20       PACIA                      0000000180089d20 f   decode2.obj
 0001:00088f50       PACIB                      0000000180089f50 f   decode2.obj
 0001:00089188       PRFM_imm                   000000018008a188 f   decode2.obj
 0001:00089328       PRFM_reg                   000000018008a328 f   decode2.obj
 0001:000894c0       PRFUM                      000000018008a4c0 f   decode2.obj
 0001:00089668       PSB                        000000018008a668 f   decode2.obj
 0001:00089850       RBIT_int                   000000018008a850 f   decode2.obj
 0001:00089918       RETA                       000000018008a918 f   decode2.obj
 0001:00089aa0       REV                        000000018008aaa0 f   decode2.obj
 0001:00089be0       REV16_int                  000000018008abe0 f   decode2.obj
 0001:00089d10       RORV                       000000018008ad10 f   decode2.obj
 0001:00089ee0       SBC                        000000018008aee0 f   decode2.obj
 0001:0008a070       SBCS                       000000018008b070 f   decode2.obj
 0001:0008a200       SBFM                       000000018008b200 f   decode2.obj
 0001:0008a758       SCVTF_advsimd_fix          000000018008b758 f   decode2.obj
 0001:0008a998       SCVTF_advsimd_int          000000018008b998 f   decode2.obj
 0001:0008acc8       SCVTF_float_fix            000000018008bcc8 f   decode2.obj
 0001:0008af18       SCVTF_float_int            000000018008bf18 f   decode2.obj
 0001:0008b2a8       SDIV                       000000018008c2a8 f   decode2.obj
 0001:0008b390       SETF                       000000018008c390 f   decode2.obj
 0001:0008b478       SEV                        000000018008c478 f   decode2.obj
 0001:0008b660       SEVL                       000000018008c660 f   decode2.obj
 0001:0008b848       SHL_advsimd                000000018008c848 f   decode2.obj
 0001:0008ba00       SLI_advsimd                000000018008ca00 f   decode2.obj
 0001:0008bbb8       SMLAL_advsimd_elt          000000018008cbb8 f   decode2.obj
 0001:0008bd08       SMLSL_advsimd_elt          000000018008cd08 f   decode2.obj
 0001:0008be58       SMOV_advsimd               000000018008ce58 f   decode2.obj
 0001:0008bfc8       SQABS_advsimd              000000018008cfc8 f   decode2.obj
 0001:0008c1a8       SQADD_advsimd              000000018008d1a8 f   decode2.obj
 0001:0008c3b8       SQDMLAL_advsimd_elt        000000018008d3b8 f   decode2.obj
 0001:0008c6a0       SQDMLAL_advsimd_vec        000000018008d6a0 f   decode2.obj
 0001:0008c8a0       SQDMLSL_advsimd_elt        000000018008d8a0 f   decode2.obj
 0001:0008cb88       SQDMLSL_advsimd_vec        000000018008db88 f   decode2.obj
 0001:0008cd88       SQDMULH_advsimd_elt        000000018008dd88 f   decode2.obj
 0001:0008d068       SQDMULH_advsimd_vec        000000018008e068 f   decode2.obj
 0001:0008d260       SQDMULL_advsimd_elt        000000018008e260 f   decode2.obj
 0001:0008d528       SQDMULL_advsimd_vec        000000018008e528 f   decode2.obj
 0001:0008d708       SQNEG_advsimd              000000018008e708 f   decode2.obj
 0001:0008d8e8       SQRDMLAH_advsimd_elt       000000018008e8e8 f   decode2.obj
 0001:0008dbf0       SQRDMLAH_advsimd_vec       000000018008ebf0 f   decode2.obj
 0001:0008de10       SQRDMLSH_advsimd_elt       000000018008ee10 f   decode2.obj
 0001:0008e118       SQRDMLSH_advsimd_vec       000000018008f118 f   decode2.obj
 0001:0008e338       SQRDMULH_advsimd_elt       000000018008f338 f   decode2.obj
 0001:0008e618       SQRDMULH_advsimd_vec       000000018008f618 f   decode2.obj
 0001:0008e810       SQRSHL_advsimd             000000018008f810 f   decode2.obj
 0001:0008ea68       SQRSHRN_advsimd            000000018008fa68 f   decode2.obj
 0001:0008ec90       SQRSHRUN_advsimd           000000018008fc90 f   decode2.obj
 0001:0008ee98       SQSHLU_advsimd             000000018008fe98 f   decode2.obj
 0001:0008f110       SQSHL_advsimd_imm          0000000180090110 f   decode2.obj
 0001:0008f388       SQSHL_advsimd_reg          0000000180090388 f   decode2.obj
 0001:0008f5e0       SQSHRN_advsimd             00000001800905e0 f   decode2.obj
 0001:0008f808       SQSHRUN_advsimd            0000000180090808 f   decode2.obj
 0001:0008fa10       SQSUB_advsimd              0000000180090a10 f   decode2.obj
 0001:0008fc20       SQXTN_advsimd              0000000180090c20 f   decode2.obj
 0001:0008fe18       SQXTUN_advsimd             0000000180090e18 f   decode2.obj
 0001:0008ffd8       SRI_advsimd                0000000180090fd8 f   decode2.obj
 0001:00090198       SRSHL_advsimd              0000000180091198 f   decode2.obj
 0001:000903f0       SRSHR_advsimd              00000001800913f0 f   decode2.obj
 0001:00090610       SRSRA_advsimd              0000000180091610 f   decode2.obj
 0001:00090830       SSHLL_advsimd              0000000180091830 f   decode2.obj
 0001:00090a00       SSHL_advsimd               0000000180091a00 f   decode2.obj
 0001:00090c58       SSHR_advsimd               0000000180091c58 f   decode2.obj
 0001:00090e78       SSRA_advsimd               0000000180091e78 f   decode2.obj
 0001:00091098       ST1_advsimd_mult           0000000180092098 f   decode2.obj
 0001:00091490       ST1_advsimd_sngl           0000000180092490 f   decode2.obj
 0001:00091920       ST2G                       0000000180092920 f   decode2.obj
 0001:00091b68       ST2_advsimd_mult           0000000180092b68 f   decode2.obj
 0001:00091df0       ST2_advsimd_sngl           0000000180092df0 f   decode2.obj
 0001:00092280       ST3_advsimd_mult           0000000180093280 f   decode2.obj
 0001:00092508       ST3_advsimd_sngl           0000000180093508 f   decode2.obj
 0001:000929b0       ST4_advsimd_mult           00000001800939b0 f   decode2.obj
 0001:00092c30       ST4_advsimd_sngl           0000000180093c30 f   decode2.obj
 0001:000930d8       STG                        00000001800940d8 f   decode2.obj
 0001:00093320       STGP                       0000000180094320 f   decode2.obj
 0001:00093568       STLLR                      0000000180094568 f   decode2.obj
 0001:00093698       STLR                       0000000180094698 f   decode2.obj
 0001:000937d0       STLURB                     00000001800947d0 f   decode2.obj
 0001:00093978       STLURH                     0000000180094978 f   decode2.obj
 0001:00093b20       STLUR_gen                  0000000180094b20 f   decode2.obj
 0001:00093d00       STLXP                      0000000180094d00 f   decode2.obj
 0001:00093e70       STLXR                      0000000180094e70 f   decode2.obj
 0001:00093fd8       STNP_fpsimd                0000000180094fd8 f   decode2.obj
 0001:00094150       STNP_gen                   0000000180095150 f   decode2.obj
 0001:000942a0       STP_fpsimd                 00000001800952a0 f   decode2.obj
 0001:00094530       STP_gen                    0000000180095530 f   decode2.obj
 0001:000947b8       STRB_imm                   00000001800957b8 f   decode2.obj
 0001:00094a28       STRB_reg                   0000000180095a28 f   decode2.obj
 0001:00094be0       STRH_imm                   0000000180095be0 f   decode2.obj
 0001:00094e50       STRH_reg                   0000000180095e50 f   decode2.obj
 0001:00094fe8       STR_imm_fpsimd             0000000180095fe8 f   decode2.obj
 0001:00095448       STR_imm_gen                0000000180096448 f   decode2.obj
 0001:00095720       STR_reg_fpsimd             0000000180096720 f   decode2.obj
 0001:00095950       STR_reg_gen                0000000180096950 f   decode2.obj
 0001:00095b10       STTR                       0000000180096b10 f   decode2.obj
 0001:00095d78       STTRB                      0000000180096d78 f   decode2.obj
 0001:00095f98       STTRH                      0000000180096f98 f   decode2.obj
 0001:000961b8       STURB                      00000001800971b8 f   decode2.obj
 0001:00096360       STURH                      0000000180097360 f   decode2.obj
 0001:00096508       STUR_fpsimd                0000000180097508 f   decode2.obj
 0001:000966f0       STUR_gen                   00000001800976f0 f   decode2.obj
 0001:000968d0       STXP                       00000001800978d0 f   decode2.obj
 0001:00096a40       STXR                       0000000180097a40 f   decode2.obj
 0001:00096ba0       STZ2G                      0000000180097ba0 f   decode2.obj
 0001:00096de8       STZG                       0000000180097de8 f   decode2.obj
 0001:00097030       SUBS_addsub_ext            0000000180098030 f   decode2.obj
 0001:00097258       SUBS_addsub_imm            0000000180098258 f   decode2.obj
 0001:000973f0       SUBS_addsub_shift          00000001800983f0 f   decode2.obj
 0001:00097690       SUB_addsub_ext             0000000180098690 f   decode2.obj
 0001:00097820       SUB_addsub_imm             0000000180098820 f   decode2.obj
 0001:00097928       SUB_addsub_shift           0000000180098928 f   decode2.obj
 0001:00097b40       SUB_advsimd                0000000180098b40 f   decode2.obj
 0001:00097d60       SUQADD_advsimd             0000000180098d60 f   decode2.obj
 0001:00097f40       SWP                        0000000180098f40 f   decode2.obj
 0001:000981f8       SWPB                       00000001800991f8 f   decode2.obj
 0001:000983a0       SWPH                       00000001800993a0 f   decode2.obj
 0001:00098548       SYS                        0000000180099548 f   decode2.obj
 0001:000988a0       SYSL                       00000001800998a0 f   decode2.obj
 0001:00098940       TBL_advsimd                0000000180099940 f   decode2.obj
 0001:00098a98       TBNZ                       0000000180099a98 f   decode2.obj
 0001:00098b50       TBX_advsimd                0000000180099b50 f   decode2.obj
 0001:00098cb0       TBZ                        0000000180099cb0 f   decode2.obj
 0001:00098d68       TSB                        0000000180099d68 f   decode2.obj
 0001:00098f50       UBFM                       0000000180099f50 f   decode2.obj
 0001:00099498       UCVTF_advsimd_fix          000000018009a498 f   decode2.obj
 0001:000996d8       UCVTF_advsimd_int          000000018009a6d8 f   decode2.obj
 0001:00099a08       UCVTF_float_fix            000000018009aa08 f   decode2.obj
 0001:00099c58       UCVTF_float_int            000000018009ac58 f   decode2.obj
 0001:00099fe8       UDF_perm_undef             000000018009afe8 f   decode2.obj
 0001:0009a040       UDIV                       000000018009b040 f   decode2.obj
 0001:0009a128       UMINP_advsimd              000000018009b128 f   decode2.obj
 0001:0009a228       UMLAL_advsimd_elt          000000018009b228 f   decode2.obj
 0001:0009a378       UMLSL_advsimd_elt          000000018009b378 f   decode2.obj
 0001:0009a4c8       UMOV_advsimd               000000018009b4c8 f   decode2.obj
 0001:0009a738       UQADD_advsimd              000000018009b738 f   decode2.obj
 0001:0009a948       UQRSHL_advsimd             000000018009b948 f   decode2.obj
 0001:0009aba0       UQRSHRN_advsimd            000000018009bba0 f   decode2.obj
 0001:0009adc8       UQSHL_advsimd_imm          000000018009bdc8 f   decode2.obj
 0001:0009b040       UQSHL_advsimd_reg          000000018009c040 f   decode2.obj
 0001:0009b298       UQSHRN_advsimd             000000018009c298 f   decode2.obj
 0001:0009b4c0       UQSUB_advsimd              000000018009c4c0 f   decode2.obj
 0001:0009b6d0       UQXTN_advsimd              000000018009c6d0 f   decode2.obj
 0001:0009b8c8       URSHL_advsimd              000000018009c8c8 f   decode2.obj
 0001:0009bb20       URSHR_advsimd              000000018009cb20 f   decode2.obj
 0001:0009bd40       URSRA_advsimd              000000018009cd40 f   decode2.obj
 0001:0009bf60       USHLL_advsimd              000000018009cf60 f   decode2.obj
 0001:0009c130       USHL_advsimd               000000018009d130 f   decode2.obj
 0001:0009c388       USHR_advsimd               000000018009d388 f   decode2.obj
 0001:0009c5a8       USQADD_advsimd             000000018009d5a8 f   decode2.obj
 0001:0009c788       USRA_advsimd               000000018009d788 f   decode2.obj
 0001:0009c9a8       WFE                        000000018009d9a8 f   decode2.obj
 0001:0009cb90       WFI                        000000018009db90 f   decode2.obj
 0001:0009cd78       XAR_advsimd                000000018009dd78 f   decode2.obj
 0001:0009ce10       XPAC                       000000018009de10 f   decode2.obj
 0001:0009cf30       YIELD                      000000018009df30 f   decode2.obj
 0001:0009d118       addha_za_pp_z              000000018009e118 f   decode2.obj
 0001:0009d298       addpl_r_ri                 000000018009e298 f   decode2.obj
 0001:0009d350       addva_za_pp_z              000000018009e350 f   decode2.obj
 0001:0009d4d0       addvl_r_ri                 000000018009e4d0 f   decode2.obj
 0001:0009d588       adr_z_az                   000000018009e588 f   decode2.obj
 0001:0009d808       bfdot_z_zzz                000000018009e808 f   decode2.obj
 0001:0009d8b0       bfdot_z_zzzi               000000018009e8b0 f   decode2.obj
 0001:0009d960       brkn_p_p_pp                000000018009e960 f   decode2.obj
 0001:0009da10       brkns_p_p_pp               000000018009ea10 f   decode2.obj
 0001:0009dac8       cadd_z_zz                  000000018009eac8 f   decode2.obj
 0001:0009db98       cdot_z_zzz                 000000018009eb98 f   decode2.obj
 0001:0009dc88       cdot_z_zzzi                000000018009ec88 f   decode2.obj
 0001:0009de98       clasta_r_p_z               000000018009ee98 f   decode2.obj
 0001:0009df70       clasta_v_p_z               000000018009ef70 f   decode2.obj
 0001:0009e030       clasta_z_p_zz              000000018009f030 f   decode2.obj
 0001:0009e0f0       clastb_r_p_z               000000018009f0f0 f   decode2.obj
 0001:0009e1c8       clastb_v_p_z               000000018009f1c8 f   decode2.obj
 0001:0009e290       clastb_z_p_zz              000000018009f290 f   decode2.obj
 0001:0009e358       cmla_z_zzz                 000000018009f358 f   decode2.obj
 0001:0009e448       cmla_z_zzzi                000000018009f448 f   decode2.obj
 0001:0009e668       cmpeq_p_p_zi               000000018009f668 f   decode2.obj
 0001:0009f058       cmpeq_p_p_zw               00000001800a0058 f   decode2.obj
 0001:0009f9b0       cmpeq_p_p_zz               00000001800a09b0 f   decode2.obj
 0001:0009fef0       cntb_r_s                   00000001800a0ef0 f   decode2.obj
 0001:000a0188       compact_z_p_z              00000001800a1188 f   decode2.obj
 0001:000a0240       cpy_z_o_i                  00000001800a1240 f   decode2.obj
 0001:000a0388       cpy_z_p_i                  00000001800a1388 f   decode2.obj
 0001:000a04d8       cpy_z_p_r                  00000001800a14d8 f   decode2.obj
 0001:000a05f8       cpy_z_p_v                  00000001800a15f8 f   decode2.obj
 0001:000a0718       ctermeq_rr                 00000001800a1718 f   decode2.obj
 0001:000a08b8       decb_r_rs                  00000001800a18b8 f   decode2.obj
 0001:000a0b50       decd_z_zs                  00000001800a1b50 f   decode2.obj
 0001:000a0d78       dup_p_p_pi                 00000001800a1d78 f   decode2.obj
 0001:000a0ea8       dup_z_r                    00000001800a1ea8 f   decode2.obj
 0001:000a0fc0       dup_z_zi                   00000001800a1fc0 f   decode2.obj
 0001:000a1228       dupm_z_i                   00000001800a2228 f   decode2.obj
 0001:000a1338       eorbt_z_zz                 00000001800a2338 f   decode2.obj
 0001:000a1408       eortb_z_zz                 00000001800a2408 f   decode2.obj
 0001:000a14d8       ext_z_zi                   00000001800a24d8 f   decode2.obj
 0001:000a1678       facge_p_p_zz               00000001800a2678 f   decode2.obj
 0001:000a1868       fcadd_z_p_zz               00000001800a2868 f   decode2.obj
 0001:000a1948       fcmeq_p_p_z0               00000001800a2948 f   decode2.obj
 0001:000a1de0       fcmeq_p_p_zz               00000001800a2de0 f   decode2.obj
 0001:000a2248       fcmla_z_p_zzz              00000001800a3248 f   decode2.obj
 0001:000a2340       fcmla_z_zzzi               00000001800a3340 f   decode2.obj
 0001:000a2560       fcpy_z_p_i                 00000001800a3560 f   decode2.obj
 0001:000a26a8       fcvt_z_p_z                 00000001800a36a8 f   decode2.obj
 0001:000a2ac8       fcvtlt_z_p_z               00000001800a3ac8 f   decode2.obj
 0001:000a2c40       fcvtnt_z_p_z               00000001800a3c40 f   decode2.obj
 0001:000a2db8       fcvtzs_z_p_z               00000001800a3db8 f   decode2.obj
 0001:000a3368       fcvtzu_z_p_z               00000001800a4368 f   decode2.obj
 0001:000a3938       fmla_z_zzzi                00000001800a4938 f   decode2.obj
 0001:000a3ba0       fmls_z_zzzi                00000001800a4ba0 f   decode2.obj
 0001:000a3e20       fmmla_z_zzz                00000001800a4e20 f   decode2.obj
 0001:000a3f88       fmopa_za_pp_zz             00000001800a4f88 f   decode2.obj
 0001:000a4138       fmops_za_pp_zz             00000001800a5138 f   decode2.obj
 0001:000a42f8       fmul_z_zzi                 00000001800a52f8 f   decode2.obj
 0001:000a4540       frinta_z_p_z               00000001800a5540 f   decode2.obj
 0001:000a4ae8       ftmad_z_zzi                00000001800a5ae8 f   decode2.obj
 0001:000a4ba0       ftssel_z_zz                00000001800a5ba0 f   decode2.obj
 0001:000a4c58       histcnt_z_p_zz             00000001800a5c58 f   decode2.obj
 0001:000a4d18       histseg_z_zz               00000001800a5d18 f   decode2.obj
 0001:000a4dc8       incb_r_rs                  00000001800a5dc8 f   decode2.obj
 0001:000a5060       incd_z_zs                  00000001800a6060 f   decode2.obj
 0001:000a5288       index_z_ii                 00000001800a6288 f   decode2.obj
 0001:000a5360       index_z_ir                 00000001800a6360 f   decode2.obj
 0001:000a5430       index_z_ri                 00000001800a6430 f   decode2.obj
 0001:000a5500       index_z_rr                 00000001800a6500 f   decode2.obj
 0001:000a55c0       insr_z_r                   00000001800a65c0 f   decode2.obj
 0001:000a5678       insr_z_v                   00000001800a6678 f   decode2.obj
 0001:000a5730       lasta_r_p_z                00000001800a6730 f   decode2.obj
 0001:000a5808       lasta_v_p_z                00000001800a6808 f   decode2.obj
 0001:000a58c8       lastb_r_p_z                00000001800a68c8 f   decode2.obj
 0001:000a59a0       lastb_v_p_z                00000001800a69a0 f   decode2.obj
 0001:000a5a68       ld1b_z_p_ai                00000001800a6a68 f   decode2.obj
 0001:000a5c20       ld1b_z_p_bi                00000001800a6c20 f   decode2.obj
 0001:000a5fa0       ld1b_z_p_br                00000001800a6fa0 f   decode2.obj
 0001:000a6340       ld1b_z_p_bz                00000001800a7340 f   decode2.obj
 0001:000a6620       ld1d_z_p_bz                00000001800a7620 f   decode2.obj
 0001:000a69d8       ld1h_z_p_ai                00000001800a79d8 f   decode2.obj
 0001:000a6b90       ld1h_z_p_bi                00000001800a7b90 f   decode2.obj
 0001:000a6e30       ld1h_z_p_br                00000001800a7e30 f   decode2.obj
 0001:000a70f0       ld1h_z_p_bz                00000001800a80f0 f   decode2.obj
 0001:000a76f0       ld1q_za_p_rrr              00000001800a86f0 f   decode2.obj
 0001:000a77b8       ld1rb_z_p_bi               00000001800a87b8 f   decode2.obj
 0001:000a7b00       ld1rh_z_p_bi               00000001800a8b00 f   decode2.obj
 0001:000a7d80       ld1rsb_z_p_bi              00000001800a8d80 f   decode2.obj
 0001:000a7ff8       ld1rsh_z_p_bi              00000001800a8ff8 f   decode2.obj
 0001:000a81c0       ld1rw_z_p_bi               00000001800a91c0 f   decode2.obj
 0001:000a8388       ld1sb_z_p_ai               00000001800a9388 f   decode2.obj
 0001:000a8538       ld1sb_z_p_bi               00000001800a9538 f   decode2.obj
 0001:000a87d0       ld1sb_z_p_br               00000001800a97d0 f   decode2.obj
 0001:000a8a88       ld1sb_z_p_bz               00000001800a9a88 f   decode2.obj
 0001:000a8d58       ld1sh_z_p_ai               00000001800a9d58 f   decode2.obj
 0001:000a8f08       ld1sh_z_p_bi               00000001800a9f08 f   decode2.obj
 0001:000a90e8       ld1sh_z_p_br               00000001800aa0e8 f   decode2.obj
 0001:000a92d0       ld1sh_z_p_bz               00000001800aa2d0 f   decode2.obj
 0001:000a98b8       ld1sw_z_p_bz               00000001800aa8b8 f   decode2.obj
 0001:000a9c68       ld1w_z_p_ai                00000001800aac68 f   decode2.obj
 0001:000a9e18       ld1w_z_p_bi                00000001800aae18 f   decode2.obj
 0001:000a9ff8       ld1w_z_p_br                00000001800aaff8 f   decode2.obj
 0001:000aa1e8       ld1w_z_p_bz                00000001800ab1e8 f   decode2.obj
 0001:000aa7e0       ldff1b_z_p_ai              00000001800ab7e0 f   decode2.obj
 0001:000aa998       ldff1b_z_p_br              00000001800ab998 f   decode2.obj
 0001:000aac98       ldff1b_z_p_bz              00000001800abc98 f   decode2.obj
 0001:000aaf78       ldff1d_z_p_bz              00000001800abf78 f   decode2.obj
 0001:000ab330       ldff1h_z_p_ai              00000001800ac330 f   decode2.obj
 0001:000ab4e8       ldff1h_z_p_br              00000001800ac4e8 f   decode2.obj
 0001:000ab740       ldff1h_z_p_bz              00000001800ac740 f   decode2.obj
 0001:000abd40       ldff1sb_z_p_ai             00000001800acd40 f   decode2.obj
 0001:000abef0       ldff1sb_z_p_br             00000001800acef0 f   decode2.obj
 0001:000ac140       ldff1sb_z_p_bz             00000001800ad140 f   decode2.obj
 0001:000ac418       ldff1sh_z_p_ai             00000001800ad418 f   decode2.obj
 0001:000ac5c8       ldff1sh_z_p_br             00000001800ad5c8 f   decode2.obj
 0001:000ac778       ldff1sh_z_p_bz             00000001800ad778 f   decode2.obj
 0001:000acd70       ldff1sw_z_p_bz             00000001800add70 f   decode2.obj
 0001:000ad128       ldff1w_z_p_ai              00000001800ae128 f   decode2.obj
 0001:000ad2d8       ldff1w_z_p_br              00000001800ae2d8 f   decode2.obj
 0001:000ad488       ldff1w_z_p_bz              00000001800ae488 f   decode2.obj
 0001:000ada80       ldnf1b_z_p_bi              00000001800aea80 f   decode2.obj
 0001:000addd0       ldnf1h_z_p_bi              00000001800aedd0 f   decode2.obj
 0001:000ae050       ldnf1sb_z_p_bi             00000001800af050 f   decode2.obj
 0001:000ae2c8       ldnf1sh_z_p_bi             00000001800af2c8 f   decode2.obj
 0001:000ae490       ldnf1w_z_p_bi              00000001800af490 f   decode2.obj
 0001:000ae658       ldnt1b_z_p_ar              00000001800af658 f   decode2.obj
 0001:000ae810       ldnt1h_z_p_ar              00000001800af810 f   decode2.obj
 0001:000ae9c8       ldnt1sb_z_p_ar             00000001800af9c8 f   decode2.obj
 0001:000aeb78       ldnt1sh_z_p_ar             00000001800afb78 f   decode2.obj
 0001:000aed28       ldnt1w_z_p_ar              00000001800afd28 f   decode2.obj
 0001:000aeed8       ldr_p_bi                   00000001800afed8 f   decode2.obj
 0001:000aef98       ldr_z_bi                   00000001800aff98 f   decode2.obj
 0001:000af058       mad_z_p_zzz                00000001800b0058 f   decode2.obj
 0001:000af128       match_p_p_zz               00000001800b0128 f   decode2.obj
 0001:000af1e8       mla_z_p_zzz                00000001800b01e8 f   decode2.obj
 0001:000af2b8       mla_z_zzzi                 00000001800b02b8 f   decode2.obj
 0001:000af500       mls_z_p_zzz                00000001800b0500 f   decode2.obj
 0001:000af5d0       mls_z_zzzi                 00000001800b05d0 f   decode2.obj
 0001:000af818       mova_z_p_rza               00000001800b0818 f   decode2.obj
 0001:000afd00       mova_za_p_rz               00000001800b0d00 f   decode2.obj
 0001:000b01e8       msb_z_p_zzz                00000001800b11e8 f   decode2.obj
 0001:000b02b8       mul_z_zzi                  00000001800b12b8 f   decode2.obj
 0001:000b0500       nmatch_p_p_zz              00000001800b1500 f   decode2.obj
 0001:000b05c0       pnext_p_p_p                00000001800b15c0 f   decode2.obj
 0001:000b0678       prfb_i_p_ai                00000001800b1678 f   decode2.obj
 0001:000b0878       prfb_i_p_bz                00000001800b1878 f   decode2.obj
 0001:000b0c10       prfd_i_p_ai                00000001800b1c10 f   decode2.obj
 0001:000b0e18       prfd_i_p_bz                00000001800b1e18 f   decode2.obj
 0001:000b11c8       prfh_i_p_ai                00000001800b21c8 f   decode2.obj
 0001:000b13d0       prfh_i_p_bz                00000001800b23d0 f   decode2.obj
 0001:000b1778       prfw_i_p_ai                00000001800b2778 f   decode2.obj
 0001:000b1980       prfw_i_p_bz                00000001800b2980 f   decode2.obj
 0001:000b1d30       ptrue_p_s                  00000001800b2d30 f   decode2.obj
 0001:000b1df0       ptrues_p_s                 00000001800b2df0 f   decode2.obj
 0001:000b1eb8       punpkhi_p_p                00000001800b2eb8 f   decode2.obj
 0001:000b2028       rev_p_p                    00000001800b3028 f   decode2.obj
 0001:000b20e0       rev_z_z                    00000001800b30e0 f   decode2.obj
 0001:000b2198       revb_z_z                   00000001800b3198 f   decode2.obj
 0001:000b2400       saba_z_zzz                 00000001800b3400 f   decode2.obj
 0001:000b24c8       sadalp_z_p_z               00000001800b34c8 f   decode2.obj
 0001:000b2588       sclamp_z_zz                00000001800b3588 f   decode2.obj
 0001:000b2640       scvtf_z_p_z                00000001800b3640 f   decode2.obj
 0001:000b2c58       sdot_z_zzz                 00000001800b3c58 f   decode2.obj
 0001:000b2d18       sdot_z_zzzi                00000001800b3d18 f   decode2.obj
 0001:000b2eb0       sel_z_p_zz                 00000001800b3eb0 f   decode2.obj
 0001:000b2fe8       sli_z_zzi                  00000001800b3fe8 f   decode2.obj
 0001:000b3100       smlalb_z_zzzi              00000001800b4100 f   decode2.obj
 0001:000b32d0       smlalt_z_zzzi              00000001800b42d0 f   decode2.obj
 0001:000b34a8       smlslb_z_zzzi              00000001800b44a8 f   decode2.obj
 0001:000b3678       smlslt_z_zzzi              00000001800b4678 f   decode2.obj
 0001:000b3850       smopa_za_pp_zz             00000001800b4850 f   decode2.obj
 0001:000b3a20       smops_za_pp_zz             00000001800b4a20 f   decode2.obj
 0001:000b3c00       smullb_z_zzi               00000001800b4c00 f   decode2.obj
 0001:000b3dd0       smullt_z_zzi               00000001800b4dd0 f   decode2.obj
 0001:000b3fa8       splice_z_p_zz              00000001800b4fa8 f   decode2.obj
 0001:000b4150       sqcadd_z_zz                00000001800b5150 f   decode2.obj
 0001:000b4220       sqdecb_r_rs                00000001800b5220 f   decode2.obj
 0001:000b43d8       sqdecd_r_rs                00000001800b53d8 f   decode2.obj
 0001:000b4588       sqdech_r_rs                00000001800b5588 f   decode2.obj
 0001:000b4740       sqdecp_r_p_r               00000001800b5740 f   decode2.obj
 0001:000b48f0       sqdecw_r_rs                00000001800b58f0 f   decode2.obj
 0001:000b4aa0       sqdmlalb_z_zzzi            00000001800b5aa0 f   decode2.obj
 0001:000b4c70       sqdmlalbt_z_zzz            00000001800b5c70 f   decode2.obj
 0001:000b4d40       sqdmlalt_z_zzzi            00000001800b5d40 f   decode2.obj
 0001:000b4f18       sqdmlslb_z_zzzi            00000001800b5f18 f   decode2.obj
 0001:000b50e8       sqdmlslbt_z_zzz            00000001800b60e8 f   decode2.obj
 0001:000b51b8       sqdmlslt_z_zzzi            00000001800b61b8 f   decode2.obj
 0001:000b5390       sqdmulh_z_zz               00000001800b6390 f   decode2.obj
 0001:000b5450       sqdmulh_z_zzi              00000001800b6450 f   decode2.obj
 0001:000b5698       sqdmullb_z_zzi             00000001800b6698 f   decode2.obj
 0001:000b5868       sqdmullt_z_zzi             00000001800b6868 f   decode2.obj
 0001:000b5a40       sqincb_r_rs                00000001800b6a40 f   decode2.obj
 0001:000b5bf8       sqincd_r_rs                00000001800b6bf8 f   decode2.obj
 0001:000b5da8       sqinch_r_rs                00000001800b6da8 f   decode2.obj
 0001:000b5f60       sqincp_r_p_r               00000001800b6f60 f   decode2.obj
 0001:000b6110       sqincw_r_rs                00000001800b7110 f   decode2.obj
 0001:000b62c0       sqrdcmlah_z_zzz            00000001800b72c0 f   decode2.obj
 0001:000b63b0       sqrdcmlah_z_zzzi           00000001800b73b0 f   decode2.obj
 0001:000b65d0       sqrdmlah_z_zzz             00000001800b75d0 f   decode2.obj
 0001:000b6690       sqrdmlah_z_zzzi            00000001800b7690 f   decode2.obj
 0001:000b68d8       sqrdmlsh_z_zzz             00000001800b78d8 f   decode2.obj
 0001:000b6998       sqrdmlsh_z_zzzi            00000001800b7998 f   decode2.obj
 0001:000b6be0       sqrdmulh_z_zz              00000001800b7be0 f   decode2.obj
 0001:000b6ca0       sqrdmulh_z_zzi             00000001800b7ca0 f   decode2.obj
 0001:000b6ee8       sri_z_zzi                  00000001800b7ee8 f   decode2.obj
 0001:000b7000       st1b_z_p_ai                00000001800b8000 f   decode2.obj
 0001:000b71a0       st1b_z_p_bz                00000001800b81a0 f   decode2.obj
 0001:000b7450       st1d_z_p_bz                00000001800b8450 f   decode2.obj
 0001:000b77d0       st1h_z_p_ai                00000001800b87d0 f   decode2.obj
 0001:000b7970       st1h_z_p_bz                00000001800b8970 f   decode2.obj
 0001:000b7f10       st1q_za_p_rrr              00000001800b8f10 f   decode2.obj
 0001:000b7fd8       st1w_z_p_ai                00000001800b8fd8 f   decode2.obj
 0001:000b8178       st1w_z_p_bz                00000001800b9178 f   decode2.obj
 0001:000b8708       stnt1b_z_p_ar              00000001800b9708 f   decode2.obj
 0001:000b88a8       stnt1h_z_p_ar              00000001800b98a8 f   decode2.obj
 0001:000b8a48       stnt1w_z_p_ar              00000001800b9a48 f   decode2.obj
 0001:000b8be8       str_p_bi                   00000001800b9be8 f   decode2.obj
 0001:000b8ca8       str_z_bi                   00000001800b9ca8 f   decode2.obj
 0001:000b8d68       sumopa_za_pp_zz            00000001800b9d68 f   decode2.obj
 0001:000b8f40       sumops_za_pp_zz            00000001800b9f40 f   decode2.obj
 0001:000b9120       sunpkhi_z_z                00000001800ba120 f   decode2.obj
 0001:000b92d0       sxtb_z_p_z                 00000001800ba2d0 f   decode2.obj
 0001:000b9550       tbl_z_zz                   00000001800ba550 f   decode2.obj
 0001:000b9710       tbx_z_zz                   00000001800ba710 f   decode2.obj
 0001:000b97d0       trn1_p_pp                  00000001800ba7d0 f   decode2.obj
 0001:000b9990       trn1_z_zz                  00000001800ba990 f   decode2.obj
 0001:000b9c70       uaba_z_zzz                 00000001800bac70 f   decode2.obj
 0001:000b9d38       uadalp_z_p_z               00000001800bad38 f   decode2.obj
 0001:000b9df8       uclamp_z_zz                00000001800badf8 f   decode2.obj
 0001:000b9eb0       ucvtf_z_p_z                00000001800baeb0 f   decode2.obj
 0001:000ba4d0       udot_z_zzz                 00000001800bb4d0 f   decode2.obj
 0001:000ba598       udot_z_zzzi                00000001800bb598 f   decode2.obj
 0001:000ba738       umlalb_z_zzzi              00000001800bb738 f   decode2.obj
 0001:000ba908       umlalt_z_zzzi              00000001800bb908 f   decode2.obj
 0001:000baae0       umlslb_z_zzzi              00000001800bbae0 f   decode2.obj
 0001:000bacb0       umlslt_z_zzzi              00000001800bbcb0 f   decode2.obj
 0001:000bae88       umopa_za_pp_zz             00000001800bbe88 f   decode2.obj
 0001:000bb060       umops_za_pp_zz             00000001800bc060 f   decode2.obj
 0001:000bb240       umullb_z_zzi               00000001800bc240 f   decode2.obj
 0001:000bb410       umullt_z_zzi               00000001800bc410 f   decode2.obj
 0001:000bb5e8       uqdecb_r_rs                00000001800bc5e8 f   decode2.obj
 0001:000bb7a8       uqdecd_r_rs                00000001800bc7a8 f   decode2.obj
 0001:000bb960       uqdech_r_rs                00000001800bc960 f   decode2.obj
 0001:000bbb20       uqdecp_r_p_r               00000001800bcb20 f   decode2.obj
 0001:000bbcd8       uqdecw_r_rs                00000001800bccd8 f   decode2.obj
 0001:000bbe90       uqincb_r_rs                00000001800bce90 f   decode2.obj
 0001:000bc050       uqincd_r_rs                00000001800bd050 f   decode2.obj
 0001:000bc208       uqinch_r_rs                00000001800bd208 f   decode2.obj
 0001:000bc3c8       uqincp_r_p_r               00000001800bd3c8 f   decode2.obj
 0001:000bc580       uqincw_r_rs                00000001800bd580 f   decode2.obj
 0001:000bc738       usmopa_za_pp_zz            00000001800bd738 f   decode2.obj
 0001:000bc910       usmops_za_pp_zz            00000001800bd910 f   decode2.obj
 0001:000bcaf0       uunpkhi_z_z                00000001800bdaf0 f   decode2.obj
 0001:000bcca8       uxtb_z_p_z                 00000001800bdca8 f   decode2.obj
 0001:000bcf38       uzp1_p_pp                  00000001800bdf38 f   decode2.obj
 0001:000bd0f8       uzp1_z_zz                  00000001800be0f8 f   decode2.obj
 0001:000bd3d8       whilerw_p_rr               00000001800be3d8 f   decode2.obj
 0001:000bd498       whilewr_p_rr               00000001800be498 f   decode2.obj
 0001:000bd558       xar_z_zzi                  00000001800be558 f   decode2.obj
 0001:000bd670       zero_za_i                  00000001800be670 f   decode2.obj
 0001:000bd700       zip1_p_pp                  00000001800be700 f   decode2.obj
 0001:000bd8c0       zip1_z_zz                  00000001800be8c0 f   decode2.obj
 0001:000bdb98       decode_fields32            00000001800beb98 f   decode_fields32.obj
 0001:000c6370       prfop_lookup               00000001800c7370 f   decode_scratchpad.obj
 0001:000c6538       prfop_lookup_4             00000001800c7538 f   decode_scratchpad.obj
 0001:000c6630       pattern_lookup             00000001800c7630 f   decode_scratchpad.obj
 0001:000c6748       arr_spec_method0           00000001800c7748 f   decode_scratchpad.obj
 0001:000c67a8       arr_spec_method1           00000001800c77a8 f   decode_scratchpad.obj
 0001:000c6800       arr_spec_method2           00000001800c7800 f   decode_scratchpad.obj
 0001:000c6838       arr_spec_method3           00000001800c7838 f   decode_scratchpad.obj
 0001:000c68b8       arr_spec_method4           00000001800c78b8 f   decode_scratchpad.obj
 0001:000c6940       size_spec_method0          00000001800c7940 f   decode_scratchpad.obj
 0001:000c69a8       size_spec_method1          00000001800c79a8 f   decode_scratchpad.obj
 0001:000c6a10       size_spec_method3          00000001800c7a10 f   decode_scratchpad.obj
 0001:000c6a68       rwwwx_0123x_reg            00000001800c7a68 f   decode_scratchpad.obj
 0001:000c6aa0       rbhsdq_5bit_reg            00000001800c7aa0 f   decode_scratchpad.obj
 0001:000c6b08       wwwx_0123_reg              00000001800c7b08 f   decode_scratchpad.obj
 0001:000c6b18       sd_01_reg                  00000001800c7b18 f   decode_scratchpad.obj
 0001:000c6b28       bhsd_0123_reg              00000001800c7b28 f   decode_scratchpad.obj
 0001:000c6b70       rsdr_0123_reg              00000001800c7b70 f   decode_scratchpad.obj
 0001:000c6b98       hsdr_0123_reg              00000001800c7b98 f   decode_scratchpad.obj
 0001:000c6bc8       rhsd_0123_reg              00000001800c7bc8 f   decode_scratchpad.obj
 0001:000c6be8       rhsd_0123x_reg             00000001800c7be8 f   decode_scratchpad.obj
 0001:000c6c20       rbhsd_0123x_reg            00000001800c7c20 f   decode_scratchpad.obj
 0001:000c6c68       rhsdr_0123x_reg            00000001800c7c68 f   decode_scratchpad.obj
 0001:000c6ca0       decode_scratchpad          00000001800c7ca0 f   decode_scratchpad.obj
 0001:00142c78       enc_to_oper                0000000180143c78 f   encodings_dec.obj
 0001:00148ac8       enc_to_oper2               0000000180149ac8 f   encodings_dec.obj
 0001:00148ee8       snprintf                   0000000180149ee8 f i format.obj
 0001:00148f50       get_arrspec_str_truncated  0000000180149f50 f   format.obj
 0001:00148fd0       get_register_full          0000000180149fd0 f   format.obj
 0001:00149180       get_operation              000000018014a180 f   format.obj
 0001:0014dba0       get_register               000000018014eba0 f   format.obj
 0001:0014dda8       aarch64_disassemble        000000018014eda8 f   format.obj
 0001:0014e710       BFXPreferred               000000018014f710 f   pcode.obj
 0001:0014e770       DecodeBitMasks             000000018014f770 f   pcode.obj
 0001:0014e868       DecodeRegExtend            000000018014f868 f   pcode.obj
 0001:0014e8d8       SysOp                      000000018014f8d8 f   pcode.obj
 0001:0014f190       Replicate                  0000000180150190 f   pcode.obj
 0001:0014f250       AdvSIMDExpandImm           0000000180150250 f   pcode.obj
 0001:0014f468       BTypeCompatible_BTI        0000000180150468 f   pcode.obj
 0001:0014f4b8       FPDecodeRounding           00000001801504b8 f   pcode.obj
 0001:0014f500       FPRoundingMode             0000000180150500 f   pcode.obj
 0001:0014f548       get_system_register_name   0000000180150548 f   sysregs.obj
 0001:00153ae8       MH_CreateHookEx            0000000180154ae8 f   MinHook.obj
 0001:00153d30       MH_RemoveDisabledHooksEx   0000000180154d30 f   MinHook.obj
 0001:00153d90       MH_QueueEnableHook         0000000180154d90 f   MinHook.obj
 0001:00153ee0       MH_QueueEnableHookEx       0000000180154ee0 f   MinHook.obj
 0001:00153f58       MH_QueueDisableHookEx      0000000180154f58 f   MinHook.obj
 0001:00153fd0       MH_ApplyQueuedEx           0000000180154fd0 f   MinHook.obj
 0001:001543c8       detour_gen_brk             00000001801553c8 f   Instruction.obj
 0001:00154408       detour_skip_jmp            0000000180155408 f   Instruction.obj
 0001:001545c0       detour_writable_trampoline_regions 00000001801555c0 f   Trampoline.obj
 0001:00154648       detour_runnable_trampoline_regions 0000000180155648 f   Trampoline.obj
 0001:001549c0       detour_free_unused_trampoline_regions 00000001801559c0 f   Trampoline.obj
 0001:00154a88       detour_free_trampoline_region_if_unused 0000000180155a88 f   Trampoline.obj
 0001:00154b58       SlimDetoursTransactionBeginEx 0000000180155b58 f   Transaction.obj
 0001:00155110       SlimDetoursTransactionAbort 0000000180156110 f   Transaction.obj
 0001:00155330       SlimDetoursTransactionCommit 0000000180156330 f   Transaction.obj
 0001:00155a80       SlimDetoursAttach          0000000180156a80 f   Transaction.obj
 0001:001564f8       SlimDetoursDetachEx        00000001801574f8 f   Transaction.obj
 0001:001568b8       ThreadsCallStackWaitForRegions 00000001801578b8 f   ThreadsCallStackWaitForRegions.obj
 0001:00156ea0       ?NoRegCoCreate@@YAJPEB_WAEBU_GUID@@1PEAPEAX@Z 0000000180157ea0 f   diaguids:guidstr.obj
 0001:00156f80       ??0bad_alloc@std@@QEAA@XZ  0000000180157f80 f i libcpmt:xthrow.obj
 0001:00156fa0       ??0bad_function_call@std@@QEAA@AEBV01@@Z 0000000180157fa0 f i libcpmt:xthrow.obj
 0001:00156ff8       ??0bad_function_call@std@@QEAA@XZ 0000000180157ff8 f i libcpmt:xthrow.obj
 0001:00157010       ??0length_error@std@@QEAA@AEBV01@@Z 0000000180158010 f i libcpmt:xthrow.obj
 0001:00157068       ??0length_error@std@@QEAA@PEBD@Z 0000000180158068 f i libcpmt:xthrow.obj
 0001:001570c8       ??0out_of_range@std@@QEAA@AEBV01@@Z 00000001801580c8 f i libcpmt:xthrow.obj
 0001:00157120       ??0out_of_range@std@@QEAA@PEBD@Z 0000000180158120 f i libcpmt:xthrow.obj
 0001:00157180       ??_Ebad_exception@std@@UEAAPEAXI@Z 0000000180158180 f i libvcruntime:frame.obj
 0001:00157180       ??_Ebad_function_call@std@@UEAAPEAXI@Z 0000000180158180 f i libcpmt:xthrow.obj
 0001:00157180       ??_Elength_error@std@@UEAAPEAXI@Z 0000000180158180 f i libcpmt:xthrow.obj
 0001:00157180       ??_Eout_of_range@std@@UEAAPEAXI@Z 0000000180158180 f i libcpmt:xthrow.obj
 0001:00157180       ??_Gbad_exception@std@@UEAAPEAXI@Z 0000000180158180 f i libvcruntime:frame.obj
 0001:00157180       ??_Gbad_function_call@std@@UEAAPEAXI@Z 0000000180158180 f i libcpmt:xthrow.obj
 0001:00157180       ??_Glength_error@std@@UEAAPEAXI@Z 0000000180158180 f i libcpmt:xthrow.obj
 0001:00157180       ??_Gout_of_range@std@@UEAAPEAXI@Z 0000000180158180 f i libcpmt:xthrow.obj
 0001:001571d0       ?_Xbad_function_call@std@@YAXXZ 00000001801581d0 f   libcpmt:xthrow.obj
 0001:001571f8       ?_Xinvalid_argument@std@@YAXPEBD@Z 00000001801581f8 f   libcpmt:xthrow.obj
 0001:00157228       ?_Xlength_error@std@@YAXPEBD@Z 0000000180158228 f   libcpmt:xthrow.obj
 0001:00157258       ?_Xout_of_range@std@@YAXPEBD@Z 0000000180158258 f   libcpmt:xthrow.obj
 0001:00157288       ?what@bad_function_call@std@@UEBAPEBDXZ 0000000180158288 f i libcpmt:xthrow.obj
 0001:00157298       __std_init_once_link_alternate_names_and_abort 0000000180158298 f   libcpmt:xonce2.obj
 0001:001572a0       ?_Throw_Cpp_error@std@@YAXH@Z 00000001801582a0 f   libcpmt:thread0.obj
 0001:001572f0       _Mtx_lock                  00000001801582f0 f   libcpmt:mutex.obj
 0001:001572f8       _Mtx_unlock                00000001801582f8 f   libcpmt:mutex.obj
 0001:001574f8       ?_Syserror_map@std@@YAPEBDH@Z 00000001801584f8 f   libcpmt:syserror.obj
 0001:00157530       ?_Winerror_map@std@@YAHH@Z 0000000180158530 f   libcpmt:syserror.obj
 0001:00157560       __std_get_string_size_without_trailing_whitespace 0000000180158560 f   libcpmt:syserror_import_lib.obj
 0001:00157590       __std_system_error_allocate_message 0000000180158590 f   libcpmt:syserror_import_lib.obj
 0001:00157678       __std_system_error_deallocate_message 0000000180158678 f   libcpmt:syserror_import_lib.obj
 0001:001576a0       _Thrd_detach               00000001801586a0 f   libcpmt:cthread.obj
 0001:001576d0       _Thrd_id                   00000001801586d0 f   libcpmt:cthread.obj
 0001:001576f8       _Query_perf_counter        00000001801586f8 f   libcpmt:xtime.obj
 0001:00157728       _Query_perf_frequency      0000000180158728 f   libcpmt:xtime.obj
 0001:00157770       _Timespec64_get_sys        0000000180158770 f   libcpmt:xtime.obj
 0001:001577d0       _Xtime_get_ticks           00000001801587d0 f   libcpmt:xtime.obj
 0001:00157810       _Thrd_sleep_for            0000000180158810 f   libcpmt:sharedmutex.obj
 0001:00157838       _Cnd_do_broadcast_at_thread_exit 0000000180158838 f   libcpmt:xnotify.obj
 0001:00157940       __std_fs_close_handle      0000000180158940 f   libcpmt:filesystem.obj
 0001:00157978       __std_fs_code_page         0000000180158978 f   libcpmt:filesystem.obj
 0001:001579c0       __std_fs_convert_wide_to_narrow_replace_chars 00000001801589c0 f   libcpmt:filesystem.obj
 0001:00157aa8       __std_fs_create_directory  0000000180158aa8 f   libcpmt:filesystem.obj
 0001:00157b40       __std_fs_directory_iterator_advance 0000000180158b40 f   libcpmt:filesystem.obj
 0001:00157b80       __std_fs_directory_iterator_close 0000000180158b80 f   libcpmt:filesystem.obj
 0001:00157bb8       __std_fs_directory_iterator_open 0000000180158bb8 f   libcpmt:filesystem.obj
 0001:00157c38       __std_fs_get_stats         0000000180158c38 f   libcpmt:filesystem.obj
 0001:00157ec8       __std_fs_open_handle       0000000180158ec8 f   libcpmt:filesystem.obj
 0001:00157f38       _Cnd_broadcast             0000000180158f38 f   libcpmt:cond.obj
 0001:00157f68       __report_gsfailure         0000000180158f68 f   LIBCMT:gs_report.obj
 0001:00157f80       __report_rangecheckfailure 0000000180158f80 f   LIBCMT:gs_report.obj
 0001:00157fa8       __report_securityfailure   0000000180158fa8 f   LIBCMT:gs_report.obj
 0001:00157fc0       ??_Etype_info@@UEAAPEAXI@Z 0000000180158fc0 f i LIBCMT:std_type_info_static.obj
 0001:00157fc0       ??_Gtype_info@@UEAAPEAXI@Z 0000000180158fc0 f i LIBCMT:std_type_info_static.obj
 0001:00158000       ??3@YAXPEAX_K@Z            0000000180159000 f   LIBCMT:delete_scalar_size.obj
 0001:00158000       ??_V@YAXPEAX@Z             0000000180159000 f   LIBCMT:delete_array.obj
 0001:00158008       ??3@YAXPEAX@Z              0000000180159008 f   LIBCMT:delete_scalar.obj
 0001:00158010       ??2@YAPEAX_K@Z             0000000180159010 f   LIBCMT:new_scalar.obj
 0001:00158068       _Init_thread_abort         0000000180159068 f   LIBCMT:thread_safe_statics.obj
 0001:001580c8       _Init_thread_footer        00000001801590c8 f   LIBCMT:thread_safe_statics.obj
 0001:00158158       _Init_thread_header        0000000180159158 f   LIBCMT:thread_safe_statics.obj
 0001:00158218       __scrt_acquire_startup_lock 0000000180159218 f   LIBCMT:utility.obj
 0001:00158278       __scrt_dllmain_after_initialize_c 0000000180159278 f   LIBCMT:utility.obj
 0001:001582c0       __scrt_dllmain_before_initialize_c 00000001801592c0 f   LIBCMT:utility.obj
 0001:001582e8       __scrt_dllmain_crt_thread_attach 00000001801592e8 f   LIBCMT:utility.obj
 0001:00158328       __scrt_dllmain_crt_thread_detach 0000000180159328 f   LIBCMT:utility.obj
 0001:00158350       __scrt_dllmain_exception_filter 0000000180159350 f   LIBCMT:utility.obj
 0001:001583d8       __scrt_dllmain_uninitialize_c 00000001801593d8 f   LIBCMT:utility.obj
 0001:00158418       __scrt_dllmain_uninitialize_critical 0000000180159418 f   LIBCMT:utility.obj
 0001:00158440       __scrt_initialize_crt      0000000180159440 f   LIBCMT:utility.obj
 0001:00158498       __scrt_initialize_onexit_tables 0000000180159498 f   LIBCMT:utility.obj
 0001:00158540       __scrt_is_nonwritable_in_current_image 0000000180159540 f   LIBCMT:utility.obj
 0001:00158618       __scrt_release_startup_lock 0000000180159618 f   LIBCMT:utility.obj
 0001:00158660       __scrt_uninitialize_crt    0000000180159660 f   LIBCMT:utility.obj
 0001:001586a8       _onexit                    00000001801596a8 f   LIBCMT:utility.obj
 0001:001586f8       atexit                     00000001801596f8 f   LIBCMT:utility.obj
 0001:00158720       ??_M@YAXPEAX_K1P6AX0@Z@Z   0000000180159720 f   LIBCMT:ehvecdtr.obj
 0001:001587a0       ?__ArrayUnwind@@YAXPEAX_K1P6AX0@Z@Z 00000001801597a0 f   LIBCMT:ehvecdtr.obj
 0001:00158820       ??_U@YAPEAX_K@Z            0000000180159820 f   LIBCMT:new_array.obj
 0001:00158c10       _DllMainCRTStartup         0000000180159c10 f   LIBCMT:dll_dllmain.obj
 0001:00158c60       __GSHandlerCheck           0000000180159c60 f   LIBCMT:gshandler.obj
 0001:00158ca0       __GSHandlerCheckCommon     0000000180159ca0 f   LIBCMT:gshandler.obj
 0001:00158cc0       __GSHandlerCheck_EH        0000000180159cc0 f   LIBCMT:gshandlereh.obj
 0001:00158d50       ?__scrt_throw_std_bad_alloc@@YAXXZ 0000000180159d50 f   LIBCMT:throw_bad_alloc.obj
 0001:00158d78       ?__scrt_throw_std_bad_array_new_length@@YAXXZ 0000000180159d78 f   LIBCMT:throw_bad_alloc.obj
 0001:00158da0       __scrt_is_ucrt_dll_in_use  0000000180159da0 f   LIBCMT:ucrt_detection.obj
 0001:00158db8       __scrt_fastfail            0000000180159db8 f   LIBCMT:utility_desktop.obj
 0001:00158dc0       __security_init_cookie     0000000180159dc0 f   LIBCMT:gs_support.obj
 0001:00158ea8       ?__scrt_initialize_type_info@@YAXXZ 0000000180159ea8 f   LIBCMT:tncleanup.obj
 0001:00158ec0       ?__scrt_uninitialize_type_info@@YAXXZ 0000000180159ec0 f   LIBCMT:tncleanup.obj
 0001:00158ed0       __local_stdio_scanf_options 0000000180159ed0 f i LIBCMT:default_local_stdio_options.obj
 0001:00158ee0       __scrt_initialize_default_local_stdio_options 0000000180159ee0 f   LIBCMT:default_local_stdio_options.obj
 0001:00158f20       __scrt_get_dyn_tls_init_callback 0000000180159f20 f   LIBCMT:dyn_tls_init.obj
 0001:00158f30       _RTC_Initialize            0000000180159f30 f   LIBCMT:initsect.obj
 0001:00158f98       _RTC_Terminate             0000000180159f98 f   LIBCMT:initsect.obj
 0001:00159000       ??$_CallSETranslator@V__FrameHandler3@@@@YAHPEAUEHExceptionRecord@@PEA_KPEAU_CONTEXT@@PEAU_xDISPATCHER_CONTEXT@@PEBU_s_FuncInfo@@K1H@Z 000000018015a000 f i libvcruntime:risctrnsctrl.obj
 0001:00159070       ?CatchTryBlock@__FrameHandler3@@SAPEBU_s_TryBlockMapEntry@@PEBU_s_FuncInfo@@H@Z 000000018015a070 f   libvcruntime:risctrnsctrl.obj
 0001:001590e8       ?ExecutionInCatch@__FrameHandler3@@SA_NPEAU_xDISPATCHER_CONTEXT@@PEBU_s_FuncInfo@@@Z 000000018015a0e8 f   libvcruntime:risctrnsctrl.obj
 0001:00159130       ?FrameUnwindToEmptyState@__FrameHandler3@@SAXPEA_KPEAU_xDISPATCHER_CONTEXT@@PEBU_s_FuncInfo@@@Z 000000018015a130 f   libvcruntime:risctrnsctrl.obj
 0001:001591a8       ?GetEstablisherFrame@__FrameHandler3@@SAPEA_KPEA_KPEAU_xDISPATCHER_CONTEXT@@PEBU_s_FuncInfo@@0@Z 000000018015a1a8 f   libvcruntime:risctrnsctrl.obj
 0001:001592b8       ?GetRangeOfTrysToCheck@__FrameHandler3@@SA?AU?$pair@Viterator@TryBlockMap@__FrameHandler3@@V123@@std@@AEAVTryBlockMap@1@HPEAU_xDISPATCHER_CONTEXT@@PEBU_s_FuncInfo@@H@Z 000000018015a2b8 f   libvcruntime:risctrnsctrl.obj
 0001:00159418       ?UnwindNestedFrames@__FrameHandler3@@SAXPEA_KPEAUEHExceptionRecord@@PEAU_CONTEXT@@0PEAXPEBU_s_FuncInfo@@HHPEBU_s_HandlerType@@PEAU_xDISPATCHER_CONTEXT@@E@Z 000000018015a418 f   libvcruntime:risctrnsctrl.obj
 0001:001594d8       _CreateFrameInfo           000000018015a4d8 f   libvcruntime:risctrnsctrl.obj
 0001:00159530       _FindAndUnlinkFrame        000000018015a530 f   libvcruntime:risctrnsctrl.obj
 0001:00159598       _GetImageBase              000000018015a598 f   libvcruntime:risctrnsctrl.obj
 0001:001595b8       _GetThrowImageBase         000000018015a5b8 f   libvcruntime:risctrnsctrl.obj
 0001:001595d8       _SetImageBase              000000018015a5d8 f   libvcruntime:risctrnsctrl.obj
 0001:00159608       _SetThrowImageBase         000000018015a608 f   libvcruntime:risctrnsctrl.obj
 0001:00159638       __CxxFrameHandler3         000000018015a638 f   libvcruntime:risctrnsctrl.obj
 0001:001596c0       __DestructExceptionObject  000000018015a6c0 f   libvcruntime:ehhelpers.obj
 0001:00159778       ?_CallMemberFunction0@@YAXQEAX0@Z 000000018015a778 f i libvcruntime:ehhelpers.obj
 0001:00159780       _IsExceptionObjectToBeDestroyed 000000018015a780 f   libvcruntime:ehhelpers.obj
 0001:001597d0       __AdjustPointer            000000018015a7d0 f   libvcruntime:ehhelpers.obj
 0001:001597f8       __FrameUnwindFilter        000000018015a7f8 f   libvcruntime:ehhelpers.obj
 0001:00159898       __current_exception        000000018015a898 f   libvcruntime:ehhelpers.obj
 0001:001598b8       __current_exception_context 000000018015a8b8 f   libvcruntime:ehhelpers.obj
 0001:001598d8       __std_terminate            000000018015a8d8 f   libvcruntime:ehhelpers.obj
 0001:001598e0       __std_exception_copy       000000018015a8e0 f   libvcruntime:std_exception.obj
 0001:00159970       __std_exception_destroy    000000018015a970 f   libvcruntime:std_exception.obj
 0001:001599b0       _get_purecall_handler      000000018015a9b0 f   libvcruntime:purevirt.obj
 0001:001599c0       _purecall                  000000018015a9c0 f   libvcruntime:purevirt.obj
 0001:001599f0       __C_specific_handler       000000018015a9f0 f   libvcruntime:riscchandler.obj
 0001:00159c88       wcsstr                     000000018015ac88 f   libvcruntime:wcsstr.obj
 0001:00159d70       _CxxThrowException         000000018015ad70 f   libvcruntime:throw.obj
 0001:00159e48       __vcrt_initialize          000000018015ae48 f   libvcruntime:initialization.obj
 0001:00159f60       __vcrt_thread_attach       000000018015af60 f   libvcruntime:initialization.obj
 0001:00159f88       __vcrt_thread_detach       000000018015af88 f   libvcruntime:initialization.obj
 0001:00159fa8       __vcrt_uninitialize        000000018015afa8 f   libvcruntime:initialization.obj
 0001:00159fd0       __vcrt_uninitialize_critical 000000018015afd0 f   libvcruntime:initialization.obj
 0001:00159ff0       __std_type_info_compare    000000018015aff0 f   libvcruntime:std_type_info.obj
 0001:0015a010       __std_type_info_destroy_list 000000018015b010 f   libvcruntime:std_type_info.obj
 0001:0015a050       __vcrt_freefls             000000018015b050 f   libvcruntime:per_thread_data.obj
 0001:0015a070       __vcrt_freeptd_for_this_thread 000000018015b070 f   libvcruntime:per_thread_data.obj
 0001:0015a0e0       __vcrt_getptd              000000018015b0e0 f   libvcruntime:per_thread_data.obj
 0001:0015a108       __vcrt_getptd_noexit       000000018015b108 f   libvcruntime:per_thread_data.obj
 0001:0015a210       __vcrt_initialize_ptd      000000018015b210 f   libvcruntime:per_thread_data.obj
 0001:0015a288       __vcrt_uninitialize_ptd    000000018015b288 f   libvcruntime:per_thread_data.obj
 0001:0015a2d0       ?GetCurrentState@__FrameHandler3@@SAHPEA_KPEAU_xDISPATCHER_CONTEXT@@PEBU_s_FuncInfo@@@Z 000000018015b2d0 f   libvcruntime:ehstate.obj
 0001:0015a2f8       ?GetUnwindTryBlock@__FrameHandler3@@SAHPEA_KPEAU_xDISPATCHER_CONTEXT@@PEBU_s_FuncInfo@@@Z 000000018015b2f8 f   libvcruntime:ehstate.obj
 0001:0015a338       ?SetState@__FrameHandler3@@SAXPEA_KPEBU_s_FuncInfo@@H@Z 000000018015b338 f   libvcruntime:ehstate.obj
 0001:0015a348       ?SetUnwindTryBlock@__FrameHandler3@@SAXPEA_KPEAU_xDISPATCHER_CONTEXT@@PEBU_s_FuncInfo@@H@Z 000000018015b348 f   libvcruntime:ehstate.obj
 0001:0015a398       ?StateFromControlPc@__FrameHandler3@@SAHPEBU_s_FuncInfo@@PEAU_xDISPATCHER_CONTEXT@@@Z 000000018015b398 f   libvcruntime:ehstate.obj
 0001:0015a3a0       ?StateFromIp@__FrameHandler3@@SAHPEBU_s_FuncInfo@@PEAU_xDISPATCHER_CONTEXT@@_K@Z 000000018015b3a0 f   libvcruntime:ehstate.obj
 0001:0015af58       ??$TypeMatchHelper@V__FrameHandler3@@@@YAHPEBU_s_HandlerType@@PEBU_s_CatchableType@@PEBU_s_ThrowInfo@@@Z 000000018015bf58 f i libvcruntime:frame.obj
 0001:0015b080       ??$__InternalCxxFrameHandler@V__FrameHandler3@@@@YA?AW4_EXCEPTION_DISPOSITION@@PEAUEHExceptionRecord@@PEA_KPEAU_CONTEXT@@PEAU_xDISPATCHER_CONTEXT@@PEBU_s_FuncInfo@@H1E@Z 000000018015c080 f i libvcruntime:frame.obj
 0001:0015b310       ??$__InternalCxxFrameHandlerWrapper@V__FrameHandler3@@@@YA?AW4_EXCEPTION_DISPOSITION@@PEAUEHExceptionRecord@@PEA_KPEAU_CONTEXT@@PEAU_xDISPATCHER_CONTEXT@@PEBU_s_FuncInfo@@H1E@Z 000000018015c310 f i libvcruntime:frame.obj
 0001:0015b318       ??0bad_exception@std@@QEAA@AEBV01@@Z 000000018015c318 f i libvcruntime:frame.obj
 0001:0015b370       ??0bad_exception@std@@QEAA@XZ 000000018015c370 f i libvcruntime:frame.obj
 0001:0015b390       ?CxxCallCatchBlock@__FrameHandler3@@SAPEAXPEAU_EXCEPTION_RECORD@@@Z 000000018015c390 f   libvcruntime:frame.obj
 0001:0015b640       ?FrameUnwindToState@__FrameHandler3@@SAXPEA_KPEAU_xDISPATCHER_CONTEXT@@PEBU_s_FuncInfo@@H@Z 000000018015c640 f   libvcruntime:frame.obj
 0001:0015b818       ?GetHandlerSearchState@__FrameHandler3@@SAHPEA_KPEAU_xDISPATCHER_CONTEXT@@PEBU_s_FuncInfo@@@Z 000000018015c818 f i libvcruntime:frame.obj
 0001:0015b9c0       ?_CallMemberFunction1@@YAXQEAX00@Z 000000018015c9c0 f i libvcruntime:frame.obj
 0001:0015b9d0       ?_CallMemberFunction2@@YAXQEAX00H@Z 000000018015c9d0 f i libvcruntime:frame.obj
 0001:0015b9e0       __vcrt_initialize_locks    000000018015c9e0 f   libvcruntime:locks.obj
 0001:0015ba60       __vcrt_uninitialize_locks  000000018015ca60 f   libvcruntime:locks.obj
 0001:0015bad0       __except_validate_context_record 000000018015cad0 f   libvcruntime:jbcxrval.obj
 0001:0015bca0       ??$ensure_buffer_is_big_enough@D@formatting_buffer@__crt_stdio_output@@QEAA_N_KAEAV__crt_cached_ptd_host@@@Z 000000018015cca0 f i libucrt:output.obj
 0001:0015bd58       ??$ensure_buffer_is_big_enough@_W@formatting_buffer@__crt_stdio_output@@QEAA_N_KAEAV__crt_cached_ptd_host@@@Z 000000018015cd58 f i libucrt:output.obj
 0001:0015be10       ??$is_overflow_condition@K@__crt_strtox@@YA_NIK@Z 000000018015ce10 f i libucrt:output.obj
 0001:0015be48       ??$is_wide_character_specifier@D@__crt_stdio_output@@YA_N_KDW4length_modifier@0@@Z 000000018015ce48 f i libucrt:output.obj
 0001:0015be88       ??$is_wide_character_specifier@_W@__crt_stdio_output@@YA_N_K_WW4length_modifier@0@@Z 000000018015ce88 f i libucrt:output.obj
 0001:0015bee8       ??$parse_integer@KV?$c_string_character_source@D@__crt_strtox@@$0A@@__crt_strtox@@YAKAEAV__crt_cached_ptd_host@@V?$c_string_character_source@D@0@H_N@Z 000000018015cee8 f i libucrt:output.obj
 0001:0015c1e8       ??$parse_integer@KV?$c_string_character_source@_W@__crt_strtox@@$0A@@__crt_strtox@@YAKAEAV__crt_cached_ptd_host@@V?$c_string_character_source@_W@0@H_N@Z 000000018015d1e8 f i libucrt:output.obj
 0001:0015c888       ??$type_case_integer@$07@?$output_processor@DV?$string_output_adapter@D@__crt_stdio_output@@V?$standard_base@DV?$string_output_adapter@D@__crt_stdio_output@@@2@@__crt_stdio_output@@AEAA_N_N@Z 000000018015d888 f i libucrt:output.obj
 0001:0015cb08       ??$type_case_integer@$07@?$output_processor@_WV?$string_output_adapter@_W@__crt_stdio_output@@V?$format_validation_base@_WV?$string_output_adapter@_W@__crt_stdio_output@@@2@@__crt_stdio_output@@AEAA_N_N@Z 000000018015db08 f i libucrt:output.obj
 0001:0015cb08       ??$type_case_integer@$07@?$output_processor@_WV?$string_output_adapter@_W@__crt_stdio_output@@V?$standard_base@_WV?$string_output_adapter@_W@__crt_stdio_output@@@2@@__crt_stdio_output@@AEAA_N_N@Z 000000018015db08 f i libucrt:output.obj
 0001:0015cd88       ??$type_case_integer@$09@?$output_processor@DV?$string_output_adapter@D@__crt_stdio_output@@V?$standard_base@DV?$string_output_adapter@D@__crt_stdio_output@@@2@@__crt_stdio_output@@AEAA_N_N@Z 000000018015dd88 f i libucrt:output.obj
 0001:0015d008       ??$type_case_integer@$09@?$output_processor@_WV?$string_output_adapter@_W@__crt_stdio_output@@V?$format_validation_base@_WV?$string_output_adapter@_W@__crt_stdio_output@@@2@@__crt_stdio_output@@AEAA_N_N@Z 000000018015e008 f i libucrt:output.obj
 0001:0015d008       ??$type_case_integer@$09@?$output_processor@_WV?$string_output_adapter@_W@__crt_stdio_output@@V?$standard_base@_WV?$string_output_adapter@_W@__crt_stdio_output@@@2@@__crt_stdio_output@@AEAA_N_N@Z 000000018015e008 f i libucrt:output.obj
 0001:0015d288       ??$type_case_integer@$0BA@@?$output_processor@DV?$string_output_adapter@D@__crt_stdio_output@@V?$standard_base@DV?$string_output_adapter@D@__crt_stdio_output@@@2@@__crt_stdio_output@@AEAA_N_N@Z 000000018015e288 f i libucrt:output.obj
 0001:0015d508       ??$type_case_integer@$0BA@@?$output_processor@_WV?$string_output_adapter@_W@__crt_stdio_output@@V?$format_validation_base@_WV?$string_output_adapter@_W@__crt_stdio_output@@@2@@__crt_stdio_output@@AEAA_N_N@Z 000000018015e508 f i libucrt:output.obj
 0001:0015d508       ??$type_case_integer@$0BA@@?$output_processor@_WV?$string_output_adapter@_W@__crt_stdio_output@@V?$standard_base@_WV?$string_output_adapter@_W@__crt_stdio_output@@@2@@__crt_stdio_output@@AEAA_N_N@Z 000000018015e508 f i libucrt:output.obj
 0001:0015d788       ??$type_case_integer_parse_into_buffer@I$07@?$output_processor@DV?$string_output_adapter@D@__crt_stdio_output@@V?$standard_base@DV?$string_output_adapter@D@__crt_stdio_output@@@2@@__crt_stdio_output@@AEAAXI_N@Z 000000018015e788 f i libucrt:output.obj
 0001:0015d808       ??$type_case_integer_parse_into_buffer@I$07@?$output_processor@_WV?$string_output_adapter@_W@__crt_stdio_output@@V?$format_validation_base@_WV?$string_output_adapter@_W@__crt_stdio_output@@@2@@__crt_stdio_output@@AEAAXI_N@Z 000000018015e808 f i libucrt:output.obj
 0001:0015d808       ??$type_case_integer_parse_into_buffer@I$07@?$output_processor@_WV?$string_output_adapter@_W@__crt_stdio_output@@V?$standard_base@_WV?$string_output_adapter@_W@__crt_stdio_output@@@2@@__crt_stdio_output@@AEAAXI_N@Z 000000018015e808 f i libucrt:output.obj
 0001:0015d890       ??$type_case_integer_parse_into_buffer@I$09@?$output_processor@DV?$string_output_adapter@D@__crt_stdio_output@@V?$standard_base@DV?$string_output_adapter@D@__crt_stdio_output@@@2@@__crt_stdio_output@@AEAAXI_N@Z 000000018015e890 f i libucrt:output.obj
 0001:0015d950       ??$type_case_integer_parse_into_buffer@I$09@?$output_processor@_WV?$string_output_adapter@_W@__crt_stdio_output@@V?$format_validation_base@_WV?$string_output_adapter@_W@__crt_stdio_output@@@2@@__crt_stdio_output@@AEAAXI_N@Z 000000018015e950 f i libucrt:output.obj
 0001:0015d950       ??$type_case_integer_parse_into_buffer@I$09@?$output_processor@_WV?$string_output_adapter@_W@__crt_stdio_output@@V?$standard_base@_WV?$string_output_adapter@_W@__crt_stdio_output@@@2@@__crt_stdio_output@@AEAAXI_N@Z 000000018015e950 f i libucrt:output.obj
 0001:0015da18       ??$type_case_integer_parse_into_buffer@I$0BA@@?$output_processor@DV?$string_output_adapter@D@__crt_stdio_output@@V?$standard_base@DV?$string_output_adapter@D@__crt_stdio_output@@@2@@__crt_stdio_output@@AEAAXI_N@Z 000000018015ea18 f i libucrt:output.obj
 0001:0015dab0       ??$type_case_integer_parse_into_buffer@I$0BA@@?$output_processor@_WV?$string_output_adapter@_W@__crt_stdio_output@@V?$format_validation_base@_WV?$string_output_adapter@_W@__crt_stdio_output@@@2@@__crt_stdio_output@@AEAAXI_N@Z 000000018015eab0 f i libucrt:output.obj
 0001:0015dab0       ??$type_case_integer_parse_into_buffer@I$0BA@@?$output_processor@_WV?$string_output_adapter@_W@__crt_stdio_output@@V?$standard_base@_WV?$string_output_adapter@_W@__crt_stdio_output@@@2@@__crt_stdio_output@@AEAAXI_N@Z 000000018015eab0 f i libucrt:output.obj
 0001:0015db50       ??$type_case_integer_parse_into_buffer@_K$07@?$output_processor@DV?$string_output_adapter@D@__crt_stdio_output@@V?$standard_base@DV?$string_output_adapter@D@__crt_stdio_output@@@2@@__crt_stdio_output@@AEAAX_K_N@Z 000000018015eb50 f i libucrt:output.obj
 0001:0015dbd0       ??$type_case_integer_parse_into_buffer@_K$07@?$output_processor@_WV?$string_output_adapter@_W@__crt_stdio_output@@V?$format_validation_base@_WV?$string_output_adapter@_W@__crt_stdio_output@@@2@@__crt_stdio_output@@AEAAX_K_N@Z 000000018015ebd0 f i libucrt:output.obj
 0001:0015dbd0       ??$type_case_integer_parse_into_buffer@_K$07@?$output_processor@_WV?$string_output_adapter@_W@__crt_stdio_output@@V?$standard_base@_WV?$string_output_adapter@_W@__crt_stdio_output@@@2@@__crt_stdio_output@@AEAAX_K_N@Z 000000018015ebd0 f i libucrt:output.obj
 0001:0015dc58       ??$type_case_integer_parse_into_buffer@_K$09@?$output_processor@DV?$string_output_adapter@D@__crt_stdio_output@@V?$standard_base@DV?$string_output_adapter@D@__crt_stdio_output@@@2@@__crt_stdio_output@@AEAAX_K_N@Z 000000018015ec58 f i libucrt:output.obj
 0001:0015dd00       ??$type_case_integer_parse_into_buffer@_K$09@?$output_processor@_WV?$string_output_adapter@_W@__crt_stdio_output@@V?$format_validation_base@_WV?$string_output_adapter@_W@__crt_stdio_output@@@2@@__crt_stdio_output@@AEAAX_K_N@Z 000000018015ed00 f i libucrt:output.obj
 0001:0015dd00       ??$type_case_integer_parse_into_buffer@_K$09@?$output_processor@_WV?$string_output_adapter@_W@__crt_stdio_output@@V?$standard_base@_WV?$string_output_adapter@_W@__crt_stdio_output@@@2@@__crt_stdio_output@@AEAAX_K_N@Z 000000018015ed00 f i libucrt:output.obj
 0001:0015ddb0       ??$type_case_integer_parse_into_buffer@_K$0BA@@?$output_processor@DV?$string_output_adapter@D@__crt_stdio_output@@V?$standard_base@DV?$string_output_adapter@D@__crt_stdio_output@@@2@@__crt_stdio_output@@AEAAX_K_N@Z 000000018015edb0 f i libucrt:output.obj
 0001:0015de48       ??$type_case_integer_parse_into_buffer@_K$0BA@@?$output_processor@_WV?$string_output_adapter@_W@__crt_stdio_output@@V?$format_validation_base@_WV?$string_output_adapter@_W@__crt_stdio_output@@@2@@__crt_stdio_output@@AEAAX_K_N@Z 000000018015ee48 f i libucrt:output.obj
 0001:0015de48       ??$type_case_integer_parse_into_buffer@_K$0BA@@?$output_processor@_WV?$string_output_adapter@_W@__crt_stdio_output@@V?$standard_base@_WV?$string_output_adapter@_W@__crt_stdio_output@@@2@@__crt_stdio_output@@AEAAX_K_N@Z 000000018015ee48 f i libucrt:output.obj
 0001:0015dee8       ??1__crt_cached_ptd_host@@QEAA@XZ 000000018015eee8 f i libucrt:output.obj
 0001:0015e018       ?crop_zeroes@__crt_stdio_output@@YAXPEADQEAU__crt_locale_pointers@@@Z 000000018015f018 f i libucrt:output.obj
 0001:0015e0b0       ?force_decimal_point@__crt_stdio_output@@YAXPEADQEAU__crt_locale_pointers@@@Z 000000018015f0b0 f i libucrt:output.obj
 0001:0015e130       ?get_raw_ptd@__crt_cached_ptd_host@@QEAAPEAU__acrt_ptd@@XZ 000000018015f130 f i libucrt:output.obj
 0001:0015e1c0       ?parse_int_from_format_string@?$output_processor@DV?$string_output_adapter@D@__crt_stdio_output@@V?$standard_base@DV?$string_output_adapter@D@__crt_stdio_output@@@2@@__crt_stdio_output@@AEAA_NQEAH@Z 000000018015f1c0 f i libucrt:output.obj
 0001:0015e260       ?parse_int_from_format_string@?$output_processor@_WV?$string_output_adapter@_W@__crt_stdio_output@@V?$format_validation_base@_WV?$string_output_adapter@_W@__crt_stdio_output@@@2@@__crt_stdio_output@@AEAA_NQEAH@Z 000000018015f260 f i libucrt:output.obj
 0001:0015e260       ?parse_int_from_format_string@?$output_processor@_WV?$string_output_adapter@_W@__crt_stdio_output@@V?$standard_base@_WV?$string_output_adapter@_W@__crt_stdio_output@@@2@@__crt_stdio_output@@AEAA_NQEAH@Z 000000018015f260 f i libucrt:output.obj
 0001:0015e300       ?process@?$output_processor@DV?$string_output_adapter@D@__crt_stdio_output@@V?$standard_base@DV?$string_output_adapter@D@__crt_stdio_output@@@2@@__crt_stdio_output@@QEAAHXZ 000000018015f300 f i libucrt:output.obj
 0001:0015e728       ?process@?$output_processor@_WV?$string_output_adapter@_W@__crt_stdio_output@@V?$format_validation_base@_WV?$string_output_adapter@_W@__crt_stdio_output@@@2@@__crt_stdio_output@@QEAAHXZ 000000018015f728 f i libucrt:output.obj
 0001:0015ea40       ?process@?$output_processor@_WV?$string_output_adapter@_W@__crt_stdio_output@@V?$standard_base@_WV?$string_output_adapter@_W@__crt_stdio_output@@@2@@__crt_stdio_output@@QEAAHXZ 000000018015fa40 f i libucrt:output.obj
 0001:0015ed60       ?state_case_size@?$output_processor@DV?$string_output_adapter@D@__crt_stdio_output@@V?$standard_base@DV?$string_output_adapter@D@__crt_stdio_output@@@2@@__crt_stdio_output@@AEAA_NXZ 000000018015fd60 f i libucrt:output.obj
 0001:0015ef48       ?state_case_size@?$output_processor@_WV?$string_output_adapter@_W@__crt_stdio_output@@V?$format_validation_base@_WV?$string_output_adapter@_W@__crt_stdio_output@@@2@@__crt_stdio_output@@AEAA_NXZ 000000018015ff48 f i libucrt:output.obj
 0001:0015ef48       ?state_case_size@?$output_processor@_WV?$string_output_adapter@_W@__crt_stdio_output@@V?$standard_base@_WV?$string_output_adapter@_W@__crt_stdio_output@@@2@@__crt_stdio_output@@AEAA_NXZ 000000018015ff48 f i libucrt:output.obj
 0001:0015f138       ?state_case_type@?$output_processor@DV?$string_output_adapter@D@__crt_stdio_output@@V?$standard_base@DV?$string_output_adapter@D@__crt_stdio_output@@@2@@__crt_stdio_output@@AEAA_NXZ 0000000180160138 f i libucrt:output.obj
 0001:0015f708       ?state_case_type@?$output_processor@_WV?$string_output_adapter@_W@__crt_stdio_output@@V?$format_validation_base@_WV?$string_output_adapter@_W@__crt_stdio_output@@@2@@__crt_stdio_output@@AEAA_NXZ 0000000180160708 f i libucrt:output.obj
 0001:0015f708       ?state_case_type@?$output_processor@_WV?$string_output_adapter@_W@__crt_stdio_output@@V?$standard_base@_WV?$string_output_adapter@_W@__crt_stdio_output@@@2@@__crt_stdio_output@@AEAA_NXZ 0000000180160708 f i libucrt:output.obj
 0001:0015fe10       ?type_case_Z@?$output_processor@DV?$string_output_adapter@D@__crt_stdio_output@@V?$standard_base@DV?$string_output_adapter@D@__crt_stdio_output@@@2@@__crt_stdio_output@@AEAA_NXZ 0000000180160e10 f i libucrt:output.obj
 0001:0015feb8       ?type_case_Z@?$output_processor@_WV?$string_output_adapter@_W@__crt_stdio_output@@V?$format_validation_base@_WV?$string_output_adapter@_W@__crt_stdio_output@@@2@@__crt_stdio_output@@AEAA_NXZ 0000000180160eb8 f i libucrt:output.obj
 0001:0015feb8       ?type_case_Z@?$output_processor@_WV?$string_output_adapter@_W@__crt_stdio_output@@V?$standard_base@_WV?$string_output_adapter@_W@__crt_stdio_output@@@2@@__crt_stdio_output@@AEAA_NXZ 0000000180160eb8 f i libucrt:output.obj
 0001:0015ff60       ?type_case_a@?$output_processor@DV?$string_output_adapter@D@__crt_stdio_output@@V?$standard_base@DV?$string_output_adapter@D@__crt_stdio_output@@@2@@__crt_stdio_output@@AEAA_NXZ 0000000180160f60 f i libucrt:output.obj
 0001:001601b0       ?type_case_a@?$output_processor@_WV?$string_output_adapter@_W@__crt_stdio_output@@V?$format_validation_base@_WV?$string_output_adapter@_W@__crt_stdio_output@@@2@@__crt_stdio_output@@AEAA_NXZ 00000001801611b0 f i libucrt:output.obj
 0001:001601b0       ?type_case_a@?$output_processor@_WV?$string_output_adapter@_W@__crt_stdio_output@@V?$standard_base@_WV?$string_output_adapter@_W@__crt_stdio_output@@@2@@__crt_stdio_output@@AEAA_NXZ 00000001801611b0 f i libucrt:output.obj
 0001:00160400       ?type_case_c_tchar@?$output_processor@DV?$string_output_adapter@D@__crt_stdio_output@@V?$standard_base@DV?$string_output_adapter@D@__crt_stdio_output@@@2@@__crt_stdio_output@@AEAA_ND@Z 0000000180161400 f i libucrt:output.obj
 0001:001604e0       ?type_case_c_tchar@?$output_processor@_WV?$string_output_adapter@_W@__crt_stdio_output@@V?$format_validation_base@_WV?$string_output_adapter@_W@__crt_stdio_output@@@2@@__crt_stdio_output@@AEAA_N_W@Z 00000001801614e0 f i libucrt:output.obj
 0001:001604e0       ?type_case_c_tchar@?$output_processor@_WV?$string_output_adapter@_W@__crt_stdio_output@@V?$standard_base@_WV?$string_output_adapter@_W@__crt_stdio_output@@@2@@__crt_stdio_output@@AEAA_N_W@Z 00000001801614e0 f i libucrt:output.obj
 0001:001605d0       ?type_case_n@?$output_processor@DV?$string_output_adapter@D@__crt_stdio_output@@V?$standard_base@DV?$string_output_adapter@D@__crt_stdio_output@@@2@@__crt_stdio_output@@AEAA_NXZ 00000001801615d0 f i libucrt:output.obj
 0001:001605d0       ?type_case_n@?$output_processor@_WV?$string_output_adapter@_W@__crt_stdio_output@@V?$format_validation_base@_WV?$string_output_adapter@_W@__crt_stdio_output@@@2@@__crt_stdio_output@@AEAA_NXZ 00000001801615d0 f i libucrt:output.obj
 0001:001605d0       ?type_case_n@?$output_processor@_WV?$string_output_adapter@_W@__crt_stdio_output@@V?$standard_base@_WV?$string_output_adapter@_W@__crt_stdio_output@@@2@@__crt_stdio_output@@AEAA_NXZ 00000001801615d0 f i libucrt:output.obj
 0001:001606b0       ?type_case_s@?$output_processor@DV?$string_output_adapter@D@__crt_stdio_output@@V?$standard_base@DV?$string_output_adapter@D@__crt_stdio_output@@@2@@__crt_stdio_output@@AEAA_NXZ 00000001801616b0 f i libucrt:output.obj
 0001:00160768       ?type_case_s@?$output_processor@_WV?$string_output_adapter@_W@__crt_stdio_output@@V?$format_validation_base@_WV?$string_output_adapter@_W@__crt_stdio_output@@@2@@__crt_stdio_output@@AEAA_NXZ 0000000180161768 f i libucrt:output.obj
 0001:00160768       ?type_case_s@?$output_processor@_WV?$string_output_adapter@_W@__crt_stdio_output@@V?$standard_base@_WV?$string_output_adapter@_W@__crt_stdio_output@@@2@@__crt_stdio_output@@AEAA_NXZ 0000000180161768 f i libucrt:output.obj
 0001:00160828       ?type_case_s_compute_narrow_string_length@?$output_processor@_WV?$string_output_adapter@_W@__crt_stdio_output@@V?$format_validation_base@_WV?$string_output_adapter@_W@__crt_stdio_output@@@2@@__crt_stdio_output@@AEAAHH_W@Z 0000000180161828 f i libucrt:output.obj
 0001:00160828       ?type_case_s_compute_narrow_string_length@?$output_processor@_WV?$string_output_adapter@_W@__crt_stdio_output@@V?$standard_base@_WV?$string_output_adapter@_W@__crt_stdio_output@@@2@@__crt_stdio_output@@AEAAHH_W@Z 0000000180161828 f i libucrt:output.obj
 0001:00160918       ?update_locale_slow@__crt_cached_ptd_host@@AEAAXXZ 0000000180161918 f i libucrt:output.obj
 0001:001609f8       ?write_string@?$string_output_adapter@D@__crt_stdio_output@@QEBAXQEBDHQEAHAEAV__crt_cached_ptd_host@@@Z 00000001801619f8 f i libucrt:output.obj
 0001:00160ac0       ?write_string@?$string_output_adapter@_W@__crt_stdio_output@@QEBAXQEB_WHQEAHAEAV__crt_cached_ptd_host@@@Z 0000000180161ac0 f i libucrt:output.obj
 0001:00160b88       __stdio_common_vsnwprintf_s 0000000180161b88 f   libucrt:output.obj
 0001:00160ce8       __stdio_common_vsprintf    0000000180161ce8 f   libucrt:output.obj
 0001:00160ec8       __stdio_common_vswprintf   0000000180161ec8 f   libucrt:output.obj
 0001:001610b0       __stdio_common_vswprintf_s 00000001801620b0 f   libucrt:output.obj
 0001:00161190       ??$is_overflow_condition@_K@__crt_strtox@@YA_NI_K@Z 0000000180162190 f i libucrt:strtox.obj
 0001:001611c8       ??$parse_integer@KV?$c_string_character_source@_W@__crt_strtox@@$00@__crt_strtox@@YAKAEAV__crt_cached_ptd_host@@V?$c_string_character_source@_W@0@H_N@Z 00000001801621c8 f i libucrt:strtox.obj
 0001:00161888       ??$parse_integer@_KV?$c_string_character_source@_W@__crt_strtox@@$00@__crt_strtox@@YA_KAEAV__crt_cached_ptd_host@@V?$c_string_character_source@_W@0@H_N@Z 0000000180162888 f i libucrt:strtox.obj
 0001:00161f48       wcstol                     0000000180162f48 f   libucrt:strtox.obj
 0001:00161fd0       wcstoull                   0000000180162fd0 f   libucrt:strtox.obj
 0001:00162058       __acrt_errno_from_os_error 0000000180163058 f   libucrt:errno.obj
 0001:00162130       __acrt_errno_map_os_error  0000000180163130 f   libucrt:errno.obj
 0001:00162198       __acrt_errno_map_os_error_ptd 0000000180163198 f   libucrt:errno.obj
 0001:001621d8       __doserrno                 00000001801631d8 f   libucrt:errno.obj
 0001:00162208       _errno                     0000000180163208 f   libucrt:errno.obj
 0001:00162238       abort                      0000000180163238 f   libucrt:abort.obj
 0001:00162278       ??0_LocaleUpdate@@QEAA@QEAU__crt_locale_pointers@@@Z 0000000180163278 f i libucrt:stricmp.obj
 0001:00162370       __ascii_stricmp            0000000180163370 f   libucrt:stricmp.obj
 0001:001624f0       _stricmp                   00000001801634f0 f   libucrt:stricmp.obj
 0001:00162518       _stricmp_l                 0000000180163518 f   libucrt:stricmp.obj
 0001:00162638       wcscpy_s                   0000000180163638 f   libucrt:wcscpy_s.obj
 0001:001626d0       terminate                  00000001801636d0 f   libucrt:terminate.obj
 0001:00162878       _beginthreadex             0000000180163878 f   libucrt:thread.obj
 0001:00162968       _endthreadex               0000000180163968 f   libucrt:thread.obj
 0001:00162980       ?get_raw_ptd_noexit@__crt_cached_ptd_host@@QEAAPEAU__acrt_ptd@@XZ 0000000180163980 f i libucrt:invalid_parameter.obj
 0001:00162a00       ?value@?$dual_state_global@P6AXPEB_W00I_K@Z@__crt_state_management@@QEAAAEAP6AXPEB_W00I_K@ZAEAV__crt_cached_ptd_host@@@Z 0000000180163a00 f i libucrt:invalid_parameter.obj
 0001:00162a68       __acrt_initialize_invalid_parameter_handler 0000000180163a68 f   libucrt:invalid_parameter.obj
 0001:00162a78       _invalid_parameter         0000000180163a78 f   libucrt:invalid_parameter.obj
 0001:00162b28       _invalid_parameter_internal 0000000180163b28 f   libucrt:invalid_parameter.obj
 0001:00162be8       _invalid_parameter_noinfo  0000000180163be8 f   libucrt:invalid_parameter.obj
 0001:00162c00       _invoke_watson             0000000180163c00 f   libucrt:invalid_parameter.obj
 0001:00162c10       iscntrl                    0000000180163c10 f   libucrt:_ctype.obj
 0001:00162cd8       isspace                    0000000180163cd8 f   libucrt:_ctype.obj
 0001:00162da0       __acrt_initialize_stdio    0000000180163da0 f   libucrt:_file.obj
 0001:00162ec8       __acrt_uninitialize_stdio  0000000180163ec8 f   libucrt:_file.obj
 0001:00162f40       _lock_file                 0000000180163f40 f   libucrt:_file.obj
 0001:00162f50       _unlock_file               0000000180163f50 f   libucrt:_file.obj
 0001:00162f60       calloc                     0000000180163f60 f   libucrt:calloc.obj
 0001:00162f70       free                       0000000180163f70 f   libucrt:free.obj
 0001:00162f80       ___lc_codepage_func        0000000180163f80 f   libucrt:initctype.obj
 0001:00162fc0       malloc                     0000000180163fc0 f   libucrt:malloc.obj
 0001:00162fd0       _callnewh                  0000000180163fd0 f   libucrt:new_handler.obj
 0001:00163020       __acrt_initialize_new_handler 0000000180164020 f   libucrt:new_handler.obj
 0001:00163030       _query_new_handler         0000000180164030 f   libucrt:new_handler.obj
 0001:00163080       _set_new_handler           0000000180164080 f   libucrt:new_handler.obj
 0001:001630f0       ?_set_new_handler@@YAP6AH_K@ZH@Z 00000001801640f0 f   libucrt:new_handler.obj
 0001:00163100       _seh_filter_dll            0000000180164100 f   libucrt:exception_filter.obj
 0001:00163140       _seh_filter_exe            0000000180164140 f   libucrt:exception_filter.obj
 0001:00163690       __acrt_initialize_thread_local_exit_callback 0000000180164690 f   libucrt:exit.obj
 0001:001636a0       _cexit                     00000001801646a0 f   libucrt:exit.obj
 0001:001636b0       _exit                      00000001801646b0 f   libucrt:exit.obj
 0001:001636c0       _is_c_termination_complete 00000001801646c0 f   libucrt:exit.obj
 0001:00163918       __acrt_allocate_buffer_for_argv 0000000180164918 f   libucrt:argv_parsing.obj
 0001:00163990       _configure_narrow_argv     0000000180164990 f   libucrt:argv_parsing.obj
 0001:00163db0       __dcrt_uninitialize_environments_nolock 0000000180164db0 f   libucrt:environment_initialization.obj
 0001:00163e50       _initialize_narrow_environment 0000000180164e50 f   libucrt:environment_initialization.obj
 0001:001641c8       _crt_atexit                00000001801651c8 f   libucrt:onexit.obj
 0001:001641d8       _execute_onexit_table      00000001801651d8 f   libucrt:onexit.obj
 0001:00164220       _initialize_onexit_table   0000000180165220 f   libucrt:onexit.obj
 0001:00164258       _register_onexit_function  0000000180165258 f   libucrt:onexit.obj
 0001:001642f0       __acrt_uninitialize_command_line 00000001801652f0 f   libucrt:argv_data.obj
 0001:00164458       __acrt_initialize          0000000180165458 f   libucrt:initialization.obj
 0001:00164488       __acrt_thread_attach       0000000180165488 f   libucrt:initialization.obj
 0001:001644b0       __acrt_thread_detach       00000001801654b0 f   libucrt:initialization.obj
 0001:001644d0       __acrt_uninitialize        00000001801654d0 f   libucrt:initialization.obj
 0001:00164520       __acrt_uninitialize_critical 0000000180165520 f   libucrt:initialization.obj
 0001:00164548       _initterm                  0000000180165548 f   libucrt:initterm.obj
 0001:00164590       _initterm_e                0000000180165590 f   libucrt:initterm.obj
 0001:001645e0       strcpy_s                   00000001801655e0 f   libucrt:strcpy_s.obj
 0001:00164680       _free_base                 0000000180165680 f   libucrt:free_base.obj
 0001:001646f0       _malloc_base               00000001801656f0 f   libucrt:malloc_base.obj
 0001:00164790       __acrt_update_locale_info  0000000180165790 f   libucrt:locale_update.obj
 0001:001647e8       __acrt_update_locale_info_explicit 00000001801657e8 f   libucrt:locale_update.obj
 0001:00164840       __acrt_update_multibyte_info 0000000180165840 f   libucrt:locale_update.obj
 0001:00164898       __acrt_update_multibyte_info_explicit 0000000180165898 f   libucrt:locale_update.obj
 0001:001654f8       __acrt_fp_format           00000001801664f8 f   libucrt:cvt.obj
 0001:00165738       _wctomb_internal           0000000180166738 f   libucrt:wctomb.obj
 0001:00165970       _mbtowc_internal           0000000180166970 f   libucrt:mbtowc.obj
 0001:00165b28       ?__mblen_utf8@__crt_mbstring@@YAHPEBD@Z 0000000180166b28 f   libucrt:mbrtoc32.obj
 0001:00165b78       ?__mbrtoc32_utf8@__crt_mbstring@@YA_KPEA_UPEBD_KPEAU_Mbstatet@@AEAV__crt_cached_ptd_host@@@Z 0000000180166b78 f   libucrt:mbrtoc32.obj
 0001:00165d50       ?__c16rtomb_utf8@__crt_mbstring@@YA_KPEAD_SPEAU_Mbstatet@@AEAV__crt_cached_ptd_host@@@Z 0000000180166d50 f   libucrt:c16rtomb.obj
 0001:00165e10       ?__mbrtowc_utf8@__crt_mbstring@@YA_KPEA_WPEBD_KPEAU_Mbstatet@@AEAV__crt_cached_ptd_host@@@Z 0000000180166e10 f   libucrt:mbrtowc.obj
 0001:00165e60       ?__mbsrtowcs_utf8@__crt_mbstring@@YA_KPEA_WPEAPEBD_KPEAU_Mbstatet@@AEAV__crt_cached_ptd_host@@@Z 0000000180166e60 f   libucrt:mbrtowc.obj
 0001:00166018       _fileno                    0000000180167018 f   libucrt:fileno.obj
 0001:00166058       _get_printf_count_output   0000000180167058 f   libucrt:printf_count_output.obj
 0001:001663f8       ?internal_get_ptd_head_slow@@YAPEAU__acrt_ptd@@XZ 00000001801673f8 f   libucrt:per_thread_data.obj
 0001:00166550       __acrt_freeptd             0000000180167550 f   libucrt:per_thread_data.obj
 0001:001665b8       __acrt_getptd              00000001801675b8 f   libucrt:per_thread_data.obj
 0001:001665e0       __acrt_getptd_head         00000001801675e0 f   libucrt:per_thread_data.obj
 0001:00166640       __acrt_getptd_noexit       0000000180167640 f   libucrt:per_thread_data.obj
 0001:00166710       __acrt_getptd_noexit_explicit 0000000180167710 f   libucrt:per_thread_data.obj
 0001:00166780       __acrt_initialize_ptd      0000000180167780 f   libucrt:per_thread_data.obj
 0001:001667e0       __acrt_uninitialize_ptd    00000001801677e0 f   libucrt:per_thread_data.obj
 0001:001668b0       __acrt_set_locale_changed  00000001801678b0 f   libucrt:wsetlocale.obj
 0001:001668c0       __acrt_uninitialize_locale 00000001801678c0 f   libucrt:wsetlocale.obj
 0001:00166b40       __acrt_initialize_lowio    0000000180167b40 f   libucrt:ioinit.obj
 0001:00166b90       __acrt_uninitialize_lowio  0000000180167b90 f   libucrt:ioinit.obj
 0001:00166be0       iswctype                   0000000180167be0 f   libucrt:iswctype.obj
 0001:00166c60       _isctype_l                 0000000180167c60 f   libucrt:isctype.obj
 0001:00166e20       __acrt_get_sigabrt_handler 0000000180167e20 f   libucrt:signal.obj
 0001:00166e58       __acrt_initialize_signal_handlers 0000000180167e58 f   libucrt:signal.obj
 0001:00166e70       raise                      0000000180167e70 f   libucrt:signal.obj
 0001:001670d0       _calloc_base               00000001801680d0 f   libucrt:calloc_base.obj
 0001:00167360       __acrt_AppPolicyGetProcessTerminationMethodInternal 0000000180168360 f   libucrt:winapi_thunks.obj
 0001:001673e0       __acrt_AppPolicyGetThreadInitializationTypeInternal 00000001801683e0 f   libucrt:winapi_thunks.obj
 0001:00167460       __acrt_AreFileApisANSI     0000000180168460 f   libucrt:winapi_thunks.obj
 0001:001674c0       __acrt_FlsAlloc            00000001801684c0 f   libucrt:winapi_thunks.obj
 0001:001674d0       __acrt_FlsFree             00000001801684d0 f   libucrt:winapi_thunks.obj
 0001:001674e0       __acrt_FlsGetValue         00000001801684e0 f   libucrt:winapi_thunks.obj
 0001:001674f0       __acrt_FlsGetValue2        00000001801684f0 f   libucrt:winapi_thunks.obj
 0001:00167500       __acrt_FlsSetValue         0000000180168500 f   libucrt:winapi_thunks.obj
 0001:00167510       __acrt_InitializeCriticalSectionEx 0000000180168510 f   libucrt:winapi_thunks.obj
 0001:00167520       __acrt_LCMapStringEx       0000000180168520 f   libucrt:winapi_thunks.obj
 0001:00167620       __acrt_LocaleNameToLCID    0000000180168620 f   libucrt:winapi_thunks.obj
 0001:001676a0       __acrt_RoInitialize        00000001801686a0 f   libucrt:winapi_thunks.obj
 0001:00167718       __acrt_RoUninitialize      0000000180168718 f   libucrt:winapi_thunks.obj
 0001:00167770       __acrt_initialize_winapi_thunks 0000000180168770 f   libucrt:winapi_thunks.obj
 0001:001677b8       __acrt_tls2_supported      00000001801687b8 f   libucrt:winapi_thunks.obj
 0001:00167810       __acrt_uninitialize_winapi_thunks 0000000180168810 f   libucrt:winapi_thunks.obj
 0001:00167878       __acrt_get_begin_thread_init_policy 0000000180168878 f   libucrt:win_policies.obj
 0001:001678e0       __acrt_get_process_end_policy 00000001801688e0 f   libucrt:win_policies.obj
 0001:00167920       _fcloseall                 0000000180168920 f   libucrt:closeall.obj
 0001:00167c18       __acrt_stdio_flush_nolock  0000000180168c18 f   libucrt:fflush.obj
 0001:00167cd0       _fflush_nolock             0000000180168cd0 f   libucrt:fflush.obj
 0001:00167dd0       _flushall                  0000000180168dd0 f   libucrt:fflush.obj
 0001:00167de0       __acrt_stdio_free_buffer_nolock 0000000180168de0 f   libucrt:_freebuf.obj
 0001:00167e40       __acrt_GetStringTypeA      0000000180168e40 f   libucrt:getstringtypea.obj
 0001:00168320       __acrt_LCMapStringA        0000000180169320 f   libucrt:lcmapstringa.obj
 0001:001683d0       __acrt_initialize_locks    00000001801693d0 f   libucrt:locks.obj
 0001:00168450       __acrt_lock                0000000180169450 f   libucrt:locks.obj
 0001:00168470       __acrt_uninitialize_locks  0000000180169470 f   libucrt:locks.obj
 0001:001684e8       __acrt_unlock              00000001801694e8 f   libucrt:locks.obj
 0001:00168508       __acrt_app_verifier_enabled 0000000180169508 f   libucrt:peb_access.obj
 0001:00168520       __acrt_is_secure_process   0000000180169520 f   libucrt:peb_access.obj
 0001:00168558       ??$__acrt_convert_wcs_mbs_cp@D_WV<lambda_7c9dea7b4ca7285d2cdb541a38da6275>@@U__crt_win32_buffer_internal_dynamic_resizing@@@@YAHQEBDAEAV?$__crt_win32_buffer@_WU__crt_win32_buffer_internal_dynamic_resizing@@@@AEBV<lambda_7c9dea7b4ca7285d2cdb541a38da6275>@@I@Z 0000000180169558 f i libucrt:argv_wildcards.obj
 0001:001686f8       ??$__acrt_convert_wcs_mbs_cp@_WDV<lambda_d8593a27d1aa8c02be35c86a17d324c4>@@U__crt_win32_buffer_internal_dynamic_resizing@@@@YAHQEB_WAEAV?$__crt_win32_buffer@DU__crt_win32_buffer_internal_dynamic_resizing@@@@AEBV<lambda_d8593a27d1aa8c02be35c86a17d324c4>@@I@Z 00000001801696f8 f i libucrt:argv_wildcards.obj
 0001:00169080       __acrt_expand_narrow_argv_wildcards 000000018016a080 f   libucrt:argv_wildcards.obj
 0001:00169090       ??$__acrt_convert_wcs_mbs_cp@_WDV<lambda_f788ae46380686e8b737efdd8c720d07>@@U__crt_win32_buffer_no_resizing@@@@YAHQEB_WAEAV?$__crt_win32_buffer@DU__crt_win32_buffer_no_resizing@@@@AEBV<lambda_f788ae46380686e8b737efdd8c720d07>@@I@Z 000000018016a090 f i libucrt:getmodulefilenamea.obj
 0001:001691b0       __acrt_GetModuleFileNameA  000000018016a1b0 f   libucrt:getmodulefilenamea.obj
 0001:00169a18       __acrt_initialize_multibyte 000000018016aa18 f   libucrt:mbctype.obj
 0001:00169a90       __acrt_update_thread_multibyte_data 000000018016aa90 f   libucrt:mbctype.obj
 0001:00169ab8       _setmbcp_nolock            000000018016aab8 f   libucrt:mbctype.obj
 0001:00169df8       _ismbblead                 000000018016adf8 f   libucrt:ismbbyte.obj
 0001:00169e10       __acrt_initialize_command_line 000000018016ae10 f   libucrt:argv_data.obj
 0001:00169e58       __acrt_MultiByteToWideChar 000000018016ae58 f   libucrt:multibytetowidechar.obj
 0001:00169f20       __acrt_WideCharToMultiByte 000000018016af20 f   libucrt:widechartomultibyte.obj
 0001:0016a008       __dcrt_get_narrow_environment_from_os 000000018016b008 f   libucrt:get_environment_from_os.obj
 0001:0016a140       _recalloc_base             000000018016b140 f   libucrt:recalloc.obj
 0001:0016a1f0       _recalloc                  000000018016b1f0 f   libucrt:recalloc.obj
 0001:0016a200       _get_heap_handle           000000018016b200 f   libucrt:heap_handle.obj
 0001:0016a210       __acrt_initialize_heap     000000018016b210 f   libucrt:heap_handle.obj
 0001:0016a250       __acrt_uninitialize_heap   000000018016b250 f   libucrt:heap_handle.obj
 0001:0016a260       __acrt_getheap             000000018016b260 f   libucrt:heap_handle.obj
 0001:0016a270       __acrt_execute_initializers 000000018016b270 f   libucrt:shared_initialization.obj
 0001:0016a328       __acrt_execute_uninitializers 000000018016b328 f   libucrt:shared_initialization.obj
 0001:0016a380       __acrt_has_user_matherr    000000018016b380 f   libucrt:matherr.obj
 0001:0016a3a8       __acrt_initialize_user_matherr 000000018016b3a8 f   libucrt:matherr.obj
 0001:0016a3b8       __acrt_invoke_user_matherr 000000018016b3b8 f   libucrt:matherr.obj
 0001:0016a410       _query_new_mode            000000018016b410 f   libucrt:new_mode.obj
 0001:0016a420       _set_new_mode              000000018016b420 f   libucrt:new_mode.obj
 0001:0016a468       __acrt_add_locale_ref      000000018016b468 f   libucrt:locale_refcounting.obj
 0001:0016a520       __acrt_free_locale         000000018016b520 f   libucrt:locale_refcounting.obj
 0001:0016a678       __acrt_locale_add_lc_time_reference 000000018016b678 f   libucrt:locale_refcounting.obj
 0001:0016a6b8       __acrt_locale_free_lc_time_if_unreferenced 000000018016b6b8 f   libucrt:locale_refcounting.obj
 0001:0016a708       __acrt_locale_release_lc_time_reference 000000018016b708 f   libucrt:locale_refcounting.obj
 0001:0016a748       __acrt_release_locale_ref  000000018016b748 f   libucrt:locale_refcounting.obj
 0001:0016a800       __acrt_update_thread_locale_data 000000018016b800 f   libucrt:locale_refcounting.obj
 0001:0016a878       _updatetlocinfoEx_nolock   000000018016b878 f   libucrt:locale_refcounting.obj
 0001:0016aa00       __acrt_fp_strflt_to_string 000000018016ba00 f   libucrt:_fptostr.obj
 0001:0016aba0       ?divide@__crt_strtox@@YA_KAEAUbig_integer@1@AEBU21@@Z 000000018016bba0 f i libucrt:cfout.obj
 0001:0016af70       __acrt_fltout              000000018016bf70 f   libucrt:cfout.obj
 0001:0016c1f8       fegetround                 000000018016d1f8 f   libucrt:fegetround.obj
 0001:0016c240       ?__c32rtomb_utf8@__crt_mbstring@@YA_KPEAD_UPEAU_Mbstatet@@AEAV__crt_cached_ptd_host@@@Z 000000018016d240 f   libucrt:c32rtomb.obj
 0001:0016c318       ?reset_and_return@__crt_mbstring@@YA_K_KPEAU_Mbstatet@@@Z 000000018016d318 f   libucrt:common_utf8.obj
 0001:0016c328       ?return_illegal_sequence@__crt_mbstring@@YA_KPEAU_Mbstatet@@AEAV__crt_cached_ptd_host@@@Z 000000018016d328 f   libucrt:common_utf8.obj
 0001:0016c348       _isatty                    000000018016d348 f   libucrt:isatty.obj
 0001:0016c3d0       __acrt_locale_free_monetary 000000018016d3d0 f   libucrt:initmon.obj
 0001:0016c508       __acrt_locale_free_numeric 000000018016d508 f   libucrt:initnum.obj
 0001:0016c5a0       __acrt_locale_free_time    000000018016d5a0 f   libucrt:inittime.obj
 0001:0016c720       wcsncmp                    000000018016d720 f   libucrt:wcsncmp.obj
 0001:0016c880       __acrt_lowio_create_handle_array 000000018016d880 f   libucrt:osfinfo.obj
 0001:0016c950       __acrt_lowio_destroy_handle_array 000000018016d950 f   libucrt:osfinfo.obj
 0001:0016c9b8       __acrt_lowio_ensure_fh_exists 000000018016d9b8 f   libucrt:osfinfo.obj
 0001:0016ca78       __acrt_lowio_lock_fh       000000018016da78 f   libucrt:osfinfo.obj
 0001:0016caa0       __acrt_lowio_unlock_fh     000000018016daa0 f   libucrt:osfinfo.obj
 0001:0016cac8       _free_osfhnd               000000018016dac8 f   libucrt:osfinfo.obj
 0001:0016cbb8       _get_osfhandle             000000018016dbb8 f   libucrt:osfinfo.obj
 0001:0016cc50       __acrt_GetStringTypeW      000000018016dc50 f   libucrt:getstringtypew.obj
 0001:0016cc60       __acrt_DownlevelLocaleNameToLCID 000000018016dc60 f   libucrt:lcidtoname_downlevel.obj
 0001:0016ce78       fclose                     000000018016de78 f   libucrt:fclose.obj
 0001:0016cfe0       _commit                    000000018016dfe0 f   libucrt:commit.obj
 0001:0016dae0       _write_internal            000000018016eae0 f   libucrt:write.obj
 0001:0016dc40       _write_nolock              000000018016ec40 f   libucrt:write.obj
 0001:0016e018       _lseeki64_nolock_internal  000000018016f018 f   libucrt:lseek.obj
 0001:0016e028       strncpy_s                  000000018016f028 f   libucrt:strncpy_s.obj
 0001:0016e148       __strncnt                  000000018016f148 f   libucrt:strncnt.obj
 0001:0016e170       qsort                      000000018016f170 f   libucrt:qsort.obj
 0001:0016e520       strpbrk                    000000018016f520 f   libucrt:strpbrk.obj
 0001:0016e5b8       _mbsdec                    000000018016f5b8 f   libucrt:mbsdec.obj
 0001:0016e5c8       _mbsdec_l                  000000018016f5c8 f   libucrt:mbsdec.obj
 0001:0016e6b0       _msize_base                000000018016f6b0 f   libucrt:msize.obj
 0001:0016e700       _msize                     000000018016f700 f   libucrt:msize.obj
 0001:0016e710       _realloc_base              000000018016f710 f   libucrt:realloc_base.obj
 0001:0016e7d8       _controlfp_s               000000018016f7d8 f   libucrt:contrlfp.obj
 0001:0016e878       fegetenv                   000000018016f878 f   libucrt:fegetenv.obj
 0001:0016e8b0       fesetenv                   000000018016f8b0 f   libucrt:fesetenv.obj
 0001:0016e928       feholdexcept               000000018016f928 f   libucrt:feholdexcept.obj
 0001:0016e998       log10                      000000018016f998 f   libucrt:log10.obj
 0001:0016ebe0       __ascii_wcsnicmp           000000018016fbe0 f   libucrt:wcsnicmp.obj
 0001:0016eda0       _query_app_type            000000018016fda0 f   libucrt:report_runtime_error.obj
 0001:0016ee40       _close_internal            000000018016fe40 f   libucrt:close.obj
 0001:0016ef18       _close_nolock_internal     000000018016ff18 f   libucrt:close.obj
 0001:0016f008       ?__acrt_stdio_free_stream@@YAXV__crt_stdio_stream@@@Z 0000000180170008 f   libucrt:stream.obj
 0001:0016f030       _putwch_nolock             0000000180170030 f   libucrt:putwch.obj
 0001:0016f120       _clearfp                   0000000180170120 f   libucrt:ieee.obj
 0001:0016f188       _control87                 0000000180170188 f   libucrt:ieee.obj
 0001:0016f278       __acrt_fenv_get_control    0000000180170278 f   libucrt:_fenvutils.obj
 0001:0016f340       __acrt_fenv_get_status     0000000180170340 f   libucrt:_fenvutils.obj
 0001:0016f3a0       __acrt_fenv_set_control    00000001801703a0 f   libucrt:_fenvutils.obj
 0001:0016f488       __acrt_fenv_set_status     0000000180170488 f   libucrt:_fenvutils.obj
 0001:0016f500       _handle_error              0000000180170500 f   libucrt:libm_error.obj
 0001:0016f6b0       _handle_nan                00000001801706b0 f   libucrt:libm_error.obj
 0001:0016f6c0       __dcrt_lowio_ensure_console_output_initialized 00000001801706c0 f   libucrt:initcon.obj
 0001:0016f728       __dcrt_terminate_console_output 0000000180170728 f   libucrt:initcon.obj
 0001:0016f760       __dcrt_write_console       0000000180170760 f   libucrt:initcon.obj
 0001:0016f848       _raise_exc                 0000000180170848 f   libucrt:fpexcept.obj
 0001:0016f858       _raise_exc_ex              0000000180170858 f   libucrt:fpexcept.obj
 0001:0016fc80       _set_errno_from_matherr    0000000180170c80 f   libucrt:fpexcept.obj
 0001:0016fcd0       _clrfp                     0000000180170cd0 f   libucrt:fpctrl.obj
 0001:0016fce8       _ctrlfp                    0000000180170ce8 f   libucrt:fpctrl.obj
 0001:0016fd20       _set_statfp                0000000180170d20 f   libucrt:fpctrl.obj
 0001:0016fd38       _statfp                    0000000180170d38 f   libucrt:fpctrl.obj
 0001:0016fd48       _FindPESection             0000000180170d48 f   LIBCMT:pesect.obj
 0001:0016fda8       _IsNonwritableInCurrentImage 0000000180170da8 f   LIBCMT:pesect.obj
 0001:0016fe10       _ValidateImageBase         0000000180170e10 f   LIBCMT:pesect.obj
 0001:0016fe50       __C_specific_handler_noexcept 0000000180170e50 f   libvcruntime:chandler_noexcept.obj
 0001:0016fec0       _guard_check_icall         0000000180170ec0 f   libucrt:checkcfg.obj
 0001:0016fed0       __guard_check_icall_thunk  0000000180170ed0 f   libucrt:cfgcheckthunk.obj
 0001:0016ff00       memset                     0000000180170f00 f   libvcruntime:memset.obj
 0001:001700c0       memcpy                     00000001801710c0 f   libvcruntime:memcpy.obj
 0001:001700c0       memmove                    00000001801710c0 f   libvcruntime:memcpy.obj
 0001:001700e0       __memcpy_forward           00000001801710e0     libvcruntime:memcpy.obj
 0001:001700e0       _memcpy_strict_align       00000001801710e0     libvcruntime:memcpy.obj
 0001:00170120       __memcpy_forward_large_neon 0000000180171120 f   libvcruntime:memcpy.obj
 0001:00170220       __memcpy_reverse           0000000180171220 f   libvcruntime:memcpy.obj
 0001:00170280       __memcpy_reverse_large_neon 0000000180171280 f   libvcruntime:memcpy.obj
 0001:001703a0       memcmp                     00000001801713a0 f   libvcruntime:memcmp.obj
 0001:001707e0       memset_unaligned_zva_large 00000001801717e0 f   libvcruntime:memset_unaligned_zva_large.obj
 0001:001708e0       memcpy_unaligned           00000001801718e0 f   libvcruntime:memcpy_unaligned.obj
 0001:001708e0       memmove_unaligned          00000001801718e0 f   libvcruntime:memcpy_unaligned.obj
 0001:00170aa0       memcmp_unaligned           0000000180171aa0 f   libvcruntime:memcmp_unaligned.obj
 0001:00170c80       strnlen                    0000000180171c80 f   libucrt:strnlen.obj
 0001:00170d40       strncmp                    0000000180171d40 f   libucrt:strncmp.obj
 0001:00170f00       strlen                     0000000180171f00 f   libucrt:strlen.obj
 0001:00170fa0       strcmp                     0000000180171fa0 f   libucrt:strcmp.obj
 0001:00171100       wcslen                     0000000180172100 f   libucrt:wcslen.obj
 0001:001711c0       wcsnlen                    00000001801721c0 f   libucrt:wcslen.obj
 0001:001712e0       wcscmp                     00000001801722e0 f   libucrt:wcscmp.obj
 0001:00171440       strrchr                    0000000180172440 f   libvcruntime:strrchr.obj
 0001:00171560       strchr                     0000000180172560 f   libvcruntime:strchr.obj
 0002:00000000       __imp_RegNotifyChangeKeyValue 0000000180177000     advapi32:ADVAPI32.dll
 0002:00000008       __imp_RegEnumKeyExW        0000000180177008     advapi32:ADVAPI32.dll
 0002:00000010       __imp_FreeSid              0000000180177010     advapi32:ADVAPI32.dll
 0002:00000018       __imp_AllocateAndInitializeSid 0000000180177018     advapi32:ADVAPI32.dll
 0002:00000020       __imp_RegGetValueW         0000000180177020     advapi32:ADVAPI32.dll
 0002:00000028       __imp_LsaNtStatusToWinError 0000000180177028     advapi32:ADVAPI32.dll
 0002:00000030       __imp_ConvertStringSecurityDescriptorToSecurityDescriptorW 0000000180177030     advapi32:ADVAPI32.dll
 0002:00000038       __imp_RegCloseKey          0000000180177038     advapi32:ADVAPI32.dll
 0002:00000040       __imp_RegEnumValueW        0000000180177040     advapi32:ADVAPI32.dll
 0002:00000048       __imp_RegQueryInfoKeyW     0000000180177048     advapi32:ADVAPI32.dll
 0002:00000050       __imp_RegQueryValueExW     0000000180177050     advapi32:ADVAPI32.dll
 0002:00000058       __imp_RegDeleteValueW      0000000180177058     advapi32:ADVAPI32.dll
 0002:00000060       __imp_RegSetValueExW       0000000180177060     advapi32:ADVAPI32.dll
 0002:00000068       __imp_RegCreateKeyExW      0000000180177068     advapi32:ADVAPI32.dll
 0002:00000070       \177ADVAPI32_NULL_THUNK_DATA 0000000180177070     advapi32:ADVAPI32.dll
 0002:00000078       __imp_LCMapStringW         0000000180177078     kernel32:KERNEL32.dll
 0002:00000080       __imp_WriteConsoleW        0000000180177080     kernel32:KERNEL32.dll
 0002:00000088       __imp_OutputDebugStringW   0000000180177088     kernel32:KERNEL32.dll
 0002:00000090       __imp_GetCurrentThreadId   0000000180177090     kernel32:KERNEL32.dll
 0002:00000098       __imp_FormatMessageW       0000000180177098     kernel32:KERNEL32.dll
 0002:000000a0       __imp_IsDebuggerPresent    00000001801770a0     kernel32:KERNEL32.dll
 0002:000000a8       __imp_CreateFileW          00000001801770a8     kernel32:KERNEL32.dll
 0002:000000b0       __imp_WriteFile            00000001801770b0     kernel32:KERNEL32.dll
 0002:000000b8       __imp_CloseHandle          00000001801770b8     kernel32:KERNEL32.dll
 0002:000000c0       __imp_SetLastError         00000001801770c0     kernel32:KERNEL32.dll
 0002:000000c8       __imp_GetPrivateProfileStringW 00000001801770c8     kernel32:KERNEL32.dll
 0002:000000d0       __imp_GetLastError         00000001801770d0     kernel32:KERNEL32.dll
 0002:000000d8       __imp_WritePrivateProfileStringW 00000001801770d8     kernel32:KERNEL32.dll
 0002:000000e0       __imp_GetModuleHandleW     00000001801770e0     kernel32:KERNEL32.dll
 0002:000000e8       __imp_GetProcAddress       00000001801770e8     kernel32:KERNEL32.dll
 0002:000000f0       __imp_IsWow64Process       00000001801770f0     kernel32:KERNEL32.dll
 0002:000000f8       __imp_DuplicateHandle      00000001801770f8     kernel32:KERNEL32.dll
 0002:00000100       __imp_VirtualFreeEx        0000000180177100     kernel32:KERNEL32.dll
 0002:00000108       __imp_GetCurrentProcess    0000000180177108     kernel32:KERNEL32.dll
 0002:00000110       __imp_VirtualAllocEx       0000000180177110     kernel32:KERNEL32.dll
 0002:00000118       __imp_WriteProcessMemory   0000000180177118     kernel32:KERNEL32.dll
 0002:00000120       __imp_VirtualProtectEx     0000000180177120     kernel32:KERNEL32.dll
 0002:00000128       __imp_TlsAlloc             0000000180177128     kernel32:KERNEL32.dll
 0002:00000130       __imp_TlsSetValue          0000000180177130     kernel32:KERNEL32.dll
 0002:00000138       __imp_TlsGetValue          0000000180177138     kernel32:KERNEL32.dll
 0002:00000140       __imp_LCMapStringEx        0000000180177140     kernel32:KERNEL32.dll
 0002:00000148       __imp_GetVersionExW        0000000180177148     kernel32:KERNEL32.dll
 0002:00000150       __imp_FreeLibrary          0000000180177150     kernel32:KERNEL32.dll
 0002:00000158       __imp_LoadLibraryExW       0000000180177158     kernel32:KERNEL32.dll
 0002:00000160       __imp_FindResourceW        0000000180177160     kernel32:KERNEL32.dll
 0002:00000168       __imp_LoadResource         0000000180177168     kernel32:KERNEL32.dll
 0002:00000170       __imp_LockResource         0000000180177170     kernel32:KERNEL32.dll
 0002:00000178       __imp_ExpandEnvironmentStringsW 0000000180177178     kernel32:KERNEL32.dll
 0002:00000180       __imp_VirtualAlloc         0000000180177180     kernel32:KERNEL32.dll
 0002:00000188       __imp_VirtualProtect       0000000180177188     kernel32:KERNEL32.dll
 0002:00000190       __imp_AddVectoredExceptionHandler 0000000180177190     kernel32:KERNEL32.dll
 0002:00000198       __imp_VirtualQuery         0000000180177198     kernel32:KERNEL32.dll
 0002:000001a0       __imp_FlsFree              00000001801771a0     kernel32:KERNEL32.dll
 0002:000001a8       __imp_FlsGetValue          00000001801771a8     kernel32:KERNEL32.dll
 0002:000001b0       __imp_FlsSetValue          00000001801771b0     kernel32:KERNEL32.dll
 0002:000001b8       __imp_FlsAlloc             00000001801771b8     kernel32:KERNEL32.dll
 0002:000001c0       __imp_ReleaseMutex         00000001801771c0     kernel32:KERNEL32.dll
 0002:000001c8       __imp_WaitForSingleObjectEx 00000001801771c8     kernel32:KERNEL32.dll
 0002:000001d0       __imp_CreateMutexW         00000001801771d0     kernel32:KERNEL32.dll
 0002:000001d8       __imp_GetCurrentProcessId  00000001801771d8     kernel32:KERNEL32.dll
 0002:000001e0       __imp_FlushInstructionCache 00000001801771e0     kernel32:KERNEL32.dll
 0002:000001e8       __imp_GetSystemTimeAsFileTime 00000001801771e8     kernel32:KERNEL32.dll
 0002:000001f0       __imp_GetCurrentThread     00000001801771f0     kernel32:KERNEL32.dll
 0002:000001f8       __imp_Sleep                00000001801771f8     kernel32:KERNEL32.dll
 0002:00000200       __imp_GetModuleFileNameW   0000000180177200     kernel32:KERNEL32.dll
 0002:00000208       __imp_GetCommandLineW      0000000180177208     kernel32:KERNEL32.dll
 0002:00000210       __imp_QueryFullProcessImageNameW 0000000180177210     kernel32:KERNEL32.dll
 0002:00000218       __imp_LocalFree            0000000180177218     kernel32:KERNEL32.dll
 0002:00000220       __imp_K32GetModuleFileNameExW 0000000180177220     kernel32:KERNEL32.dll
 0002:00000228       __imp_SetThreadPriority    0000000180177228     kernel32:KERNEL32.dll
 0002:00000230       __imp_WaitForSingleObject  0000000180177230     kernel32:KERNEL32.dll
 0002:00000238       __imp_GetExitCodeThread    0000000180177238     kernel32:KERNEL32.dll
 0002:00000240       __imp_GetProcessId         0000000180177240     kernel32:KERNEL32.dll
 0002:00000248       __imp_ResumeThread         0000000180177248     kernel32:KERNEL32.dll
 0002:00000250       __imp_ClosePrivateNamespace 0000000180177250     kernel32:KERNEL32.dll
 0002:00000258       __imp_GetThreadId          0000000180177258     kernel32:KERNEL32.dll
 0002:00000260       __imp_ReleaseSemaphore     0000000180177260     kernel32:KERNEL32.dll
 0002:00000268       __imp_GetProcessTimes      0000000180177268     kernel32:KERNEL32.dll
 0002:00000270       __imp_WaitForMultipleObjects 0000000180177270     kernel32:KERNEL32.dll
 0002:00000278       __imp_SetThreadErrorMode   0000000180177278     kernel32:KERNEL32.dll
 0002:00000280       __imp_FreeLibraryAndExitThread 0000000180177280     kernel32:KERNEL32.dll
 0002:00000288       __imp_GetModuleHandleExW   0000000180177288     kernel32:KERNEL32.dll
 0002:00000290       __imp_CreateSemaphoreExW   0000000180177290     kernel32:KERNEL32.dll
 0002:00000298       __imp_FindCloseChangeNotification 0000000180177298     kernel32:KERNEL32.dll
 0002:000002a0       __imp_CreateBoundaryDescriptorW 00000001801772a0     kernel32:KERNEL32.dll
 0002:000002a8       __imp_AddSIDToBoundaryDescriptor 00000001801772a8     kernel32:KERNEL32.dll
 0002:000002b0       __imp_AddIntegrityLabelToBoundaryDescriptor 00000001801772b0     kernel32:KERNEL32.dll
 0002:000002b8       __imp_OpenPrivateNamespaceW 00000001801772b8     kernel32:KERNEL32.dll
 0002:000002c0       __imp_DeleteBoundaryDescriptor 00000001801772c0     kernel32:KERNEL32.dll
 0002:000002c8       __imp_GetEnvironmentVariableW 00000001801772c8     kernel32:KERNEL32.dll
 0002:000002d0       __imp_SetFilePointer       00000001801772d0     kernel32:KERNEL32.dll
 0002:000002d8       __imp_SetEndOfFile         00000001801772d8     kernel32:KERNEL32.dll
 0002:000002e0       __imp_FindFirstChangeNotificationW 00000001801772e0     kernel32:KERNEL32.dll
 0002:000002e8       __imp_CreateEventW         00000001801772e8     kernel32:KERNEL32.dll
 0002:000002f0       __imp_FindNextChangeNotification 00000001801772f0     kernel32:KERNEL32.dll
 0002:000002f8       __imp_GetModuleFileNameA   00000001801772f8     kernel32:KERNEL32.dll
 0002:00000300       __imp_HeapFree             0000000180177300     kernel32:KERNEL32.dll
 0002:00000308       __imp_OpenSemaphoreW       0000000180177308     kernel32:KERNEL32.dll
 0002:00000310       __imp_HeapAlloc            0000000180177310     kernel32:KERNEL32.dll
 0002:00000318       __imp_CreateMutexExW       0000000180177318     kernel32:KERNEL32.dll
 0002:00000320       __imp_GetProcessHeap       0000000180177320     kernel32:KERNEL32.dll
 0002:00000328       __imp_WideCharToMultiByte  0000000180177328     kernel32:KERNEL32.dll
 0002:00000330       __imp_DebugBreak           0000000180177330     kernel32:KERNEL32.dll
 0002:00000338       __imp_Thread32First        0000000180177338     kernel32:KERNEL32.dll
 0002:00000340       __imp_OpenThread           0000000180177340     kernel32:KERNEL32.dll
 0002:00000348       __imp_Thread32Next         0000000180177348     kernel32:KERNEL32.dll
 0002:00000350       __imp_EnterCriticalSection 0000000180177350     kernel32:KERNEL32.dll
 0002:00000358       __imp_LeaveCriticalSection 0000000180177358     kernel32:KERNEL32.dll
 0002:00000360       __imp_InitializeCriticalSection 0000000180177360     kernel32:KERNEL32.dll
 0002:00000368       __imp_HeapReAlloc          0000000180177368     kernel32:KERNEL32.dll
 0002:00000370       __imp_DeleteCriticalSection 0000000180177370     kernel32:KERNEL32.dll
 0002:00000378       __imp_SetEvent             0000000180177378     kernel32:KERNEL32.dll
 0002:00000380       __imp_CreateThread         0000000180177380     kernel32:KERNEL32.dll
 0002:00000388       __imp_GetFileType          0000000180177388     kernel32:KERNEL32.dll
 0002:00000390       __imp_SetFilePointerEx     0000000180177390     kernel32:KERNEL32.dll
 0002:00000398       __imp_GetStringTypeW       0000000180177398     kernel32:KERNEL32.dll
 0002:000003a0       __imp_IsValidCodePage      00000001801773a0     kernel32:KERNEL32.dll
 0002:000003a8       __imp_GetACP               00000001801773a8     kernel32:KERNEL32.dll
 0002:000003b0       __imp_GetOEMCP             00000001801773b0     kernel32:KERNEL32.dll
 0002:000003b8       __imp_GetCommandLineA      00000001801773b8     kernel32:KERNEL32.dll
 0002:000003c0       __imp_GetEnvironmentStringsW 00000001801773c0     kernel32:KERNEL32.dll
 0002:000003c8       __imp_FreeEnvironmentStringsW 00000001801773c8     kernel32:KERNEL32.dll
 0002:000003d0       __imp_SetStdHandle         00000001801773d0     kernel32:KERNEL32.dll
 0002:000003d8       __imp_FlushFileBuffers     00000001801773d8     kernel32:KERNEL32.dll
 0002:000003e0       __imp_GetConsoleOutputCP   00000001801773e0     kernel32:KERNEL32.dll
 0002:000003e8       __imp_GetConsoleMode       00000001801773e8     kernel32:KERNEL32.dll
 0002:000003f0       __imp_HeapSize             00000001801773f0     kernel32:KERNEL32.dll
 0002:000003f8       __imp_GetTickCount         00000001801773f8     kernel32:KERNEL32.dll
 0002:00000400       __imp_CreateToolhelp32Snapshot 0000000180177400     kernel32:KERNEL32.dll
 0002:00000408       __imp_GetStdHandle         0000000180177408     kernel32:KERNEL32.dll
 0002:00000410       __imp_TerminateProcess     0000000180177410     kernel32:KERNEL32.dll
 0002:00000418       __imp_ExitProcess          0000000180177418     kernel32:KERNEL32.dll
 0002:00000420       __imp_InitOnceBeginInitialize 0000000180177420     kernel32:KERNEL32.dll
 0002:00000420       __imp___std_init_once_begin_initialize 0000000180177420     kernel32:KERNEL32.dll
 0002:00000428       __imp_InitOnceComplete     0000000180177428     kernel32:KERNEL32.dll
 0002:00000428       __imp___std_init_once_complete 0000000180177428     kernel32:KERNEL32.dll
 0002:00000430       __imp_ReleaseSRWLockExclusive 0000000180177430     kernel32:KERNEL32.dll
 0002:00000438       __imp_AcquireSRWLockExclusive 0000000180177438     kernel32:KERNEL32.dll
 0002:00000440       __imp_TryAcquireSRWLockExclusive 0000000180177440     kernel32:KERNEL32.dll
 0002:00000448       __imp_FormatMessageA       0000000180177448     kernel32:KERNEL32.dll
 0002:00000450       __imp_GetLocaleInfoEx      0000000180177450     kernel32:KERNEL32.dll
 0002:00000458       __imp_QueryPerformanceCounter 0000000180177458     kernel32:KERNEL32.dll
 0002:00000460       __imp_QueryPerformanceFrequency 0000000180177460     kernel32:KERNEL32.dll
 0002:00000468       __imp_GetSystemTimePreciseAsFileTime 0000000180177468     kernel32:KERNEL32.dll
 0002:00000470       __imp_SleepConditionVariableSRW 0000000180177470     kernel32:KERNEL32.dll
 0002:00000478       __imp_CreateDirectoryW     0000000180177478     kernel32:KERNEL32.dll
 0002:00000480       __imp_FindClose            0000000180177480     kernel32:KERNEL32.dll
 0002:00000488       __imp_FindFirstFileW       0000000180177488     kernel32:KERNEL32.dll
 0002:00000490       __imp_FindFirstFileExW     0000000180177490     kernel32:KERNEL32.dll
 0002:00000498       __imp_FindNextFileW        0000000180177498     kernel32:KERNEL32.dll
 0002:000004a0       __imp_GetFileAttributesExW 00000001801774a0     kernel32:KERNEL32.dll
 0002:000004a8       __imp_AreFileApisANSI      00000001801774a8     kernel32:KERNEL32.dll
 0002:000004b0       __imp_GetFileInformationByHandleEx 00000001801774b0     kernel32:KERNEL32.dll
 0002:000004b8       __imp_MultiByteToWideChar  00000001801774b8     kernel32:KERNEL32.dll
 0002:000004c0       __imp_WakeAllConditionVariable 00000001801774c0     kernel32:KERNEL32.dll
 0002:000004c8       __imp_GetStartupInfoW      00000001801774c8     kernel32:KERNEL32.dll
 0002:000004d0       __imp_InitializeSListHead  00000001801774d0     kernel32:KERNEL32.dll
 0002:000004d8       __imp_RaiseException       00000001801774d8     kernel32:KERNEL32.dll
 0002:000004e0       __imp_VerifyVersionInfoW   00000001801774e0     kernel32:KERNEL32.dll
 0002:000004e8       __imp_InterlockedFlushSList 00000001801774e8     kernel32:KERNEL32.dll
 0002:000004f0       __imp_EncodePointer        00000001801774f0     kernel32:KERNEL32.dll
 0002:000004f8       __imp_InitializeCriticalSectionEx 00000001801774f8     kernel32:KERNEL32.dll
 0002:00000500       __imp_ExitThread           0000000180177500     kernel32:KERNEL32.dll
 0002:00000508       __imp_GetCPInfo            0000000180177508     kernel32:KERNEL32.dll
 0002:00000510       \177KERNEL32_NULL_THUNK_DATA 0000000180177510     kernel32:KERNEL32.dll
 0002:00000518       __imp_RtlUnwindEx          0000000180177518     ntdll:ntdll.dll
 0002:00000520       __imp_RtlPcToFileHeader    0000000180177520     ntdll:ntdll.dll
 0002:00000528       __imp_RtlLookupFunctionEntry 0000000180177528     ntdll:ntdll.dll
 0002:00000530       __imp_RtlVirtualUnwind     0000000180177530     ntdll:ntdll.dll
 0002:00000538       __imp_NtProtectVirtualMemory 0000000180177538     ntdll:ntdll.dll
 0002:00000540       __imp_NtAllocateVirtualMemory 0000000180177540     ntdll:ntdll.dll
 0002:00000548       __imp_NtFlushInstructionCache 0000000180177548     ntdll:ntdll.dll
 0002:00000550       __imp_NtFreeVirtualMemory  0000000180177550     ntdll:ntdll.dll
 0002:00000558       __imp_NtResumeThread       0000000180177558     ntdll:ntdll.dll
 0002:00000560       __imp_NtQueryInformationThread 0000000180177560     ntdll:ntdll.dll
 0002:00000568       __imp_NtSetContextThread   0000000180177568     ntdll:ntdll.dll
 0002:00000570       __imp_NtGetNextThread      0000000180177570     ntdll:ntdll.dll
 0002:00000578       __imp_NtSuspendThread      0000000180177578     ntdll:ntdll.dll
 0002:00000580       __imp_NtGetContextThread   0000000180177580     ntdll:ntdll.dll
 0002:00000588       __imp_NtQueryValueKey      0000000180177588     ntdll:ntdll.dll
 0002:00000590       __imp_RtlCreateHeap        0000000180177590     ntdll:ntdll.dll
 0002:00000598       __imp_RtlFreeHeap          0000000180177598     ntdll:ntdll.dll
 0002:000005a0       __imp_NtClose              00000001801775a0     ntdll:ntdll.dll
 0002:000005a8       __imp_RtlReAllocateHeap    00000001801775a8     ntdll:ntdll.dll
 0002:000005b0       __imp_LdrGetDllHandleEx    00000001801775b0     ntdll:ntdll.dll
 0002:000005b8       __imp_NtOpenKey            00000001801775b8     ntdll:ntdll.dll
 0002:000005c0       __imp_NtQuerySystemInformation 00000001801775c0     ntdll:ntdll.dll
 0002:000005c8       __imp_RtlEqualUnicodeString 00000001801775c8     ntdll:ntdll.dll
 0002:000005d0       __imp_RtlAllocateHeap      00000001801775d0     ntdll:ntdll.dll
 0002:000005d8       __imp_RtlDestroyHeap       00000001801775d8     ntdll:ntdll.dll
 0002:000005e0       __imp_NtQueryVirtualMemory 00000001801775e0     ntdll:ntdll.dll
 0002:000005e8       __imp_VerSetConditionMask  00000001801775e8     ntdll:ntdll.dll
 0002:000005f0       \177ntdll_NULL_THUNK_DATA  00000001801775f0     ntdll:ntdll.dll
 0002:000005f8       __guard_check_icall_fptr   00000001801775f8     LIBCMT:guard_support.obj
 0002:00000600       __guard_dispatch_icall_fptr 0000000180177600     LIBCMT:guard_support.obj
 0002:00000608       __castguard_check_failure_os_handled_fptr 0000000180177608     LIBCMT:guard_support.obj
 0002:00000610       __guard_memcpy_fptr        0000000180177610     libvcruntime:softmemtag.obj
 0002:00000618       __xc_a                     0000000180177618     LIBCMT:initializers.obj
 0002:00000658       __xc_z                     0000000180177658     LIBCMT:initializers.obj
 0002:00000660       __xi_a                     0000000180177660     LIBCMT:initializers.obj
 0002:00000668       __acrt_stdio_initializer   0000000180177668     libucrt:stdio_initializer.obj
 0002:00000670       __acrt_multibyte_initializer 0000000180177670     libucrt:multibyte_initializer.obj
 0002:00000678       __xi_z                     0000000180177678     LIBCMT:initializers.obj
 0002:00000680       __xl_a                     0000000180177680     LIBCMT:tlssup.obj
 0002:00000688       __xl_z                     0000000180177688     LIBCMT:tlssup.obj
 0002:00000690       __xp_a                     0000000180177690     LIBCMT:initializers.obj
 0002:00000698       __acrt_locale_terminator   0000000180177698     libucrt:locale_initializer.obj
 0002:000006a0       __dcrt_console_output_terminator 00000001801776a0     libucrt:console_output_initializer.obj
 0002:000006a8       __acrt_stdio_terminator    00000001801776a8     libucrt:stdio_initializer.obj
 0002:000006b0       __xp_z                     00000001801776b0     LIBCMT:initializers.obj
 0002:000006b8       __xt_a                     00000001801776b8     LIBCMT:initializers.obj
 0002:000006c0       __xt_z                     00000001801776c0     LIBCMT:initializers.obj
 0002:00000708       _GUID_00000001_0000_0000_c000_000000000046 0000000180177708     diaguids:guidstr.obj
 0002:00000718       ??_C@_0BC@JDLGBILA@DllGetClassObject@ 0000000180177718     diaguids:guidstr.obj
 0002:00000730       CLSID_DiaSource            0000000180177730     diaguids:dia2_i.obj
 0002:00000740       FOLDERID_ProgramData       0000000180177740     shell32:shguid.obj
 0002:00000758       ??_7exception@std@@6B@     0000000180177758     libcpmt:xthrow.obj
 0002:00000770       ??_7bad_alloc@std@@6B@     0000000180177770     libcpmt:xthrow.obj
 0002:00000780       ??_C@_0P@GHFPNOJB@bad?5allocation@ 0000000180177780     libcpmt:xthrow.obj
 0002:00000798       ??_7bad_function_call@std@@6B@ 0000000180177798     libcpmt:xthrow.obj
 0002:000007a8       ??_C@_0BC@DPJNKNAF@bad?5function?5call@ 00000001801777a8     libcpmt:xthrow.obj
 0002:000007c8       ??_7logic_error@std@@6B@   00000001801777c8     libcpmt:xthrow.obj
 0002:000007e0       ??_7invalid_argument@std@@6B@ 00000001801777e0     libcpmt:xthrow.obj
 0002:000007f8       ??_7length_error@std@@6B@  00000001801777f8     libcpmt:xthrow.obj
 0002:00000810       ??_7out_of_range@std@@6B@  0000000180177810     libcpmt:xthrow.obj
 0002:00000828       ??_7runtime_error@std@@6B@ 0000000180177828     libcpmt:xthrow.obj
 0002:00000890       ??_C@_0BI@NGCEHDD@device?5or?5resource?5busy@ 0000000180177890     libcpmt:thread0.obj
 0002:000008a8       ??_C@_0BB@FCMFBGOM@invalid?5argument@ 00000001801778a8     libcpmt:thread0.obj
 0002:000008c0       ??_C@_0BA@ENLPPKBN@no?5such?5process@ 00000001801778c0     libcpmt:thread0.obj
 0002:000008d0       ??_C@_0BC@ENOOLCNF@not?5enough?5memory@ 00000001801778d0     libcpmt:thread0.obj
 0002:000008e8       ??_C@_0BI@OHIEJAAB@operation?5not?5permitted@ 00000001801778e8     libcpmt:thread0.obj
 0002:00000900       ??_C@_0BO@BJBOMOEJ@resource?5deadlock?5would?5occur@ 0000000180177900     libcpmt:thread0.obj
 0002:00000920       ??_C@_0BP@LKNGHENJ@resource?5unavailable?5try?5again@ 0000000180177920     libcpmt:thread0.obj
 0002:00000948       ??_7_System_error@std@@6B@ 0000000180177948     libcpmt:thread0.obj
 0002:00000960       ??_7system_error@std@@6B@  0000000180177960     libcpmt:thread0.obj
 0002:00000978       ??_7_Generic_error_category@std@@6B@ 0000000180177978     libcpmt:thread0.obj
 0002:00001140       ??_C@_07IPNMCAN@success@   0000000180178140     libcpmt:syserror.obj
 0002:00001148       ??_C@_0BN@LKKBCCDB@address?5family?5not?5supported@ 0000000180178148     libcpmt:syserror.obj
 0002:00001168       ??_C@_0P@LDMLAFHI@address?5in?5use@ 0000000180178168     libcpmt:syserror.obj
 0002:00001178       ??_C@_0BG@DHPCNBJB@address?5not?5available@ 0000000180178178     libcpmt:syserror.obj
 0002:00001190       ??_C@_0BC@DFIBIBIL@already?5connected@ 0000000180178190     libcpmt:syserror.obj
 0002:000011a8       ??_C@_0BH@CAKOHOMI@argument?5list?5too?5long@ 00000001801781a8     libcpmt:syserror.obj
 0002:000011c0       ??_C@_0BH@CGIMPKIM@argument?5out?5of?5domain@ 00000001801781c0     libcpmt:syserror.obj
 0002:000011d8       ??_C@_0M@KGHGGJGL@bad?5address@ 00000001801781d8     libcpmt:syserror.obj
 0002:000011e8       ??_C@_0BE@MPJPGCEO@bad?5file?5descriptor@ 00000001801781e8     libcpmt:syserror.obj
 0002:00001200       ??_C@_0M@PMMIEFCP@bad?5message@ 0000000180178200     libcpmt:syserror.obj
 0002:00001210       ??_C@_0M@KPHOFDBE@broken?5pipe@ 0000000180178210     libcpmt:syserror.obj
 0002:00001220       ??_C@_0BD@MGNDDEGM@connection?5aborted@ 0000000180178220     libcpmt:syserror.obj
 0002:00001238       ??_C@_0BP@KAIHPOGN@connection?5already?5in?5progress@ 0000000180178238     libcpmt:syserror.obj
 0002:00001258       ??_C@_0BD@PJLIIJEL@connection?5refused@ 0000000180178258     libcpmt:syserror.obj
 0002:00001270       ??_C@_0BB@IECNJNOI@connection?5reset@ 0000000180178270     libcpmt:syserror.obj
 0002:00001288       ??_C@_0BC@PPHBOELF@cross?5device?5link@ 0000000180178288     libcpmt:syserror.obj
 0002:000012a0       ??_C@_0BN@KDMIFEIP@destination?5address?5required@ 00000001801782a0     libcpmt:syserror.obj
 0002:000012c0       ??_C@_0BE@JIDOCPHM@directory?5not?5empty@ 00000001801782c0     libcpmt:syserror.obj
 0002:000012d8       ??_C@_0BI@BNCLIGPB@executable?5format?5error@ 00000001801782d8     libcpmt:syserror.obj
 0002:000012f0       ??_C@_0M@MIDIAGJP@file?5exists@ 00000001801782f0     libcpmt:syserror.obj
 0002:00001300       ??_C@_0P@DNAJLBJK@file?5too?5large@ 0000000180178300     libcpmt:syserror.obj
 0002:00001310       ??_C@_0BC@EJHOMAAK@filename?5too?5long@ 0000000180178310     libcpmt:syserror.obj
 0002:00001328       ??_C@_0BH@KEFGLDAF@function?5not?5supported@ 0000000180178328     libcpmt:syserror.obj
 0002:00001340       ??_C@_0BB@DHFDFGDM@host?5unreachable@ 0000000180178340     libcpmt:syserror.obj
 0002:00001358       ??_C@_0BD@JPHBMONG@identifier?5removed@ 0000000180178358     libcpmt:syserror.obj
 0002:00001370       ??_C@_0BG@CDNPAGJK@illegal?5byte?5sequence@ 0000000180178370     libcpmt:syserror.obj
 0002:00001388       ??_C@_0CD@BNPLBMNA@inappropriate?5io?5control?5operat@ 0000000180178388     libcpmt:syserror.obj
 0002:000013b0       ??_C@_0M@EGEKIIMP@interrupted@ 00000001801783b0     libcpmt:syserror.obj
 0002:000013c0       ??_C@_0N@OHAFKDEK@invalid?5seek@ 00000001801783c0     libcpmt:syserror.obj
 0002:000013d0       ??_C@_08GLNPIFBN@io?5error@ 00000001801783d0     libcpmt:syserror.obj
 0002:000013e0       ??_C@_0P@FLLDBIDK@is?5a?5directory@ 00000001801783e0     libcpmt:syserror.obj
 0002:000013f0       ??_C@_0N@IFLPBIOP@message?5size@ 00000001801783f0     libcpmt:syserror.obj
 0002:00001400       ??_C@_0N@KIIEAAIO@network?5down@ 0000000180178400     libcpmt:syserror.obj
 0002:00001410       ??_C@_0O@FNPDBHEE@network?5reset@ 0000000180178410     libcpmt:syserror.obj
 0002:00001420       ??_C@_0BE@IFNCKGE@network?5unreachable@ 0000000180178420     libcpmt:syserror.obj
 0002:00001438       ??_C@_0BA@PFFCAOFK@no?5buffer?5space@ 0000000180178438     libcpmt:syserror.obj
 0002:00001448       ??_C@_0BB@IEPBLJHK@no?5child?5process@ 0000000180178448     libcpmt:syserror.obj
 0002:00001460       ??_C@_07PLECNNKG@no?5link@ 0000000180178460     libcpmt:syserror.obj
 0002:00001468       ??_C@_0BC@NJECKMKE@no?5lock?5available@ 0000000180178468     libcpmt:syserror.obj
 0002:00001480       ??_C@_0BF@PBGGPKKE@no?5message?5available@ 0000000180178480     libcpmt:syserror.obj
 0002:00001498       ??_C@_0L@EDOLMPAK@no?5message@ 0000000180178498     libcpmt:syserror.obj
 0002:000014a8       ??_C@_0BD@EAMBFIDF@no?5protocol?5option@ 00000001801784a8     libcpmt:syserror.obj
 0002:000014c0       ??_C@_0BD@IJDJKDEA@no?5space?5on?5device@ 00000001801784c0     libcpmt:syserror.obj
 0002:000014d8       ??_C@_0BE@MKFDAFMP@no?5stream?5resources@ 00000001801784d8     libcpmt:syserror.obj
 0002:000014f0       ??_C@_0BK@IMCPHCBI@no?5such?5device?5or?5address@ 00000001801784f0     libcpmt:syserror.obj
 0002:00001510       ??_C@_0P@FDINDDOK@no?5such?5device@ 0000000180178510     libcpmt:syserror.obj
 0002:00001520       ??_C@_0BK@NDOCBPGE@no?5such?5file?5or?5directory@ 0000000180178520     libcpmt:syserror.obj
 0002:00001540       ??_C@_0BA@DOCPFFJG@not?5a?5directory@ 0000000180178540     libcpmt:syserror.obj
 0002:00001550       ??_C@_0N@POEIPGGF@not?5a?5socket@ 0000000180178550     libcpmt:syserror.obj
 0002:00001560       ??_C@_0N@LGAPMMPI@not?5a?5stream@ 0000000180178560     libcpmt:syserror.obj
 0002:00001570       ??_C@_0O@GLMIBBEG@not?5connected@ 0000000180178570     libcpmt:syserror.obj
 0002:00001580       ??_C@_0O@NHEDABJP@not?5supported@ 0000000180178580     libcpmt:syserror.obj
 0002:00001590       ??_C@_0BD@MOLBPMEA@operation?5canceled@ 0000000180178590     libcpmt:syserror.obj
 0002:000015a8       ??_C@_0BG@KDKHOPCO@operation?5in?5progress@ 00000001801785a8     libcpmt:syserror.obj
 0002:000015c0       ??_C@_0BI@LNEGIFLN@operation?5not?5supported@ 00000001801785c0     libcpmt:syserror.obj
 0002:000015d8       ??_C@_0BG@OEMDKMEE@operation?5would?5block@ 00000001801785d8     libcpmt:syserror.obj
 0002:000015f0       ??_C@_0L@BLPOFLNJ@owner?5dead@ 00000001801785f0     libcpmt:syserror.obj
 0002:00001600       ??_C@_0BC@CIJDGCDI@permission?5denied@ 0000000180178600     libcpmt:syserror.obj
 0002:00001618       ??_C@_0P@FNPOCJBE@protocol?5error@ 0000000180178618     libcpmt:syserror.obj
 0002:00001628       ??_C@_0BH@JPPPLHJB@protocol?5not?5supported@ 0000000180178628     libcpmt:syserror.obj
 0002:00001640       ??_C@_0BG@EICBIHDP@read?5only?5file?5system@ 0000000180178640     libcpmt:syserror.obj
 0002:00001658       ??_C@_0BE@GOIPJJHG@result?5out?5of?5range@ 0000000180178658     libcpmt:syserror.obj
 0002:00001670       ??_C@_0BG@MPLKFPAE@state?5not?5recoverable@ 0000000180178670     libcpmt:syserror.obj
 0002:00001688       ??_C@_0P@DIIFGFCG@stream?5timeout@ 0000000180178688     libcpmt:syserror.obj
 0002:00001698       ??_C@_0P@IPFDMIFL@text?5file?5busy@ 0000000180178698     libcpmt:syserror.obj
 0002:000016a8       ??_C@_09KJPPMAOI@timed?5out@ 00000001801786a8     libcpmt:syserror.obj
 0002:000016b8       ??_C@_0BO@HACHBEKI@too?5many?5files?5open?5in?5system@ 00000001801786b8     libcpmt:syserror.obj
 0002:000016d8       ??_C@_0BE@GHAFMPAH@too?5many?5files?5open@ 00000001801786d8     libcpmt:syserror.obj
 0002:000016f0       ??_C@_0P@HCOMKFCC@too?5many?5links@ 00000001801786f0     libcpmt:syserror.obj
 0002:00001700       ??_C@_0BO@EFGOJEF@too?5many?5symbolic?5link?5levels@ 0000000180178700     libcpmt:syserror.obj
 0002:00001720       ??_C@_0BA@KGKGOOJA@value?5too?5large@ 0000000180178720     libcpmt:syserror.obj
 0002:00001730       ??_C@_0BE@MIEJDDNH@wrong?5protocol?5type@ 0000000180178730     libcpmt:syserror.obj
 0002:00001748       ??_C@_0O@BFJCFAAK@unknown?5error@ 0000000180178748     libcpmt:syserror.obj
 0002:00001860       ??_C@_1CM@BFAMBNFD@?$AA?$CB?$AAx?$AA?9?$AAs?$AAy?$AAs?$AA?9?$AAd?$AAe?$AAf?$AAa?$AAu?$AAl?$AAt?$AA?9@ 0000000180178860     libcpmt:syserror_import_lib.obj
 0002:000018d0       ??_7type_info@@6B@         00000001801788d0     LIBCMT:std_type_info_static.obj
 0002:000018d8       _pDefaultRawDllMain        00000001801788d8     LIBCMT:dll_dllmain.obj
 0002:000018d8       _pRawDllMain               00000001801788d8     LIBCMT:dll_dllmain.obj
 0002:000018e8       ??_7bad_array_new_length@std@@6B@ 00000001801788e8     LIBCMT:throw_bad_alloc.obj
 0002:00001998       _pDestructExceptionObject  0000000180178998     libvcruntime:ehhelpers.obj
 0002:000019a8       ??_7bad_exception@std@@6B@ 00000001801789a8     libvcruntime:frame.obj
 0002:000019b8       ??_C@_0O@DPKOEFFH@bad?5exception@ 00000001801789b8     libvcruntime:frame.obj
 0002:000020e0       ??_C@_08EHJDFFNH@__based?$CI@ 00000001801790e0     libvcruntime:undname.obj
 0002:000020f0       ??_C@_07KOLFKCDI@__cdecl@  00000001801790f0     libvcruntime:undname.obj
 0002:000020f8       ??_C@_09IFJBGAPI@__stdcall@ 00000001801790f8     libvcruntime:undname.obj
 0002:00002108       ??_C@_0L@NPHFGOKO@__thiscall@ 0000000180179108     libvcruntime:undname.obj
 0002:00002118       ??_C@_0L@JMKHOMEK@__fastcall@ 0000000180179118     libvcruntime:undname.obj
 0002:00002128       ??_C@_0N@BCKKPABJ@__vectorcall@ 0000000180179128     libvcruntime:undname.obj
 0002:00002138       ??_C@_0BA@NAGGFLJK@__preserve_none@ 0000000180179138     libvcruntime:undname.obj
 0002:00002148       ??_C@_09HIJEGCPM@__clrcall@ 0000000180179148     libvcruntime:undname.obj
 0002:00002154       ??_C@_06GHPCKEAG@__eabi@   0000000180179154     libvcruntime:undname.obj
 0002:00002160       ??_C@_09IOPIDJLG@__swift_1@ 0000000180179160     libvcruntime:undname.obj
 0002:00002170       ??_C@_09KFNFGKHF@__swift_2@ 0000000180179170     libvcruntime:undname.obj
 0002:00002180       ??_C@_09LMMOFLDE@__swift_3@ 0000000180179180     libvcruntime:undname.obj
 0002:00002190       ??_C@_07JOMMBBKO@__ptr64@  0000000180179190     libvcruntime:undname.obj
 0002:00002198       ??_C@_0L@PILCLIHE@__restrict@ 0000000180179198     libvcruntime:undname.obj
 0002:000021a8       ??_C@_0M@GFIIJFMG@__unaligned@ 00000001801791a8     libvcruntime:undname.obj
 0002:000021b8       ??_C@_09DHDLOLLB@restrict?$CI@ 00000001801791b8     libvcruntime:undname.obj
 0002:000021c4       ??_C@_04NIHEBCM@?5new@     00000001801791c4     libvcruntime:undname.obj
 0002:000021d0       ??_C@_07FPCDHGMM@?5delete@ 00000001801791d0     libvcruntime:undname.obj
 0002:000021d8       ??_C@_01NEMOKFLO@?$DN@     00000001801791d8     libvcruntime:undname.obj
 0002:000021dc       ??_C@_02GPIOPFAK@?$DO?$DO@ 00000001801791dc     libvcruntime:undname.obj
 0002:000021e0       ??_C@_02FODMEDOG@?$DM?$DM@ 00000001801791e0     libvcruntime:undname.obj
 0002:000021e4       ??_C@_01DCLJPIOD@?$CB@     00000001801791e4     libvcruntime:undname.obj
 0002:000021e8       ??_C@_02EGOFBIJA@?$DN?$DN@ 00000001801791e8     libvcruntime:undname.obj
 0002:000021ec       ??_C@_02FDNJECIE@?$CB?$DN@ 00000001801791ec     libvcruntime:undname.obj
 0002:000021f0       ??_C@_02GPECMEKF@?$FL?$FN@ 00000001801791f0     libvcruntime:undname.obj
 0002:000021f8       ??_C@_08LHJFAFGD@operator@ 00000001801791f8     libvcruntime:undname.obj
 0002:00002204       ??_C@_02HBOOOICD@?9?$DO@   0000000180179204     libvcruntime:undname.obj
 0002:00002208       ??_C@_01NBENCBCI@?$CK@     0000000180179208     libvcruntime:undname.obj
 0002:0000220c       ??_C@_02ECNGHCIF@?$CL?$CL@ 000000018017920c     libvcruntime:undname.obj
 0002:00002210       ??_C@_02BAABKJLB@?9?9@     0000000180179210     libvcruntime:undname.obj
 0002:00002214       ??_C@_01MIFGBAGJ@?$CL@     0000000180179214     libvcruntime:undname.obj
 0002:00002218       ??_C@_01HNPIGOCE@?$CG@     0000000180179218     libvcruntime:undname.obj
 0002:0000221c       ??_C@_03MNHNFDLC@?9?$DO?$CK@ 000000018017921c     libvcruntime:undname.obj
 0002:00002220       ??_C@_01KMDKNFGN@?1@       0000000180179220     libvcruntime:undname.obj
 0002:00002224       ??_C@_01FGNFDNOH@?$CF@     0000000180179224     libvcruntime:undname.obj
 0002:00002228       ??_C@_01MNNFJEPP@?$DM@     0000000180179228     libvcruntime:undname.obj
 0002:0000222c       ??_C@_02EHCHHCKH@?$DM?$DN@ 000000018017922c     libvcruntime:undname.obj
 0002:00002230       ??_C@_01PPODPGHN@?$DO@     0000000180179230     libvcruntime:undname.obj
 0002:00002234       ??_C@_02EEKDKGMJ@?$DO?$DN@ 0000000180179234     libvcruntime:undname.obj
 0002:00002238       ??_C@_01IHBHIGKO@?0@       0000000180179238     libvcruntime:undname.obj
 0002:0000223c       ??_C@_02HCKGKOFO@?$CI?$CJ@ 000000018017923c     libvcruntime:undname.obj
 0002:00002240       ??_C@_01PJKLJHI@?$HO@      0000000180179240     libvcruntime:undname.obj
 0002:00002244       ??_C@_01JKBOJNNK@?$FO@     0000000180179244     libvcruntime:undname.obj
 0002:00002248       ??_C@_01DNKMNLPK@?$HM@     0000000180179248     libvcruntime:undname.obj
 0002:0000224c       ??_C@_02PPKAJPJL@?$CG?$CG@ 000000018017924c     libvcruntime:undname.obj
 0002:00002250       ??_C@_02NONPIBCD@?$HM?$HM@ 0000000180179250     libvcruntime:undname.obj
 0002:00002254       ??_C@_02FPIMKNGF@?$CK?$DN@ 0000000180179254     libvcruntime:undname.obj
 0002:00002258       ??_C@_02FOEOMHFC@?$CL?$DN@ 0000000180179258     libvcruntime:undname.obj
 0002:0000225c       ??_C@_02FKMDLLOA@?9?$DN@   000000018017925c     libvcruntime:undname.obj
 0002:00002260       ??_C@_02FJEHGPIO@?1?$DN@   0000000180179260     libvcruntime:undname.obj
 0002:00002264       ??_C@_02FENAOKFI@?$CF?$DN@ 0000000180179264     libvcruntime:undname.obj
 0002:00002268       ??_C@_03IKFCCPFF@?$DO?$DO?$DN@ 0000000180179268     libvcruntime:undname.obj
 0002:0000226c       ??_C@_03CDNPDDLA@?$DM?$DM?$DN@ 000000018017926c     libvcruntime:undname.obj
 0002:00002270       ??_C@_02FGJGFEAB@?$CG?$DN@ 0000000180179270     libvcruntime:undname.obj
 0002:00002274       ??_C@_02DHLNPPGH@?$HM?$DN@ 0000000180179274     libvcruntime:undname.obj
 0002:00002278       ??_C@_02MHEGNOJ@?$FO?$DN@  0000000180179278     libvcruntime:undname.obj
 0002:00002280       ??_C@_09IFPLHPGF@?$GAvftable?8@ 0000000180179280     libvcruntime:undname.obj
 0002:00002290       ??_C@_09BLBHBJP@?$GAvbtable?8@ 0000000180179290     libvcruntime:undname.obj
 0002:000022a0       ??_C@_07FEEIOKP@?$GAvcall?8@ 00000001801792a0     libvcruntime:undname.obj
 0002:000022a8       ??_C@_08LLFFHHDJ@?$GAtypeof?8@ 00000001801792a8     libvcruntime:undname.obj
 0002:000022b8       ??_C@_0BF@KDPPACIK@?$GAlocal?5static?5guard?8@ 00000001801792b8     libvcruntime:undname.obj
 0002:000022d0       ??_C@_08OBABFOLI@?$GAstring?8@ 00000001801792d0     libvcruntime:undname.obj
 0002:000022e0       ??_C@_0BD@JDLKDPAB@?$GAvbase?5destructor?8@ 00000001801792e0     libvcruntime:undname.obj
 0002:000022f8       ??_C@_0BN@DEGPLNFK@?$GAvector?5deleting?5destructor?8@ 00000001801792f8     libvcruntime:undname.obj
 0002:00002318       ??_C@_0BO@OBMKPJIG@?$GAdefault?5constructor?5closure?8@ 0000000180179318     libvcruntime:undname.obj
 0002:00002338       ??_C@_0BN@IMDCHIKM@?$GAscalar?5deleting?5destructor?8@ 0000000180179338     libvcruntime:undname.obj
 0002:00002358       ??_C@_0BO@PFGOCPJJ@?$GAvector?5constructor?5iterator?8@ 0000000180179358     libvcruntime:undname.obj
 0002:00002378       ??_C@_0BN@LFPFMEDL@?$GAvector?5destructor?5iterator?8@ 0000000180179378     libvcruntime:undname.obj
 0002:00002398       ??_C@_0CE@IKBNEHA@?$GAvector?5vbase?5constructor?5itera@ 0000000180179398     libvcruntime:undname.obj
 0002:000023c0       ??_C@_0BL@NILFHHPC@?$GAvirtual?5displacement?5map?8@ 00000001801793c0     libvcruntime:undname.obj
 0002:000023e0       ??_C@_0CB@JONCMFFK@?$GAeh?5vector?5constructor?5iterator@ 00000001801793e0     libvcruntime:undname.obj
 0002:00002408       ??_C@_0CA@GCEOPDGL@?$GAeh?5vector?5destructor?5iterator?8@ 0000000180179408     libvcruntime:undname.obj
 0002:00002428       ??_C@_0CH@OOJPLCPH@?$GAeh?5vector?5vbase?5constructor?5it@ 0000000180179428     libvcruntime:undname.obj
 0002:00002450       ??_C@_0BL@LLKPOHJI@?$GAcopy?5constructor?5closure?8@ 0000000180179450     libvcruntime:undname.obj
 0002:00002470       ??_C@_0BA@KBCDOMBN@?$GAudt?5returning?8@ 0000000180179470     libvcruntime:undname.obj
 0002:00002480       ??_C@_03KLGMFNMG@?$GAEH@   0000000180179480     libvcruntime:undname.obj
 0002:00002484       ??_C@_05KHLCHHI@?$GARTTI@  0000000180179484     libvcruntime:undname.obj
 0002:00002490       ??_C@_0BA@KKLDJDLB@?$GAlocal?5vftable?8@ 0000000180179490     libvcruntime:undname.obj
 0002:000024a0       ??_C@_0CE@IIHCMGGL@?$GAlocal?5vftable?5constructor?5clos@ 00000001801794a0     libvcruntime:undname.obj
 0002:000024c4       ??_C@_06FHBGPFGH@?5new?$FL?$FN@ 00000001801794c4     libvcruntime:undname.obj
 0002:000024d0       ??_C@_09LBNFPBCA@?5delete?$FL?$FN@ 00000001801794d0     libvcruntime:undname.obj
 0002:000024e0       ??_C@_0P@HJKNJFNN@?$GAomni?5callsig?8@ 00000001801794e0     libvcruntime:undname.obj
 0002:000024f0       ??_C@_0BL@CNOONJFP@?$GAplacement?5delete?5closure?8@ 00000001801794f0     libvcruntime:undname.obj
 0002:00002510       ??_C@_0BN@CKNJLHMB@?$GAplacement?5delete?$FL?$FN?5closure?8@ 0000000180179510     libvcruntime:undname.obj
 0002:00002530       ??_C@_0CG@CFDHKGGD@?$GAmanaged?5vector?5constructor?5ite@ 0000000180179530     libvcruntime:undname.obj
 0002:00002558       ??_C@_0CF@IMGKMJNO@?$GAmanaged?5vector?5destructor?5iter@ 0000000180179558     libvcruntime:undname.obj
 0002:00002580       ??_C@_0CG@HLDDJMAG@?$GAeh?5vector?5copy?5constructor?5ite@ 0000000180179580     libvcruntime:undname.obj
 0002:000025a8       ??_C@_0CM@FCBBDIGB@?$GAeh?5vector?5vbase?5copy?5construct@ 00000001801795a8     libvcruntime:undname.obj
 0002:000025d8       ??_C@_0BL@CLIPGLGB@?$GAdynamic?5initializer?5for?5?8@ 00000001801795d8     libvcruntime:undname.obj
 0002:000025f8       ??_C@_0CB@PDBIFEP@?$GAdynamic?5atexit?5destructor?5for?5@ 00000001801795f8     libvcruntime:undname.obj
 0002:00002620       ??_C@_0CD@CGAJBKEJ@?$GAvector?5copy?5constructor?5iterat@ 0000000180179620     libvcruntime:undname.obj
 0002:00002648       ??_C@_0CJ@GJELGAMM@?$GAvector?5vbase?5copy?5constructor?5@ 0000000180179648     libvcruntime:undname.obj
 0002:00002678       ??_C@_0CL@FGIJHLCE@?$GAmanaged?5vector?5copy?5constructo@ 0000000180179678     libvcruntime:undname.obj
 0002:000026a8       ??_C@_0BM@PMGGMLDN@?$GAlocal?5static?5thread?5guard?8@ 00000001801796a8     libvcruntime:undname.obj
 0002:000026c8       ??_C@_0N@BDNMDMOL@operator?5?$CC?$CC?5@ 00000001801796c8     libvcruntime:undname.obj
 0002:000026d8       ??_C@_0BC@GGEBGALA@operator?5co_await@ 00000001801796d8     libvcruntime:undname.obj
 0002:000026f0       ??_C@_0M@GAAIMMOH@operator?$DM?$DN?$DO@ 00000001801796f0     libvcruntime:undname.obj
 0002:00002700       ??_C@_0BC@DAFEJGAK@?5Type?5Descriptor?8@ 0000000180179700     libvcruntime:undname.obj
 0002:00002718       ??_C@_0BM@LDKODKLH@?5Base?5Class?5Descriptor?5at?5?$CI@ 0000000180179718     libvcruntime:undname.obj
 0002:00002738       ??_C@_0BD@LGICGFMM@?5Base?5Class?5Array?8@ 0000000180179738     libvcruntime:undname.obj
 0002:00002750       ??_C@_0BN@MECKDCOJ@?5Class?5Hierarchy?5Descriptor?8@ 0000000180179750     libvcruntime:undname.obj
 0002:00002770       ??_C@_0BK@CFCOFLF@?5Complete?5Object?5Locator?8@ 0000000180179770     libvcruntime:undname.obj
 0002:00002790       ??_C@_0BG@JNJLAMPM@?$GAanonymous?5namespace?8@ 0000000180179790     libvcruntime:undname.obj
 0002:000027b0       ?standard_lookup_table_spectre@__crt_stdio_output@@3V?$spectre_mitigated_lookup_table@Ustate_transition_pair@__crt_stdio_output@@$0IA@@1@B 00000001801797b0     libucrt:output.obj
 0002:000028b0       ?format_validation_lookup_table_spectre@__crt_stdio_output@@3V?$spectre_mitigated_lookup_table@Ustate_transition_pair@__crt_stdio_output@@$0IA@@1@B 00000001801798b0     libucrt:output.obj
 0002:00002a38       ??_C@_1O@CEDCILHN@?$AA?$CI?$AAn?$AAu?$AAl?$AAl?$AA?$CJ@ 0000000180179a38     libucrt:output.obj
 0002:00002a48       ??_C@_06OJHGLDPL@?$CInull?$CJ@ 0000000180179a48     libucrt:output.obj
 0002:00002bc0       __acrt_exception_action_table 0000000180179bc0     libucrt:exception_filter.obj
 0002:00002c80       __acrt_signal_action_table_count 0000000180179c80     libucrt:exception_filter.obj
 0002:00002c88       __acrt_signal_action_first_fpe_index 0000000180179c88     libucrt:exception_filter.obj
 0002:00002c90       __acrt_signal_action_fpe_count 0000000180179c90     libucrt:exception_filter.obj
 0002:00002cf8       ??_C@_1BI@BGOHAHKC@?$AAm?$AAs?$AAc?$AAo?$AAr?$AAe?$AAe?$AA?4?$AAd?$AAl?$AAl@ 0000000180179cf8     libucrt:exit.obj
 0002:00002d10       ??_C@_0P@MIGLKIOC@CorExitProcess@ 0000000180179d10     libucrt:exit.obj
 0002:00002f00       ??_C@_03OEIAHPBN@INF@      0000000180179f00     libucrt:cvt.obj
 0002:00002f04       ??_C@_03OJHLLCGB@inf@      0000000180179f04     libucrt:cvt.obj
 0002:00002f08       ??_C@_03LKNCIKJB@NAN@      0000000180179f08     libucrt:cvt.obj
 0002:00002f0c       ??_C@_03LHCJEHON@nan@      0000000180179f0c     libucrt:cvt.obj
 0002:00002f10       ??_C@_09OFJJIMPC@NAN?$CISNAN?$CJ@ 0000000180179f10     libucrt:cvt.obj
 0002:00002f20       ??_C@_09IPFBKMDL@nan?$CIsnan?$CJ@ 0000000180179f20     libucrt:cvt.obj
 0002:00002f30       ??_C@_08IKHNHAJ@NAN?$CIIND?$CJ@ 0000000180179f30     libucrt:cvt.obj
 0002:00002f40       ??_C@_08OFCDMILK@nan?$CIind?$CJ@ 0000000180179f40     libucrt:cvt.obj
 0002:00002f4c       ??_C@_05KLBDPFGC@e?$CL000@ 0000000180179f4c     libucrt:cvt.obj
 0002:00002fb8       ??_C@_03KOEHGMDN@Sun@      0000000180179fb8     libucrt:nlsdata.obj
 0002:00002fbc       ??_C@_03PDAGKDH@Mon@       0000000180179fbc     libucrt:nlsdata.obj
 0002:00002fc0       ??_C@_03NAGEINEP@Tue@      0000000180179fc0     libucrt:nlsdata.obj
 0002:00002fc4       ??_C@_03MHOMLAJA@Wed@      0000000180179fc4     libucrt:nlsdata.obj
 0002:00002fc8       ??_C@_03IOFIKPDN@Thu@      0000000180179fc8     libucrt:nlsdata.obj
 0002:00002fcc       ??_C@_03IDIOELNC@Fri@      0000000180179fcc     libucrt:nlsdata.obj
 0002:00002fd0       ??_C@_03FEFJNEK@Sat@       0000000180179fd0     libucrt:nlsdata.obj
 0002:00002fd4       ??_C@_06OOPIFAJ@Sunday@    0000000180179fd4     libucrt:nlsdata.obj
 0002:00002fdc       ??_C@_06JLEDEDGH@Monday@   0000000180179fdc     libucrt:nlsdata.obj
 0002:00002fe8       ??_C@_07BAAGCFCM@Tuesday@  0000000180179fe8     libucrt:nlsdata.obj
 0002:00002ff0       ??_C@_09DLIGFAKA@Wednesday@ 0000000180179ff0     libucrt:nlsdata.obj
 0002:00003000       ??_C@_08HACCIKIA@Thursday@ 000000018017a000     libucrt:nlsdata.obj
 0002:0000300c       ??_C@_06JECMNKMI@Friday@   000000018017a00c     libucrt:nlsdata.obj
 0002:00003018       ??_C@_08INBOOONO@Saturday@ 000000018017a018     libucrt:nlsdata.obj
 0002:00003024       ??_C@_03JIHJHPIE@Jan@      000000018017a024     libucrt:nlsdata.obj
 0002:00003028       ??_C@_03HJBDCHOM@Feb@      000000018017a028     libucrt:nlsdata.obj
 0002:0000302c       ??_C@_03ODNJBKGA@Mar@      000000018017a02c     libucrt:nlsdata.obj
 0002:00003030       ??_C@_03LEOLGMJP@Apr@      000000018017a030     libucrt:nlsdata.obj
 0002:00003034       ??_C@_03CNMDKL@May@        000000018017a034     libucrt:nlsdata.obj
 0002:00003038       ??_C@_03IDFGHECI@Jun@      000000018017a038     libucrt:nlsdata.obj
 0002:0000303c       ??_C@_03LBGABGKK@Jul@      000000018017a03c     libucrt:nlsdata.obj
 0002:00003040       ??_C@_03IFJFEIGA@Aug@      000000018017a040     libucrt:nlsdata.obj
 0002:00003044       ??_C@_03GGCAPAJC@Sep@      000000018017a044     libucrt:nlsdata.obj
 0002:00003048       ??_C@_03BMAOKBAD@Oct@      000000018017a048     libucrt:nlsdata.obj
 0002:0000304c       ??_C@_03JPJOFNIA@Nov@      000000018017a04c     libucrt:nlsdata.obj
 0002:00003050       ??_C@_03MKABNOCG@Dec@      000000018017a050     libucrt:nlsdata.obj
 0002:00003058       ??_C@_07CGJPFGJA@January@  000000018017a058     libucrt:nlsdata.obj
 0002:00003060       ??_C@_08GNJGEPFN@February@ 000000018017a060     libucrt:nlsdata.obj
 0002:0000306c       ??_C@_05HPCKOFNC@March@    000000018017a06c     libucrt:nlsdata.obj
 0002:00003074       ??_C@_05DMJDNLEJ@April@    000000018017a074     libucrt:nlsdata.obj
 0002:0000307c       ??_C@_04CNLMGBGM@June@     000000018017a07c     libucrt:nlsdata.obj
 0002:00003084       ??_C@_04MIEPOIFP@July@     000000018017a084     libucrt:nlsdata.obj
 0002:0000308c       ??_C@_06LBBHFDDG@August@   000000018017a08c     libucrt:nlsdata.obj
 0002:00003098       ??_C@_09BHHEALKD@September@ 000000018017a098     libucrt:nlsdata.obj
 0002:000030a8       ??_C@_07JJNFCEND@October@  000000018017a0a8     libucrt:nlsdata.obj
 0002:000030b0       ??_C@_08HCHEGEOA@November@ 000000018017a0b0     libucrt:nlsdata.obj
 0002:000030c0       ??_C@_08EDHMEBNP@December@ 000000018017a0c0     libucrt:nlsdata.obj
 0002:000030cc       ??_C@_02DEDBPAFC@AM@       000000018017a0cc     libucrt:nlsdata.obj
 0002:000030d0       ??_C@_02CJNFDJBF@PM@       000000018017a0d0     libucrt:nlsdata.obj
 0002:000030d8       ??_C@_08BPBNCDIB@MM?1dd?1yy@ 000000018017a0d8     libucrt:nlsdata.obj
 0002:000030e8       ??_C@_0BE@CKGJFCPC@dddd?0?5MMMM?5dd?0?5yyyy@ 000000018017a0e8     libucrt:nlsdata.obj
 0002:00003100       ??_C@_08JCCMCCIL@HH?3mm?3ss@ 000000018017a100     libucrt:nlsdata.obj
 0002:00003110       ??_C@_17MBGCMIPB@?$AAS?$AAu?$AAn@ 000000018017a110     libucrt:nlsdata.obj
 0002:00003118       ??_C@_17KBOMKBF@?$AAM?$AAo?$AAn@ 000000018017a118     libucrt:nlsdata.obj
 0002:00003120       ??_C@_17BMKGEGOJ@?$AAT?$AAu?$AAe@ 000000018017a120     libucrt:nlsdata.obj
 0002:00003128       ??_C@_17CJEDCEPE@?$AAW?$AAe?$AAd@ 000000018017a128     libucrt:nlsdata.obj
 0002:00003130       ??_C@_17PDPHAADD@?$AAT?$AAh?$AAu@ 000000018017a130     libucrt:nlsdata.obj
 0002:00003138       ??_C@_17HFOLPPLP@?$AAF?$AAr?$AAi@ 000000018017a138     libucrt:nlsdata.obj
 0002:00003140       ??_C@_17GGIBDPIH@?$AAS?$AAa?$AAt@ 000000018017a140     libucrt:nlsdata.obj
 0002:00003148       ??_C@_1O@IHNHDHPB@?$AAS?$AAu?$AAn?$AAd?$AAa?$AAy@ 000000018017a148     libucrt:nlsdata.obj
 0002:00003158       ??_C@_1O@MMNBFLIA@?$AAM?$AAo?$AAn?$AAd?$AAa?$AAy@ 000000018017a158     libucrt:nlsdata.obj
 0002:00003168       ??_C@_1BA@ENFBFFEK@?$AAT?$AAu?$AAe?$AAs?$AAd?$AAa?$AAy@ 000000018017a168     libucrt:nlsdata.obj
 0002:00003178       ??_C@_1BE@EBOGMDOH@?$AAW?$AAe?$AAd?$AAn?$AAe?$AAs?$AAd?$AAa?$AAy@ 000000018017a178     libucrt:nlsdata.obj
 0002:00003190       ??_C@_1BC@HHMNLIHE@?$AAT?$AAh?$AAu?$AAr?$AAs?$AAd?$AAa?$AAy@ 000000018017a190     libucrt:nlsdata.obj
 0002:000031a8       ??_C@_1O@PDICJHAG@?$AAF?$AAr?$AAi?$AAd?$AAa?$AAy@ 000000018017a1a8     libucrt:nlsdata.obj
 0002:000031b8       ??_C@_1BC@ENMNNPAJ@?$AAS?$AAa?$AAt?$AAu?$AAr?$AAd?$AAa?$AAy@ 000000018017a1b8     libucrt:nlsdata.obj
 0002:000031d0       ??_C@_17DKNBKCHM@?$AAJ?$AAa?$AAn@ 000000018017a1d0     libucrt:nlsdata.obj
 0002:000031d8       ??_C@_17LMDJEKJN@?$AAF?$AAe?$AAb@ 000000018017a1d8     libucrt:nlsdata.obj
 0002:000031e0       ??_C@_17CKNLEDEC@?$AAM?$AAa?$AAr@ 000000018017a1e0     libucrt:nlsdata.obj
 0002:000031e8       ??_C@_17LFPOIHDD@?$AAA?$AAp?$AAr@ 000000018017a1e8     libucrt:nlsdata.obj
 0002:000031f0       ??_C@_17PNNKMEED@?$AAM?$AAa?$AAy@ 000000018017a1f0     libucrt:nlsdata.obj
 0002:000031f8       ??_C@_17KCJGOCPB@?$AAJ?$AAu?$AAn@ 000000018017a1f8     libucrt:nlsdata.obj
 0002:00003200       ??_C@_17IJPCKHK@?$AAJ?$AAu?$AAl@ 000000018017a200     libucrt:nlsdata.obj
 0002:00003208       ??_C@_17ICPELBCN@?$AAA?$AAu?$AAg@ 000000018017a208     libucrt:nlsdata.obj
 0002:00003210       ??_C@_17HCHCOKMG@?$AAS?$AAe?$AAp@ 000000018017a210     libucrt:nlsdata.obj
 0002:00003218       ??_C@_17FNLKOI@?$AAO?$AAc?$AAt@ 000000018017a218     libucrt:nlsdata.obj
 0002:00003220       ??_C@_17BBDMLCIG@?$AAN?$AAo?$AAv@ 000000018017a220     libucrt:nlsdata.obj
 0002:00003228       ??_C@_17EGKACKIF@?$AAD?$AAe?$AAc@ 000000018017a228     libucrt:nlsdata.obj
 0002:00003230       ??_C@_1BA@EFMEIEBA@?$AAJ?$AAa?$AAn?$AAu?$AAa?$AAr?$AAy@ 000000018017a230     libucrt:nlsdata.obj
 0002:00003240       ??_C@_1BC@JGDDFFAM@?$AAF?$AAe?$AAb?$AAr?$AAu?$AAa?$AAr?$AAy@ 000000018017a240     libucrt:nlsdata.obj
 0002:00003258       ??_C@_1M@IKEENEDF@?$AAM?$AAa?$AAr?$AAc?$AAh@ 000000018017a258     libucrt:nlsdata.obj
 0002:00003268       ??_C@_1M@GJNLMHFD@?$AAA?$AAp?$AAr?$AAi?$AAl@ 000000018017a268     libucrt:nlsdata.obj
 0002:00003278       ??_C@_19EPFLPGAP@?$AAJ?$AAu?$AAn?$AAe@ 000000018017a278     libucrt:nlsdata.obj
 0002:00003288       ??_C@_19BIFMLPCD@?$AAJ?$AAu?$AAl?$AAy@ 000000018017a288     libucrt:nlsdata.obj
 0002:00003298       ??_C@_1O@PAHLKOAC@?$AAA?$AAu?$AAg?$AAu?$AAs?$AAt@ 000000018017a298     libucrt:nlsdata.obj
 0002:000032a8       ??_C@_1BE@DKAAMBJL@?$AAS?$AAe?$AAp?$AAt?$AAe?$AAm?$AAb?$AAe?$AAr@ 000000018017a2a8     libucrt:nlsdata.obj
 0002:000032c0       ??_C@_1BA@EPANDLNG@?$AAO?$AAc?$AAt?$AAo?$AAb?$AAe?$AAr@ 000000018017a2c0     libucrt:nlsdata.obj
 0002:000032d0       ??_C@_1BC@BGLIFPF@?$AAN?$AAo?$AAv?$AAe?$AAm?$AAb?$AAe?$AAr@ 000000018017a2d0     libucrt:nlsdata.obj
 0002:000032e8       ??_C@_1BC@FEMKIFH@?$AAD?$AAe?$AAc?$AAe?$AAm?$AAb?$AAe?$AAr@ 000000018017a2e8     libucrt:nlsdata.obj
 0002:000032fc       ??_C@_15ODEHAHHF@?$AAA?$AAM@ 000000018017a2fc     libucrt:nlsdata.obj
 0002:00003304       ??_C@_15CLMNNGEL@?$AAP?$AAM@ 000000018017a304     libucrt:nlsdata.obj
 0002:00003310       ??_C@_1BC@IEBCMHCM@?$AAM?$AAM?$AA?1?$AAd?$AAd?$AA?1?$AAy?$AAy@ 000000018017a310     libucrt:nlsdata.obj
 0002:00003328       ??_C@_1CI@KNAKOEBC@?$AAd?$AAd?$AAd?$AAd?$AA?0?$AA?5?$AAM?$AAM?$AAM?$AAM?$AA?5?$AAd?$AAd?$AA?0?$AA?5@ 000000018017a328     libucrt:nlsdata.obj
 0002:00003350       ??_C@_1BC@GDGBMEMK@?$AAH?$AAH?$AA?3?$AAm?$AAm?$AA?3?$AAs?$AAs@ 000000018017a350     libucrt:nlsdata.obj
 0002:00003368       ??_C@_1M@BMHNFIME@?$AAe?$AAn?$AA?9?$AAU?$AAS@ 000000018017a368     libucrt:nlsdata.obj
 0002:00003380       __lc_time_c                000000018017a380     libucrt:nlsdata.obj
 0002:00003640       __newctype                 000000018017a640     libucrt:ctype.obj
 0002:00003940       __newclmap                 000000018017a940     libucrt:ctype.obj
 0002:00003ac0       __newcumap                 000000018017aac0     libucrt:ctype.obj
 0002:00003c40       _wctype                    000000018017ac40     libucrt:ctype.obj
 0002:00003f10       ??_C@_1EA@JGEFHKEI@?$AAa?$AAp?$AAi?$AA?9?$AAm?$AAs?$AA?9?$AAw?$AAi?$AAn?$AA?9?$AAc?$AAo?$AAr?$AAe@ 000000018017af10     libucrt:winapi_thunks.obj
 0002:00003f50       ??_C@_1DM@LFJCLCKP@?$AAa?$AAp?$AAi?$AA?9?$AAm?$AAs?$AA?9?$AAw?$AAi?$AAn?$AA?9?$AAc?$AAo?$AAr?$AAe@ 000000018017af50     libucrt:winapi_thunks.obj
 0002:00003f90       ??_C@_1DI@KMEPCBPN@?$AAa?$AAp?$AAi?$AA?9?$AAm?$AAs?$AA?9?$AAw?$AAi?$AAn?$AA?9?$AAc?$AAo?$AAr?$AAe@ 000000018017af90     libucrt:winapi_thunks.obj
 0002:00003fc8       ??_C@_1DI@IJCEHOCB@?$AAa?$AAp?$AAi?$AA?9?$AAm?$AAs?$AA?9?$AAw?$AAi?$AAn?$AA?9?$AAc?$AAo?$AAr?$AAe@ 000000018017afc8     libucrt:winapi_thunks.obj
 0002:00004000       ??_C@_1DI@FFFOPEOO@?$AAa?$AAp?$AAi?$AA?9?$AAm?$AAs?$AA?9?$AAw?$AAi?$AAn?$AA?9?$AAc?$AAo?$AAr?$AAe@ 000000018017b000     libucrt:winapi_thunks.obj
 0002:00004040       ??_C@_1EI@MPIAOHOC@?$AAa?$AAp?$AAi?$AA?9?$AAm?$AAs?$AA?9?$AAw?$AAi?$AAn?$AA?9?$AAc?$AAo?$AAr?$AAe@ 000000018017b040     libucrt:winapi_thunks.obj
 0002:00004090       ??_C@_1FK@FPHCKFIE@?$AAa?$AAp?$AAi?$AA?9?$AAm?$AAs?$AA?9?$AAw?$AAi?$AAn?$AA?9?$AAc?$AAo?$AAr?$AAe@ 000000018017b090     libucrt:winapi_thunks.obj
 0002:000040f0       ??_C@_1EM@DILCGIIO@?$AAa?$AAp?$AAi?$AA?9?$AAm?$AAs?$AA?9?$AAw?$AAi?$AAn?$AA?9?$AAc?$AAo?$AAr?$AAe@ 000000018017b0f0     libucrt:winapi_thunks.obj
 0002:00004140       ??_C@_1DM@LNCGDDPN@?$AAa?$AAp?$AAi?$AA?9?$AAm?$AAs?$AA?9?$AAw?$AAi?$AAn?$AA?9?$AAc?$AAo?$AAr?$AAe@ 000000018017b140     libucrt:winapi_thunks.obj
 0002:00004180       ??_C@_1DK@LPPGFMPP@?$AAa?$AAp?$AAi?$AA?9?$AAm?$AAs?$AA?9?$AAw?$AAi?$AAn?$AA?9?$AAc?$AAo?$AAr?$AAe@ 000000018017b180     libucrt:winapi_thunks.obj
 0002:000041c0       ??_C@_1DO@FPAPJEMD@?$AAa?$AAp?$AAi?$AA?9?$AAm?$AAs?$AA?9?$AAw?$AAi?$AAn?$AA?9?$AAc?$AAo?$AAr?$AAe@ 000000018017b1c0     libucrt:winapi_thunks.obj
 0002:00004200       ??_C@_1DK@NDHNAHIO@?$AAa?$AAp?$AAi?$AA?9?$AAm?$AAs?$AA?9?$AAw?$AAi?$AAn?$AA?9?$AAc?$AAo?$AAr?$AAe@ 000000018017b200     libucrt:winapi_thunks.obj
 0002:00004240       ??_C@_1DM@KGHDGBCM@?$AAa?$AAp?$AAi?$AA?9?$AAm?$AAs?$AA?9?$AAw?$AAi?$AAn?$AA?9?$AAc?$AAo?$AAr?$AAe@ 000000018017b240     libucrt:winapi_thunks.obj
 0002:00004280       ??_C@_1EO@IJIOEFOH@?$AAa?$AAp?$AAi?$AA?9?$AAm?$AAs?$AA?9?$AAw?$AAi?$AAn?$AA?9?$AAr?$AAt?$AAc?$AAo@ 000000018017b280     libucrt:winapi_thunks.obj
 0002:000042d0       ??_C@_1FG@HHGEKANL@?$AAa?$AAp?$AAi?$AA?9?$AAm?$AAs?$AA?9?$AAw?$AAi?$AAn?$AA?9?$AAs?$AAe?$AAc?$AAu@ 000000018017b2d0     libucrt:winapi_thunks.obj
 0002:00004330       ??_C@_1EG@DBIOJECG@?$AAe?$AAx?$AAt?$AA?9?$AAm?$AAs?$AA?9?$AAw?$AAi?$AAn?$AA?9?$AAn?$AAt?$AAu?$AAs@ 000000018017b330     libucrt:winapi_thunks.obj
 0002:00004380       ??_C@_1EO@FIHMJCLF@?$AAe?$AAx?$AAt?$AA?9?$AAm?$AAs?$AA?9?$AAw?$AAi?$AAn?$AA?9?$AAn?$AAt?$AAu?$AAs@ 000000018017b380     libucrt:winapi_thunks.obj
 0002:000043d0       ??_C@_1BC@DNHGCMLG@?$AAa?$AAd?$AAv?$AAa?$AAp?$AAi?$AA3?$AA2@ 000000018017b3d0     libucrt:winapi_thunks.obj
 0002:000043e8       ??_C@_1BC@GDMECMAK@?$AAk?$AAe?$AAr?$AAn?$AAe?$AAl?$AA3?$AA2@ 000000018017b3e8     libucrt:winapi_thunks.obj
 0002:00004400       ??_C@_1BG@CJPGBMEF@?$AAk?$AAe?$AAr?$AAn?$AAe?$AAl?$AAb?$AAa?$AAs?$AAe@ 000000018017b400     libucrt:winapi_thunks.obj
 0002:00004418       ??_C@_1M@OAIMIKLP@?$AAn?$AAt?$AAd?$AAl?$AAl@ 000000018017b418     libucrt:winapi_thunks.obj
 0002:00004430       ??_C@_1EG@DPGNFKGC@?$AAa?$AAp?$AAi?$AA?9?$AAm?$AAs?$AA?9?$AAw?$AAi?$AAn?$AA?9?$AAa?$AAp?$AAp?$AAm@ 000000018017b430     libucrt:winapi_thunks.obj
 0002:00004478       ??_C@_1O@BCCLBEOE@?$AAu?$AAs?$AAe?$AAr?$AA3?$AA2@ 000000018017b478     libucrt:winapi_thunks.obj
 0002:00004488       ??_C@_1BA@PFFKHIOG@?$AAa?$AAp?$AAi?$AA?9?$AAm?$AAs?$AA?9@ 000000018017b488     libucrt:winapi_thunks.obj
 0002:00004498       ??_C@_1BA@IAIFMGEF@?$AAe?$AAx?$AAt?$AA?9?$AAm?$AAs?$AA?9@ 000000018017b498     libucrt:winapi_thunks.obj
 0002:000044b0       ??_C@_0BA@FHFNEAED@AreFileApisANSI@ 000000018017b4b0     libucrt:winapi_thunks.obj
 0002:000044c8       ??_C@_0N@MFBBDCAC@FlsGetValue2@ 000000018017b4c8     libucrt:winapi_thunks.obj
 0002:000044e0       ??_C@_0O@KKBNKAPF@LCMapStringEx@ 000000018017b4e0     libucrt:winapi_thunks.obj
 0002:000044f8       ??_C@_0BB@HBDEELFH@LocaleNameToLCID@ 000000018017b4f8     libucrt:winapi_thunks.obj
 0002:00004510       ??_C@_0N@PPOMPGGK@RoInitialize@ 000000018017b510     libucrt:winapi_thunks.obj
 0002:00004528       ??_C@_0P@LLFHBIJD@RoUninitialize@ 000000018017b528     libucrt:winapi_thunks.obj
 0002:00004540       ??_C@_0CF@OJOFEIGO@AppPolicyGetProcessTerminationM@ 000000018017b540     libucrt:winapi_thunks.obj
 0002:00004570       ??_C@_0CF@NNDFDCOC@AppPolicyGetThreadInitializatio@ 000000018017b570     libucrt:winapi_thunks.obj
 0002:000045b8       ??_C@_1M@HPNHIDJI@?$AAj?$AAa?$AA?9?$AAJ?$AAP@ 000000018017b5b8     libucrt:mbctype.obj
 0002:000045c8       ??_C@_1M@BIBDDEMK@?$AAz?$AAh?$AA?9?$AAC?$AAN@ 000000018017b5c8     libucrt:mbctype.obj
 0002:000045d8       ??_C@_1M@JLOOOEGK@?$AAk?$AAo?$AA?9?$AAK?$AAR@ 000000018017b5d8     libucrt:mbctype.obj
 0002:000045e8       ??_C@_1M@CLNBBOPM@?$AAz?$AAh?$AA?9?$AAT?$AAW@ 000000018017b5e8     libucrt:mbctype.obj
 0002:00004600       ?large_power_data@?1??multiply_by_power_of_ten@__crt_strtox@@YA_NAEAUbig_integer@2@I@Z@4QBIB 000000018017b600     libucrt:cfout.obj
 0002:00004f10       ?large_power_indices@?1??multiply_by_power_of_ten@__crt_strtox@@YA_NAEAUbig_integer@2@I@Z@4QBUunpack_index@?1??12@YA_N0I@Z@B 000000018017bf10     libucrt:cfout.obj
 0002:00004fa8       ?small_powers_of_ten@?1??multiply_by_power_of_ten@__crt_strtox@@YA_NAEAUbig_integer@2@I@Z@4QBIB 000000018017bfa8     libucrt:cfout.obj
 0002:00004fcc       ??_C@_01GBGANLPD@0@        000000018017bfcc     libucrt:cfout.obj
 0002:00004fd0       ??_C@_05DNEBIAHO@1?$CDINF@ 000000018017bfd0     libucrt:cfout.obj
 0002:00004fd8       ??_C@_06IMKFLFPG@1?$CDQNAN@ 000000018017bfd8     libucrt:cfout.obj
 0002:00004fe0       ??_C@_06PGGFOGJG@1?$CDSNAN@ 000000018017bfe0     libucrt:cfout.obj
 0002:00004fe8       ??_C@_05PHHOCPM@1?$CDIND@  000000018017bfe8     libucrt:cfout.obj
 0002:00004ff0       ??_C@_15PJPFLCCM@?$AAu?$AAk@ 000000018017bff0     libucrt:get_qualified_locale.obj
 0002:00005e40       ??_C@_15EMKDOKLE@?$AAa?$AAr@ 000000018017ce40     libucrt:lcidtoname_downlevel.obj
 0002:00005e48       ??_C@_15KNPADPLH@?$AAb?$AAg@ 000000018017ce48     libucrt:lcidtoname_downlevel.obj
 0002:00005e50       ??_C@_15EDMHLDMO@?$AAc?$AAa@ 000000018017ce50     libucrt:lcidtoname_downlevel.obj
 0002:00005e58       ??_C@_1O@BPEAJADD@?$AAz?$AAh?$AA?9?$AAC?$AAH?$AAS@ 000000018017ce58     libucrt:lcidtoname_downlevel.obj
 0002:00005e68       ??_C@_15LJNHCMNK@?$AAc?$AAs@ 000000018017ce68     libucrt:lcidtoname_downlevel.obj
 0002:00005e70       ??_C@_15FOMCIDHG@?$AAd?$AAa@ 000000018017ce70     libucrt:lcidtoname_downlevel.obj
 0002:00005e78       ??_C@_15NBKABECB@?$AAd?$AAe@ 000000018017ce78     libucrt:lcidtoname_downlevel.obj
 0002:00005e80       ??_C@_15GHPEIIAO@?$AAe?$AAl@ 000000018017ce80     libucrt:lcidtoname_downlevel.obj
 0002:00005e88       ??_C@_15MNPNEAIF@?$AAe?$AAn@ 000000018017ce88     libucrt:lcidtoname_downlevel.obj
 0002:00005e90       ??_C@_15GPIOMPMH@?$AAe?$AAs@ 000000018017ce90     libucrt:lcidtoname_downlevel.obj
 0002:00005e98       ??_C@_15NGLOAKJC@?$AAf?$AAi@ 000000018017ce98     libucrt:lcidtoname_downlevel.obj
 0002:00005ea0       ??_C@_15FBKGNKAM@?$AAf?$AAr@ 000000018017cea0     libucrt:lcidtoname_downlevel.obj
 0002:00005ea8       ??_C@_15KGGCNEFK@?$AAh?$AAe@ 000000018017cea8     libucrt:lcidtoname_downlevel.obj
 0002:00005eb0       ??_C@_15PGHLIDMF@?$AAh?$AAu@ 000000018017ceb0     libucrt:lcidtoname_downlevel.obj
 0002:00005eb8       ??_C@_15BIEMAPLM@?$AAi?$AAs@ 000000018017ceb8     libucrt:lcidtoname_downlevel.obj
 0002:00005ec0       ??_C@_15IFJLDHAF@?$AAi?$AAt@ 000000018017cec0     libucrt:lcidtoname_downlevel.obj
 0002:00005ec8       ??_C@_15GEMIOCAG@?$AAj?$AAa@ 000000018017cec8     libucrt:lcidtoname_downlevel.obj
 0002:00005ed0       ??_C@_15EPELEGJA@?$AAk?$AAo@ 000000018017ced0     libucrt:lcidtoname_downlevel.obj
 0002:00005ed8       ??_C@_15NDDHIMN@?$AAn?$AAl@ 000000018017ced8     libucrt:lcidtoname_downlevel.obj
 0002:00005ee0       ??_C@_15BPIGNHCD@?$AAn?$AAo@ 000000018017cee0     libucrt:lcidtoname_downlevel.obj
 0002:00005ee8       ??_C@_15DEOPBLCG@?$AAp?$AAl@ 000000018017cee8     libucrt:lcidtoname_downlevel.obj
 0002:00005ef0       ??_C@_15KBECGEFG@?$AAp?$AAt@ 000000018017cef0     libucrt:lcidtoname_downlevel.obj
 0002:00005ef8       ??_C@_15GLJCBFMD@?$AAr?$AAo@ 000000018017cef8     libucrt:lcidtoname_downlevel.obj
 0002:00005f00       ??_C@_15FEDGKCDI@?$AAr?$AAu@ 000000018017cf00     libucrt:lcidtoname_downlevel.obj
 0002:00005f08       ??_C@_15GLKMLLHM@?$AAh?$AAr@ 000000018017cf08     libucrt:lcidtoname_downlevel.obj
 0002:00005f10       ??_C@_15CPKMFBDB@?$AAs?$AAk@ 000000018017cf10     libucrt:lcidtoname_downlevel.obj
 0002:00005f18       ??_C@_15BAAIOGMK@?$AAs?$AAq@ 000000018017cf18     libucrt:lcidtoname_downlevel.obj
 0002:00005f20       ??_C@_15INNPNOHD@?$AAs?$AAv@ 000000018017cf20     libucrt:lcidtoname_downlevel.obj
 0002:00005f28       ??_C@_15CABMMOGH@?$AAt?$AAh@ 000000018017cf28     libucrt:lcidtoname_downlevel.obj
 0002:00005f30       ??_C@_15BPLIHJJM@?$AAt?$AAr@ 000000018017cf30     libucrt:lcidtoname_downlevel.obj
 0002:00005f38       ??_C@_15NEOEKKDJ@?$AAu?$AAr@ 000000018017cf38     libucrt:lcidtoname_downlevel.obj
 0002:00005f40       ??_C@_15NFICGAJK@?$AAi?$AAd@ 000000018017cf40     libucrt:lcidtoname_downlevel.obj
 0002:00005f48       ??_C@_15HPJPHDM@?$AAb?$AAe@ 000000018017cf48     libucrt:lcidtoname_downlevel.obj
 0002:00005f50       ??_C@_15LCHLGJII@?$AAs?$AAl@ 000000018017cf50     libucrt:lcidtoname_downlevel.obj
 0002:00005f58       ??_C@_15PCFJPHHO@?$AAe?$AAt@ 000000018017cf58     libucrt:lcidtoname_downlevel.obj
 0002:00005f60       ??_C@_15HPFPGODN@?$AAl?$AAv@ 000000018017cf60     libucrt:lcidtoname_downlevel.obj
 0002:00005f68       ??_C@_15NFFGKGLG@?$AAl?$AAt@ 000000018017cf68     libucrt:lcidtoname_downlevel.obj
 0002:00005f70       ??_C@_15BDAKCCHN@?$AAf?$AAa@ 000000018017cf70     libucrt:lcidtoname_downlevel.obj
 0002:00005f78       ??_C@_15NFGIAIAJ@?$AAv?$AAi@ 000000018017cf78     libucrt:lcidtoname_downlevel.obj
 0002:00005f80       ??_C@_15LMKNDMHN@?$AAh?$AAy@ 000000018017cf80     libucrt:lcidtoname_downlevel.obj
 0002:00005f88       ??_C@_15IJBHMCFL@?$AAa?$AAz@ 000000018017cf88     libucrt:lcidtoname_downlevel.obj
 0002:00005f90       ??_C@_15EKOFJABL@?$AAe?$AAu@ 000000018017cf90     libucrt:lcidtoname_downlevel.obj
 0002:00005f98       ??_C@_15BGHADCNK@?$AAm?$AAk@ 000000018017cf98     libucrt:lcidtoname_downlevel.obj
 0002:00005fa0       ??_C@_15JDNICKHM@?$AAa?$AAf@ 000000018017cfa0     libucrt:lcidtoname_downlevel.obj
 0002:00005fa8       ??_C@_15KPJEDBKD@?$AAk?$AAa@ 000000018017cfa8     libucrt:lcidtoname_downlevel.obj
 0002:00005fb0       ??_C@_15PDNFFFEO@?$AAf?$AAo@ 000000018017cfb0     libucrt:lcidtoname_downlevel.obj
 0002:00005fb8       ??_C@_15OMLEGLOC@?$AAh?$AAi@ 000000018017cfb8     libucrt:lcidtoname_downlevel.obj
 0002:00005fc0       ??_C@_15IDNNENKK@?$AAm?$AAs@ 000000018017cfc0     libucrt:lcidtoname_downlevel.obj
 0002:00005fc8       ??_C@_15MACJNBMH@?$AAk?$AAk@ 000000018017cfc8     libucrt:lcidtoname_downlevel.obj
 0002:00005fd0       ??_C@_15DKDJEOND@?$AAk?$AAy@ 000000018017cfd0     libucrt:lcidtoname_downlevel.obj
 0002:00005fd8       ??_C@_15DFGDLJBG@?$AAs?$AAw@ 000000018017cfd8     libucrt:lcidtoname_downlevel.obj
 0002:00005fe0       ??_C@_15BBFAICNG@?$AAu?$AAz@ 000000018017cfe0     libucrt:lcidtoname_downlevel.obj
 0002:00005fe8       ??_C@_15DKNDCGEA@?$AAt?$AAt@ 000000018017cfe8     libucrt:lcidtoname_downlevel.obj
 0002:00005ff0       ??_C@_15MGIFMDPL@?$AAp?$AAa@ 000000018017cff0     libucrt:lcidtoname_downlevel.obj
 0002:00005ff8       ??_C@_15HCNDBBA@?$AAg?$AAu@ 000000018017cff8     libucrt:lcidtoname_downlevel.obj
 0002:00006000       ??_C@_15FNBEIBON@?$AAt?$AAa@ 000000018017d000     libucrt:lcidtoname_downlevel.obj
 0002:00006008       ??_C@_15NCHGBGLK@?$AAt?$AAe@ 000000018017d008     libucrt:lcidtoname_downlevel.obj
 0002:00006010       ??_C@_15PHPHCBPF@?$AAk?$AAn@ 000000018017d010     libucrt:lcidtoname_downlevel.obj
 0002:00006018       ??_C@_15DLGBCKMP@?$AAm?$AAr@ 000000018017d018     libucrt:lcidtoname_downlevel.obj
 0002:00006020       ??_C@_15EABBLBFF@?$AAs?$AAa@ 000000018017d020     libucrt:lcidtoname_downlevel.obj
 0002:00006028       ??_C@_15CBKOMCOI@?$AAm?$AAn@ 000000018017d028     libucrt:lcidtoname_downlevel.obj
 0002:00006030       ??_C@_15CKDMCJAF@?$AAg?$AAl@ 000000018017d030     libucrt:lcidtoname_downlevel.obj
 0002:00006038       ??_C@_17CNJFBPG@?$AAk?$AAo?$AAk@ 000000018017d038     libucrt:lcidtoname_downlevel.obj
 0002:00006040       ??_C@_17FFBJICPL@?$AAs?$AAy?$AAr@ 000000018017d040     libucrt:lcidtoname_downlevel.obj
 0002:00006048       ??_C@_17KPNDCPAF@?$AAd?$AAi?$AAv@ 000000018017d048     libucrt:lcidtoname_downlevel.obj
 0002:00006050       ??_C@_1M@OKAHONE@?$AAa?$AAr?$AA?9?$AAS?$AAA@ 000000018017d050     libucrt:lcidtoname_downlevel.obj
 0002:00006060       ??_C@_1M@FFFIGIGK@?$AAb?$AAg?$AA?9?$AAB?$AAG@ 000000018017d060     libucrt:lcidtoname_downlevel.obj
 0002:00006070       ??_C@_1M@BJNKEDC@?$AAc?$AAa?$AA?9?$AAE?$AAS@ 000000018017d070     libucrt:lcidtoname_downlevel.obj
 0002:00006080       ??_C@_1M@IJJHFJHA@?$AAc?$AAs?$AA?9?$AAC?$AAZ@ 000000018017d080     libucrt:lcidtoname_downlevel.obj
 0002:00006090       ??_C@_1M@CLPEOBGI@?$AAd?$AAa?$AA?9?$AAD?$AAK@ 000000018017d090     libucrt:lcidtoname_downlevel.obj
 0002:000060a0       ??_C@_1M@MCMADGCB@?$AAd?$AAe?$AA?9?$AAD?$AAE@ 000000018017d0a0     libucrt:lcidtoname_downlevel.obj
 0002:000060b0       ??_C@_1M@OOCKEMAM@?$AAe?$AAl?$AA?9?$AAG?$AAR@ 000000018017d0b0     libucrt:lcidtoname_downlevel.obj
 0002:000060c0       ??_C@_1M@DDNJFGID@?$AAf?$AAi?$AA?9?$AAF?$AAI@ 000000018017d0c0     libucrt:lcidtoname_downlevel.obj
 0002:000060d0       ??_C@_1M@GLIPPMAC@?$AAf?$AAr?$AA?9?$AAF?$AAR@ 000000018017d0d0     libucrt:lcidtoname_downlevel.obj
 0002:000060e0       ??_C@_1M@GFMCHPE@?$AAh?$AAe?$AA?9?$AAI?$AAL@ 000000018017d0e0     libucrt:lcidtoname_downlevel.obj
 0002:000060f0       ??_C@_1M@MHLPGNKM@?$AAh?$AAu?$AA?9?$AAH?$AAU@ 000000018017d0f0     libucrt:lcidtoname_downlevel.obj
 0002:00006100       ??_C@_1M@LPDDNNPN@?$AAi?$AAs?$AA?9?$AAI?$AAS@ 000000018017d100     libucrt:lcidtoname_downlevel.obj
 0002:00006110       ??_C@_1M@MADIPODN@?$AAi?$AAt?$AA?9?$AAI?$AAT@ 000000018017d110     libucrt:lcidtoname_downlevel.obj
 0002:00006120       ??_C@_1M@IHBJJGG@?$AAn?$AAl?$AA?9?$AAN?$AAL@ 000000018017d120     libucrt:lcidtoname_downlevel.obj
 0002:00006130       ??_C@_1M@EANAGDL@?$AAn?$AAb?$AA?9?$AAN?$AAO@ 000000018017d130     libucrt:lcidtoname_downlevel.obj
 0002:00006140       ??_C@_1M@NEIEMEGP@?$AAp?$AAl?$AA?9?$AAP?$AAL@ 000000018017d140     libucrt:lcidtoname_downlevel.obj
 0002:00006150       ??_C@_1M@BOCFIGEP@?$AAp?$AAt?$AA?9?$AAB?$AAR@ 000000018017d150     libucrt:lcidtoname_downlevel.obj
 0002:00006160       ??_C@_1M@IMPFOPBG@?$AAr?$AAo?$AA?9?$AAR?$AAO@ 000000018017d160     libucrt:lcidtoname_downlevel.obj
 0002:00006170       ??_C@_1M@IDNNEJMM@?$AAr?$AAu?$AA?9?$AAR?$AAU@ 000000018017d170     libucrt:lcidtoname_downlevel.obj
 0002:00006180       ??_C@_1M@LILEEOGM@?$AAh?$AAr?$AA?9?$AAH?$AAR@ 000000018017d180     libucrt:lcidtoname_downlevel.obj
 0002:00006190       ??_C@_1M@FKIFEHPB@?$AAs?$AAk?$AA?9?$AAS?$AAK@ 000000018017d190     libucrt:lcidtoname_downlevel.obj
 0002:000061a0       ??_C@_1M@LJMAMNPJ@?$AAs?$AAq?$AA?9?$AAA?$AAL@ 000000018017d1a0     libucrt:lcidtoname_downlevel.obj
 0002:000061b0       ??_C@_1M@GIAKDKJK@?$AAs?$AAv?$AA?9?$AAS?$AAE@ 000000018017d1b0     libucrt:lcidtoname_downlevel.obj
 0002:000061c0       ??_C@_1M@MKJKIKCL@?$AAt?$AAh?$AA?9?$AAT?$AAH@ 000000018017d1c0     libucrt:lcidtoname_downlevel.obj
 0002:000061d0       ??_C@_1M@MFLCCMPB@?$AAt?$AAr?$AA?9?$AAT?$AAR@ 000000018017d1d0     libucrt:lcidtoname_downlevel.obj
 0002:000061e0       ??_C@_1M@OIJHDKJN@?$AAu?$AAr?$AA?9?$AAP?$AAK@ 000000018017d1e0     libucrt:lcidtoname_downlevel.obj
 0002:000061f0       ??_C@_1M@LHIPCIEK@?$AAi?$AAd?$AA?9?$AAI?$AAD@ 000000018017d1f0     libucrt:lcidtoname_downlevel.obj
 0002:00006200       ??_C@_1M@MFMOBGI@?$AAu?$AAk?$AA?9?$AAU?$AAA@ 000000018017d200     libucrt:lcidtoname_downlevel.obj
 0002:00006210       ??_C@_1M@OBGLJIPL@?$AAb?$AAe?$AA?9?$AAB?$AAY@ 000000018017d210     libucrt:lcidtoname_downlevel.obj
 0002:00006220       ??_C@_1M@BCFAJEAD@?$AAs?$AAl?$AA?9?$AAS?$AAI@ 000000018017d220     libucrt:lcidtoname_downlevel.obj
 0002:00006230       ??_C@_1M@FKFFEDDN@?$AAe?$AAt?$AA?9?$AAE?$AAE@ 000000018017d230     libucrt:lcidtoname_downlevel.obj
 0002:00006240       ??_C@_1M@KGKKAACI@?$AAl?$AAv?$AA?9?$AAL?$AAV@ 000000018017d240     libucrt:lcidtoname_downlevel.obj
 0002:00006250       ??_C@_1M@IFGBIJO@?$AAl?$AAt?$AA?9?$AAL?$AAT@ 000000018017d250     libucrt:lcidtoname_downlevel.obj
 0002:00006260       ??_C@_1M@FGEAHEDM@?$AAf?$AAa?$AA?9?$AAI?$AAR@ 000000018017d260     libucrt:lcidtoname_downlevel.obj
 0002:00006270       ??_C@_1M@KBMAIBFN@?$AAv?$AAi?$AA?9?$AAV?$AAN@ 000000018017d270     libucrt:lcidtoname_downlevel.obj
 0002:00006280       ??_C@_1M@GPCBKDJK@?$AAh?$AAy?$AA?9?$AAA?$AAM@ 000000018017d280     libucrt:lcidtoname_downlevel.obj
 0002:00006290       ??_C@_1BG@BECMDDJB@?$AAa?$AAz?$AA?9?$AAA?$AAZ?$AA?9?$AAL?$AAa?$AAt?$AAn@ 000000018017d290     libucrt:lcidtoname_downlevel.obj
 0002:000062a8       ??_C@_1M@MAOFCAEA@?$AAe?$AAu?$AA?9?$AAE?$AAS@ 000000018017d2a8     libucrt:lcidtoname_downlevel.obj
 0002:000062b8       ??_C@_1M@IGHABKPI@?$AAm?$AAk?$AA?9?$AAM?$AAK@ 000000018017d2b8     libucrt:lcidtoname_downlevel.obj
 0002:000062c8       ??_C@_1M@IAIGNEJG@?$AAt?$AAn?$AA?9?$AAZ?$AAA@ 000000018017d2c8     libucrt:lcidtoname_downlevel.obj
 0002:000062d8       ??_C@_1M@IIJCOJFA@?$AAx?$AAh?$AA?9?$AAZ?$AAA@ 000000018017d2d8     libucrt:lcidtoname_downlevel.obj
 0002:000062e8       ??_C@_1M@LGPJHNJH@?$AAz?$AAu?$AA?9?$AAZ?$AAA@ 000000018017d2e8     libucrt:lcidtoname_downlevel.obj
 0002:000062f8       ??_C@_1M@HOKAOIO@?$AAa?$AAf?$AA?9?$AAZ?$AAA@ 000000018017d2f8     libucrt:lcidtoname_downlevel.obj
 0002:00006308       ??_C@_1M@DPCLHLIE@?$AAk?$AAa?$AA?9?$AAG?$AAE@ 000000018017d308     libucrt:lcidtoname_downlevel.obj
 0002:00006318       ??_C@_1M@BLKMHJBI@?$AAf?$AAo?$AA?9?$AAF?$AAO@ 000000018017d318     libucrt:lcidtoname_downlevel.obj
 0002:00006328       ??_C@_1M@LGGJAPPB@?$AAh?$AAi?$AA?9?$AAI?$AAN@ 000000018017d328     libucrt:lcidtoname_downlevel.obj
 0002:00006338       ??_C@_1M@FIKPIHFE@?$AAm?$AAt?$AA?9?$AAM?$AAT@ 000000018017d338     libucrt:lcidtoname_downlevel.obj
 0002:00006348       ??_C@_1M@HEGGPBFA@?$AAs?$AAe?$AA?9?$AAN?$AAO@ 000000018017d348     libucrt:lcidtoname_downlevel.obj
 0002:00006358       ??_C@_1M@EIBJEEPA@?$AAm?$AAs?$AA?9?$AAM?$AAY@ 000000018017d358     libucrt:lcidtoname_downlevel.obj
 0002:00006368       ??_C@_1M@FHLBGMPP@?$AAk?$AAk?$AA?9?$AAK?$AAZ@ 000000018017d368     libucrt:lcidtoname_downlevel.obj
 0002:00006378       ??_C@_1M@NGJJLCGI@?$AAk?$AAy?$AA?9?$AAK?$AAG@ 000000018017d378     libucrt:lcidtoname_downlevel.obj
 0002:00006388       ??_C@_1M@GIENNBFC@?$AAs?$AAw?$AA?9?$AAK?$AAE@ 000000018017d388     libucrt:lcidtoname_downlevel.obj
 0002:00006398       ??_C@_1BG@NDGMJIMJ@?$AAu?$AAz?$AA?9?$AAU?$AAZ?$AA?9?$AAL?$AAa?$AAt?$AAn@ 000000018017d398     libucrt:lcidtoname_downlevel.obj
 0002:000063b0       ??_C@_1M@IDCCIHBC@?$AAt?$AAt?$AA?9?$AAR?$AAU@ 000000018017d3b0     libucrt:lcidtoname_downlevel.obj
 0002:000063c0       ??_C@_1M@LOICPMOJ@?$AAb?$AAn?$AA?9?$AAI?$AAN@ 000000018017d3c0     libucrt:lcidtoname_downlevel.obj
 0002:000063d0       ??_C@_1M@KPKKNEAH@?$AAp?$AAa?$AA?9?$AAI?$AAN@ 000000018017d3d0     libucrt:lcidtoname_downlevel.obj
 0002:000063e0       ??_C@_1M@PJGPPBOG@?$AAg?$AAu?$AA?9?$AAI?$AAN@ 000000018017d3e0     libucrt:lcidtoname_downlevel.obj
 0002:000063f0       ??_C@_1M@KMKMOPHI@?$AAt?$AAa?$AA?9?$AAI?$AAN@ 000000018017d3f0     libucrt:lcidtoname_downlevel.obj
 0002:00006400       ??_C@_1M@KFEHEPAC@?$AAt?$AAe?$AA?9?$AAI?$AAN@ 000000018017d400     libucrt:lcidtoname_downlevel.obj
 0002:00006410       ??_C@_1M@CDCLMGHI@?$AAk?$AAn?$AA?9?$AAI?$AAN@ 000000018017d410     libucrt:lcidtoname_downlevel.obj
 0002:00006420       ??_C@_1M@MIODLDKF@?$AAm?$AAl?$AA?9?$AAI?$AAN@ 000000018017d420     libucrt:lcidtoname_downlevel.obj
 0002:00006430       ??_C@_1M@PBIEACPO@?$AAm?$AAr?$AA?9?$AAI?$AAN@ 000000018017d430     libucrt:lcidtoname_downlevel.obj
 0002:00006440       ??_C@_1M@NIDEAGPH@?$AAs?$AAa?$AA?9?$AAI?$AAN@ 000000018017d440     libucrt:lcidtoname_downlevel.obj
 0002:00006450       ??_C@_1M@FHIHCBIO@?$AAm?$AAn?$AA?9?$AAM?$AAN@ 000000018017d450     libucrt:lcidtoname_downlevel.obj
 0002:00006460       ??_C@_1M@JAIJPENP@?$AAc?$AAy?$AA?9?$AAG?$AAB@ 000000018017d460     libucrt:lcidtoname_downlevel.obj
 0002:00006470       ??_C@_1M@PHGFBEPN@?$AAg?$AAl?$AA?9?$AAE?$AAS@ 000000018017d470     libucrt:lcidtoname_downlevel.obj
 0002:00006480       ??_C@_1O@KPIPDNCP@?$AAk?$AAo?$AAk?$AA?9?$AAI?$AAN@ 000000018017d480     libucrt:lcidtoname_downlevel.obj
 0002:00006490       ??_C@_1O@KNHJLDJA@?$AAs?$AAy?$AAr?$AA?9?$AAS?$AAY@ 000000018017d490     libucrt:lcidtoname_downlevel.obj
 0002:000064a0       ??_C@_1O@MKEKBLAH@?$AAd?$AAi?$AAv?$AA?9?$AAM?$AAV@ 000000018017d4a0     libucrt:lcidtoname_downlevel.obj
 0002:000064b0       ??_C@_1O@OHDCKDDF@?$AAq?$AAu?$AAz?$AA?9?$AAB?$AAO@ 000000018017d4b0     libucrt:lcidtoname_downlevel.obj
 0002:000064c0       ??_C@_1M@LEPJNLFD@?$AAn?$AAs?$AA?9?$AAZ?$AAA@ 000000018017d4c0     libucrt:lcidtoname_downlevel.obj
 0002:000064d0       ??_C@_1M@OMLEIIJB@?$AAm?$AAi?$AA?9?$AAN?$AAZ@ 000000018017d4d0     libucrt:lcidtoname_downlevel.obj
 0002:000064e0       ??_C@_1M@PMPEAILG@?$AAa?$AAr?$AA?9?$AAI?$AAQ@ 000000018017d4e0     libucrt:lcidtoname_downlevel.obj
 0002:000064f0       ??_C@_1M@CNKPNOEE@?$AAd?$AAe?$AA?9?$AAC?$AAH@ 000000018017d4f0     libucrt:lcidtoname_downlevel.obj
 0002:00006500       ??_C@_1M@LKMGMLKO@?$AAe?$AAn?$AA?9?$AAG?$AAB@ 000000018017d500     libucrt:lcidtoname_downlevel.obj
 0002:00006510       ??_C@_1M@PGKJFFGL@?$AAe?$AAs?$AA?9?$AAM?$AAX@ 000000018017d510     libucrt:lcidtoname_downlevel.obj
 0002:00006520       ??_C@_1M@DNNANBDC@?$AAf?$AAr?$AA?9?$AAB?$AAE@ 000000018017d520     libucrt:lcidtoname_downlevel.obj
 0002:00006530       ??_C@_1M@HLGMDFHM@?$AAi?$AAt?$AA?9?$AAC?$AAH@ 000000018017d530     libucrt:lcidtoname_downlevel.obj
 0002:00006540       ??_C@_1M@CLLBGJH@?$AAn?$AAl?$AA?9?$AAB?$AAE@ 000000018017d540     libucrt:lcidtoname_downlevel.obj
 0002:00006550       ??_C@_1M@BODBOGLF@?$AAn?$AAn?$AA?9?$AAN?$AAO@ 000000018017d550     libucrt:lcidtoname_downlevel.obj
 0002:00006560       ??_C@_1M@HFFAHKAD@?$AAp?$AAt?$AA?9?$AAP?$AAT@ 000000018017d560     libucrt:lcidtoname_downlevel.obj
 0002:00006570       ??_C@_1BG@LNOAKHIE@?$AAs?$AAr?$AA?9?$AAS?$AAP?$AA?9?$AAL?$AAa?$AAt?$AAn@ 000000018017d570     libucrt:lcidtoname_downlevel.obj
 0002:00006588       ??_C@_1M@HBMHBGAK@?$AAs?$AAv?$AA?9?$AAF?$AAI@ 000000018017d588     libucrt:lcidtoname_downlevel.obj
 0002:00006598       ??_C@_1BG@DGCJGJBE@?$AAa?$AAz?$AA?9?$AAA?$AAZ?$AA?9?$AAC?$AAy?$AAr?$AAl@ 000000018017d598     libucrt:lcidtoname_downlevel.obj
 0002:000065b0       ??_C@_1M@KEJDAAHB@?$AAs?$AAe?$AA?9?$AAS?$AAE@ 000000018017d5b0     libucrt:lcidtoname_downlevel.obj
 0002:000065c0       ??_C@_1M@HEIBJJAD@?$AAm?$AAs?$AA?9?$AAB?$AAN@ 000000018017d5c0     libucrt:lcidtoname_downlevel.obj
 0002:000065d0       ??_C@_1BG@PBGJMCEM@?$AAu?$AAz?$AA?9?$AAU?$AAZ?$AA?9?$AAC?$AAy?$AAr?$AAl@ 000000018017d5d0     libucrt:lcidtoname_downlevel.obj
 0002:000065e8       ??_C@_1O@LAOBCMDF@?$AAq?$AAu?$AAz?$AA?9?$AAE?$AAC@ 000000018017d5e8     libucrt:lcidtoname_downlevel.obj
 0002:000065f8       ??_C@_1M@POEEMAIO@?$AAa?$AAr?$AA?9?$AAE?$AAG@ 000000018017d5f8     libucrt:lcidtoname_downlevel.obj
 0002:00006608       ??_C@_1M@EFAKDEDL@?$AAz?$AAh?$AA?9?$AAH?$AAK@ 000000018017d608     libucrt:lcidtoname_downlevel.obj
 0002:00006618       ??_C@_1M@HKKIJHGI@?$AAd?$AAe?$AA?9?$AAA?$AAT@ 000000018017d618     libucrt:lcidtoname_downlevel.obj
 0002:00006628       ??_C@_1M@KBFBEHJF@?$AAe?$AAn?$AA?9?$AAA?$AAU@ 000000018017d628     libucrt:lcidtoname_downlevel.obj
 0002:00006638       ??_C@_1M@MNPLFAAH@?$AAe?$AAs?$AA?9?$AAE?$AAS@ 000000018017d638     libucrt:lcidtoname_downlevel.obj
 0002:00006648       ??_C@_1M@HJOOJFMA@?$AAf?$AAr?$AA?9?$AAC?$AAA@ 000000018017d648     libucrt:lcidtoname_downlevel.obj
 0002:00006658       ??_C@_1BG@JPOFPNAB@?$AAs?$AAr?$AA?9?$AAS?$AAP?$AA?9?$AAC?$AAy?$AAr?$AAl@ 000000018017d658     libucrt:lcidtoname_downlevel.obj
 0002:00006670       ??_C@_1M@LNFOCMOB@?$AAs?$AAe?$AA?9?$AAF?$AAI@ 000000018017d670     libucrt:lcidtoname_downlevel.obj
 0002:00006680       ??_C@_1O@MGJBOAMB@?$AAq?$AAu?$AAz?$AA?9?$AAP?$AAE@ 000000018017d680     libucrt:lcidtoname_downlevel.obj
 0002:00006690       ??_C@_1M@GJINLBOK@?$AAa?$AAr?$AA?9?$AAL?$AAY@ 000000018017d690     libucrt:lcidtoname_downlevel.obj
 0002:000066a0       ??_C@_1M@GGMNHJNL@?$AAz?$AAh?$AA?9?$AAS?$AAG@ 000000018017d6a0     libucrt:lcidtoname_downlevel.obj
 0002:000066b0       ??_C@_1M@HOIKODND@?$AAd?$AAe?$AA?9?$AAL?$AAU@ 000000018017d6b0     libucrt:lcidtoname_downlevel.obj
 0002:000066c0       ??_C@_1M@DDOCCGFG@?$AAe?$AAn?$AA?9?$AAC?$AAA@ 000000018017d6c0     libucrt:lcidtoname_downlevel.obj
 0002:000066d0       ??_C@_1M@BNOEMJLF@?$AAe?$AAs?$AA?9?$AAG?$AAT@ 000000018017d6d0     libucrt:lcidtoname_downlevel.obj
 0002:000066e0       ??_C@_1M@EOGNKEK@?$AAf?$AAr?$AA?9?$AAC?$AAH@ 000000018017d6e0     libucrt:lcidtoname_downlevel.obj
 0002:000066f0       ??_C@_1M@FLIDJFHL@?$AAh?$AAr?$AA?9?$AAB?$AAA@ 000000018017d6f0     libucrt:lcidtoname_downlevel.obj
 0002:00006700       ??_C@_1O@FMCELNAJ@?$AAs?$AAm?$AAj?$AA?9?$AAN?$AAO@ 000000018017d700     libucrt:lcidtoname_downlevel.obj
 0002:00006710       ??_C@_1M@JHGLJMGJ@?$AAa?$AAr?$AA?9?$AAD?$AAZ@ 000000018017d710     libucrt:lcidtoname_downlevel.obj
 0002:00006720       ??_C@_1M@JKKFDCNP@?$AAz?$AAh?$AA?9?$AAM?$AAO@ 000000018017d720     libucrt:lcidtoname_downlevel.obj
 0002:00006730       ??_C@_1M@GEEFALPE@?$AAd?$AAe?$AA?9?$AAL?$AAI@ 000000018017d730     libucrt:lcidtoname_downlevel.obj
 0002:00006740       ??_C@_1M@IGEOFBG@?$AAe?$AAn?$AA?9?$AAN?$AAZ@ 000000018017d740     libucrt:lcidtoname_downlevel.obj
 0002:00006750       ??_C@_1M@KDBONEHP@?$AAe?$AAs?$AA?9?$AAC?$AAR@ 000000018017d750     libucrt:lcidtoname_downlevel.obj
 0002:00006760       ??_C@_1M@FHMDOHNN@?$AAf?$AAr?$AA?9?$AAL?$AAU@ 000000018017d760     libucrt:lcidtoname_downlevel.obj
 0002:00006770       ??_C@_1BG@NFKKMAFG@?$AAb?$AAs?$AA?9?$AAB?$AAA?$AA?9?$AAL?$AAa?$AAt?$AAn@ 000000018017d770     libucrt:lcidtoname_downlevel.obj
 0002:00006788       ??_C@_1O@IMNBEMCI@?$AAs?$AAm?$AAj?$AA?9?$AAS?$AAE@ 000000018017d788     libucrt:lcidtoname_downlevel.obj
 0002:00006798       ??_C@_1M@DHHMBNDP@?$AAa?$AAr?$AA?9?$AAM?$AAA@ 000000018017d798     libucrt:lcidtoname_downlevel.obj
 0002:000067a8       ??_C@_1M@BNBLJCGH@?$AAe?$AAn?$AA?9?$AAI?$AAE@ 000000018017d7a8     libucrt:lcidtoname_downlevel.obj
 0002:000067b8       ??_C@_1M@GEPAFMDL@?$AAe?$AAs?$AA?9?$AAP?$AAA@ 000000018017d7b8     libucrt:lcidtoname_downlevel.obj
 0002:000067c8       ??_C@_1M@OJONDMDL@?$AAf?$AAr?$AA?9?$AAM?$AAC@ 000000018017d7c8     libucrt:lcidtoname_downlevel.obj
 0002:000067d8       ??_C@_1BG@OBCNFJB@?$AAs?$AAr?$AA?9?$AAB?$AAA?$AA?9?$AAL?$AAa?$AAt?$AAn@ 000000018017d7d8     libucrt:lcidtoname_downlevel.obj
 0002:000067f0       ??_C@_1O@KEMEEGPO@?$AAs?$AAm?$AAa?$AA?9?$AAN?$AAO@ 000000018017d7f0     libucrt:lcidtoname_downlevel.obj
 0002:00006800       ??_C@_1M@ELMGFODK@?$AAa?$AAr?$AA?9?$AAT?$AAN@ 000000018017d800     libucrt:lcidtoname_downlevel.obj
 0002:00006810       ??_C@_1M@BHDLHFAF@?$AAe?$AAn?$AA?9?$AAZ?$AAA@ 000000018017d810     libucrt:lcidtoname_downlevel.obj
 0002:00006820       ??_C@_1M@BMGIGLIF@?$AAe?$AAs?$AA?9?$AAD?$AAO@ 000000018017d820     libucrt:lcidtoname_downlevel.obj
 0002:00006830       ??_C@_1BG@CMBHIPBE@?$AAs?$AAr?$AA?9?$AAB?$AAA?$AA?9?$AAC?$AAy?$AAr?$AAl@ 000000018017d830     libucrt:lcidtoname_downlevel.obj
 0002:00006848       ??_C@_1O@HEDBLHNP@?$AAs?$AAm?$AAa?$AA?9?$AAS?$AAE@ 000000018017d848     libucrt:lcidtoname_downlevel.obj
 0002:00006858       ??_C@_1M@DAGCADIM@?$AAa?$AAr?$AA?9?$AAO?$AAM@ 000000018017d858     libucrt:lcidtoname_downlevel.obj
 0002:00006868       ??_C@_1M@FODLMICG@?$AAe?$AAn?$AA?9?$AAJ?$AAM@ 000000018017d868     libucrt:lcidtoname_downlevel.obj
 0002:00006878       ??_C@_1M@DNMLCIHB@?$AAe?$AAs?$AA?9?$AAV?$AAE@ 000000018017d878     libucrt:lcidtoname_downlevel.obj
 0002:00006888       ??_C@_1O@EOKHMKJK@?$AAs?$AAm?$AAs?$AA?9?$AAF?$AAI@ 000000018017d888     libucrt:lcidtoname_downlevel.obj
 0002:00006898       ??_C@_1M@CAFJMKOF@?$AAa?$AAr?$AA?9?$AAY?$AAE@ 000000018017d898     libucrt:lcidtoname_downlevel.obj
 0002:000068a8       ??_C@_1M@CBFHIJLI@?$AAe?$AAn?$AA?9?$AAC?$AAB@ 000000018017d8a8     libucrt:lcidtoname_downlevel.obj
 0002:000068b8       ??_C@_1M@BGNFLDN@?$AAe?$AAs?$AA?9?$AAC?$AAO@ 000000018017d8b8     libucrt:lcidtoname_downlevel.obj
 0002:000068c8       ??_C@_1O@JMPHMAMC@?$AAs?$AAm?$AAn?$AA?9?$AAF?$AAI@ 000000018017d8c8     libucrt:lcidtoname_downlevel.obj
 0002:000068d8       ??_C@_1M@JLANABKE@?$AAa?$AAr?$AA?9?$AAS?$AAY@ 000000018017d8d8     libucrt:lcidtoname_downlevel.obj
 0002:000068e8       ??_C@_1M@HPKGCFGN@?$AAe?$AAn?$AA?9?$AAB?$AAZ@ 000000018017d8e8     libucrt:lcidtoname_downlevel.obj
 0002:000068f8       ??_C@_1M@OLJCMLGM@?$AAe?$AAs?$AA?9?$AAP?$AAE@ 000000018017d8f8     libucrt:lcidtoname_downlevel.obj
 0002:00006908       ??_C@_1M@MKKGFKLE@?$AAa?$AAr?$AA?9?$AAJ?$AAO@ 000000018017d908     libucrt:lcidtoname_downlevel.obj
 0002:00006918       ??_C@_1M@EKPGLDNI@?$AAe?$AAn?$AA?9?$AAT?$AAT@ 000000018017d918     libucrt:lcidtoname_downlevel.obj
 0002:00006928       ??_C@_1M@OONGHFHE@?$AAe?$AAs?$AA?9?$AAA?$AAR@ 000000018017d928     libucrt:lcidtoname_downlevel.obj
 0002:00006938       ??_C@_1M@OOJFGBHE@?$AAa?$AAr?$AA?9?$AAL?$AAB@ 000000018017d938     libucrt:lcidtoname_downlevel.obj
 0002:00006948       ??_C@_1M@GCEJHNEG@?$AAe?$AAn?$AA?9?$AAZ?$AAW@ 000000018017d948     libucrt:lcidtoname_downlevel.obj
 0002:00006958       ??_C@_1M@JNOCAHJI@?$AAe?$AAs?$AA?9?$AAE?$AAC@ 000000018017d958     libucrt:lcidtoname_downlevel.obj
 0002:00006968       ??_C@_1M@JEFHPGGB@?$AAa?$AAr?$AA?9?$AAK?$AAW@ 000000018017d968     libucrt:lcidtoname_downlevel.obj
 0002:00006978       ??_C@_1M@MLKIBJOJ@?$AAe?$AAn?$AA?9?$AAP?$AAH@ 000000018017d978     libucrt:lcidtoname_downlevel.obj
 0002:00006988       ??_C@_1M@BDNIPEND@?$AAe?$AAs?$AA?9?$AAC?$AAL@ 000000018017d988     libucrt:lcidtoname_downlevel.obj
 0002:00006998       ??_C@_1M@MPNMEKBD@?$AAa?$AAr?$AA?9?$AAA?$AAE@ 000000018017d998     libucrt:lcidtoname_downlevel.obj
 0002:000069a8       ??_C@_1M@KBJALCPI@?$AAe?$AAs?$AA?9?$AAU?$AAY@ 000000018017d9a8     libucrt:lcidtoname_downlevel.obj
 0002:000069b8       ??_C@_1M@LLCCOAGA@?$AAa?$AAr?$AA?9?$AAB?$AAH@ 000000018017d9b8     libucrt:lcidtoname_downlevel.obj
 0002:000069c8       ??_C@_1M@PBFNCDEL@?$AAe?$AAs?$AA?9?$AAP?$AAY@ 000000018017d9c8     libucrt:lcidtoname_downlevel.obj
 0002:000069d8       ??_C@_1M@EDGINPNP@?$AAa?$AAr?$AA?9?$AAQ?$AAA@ 000000018017d9d8     libucrt:lcidtoname_downlevel.obj
 0002:000069e8       ??_C@_1M@MKDBIIJI@?$AAe?$AAs?$AA?9?$AAB?$AAO@ 000000018017d9e8     libucrt:lcidtoname_downlevel.obj
 0002:000069f8       ??_C@_1M@CPKKEBLD@?$AAe?$AAs?$AA?9?$AAS?$AAV@ 000000018017d9f8     libucrt:lcidtoname_downlevel.obj
 0002:00006a08       ??_C@_1M@NDBGMMJL@?$AAe?$AAs?$AA?9?$AAH?$AAN@ 000000018017da08     libucrt:lcidtoname_downlevel.obj
 0002:00006a18       ??_C@_1M@JIJIBHDP@?$AAe?$AAs?$AA?9?$AAN?$AAI@ 000000018017da18     libucrt:lcidtoname_downlevel.obj
 0002:00006a28       ??_C@_1M@CGFMKEEK@?$AAe?$AAs?$AA?9?$AAP?$AAR@ 000000018017da28     libucrt:lcidtoname_downlevel.obj
 0002:00006a38       ??_C@_1O@ICJHKIIK@?$AAz?$AAh?$AA?9?$AAC?$AAH?$AAT@ 000000018017da38     libucrt:lcidtoname_downlevel.obj
 0002:00006a48       ??_C@_15CLNEJCE@?$AAs?$AAr@ 000000018017da48     libucrt:lcidtoname_downlevel.obj
 0002:00007890       ??_C@_1M@KAHEKEIG@?$AAa?$AAf?$AA?9?$AAz?$AAa@ 000000018017e890     libucrt:lcidtoname_downlevel.obj
 0002:000078a0       ??_C@_1M@GIECOABL@?$AAa?$AAr?$AA?9?$AAa?$AAe@ 000000018017e8a0     libucrt:lcidtoname_downlevel.obj
 0002:000078b0       ??_C@_1M@BMLMEKGI@?$AAa?$AAr?$AA?9?$AAb?$AAh@ 000000018017e8b0     libucrt:lcidtoname_downlevel.obj
 0002:000078c0       ??_C@_1M@DAPFDGGB@?$AAa?$AAr?$AA?9?$AAd?$AAz@ 000000018017e8c0     libucrt:lcidtoname_downlevel.obj
 0002:000078d0       ??_C@_1M@FJNKGKIG@?$AAa?$AAr?$AA?9?$AAe?$AAg@ 000000018017e8d0     libucrt:lcidtoname_downlevel.obj
 0002:000078e0       ??_C@_1M@FLGKKCLO@?$AAa?$AAr?$AA?9?$AAi?$AAq@ 000000018017e8e0     libucrt:lcidtoname_downlevel.obj
 0002:000078f0       ??_C@_1M@GNDIPALM@?$AAa?$AAr?$AA?9?$AAj?$AAo@ 000000018017e8f0     libucrt:lcidtoname_downlevel.obj
 0002:00007900       ??_C@_1M@DDMJFMGJ@?$AAa?$AAr?$AA?9?$AAk?$AAw@ 000000018017e900     libucrt:lcidtoname_downlevel.obj
 0002:00007910       ??_C@_1M@EJALMLHM@?$AAa?$AAr?$AA?9?$AAl?$AAb@ 000000018017e910     libucrt:lcidtoname_downlevel.obj
 0002:00007920       ??_C@_1M@MOBDBLOC@?$AAa?$AAr?$AA?9?$AAl?$AAy@ 000000018017e920     libucrt:lcidtoname_downlevel.obj
 0002:00007930       ??_C@_1M@JAOCLHDH@?$AAa?$AAr?$AA?9?$AAm?$AAa@ 000000018017e930     libucrt:lcidtoname_downlevel.obj
 0002:00007940       ??_C@_1M@JHPMKJIE@?$AAa?$AAr?$AA?9?$AAo?$AAm@ 000000018017e940     libucrt:lcidtoname_downlevel.obj
 0002:00007950       ??_C@_1M@OEPGHFNH@?$AAa?$AAr?$AA?9?$AAq?$AAa@ 000000018017e950     libucrt:lcidtoname_downlevel.obj
 0002:00007960       ??_C@_1M@KJDONENM@?$AAa?$AAr?$AA?9?$AAs?$AAa@ 000000018017e960     libucrt:lcidtoname_downlevel.obj
 0002:00007970       ??_C@_1M@DMJDKLKM@?$AAa?$AAr?$AA?9?$AAs?$AAy@ 000000018017e970     libucrt:lcidtoname_downlevel.obj
 0002:00007980       ??_C@_1M@OMFIPEDC@?$AAa?$AAr?$AA?9?$AAt?$AAn@ 000000018017e980     libucrt:lcidtoname_downlevel.obj
 0002:00007990       ??_C@_1M@IHMHGAON@?$AAa?$AAr?$AA?9?$AAy?$AAe@ 000000018017e990     libucrt:lcidtoname_downlevel.obj
 0002:000079a0       ??_C@_1BG@KDCPGJGB@?$AAa?$AAz?$AA?9?$AAa?$AAz?$AA?9?$AAc?$AAy?$AAr?$AAl@ 000000018017e9a0     libucrt:lcidtoname_downlevel.obj
 0002:000079b8       ??_C@_1BG@IBCKDDOE@?$AAa?$AAz?$AA?9?$AAa?$AAz?$AA?9?$AAl?$AAa?$AAt?$AAn@ 000000018017e9b8     libucrt:lcidtoname_downlevel.obj
 0002:000079d0       ??_C@_1M@EGPFDCPD@?$AAb?$AAe?$AA?9?$AAb?$AAy@ 000000018017e9d0     libucrt:lcidtoname_downlevel.obj
 0002:000079e0       ??_C@_1M@PCMGMCGC@?$AAb?$AAg?$AA?9?$AAb?$AAg@ 000000018017e9e0     libucrt:lcidtoname_downlevel.obj
 0002:000079f0       ??_C@_1M@BJBMFGOB@?$AAb?$AAn?$AA?9?$AAi?$AAn@ 000000018017e9f0     libucrt:lcidtoname_downlevel.obj
 0002:00007a00       ??_C@_1BG@EAKMMACD@?$AAb?$AAs?$AA?9?$AAb?$AAa?$AA?9?$AAl?$AAa?$AAt?$AAn@ 000000018017ea00     libucrt:lcidtoname_downlevel.obj
 0002:00007a18       ??_C@_1M@KGADAODK@?$AAc?$AAa?$AA?9?$AAe?$AAs@ 000000018017ea18     libucrt:lcidtoname_downlevel.obj
 0002:00007a28       ??_C@_1M@COAJPDHI@?$AAc?$AAs?$AA?9?$AAc?$AAz@ 000000018017ea28     libucrt:lcidtoname_downlevel.obj
 0002:00007a38       ??_C@_1M@DHBHFONH@?$AAc?$AAy?$AA?9?$AAg?$AAb@ 000000018017ea38     libucrt:lcidtoname_downlevel.obj
 0002:00007a48       ??_C@_1M@IMGKELGA@?$AAd?$AAa?$AA?9?$AAd?$AAk@ 000000018017ea48     libucrt:lcidtoname_downlevel.obj
 0002:00007a58       ??_C@_1M@NNDGDNGA@?$AAd?$AAe?$AA?9?$AAa?$AAt@ 000000018017ea58     libucrt:lcidtoname_downlevel.obj
 0002:00007a68       ??_C@_1M@IKDBHEEM@?$AAd?$AAe?$AA?9?$AAc?$AAh@ 000000018017ea68     libucrt:lcidtoname_downlevel.obj
 0002:00007a78       ??_C@_1M@GFFOJMCJ@?$AAd?$AAe?$AA?9?$AAd?$AAe@ 000000018017ea78     libucrt:lcidtoname_downlevel.obj
 0002:00007a88       ??_C@_1M@MDNLKBPM@?$AAd?$AAe?$AA?9?$AAl?$AAi@ 000000018017ea88     libucrt:lcidtoname_downlevel.obj
 0002:00007a98       ??_C@_1M@NJBEEJNL@?$AAd?$AAe?$AA?9?$AAl?$AAu@ 000000018017ea98     libucrt:lcidtoname_downlevel.obj
 0002:00007aa8       ??_C@_1O@GNNELBAP@?$AAd?$AAi?$AAv?$AA?9?$AAm?$AAv@ 000000018017eaa8     libucrt:lcidtoname_downlevel.obj
 0002:00007ab8       ??_C@_1M@EJLEOGAE@?$AAe?$AAl?$AA?9?$AAg?$AAr@ 000000018017eab8     libucrt:lcidtoname_downlevel.obj
 0002:00007ac8       ??_C@_1M@GMPONJN@?$AAe?$AAn?$AA?9?$AAa?$AAu@ 000000018017eac8     libucrt:lcidtoname_downlevel.obj
 0002:00007ad8       ??_C@_1M@NIDIIPGF@?$AAe?$AAn?$AA?9?$AAb?$AAz@ 000000018017ead8     libucrt:lcidtoname_downlevel.obj
 0002:00007ae8       ??_C@_1M@JEHMIMFO@?$AAe?$AAn?$AA?9?$AAc?$AAa@ 000000018017eae8     libucrt:lcidtoname_downlevel.obj
 0002:00007af8       ??_C@_1M@IGMJCDLA@?$AAe?$AAn?$AA?9?$AAc?$AAb@ 000000018017eaf8     libucrt:lcidtoname_downlevel.obj
 0002:00007b08       ??_C@_1M@BNFIGBKG@?$AAe?$AAn?$AA?9?$AAg?$AAb@ 000000018017eb08     libucrt:lcidtoname_downlevel.obj
 0002:00007b18       ??_C@_1M@LKIFDIGP@?$AAe?$AAn?$AA?9?$AAi?$AAe@ 000000018017eb18     libucrt:lcidtoname_downlevel.obj
 0002:00007b28       ??_C@_1M@PJKFGCCO@?$AAe?$AAn?$AA?9?$AAj?$AAm@ 000000018017eb28     libucrt:lcidtoname_downlevel.obj
 0002:00007b38       ??_C@_1M@KPPKEPBO@?$AAe?$AAn?$AA?9?$AAn?$AAz@ 000000018017eb38     libucrt:lcidtoname_downlevel.obj
 0002:00007b48       ??_C@_1M@GMDGLDOB@?$AAe?$AAn?$AA?9?$AAp?$AAh@ 000000018017eb48     libucrt:lcidtoname_downlevel.obj
 0002:00007b58       ??_C@_1M@ONGIBJNA@?$AAe?$AAn?$AA?9?$AAt?$AAt@ 000000018017eb58     libucrt:lcidtoname_downlevel.obj
 0002:00007b68       ??_C@_1M@LLODPCMM@?$AAe?$AAn?$AA?9?$AAu?$AAs@ 000000018017eb68     libucrt:lcidtoname_downlevel.obj
 0002:00007b78       ??_C@_1M@LAKFNPAN@?$AAe?$AAn?$AA?9?$AAz?$AAa@ 000000018017eb78     libucrt:lcidtoname_downlevel.obj
 0002:00007b88       ??_C@_1M@MFNHNHEO@?$AAe?$AAn?$AA?9?$AAz?$AAw@ 000000018017eb88     libucrt:lcidtoname_downlevel.obj
 0002:00007b98       ??_C@_1M@EJEINPHM@?$AAe?$AAs?$AA?9?$AAa?$AAr@ 000000018017eb98     libucrt:lcidtoname_downlevel.obj
 0002:00007ba8       ??_C@_1M@GNKPCCJA@?$AAe?$AAs?$AA?9?$AAb?$AAo@ 000000018017eba8     libucrt:lcidtoname_downlevel.obj
 0002:00007bb8       ??_C@_1M@LEEGFONL@?$AAe?$AAs?$AA?9?$AAc?$AAl@ 000000018017ebb8     libucrt:lcidtoname_downlevel.obj
 0002:00007bc8       ??_C@_1M@KGPDPBDF@?$AAe?$AAs?$AA?9?$AAc?$AAo@ 000000018017ebc8     libucrt:lcidtoname_downlevel.obj
 0002:00007bd8       ??_C@_1M@EIAHOHH@?$AAe?$AAs?$AA?9?$AAc?$AAr@ 000000018017ebd8     libucrt:lcidtoname_downlevel.obj
 0002:00007be8       ??_C@_1M@LLPGMBIN@?$AAe?$AAs?$AA?9?$AAd?$AAo@ 000000018017ebe8     libucrt:lcidtoname_downlevel.obj
 0002:00007bf8       ??_C@_1M@DKHMKNJA@?$AAe?$AAs?$AA?9?$AAe?$AAc@ 000000018017ebf8     libucrt:lcidtoname_downlevel.obj
 0002:00007c08       ??_C@_1M@GKGFPKAP@?$AAe?$AAs?$AA?9?$AAe?$AAs@ 000000018017ec08     libucrt:lcidtoname_downlevel.obj
 0002:00007c18       ??_C@_1M@LKHKGDLN@?$AAe?$AAs?$AA?9?$AAg?$AAt@ 000000018017ec18     libucrt:lcidtoname_downlevel.obj
 0002:00007c28       ??_C@_1M@HEIIGGJD@?$AAe?$AAs?$AA?9?$AAh?$AAn@ 000000018017ec28     libucrt:lcidtoname_downlevel.obj
 0002:00007c38       ??_C@_1M@FBDHPPGD@?$AAe?$AAs?$AA?9?$AAm?$AAx@ 000000018017ec38     libucrt:lcidtoname_downlevel.obj
 0002:00007c48       ??_C@_1M@DPAGLNDH@?$AAe?$AAs?$AA?9?$AAn?$AAi@ 000000018017ec48     libucrt:lcidtoname_downlevel.obj
 0002:00007c58       ??_C@_1M@MDGOPGDD@?$AAe?$AAs?$AA?9?$AAp?$AAa@ 000000018017ec58     libucrt:lcidtoname_downlevel.obj
 0002:00007c68       ??_C@_1M@EMAMGBGE@?$AAe?$AAs?$AA?9?$AAp?$AAe@ 000000018017ec68     libucrt:lcidtoname_downlevel.obj
 0002:00007c78       ??_C@_1M@IBMCAOEC@?$AAe?$AAs?$AA?9?$AAp?$AAr@ 000000018017ec78     libucrt:lcidtoname_downlevel.obj
 0002:00007c88       ??_C@_1M@FGMDIJED@?$AAe?$AAs?$AA?9?$AAp?$AAy@ 000000018017ec88     libucrt:lcidtoname_downlevel.obj
 0002:00007c98       ??_C@_1M@IIDEOLLL@?$AAe?$AAs?$AA?9?$AAs?$AAv@ 000000018017ec98     libucrt:lcidtoname_downlevel.obj
 0002:00007ca8       ??_C@_1M@GAOBIPA@?$AAe?$AAs?$AA?9?$AAu?$AAy@ 000000018017eca8     libucrt:lcidtoname_downlevel.obj
 0002:00007cb8       ??_C@_1M@JKFFICHJ@?$AAe?$AAs?$AA?9?$AAv?$AAe@ 000000018017ecb8     libucrt:lcidtoname_downlevel.obj
 0002:00007cc8       ??_C@_1M@PNMLOJDF@?$AAe?$AAt?$AA?9?$AAe?$AAe@ 000000018017ecc8     libucrt:lcidtoname_downlevel.obj
 0002:00007cd8       ??_C@_1M@GHHLIKEI@?$AAe?$AAu?$AA?9?$AAe?$AAs@ 000000018017ecd8     libucrt:lcidtoname_downlevel.obj
 0002:00007ce8       ??_C@_1M@PBNONODE@?$AAf?$AAa?$AA?9?$AAi?$AAr@ 000000018017ece8     libucrt:lcidtoname_downlevel.obj
 0002:00007cf8       ??_C@_1M@JEEHPMIL@?$AAf?$AAi?$AA?9?$AAf?$AAi@ 000000018017ecf8     libucrt:lcidtoname_downlevel.obj
 0002:00007d08       ??_C@_1M@LMDCNDBA@?$AAf?$AAo?$AA?9?$AAf?$AAo@ 000000018017ed08     libucrt:lcidtoname_downlevel.obj
 0002:00007d18       ??_C@_1M@JKEOHLDK@?$AAf?$AAr?$AA?9?$AAb?$AAe@ 000000018017ed18     libucrt:lcidtoname_downlevel.obj
 0002:00007d28       ??_C@_1M@NOHADPMI@?$AAf?$AAr?$AA?9?$AAc?$AAa@ 000000018017ed28     libucrt:lcidtoname_downlevel.obj
 0002:00007d38       ??_C@_1M@KDHIHAEC@?$AAf?$AAr?$AA?9?$AAc?$AAh@ 000000018017ed38     libucrt:lcidtoname_downlevel.obj
 0002:00007d48       ??_C@_1M@MMBBFGAK@?$AAf?$AAr?$AA?9?$AAf?$AAr@ 000000018017ed48     libucrt:lcidtoname_downlevel.obj
 0002:00007d58       ??_C@_1M@PAFNENNF@?$AAf?$AAr?$AA?9?$AAl?$AAu@ 000000018017ed58     libucrt:lcidtoname_downlevel.obj
 0002:00007d68       ??_C@_1M@EOHDJGDD@?$AAf?$AAr?$AA?9?$AAm?$AAc@ 000000018017ed68     libucrt:lcidtoname_downlevel.obj
 0002:00007d78       ??_C@_1M@FAPLLOPF@?$AAg?$AAl?$AA?9?$AAe?$AAs@ 000000018017ed78     libucrt:lcidtoname_downlevel.obj
 0002:00007d88       ??_C@_1M@FOPBFLOO@?$AAg?$AAu?$AA?9?$AAi?$AAn@ 000000018017ed88     libucrt:lcidtoname_downlevel.obj
 0002:00007d98       ??_C@_1M@KBMCINPM@?$AAh?$AAe?$AA?9?$AAi?$AAl@ 000000018017ed98     libucrt:lcidtoname_downlevel.obj
 0002:00007da8       ??_C@_1M@BBPHKFPJ@?$AAh?$AAi?$AA?9?$AAi?$AAn@ 000000018017eda8     libucrt:lcidtoname_downlevel.obj
 0002:00007db8       ??_C@_1M@PMBNDPHD@?$AAh?$AAr?$AA?9?$AAb?$AAa@ 000000018017edb8     libucrt:lcidtoname_downlevel.obj
 0002:00007dc8       ??_C@_1M@BPCKOEGE@?$AAh?$AAr?$AA?9?$AAh?$AAr@ 000000018017edc8     libucrt:lcidtoname_downlevel.obj
 0002:00007dd8       ??_C@_1M@GACBMHKE@?$AAh?$AAu?$AA?9?$AAh?$AAu@ 000000018017edd8     libucrt:lcidtoname_downlevel.obj
 0002:00007de8       ??_C@_1M@MILPAJJC@?$AAh?$AAy?$AA?9?$AAa?$AAm@ 000000018017ede8     libucrt:lcidtoname_downlevel.obj
 0002:00007df8       ??_C@_1M@BABBICEC@?$AAi?$AAd?$AA?9?$AAi?$AAd@ 000000018017edf8     libucrt:lcidtoname_downlevel.obj
 0002:00007e08       ??_C@_1M@BIKNHHPF@?$AAi?$AAs?$AA?9?$AAi?$AAs@ 000000018017ee08     libucrt:lcidtoname_downlevel.obj
 0002:00007e18       ??_C@_1M@NMPCJPHE@?$AAi?$AAt?$AA?9?$AAc?$AAh@ 000000018017ee18     libucrt:lcidtoname_downlevel.obj
 0002:00007e28       ??_C@_1M@GHKGFEDF@?$AAi?$AAt?$AA?9?$AAi?$AAt@ 000000018017ee28     libucrt:lcidtoname_downlevel.obj
 0002:00007e38       ??_C@_1M@NIEJCJJA@?$AAj?$AAa?$AA?9?$AAj?$AAp@ 000000018017ee38     libucrt:lcidtoname_downlevel.obj
 0002:00007e48       ??_C@_1M@JILFNBIM@?$AAk?$AAa?$AA?9?$AAg?$AAe@ 000000018017ee48     libucrt:lcidtoname_downlevel.obj
 0002:00007e58       ??_C@_1M@PACPMGPH@?$AAk?$AAk?$AA?9?$AAk?$AAz@ 000000018017ee58     libucrt:lcidtoname_downlevel.obj
 0002:00007e68       ??_C@_1M@IELFGMHA@?$AAk?$AAn?$AA?9?$AAi?$AAn@ 000000018017ee68     libucrt:lcidtoname_downlevel.obj
 0002:00007e78       ??_C@_1O@IBBJHCH@?$AAk?$AAo?$AAk?$AA?9?$AAi?$AAn@ 000000018017ee78     libucrt:lcidtoname_downlevel.obj
 0002:00007e88       ??_C@_1M@DMHAEOGC@?$AAk?$AAo?$AA?9?$AAk?$AAr@ 000000018017ee88     libucrt:lcidtoname_downlevel.obj
 0002:00007e98       ??_C@_1M@HBAHBIGA@?$AAk?$AAy?$AA?9?$AAk?$AAg@ 000000018017ee98     libucrt:lcidtoname_downlevel.obj
 0002:00007ea8       ??_C@_1M@KPMILCJG@?$AAl?$AAt?$AA?9?$AAl?$AAt@ 000000018017eea8     libucrt:lcidtoname_downlevel.obj
 0002:00007eb8       ??_C@_1M@BDEKKCA@?$AAl?$AAv?$AA?9?$AAl?$AAv@ 000000018017eeb8     libucrt:lcidtoname_downlevel.obj
 0002:00007ec8       ??_C@_1M@ELCKCCJJ@?$AAm?$AAi?$AA?9?$AAn?$AAz@ 000000018017eec8     libucrt:lcidtoname_downlevel.obj
 0002:00007ed8       ??_C@_1M@CBOOLAPA@?$AAm?$AAk?$AA?9?$AAm?$AAk@ 000000018017eed8     libucrt:lcidtoname_downlevel.obj
 0002:00007ee8       ??_C@_1M@GPHNBJKN@?$AAm?$AAl?$AA?9?$AAi?$AAn@ 000000018017eee8     libucrt:lcidtoname_downlevel.obj
 0002:00007ef8       ??_C@_1M@PABJILIG@?$AAm?$AAn?$AA?9?$AAm?$AAn@ 000000018017eef8     libucrt:lcidtoname_downlevel.obj
 0002:00007f08       ??_C@_1M@FGBKKIPG@?$AAm?$AAr?$AA?9?$AAi?$AAn@ 000000018017ef08     libucrt:lcidtoname_downlevel.obj
 0002:00007f18       ??_C@_1M@NDBPDDAL@?$AAm?$AAs?$AA?9?$AAb?$AAn@ 000000018017ef18     libucrt:lcidtoname_downlevel.obj
 0002:00007f28       ??_C@_1M@OPIHOOPI@?$AAm?$AAs?$AA?9?$AAm?$AAy@ 000000018017ef28     libucrt:lcidtoname_downlevel.obj
 0002:00007f38       ??_C@_1M@PPDBCNFM@?$AAm?$AAt?$AA?9?$AAm?$AAt@ 000000018017ef38     libucrt:lcidtoname_downlevel.obj
 0002:00007f48       ??_C@_1M@KDJDKMDD@?$AAn?$AAb?$AA?9?$AAn?$AAo@ 000000018017ef48     libucrt:lcidtoname_downlevel.obj
 0002:00007f58       ??_C@_1M@KFCFLMJP@?$AAn?$AAl?$AA?9?$AAb?$AAe@ 000000018017ef58     libucrt:lcidtoname_downlevel.obj
 0002:00007f68       ??_C@_1M@KPOPDDGO@?$AAn?$AAl?$AA?9?$AAn?$AAl@ 000000018017ef68     libucrt:lcidtoname_downlevel.obj
 0002:00007f78       ??_C@_1M@LJKPEMLN@?$AAn?$AAn?$AA?9?$AAn?$AAo@ 000000018017ef78     libucrt:lcidtoname_downlevel.obj
 0002:00007f88       ??_C@_1M@BDGHHBFL@?$AAn?$AAs?$AA?9?$AAz?$AAa@ 000000018017ef88     libucrt:lcidtoname_downlevel.obj
 0002:00007f98       ??_C@_1M@IDEHOAP@?$AAp?$AAa?$AA?9?$AAi?$AAn@ 000000018017ef98     libucrt:lcidtoname_downlevel.obj
 0002:00007fa8       ??_C@_1M@HDBKGOGH@?$AAp?$AAl?$AA?9?$AAp?$AAl@ 000000018017efa8     libucrt:lcidtoname_downlevel.obj
 0002:00007fb8       ??_C@_1M@LJLLCMEH@?$AAp?$AAt?$AA?9?$AAb?$AAr@ 000000018017efb8     libucrt:lcidtoname_downlevel.obj
 0002:00007fc8       ??_C@_1M@NCMONAAL@?$AAp?$AAt?$AA?9?$AAp?$AAt@ 000000018017efc8     libucrt:lcidtoname_downlevel.obj
 0002:00007fd8       ??_C@_1O@EAKMAJDN@?$AAq?$AAu?$AAz?$AA?9?$AAb?$AAo@ 000000018017efd8     libucrt:lcidtoname_downlevel.obj
 0002:00007fe8       ??_C@_1O@BHHPIGDN@?$AAq?$AAu?$AAz?$AA?9?$AAe?$AAc@ 000000018017efe8     libucrt:lcidtoname_downlevel.obj
 0002:00007ff8       ??_C@_1O@GBAPEKMJ@?$AAq?$AAu?$AAz?$AA?9?$AAp?$AAe@ 000000018017eff8     libucrt:lcidtoname_downlevel.obj
 0002:00008008       ??_C@_1M@CLGLEFBO@?$AAr?$AAo?$AA?9?$AAr?$AAo@ 000000018017f008     libucrt:lcidtoname_downlevel.obj
 0002:00008018       ??_C@_1M@CEEDODME@?$AAr?$AAu?$AA?9?$AAr?$AAu@ 000000018017f018     libucrt:lcidtoname_downlevel.obj
 0002:00008028       ??_C@_1M@HPKKKMPP@?$AAs?$AAa?$AA?9?$AAi?$AAn@ 000000018017f028     libucrt:lcidtoname_downlevel.obj
 0002:00008038       ??_C@_1M@BKMAIGOJ@?$AAs?$AAe?$AA?9?$AAf?$AAi@ 000000018017f038     libucrt:lcidtoname_downlevel.obj
 0002:00008048       ??_C@_1M@NDPIFLFI@?$AAs?$AAe?$AA?9?$AAn?$AAo@ 000000018017f048     libucrt:lcidtoname_downlevel.obj
 0002:00008058       ??_C@_1M@DANKKHJ@?$AAs?$AAe?$AA?9?$AAs?$AAe@ 000000018017f058     libucrt:lcidtoname_downlevel.obj
 0002:00008068       ??_C@_1M@PNBLONPJ@?$AAs?$AAk?$AA?9?$AAs?$AAk@ 000000018017f068     libucrt:lcidtoname_downlevel.obj
 0002:00008078       ??_C@_1M@LFMODOAL@?$AAs?$AAl?$AA?9?$AAs?$AAi@ 000000018017f078     libucrt:lcidtoname_downlevel.obj
 0002:00008088       ??_C@_1O@DFKOMPG@?$AAs?$AAm?$AAa?$AA?9?$AAn?$AAo@ 000000018017f088     libucrt:lcidtoname_downlevel.obj
 0002:00008098       ??_C@_1O@NDKPBNNH@?$AAs?$AAm?$AAa?$AA?9?$AAs?$AAe@ 000000018017f098     libucrt:lcidtoname_downlevel.obj
 0002:000080a8       ??_C@_1O@PLLKBHAB@?$AAs?$AAm?$AAj?$AA?9?$AAn?$AAo@ 000000018017f0a8     libucrt:lcidtoname_downlevel.obj
 0002:000080b8       ??_C@_1O@CLEPOGCA@?$AAs?$AAm?$AAj?$AA?9?$AAs?$AAe@ 000000018017f0b8     libucrt:lcidtoname_downlevel.obj
 0002:000080c8       ??_C@_1O@DLGJGKMK@?$AAs?$AAm?$AAn?$AA?9?$AAf?$AAi@ 000000018017f0c8     libucrt:lcidtoname_downlevel.obj
 0002:000080d8       ??_C@_1O@OJDJGAJC@?$AAs?$AAm?$AAs?$AA?9?$AAf?$AAi@ 000000018017f0d8     libucrt:lcidtoname_downlevel.obj
 0002:000080e8       ??_C@_1M@BOFOGHPB@?$AAs?$AAq?$AA?9?$AAa?$AAl@ 000000018017f0e8     libucrt:lcidtoname_downlevel.obj
 0002:000080f8       ??_C@_1BG@LJBBIPGB@?$AAs?$AAr?$AA?9?$AAb?$AAa?$AA?9?$AAc?$AAy?$AAr?$AAl@ 000000018017f0f8     libucrt:lcidtoname_downlevel.obj
 0002:00008110       ??_C@_1BG@JLBENFOE@?$AAs?$AAr?$AA?9?$AAb?$AAa?$AA?9?$AAl?$AAa?$AAt?$AAn@ 000000018017f110     libucrt:lcidtoname_downlevel.obj
 0002:00008128       ??_C@_1BG@KODPNHE@?$AAs?$AAr?$AA?9?$AAs?$AAp?$AA?9?$AAc?$AAy?$AAr?$AAl@ 000000018017f128     libucrt:lcidtoname_downlevel.obj
 0002:00008140       ??_C@_1BG@CIOGKHPB@?$AAs?$AAr?$AA?9?$AAs?$AAp?$AA?9?$AAl?$AAa?$AAt?$AAn@ 000000018017f140     libucrt:lcidtoname_downlevel.obj
 0002:00008158       ??_C@_1M@NGFJLMAC@?$AAs?$AAv?$AA?9?$AAf?$AAi@ 000000018017f158     libucrt:lcidtoname_downlevel.obj
 0002:00008168       ??_C@_1M@MPJEJAJC@?$AAs?$AAv?$AA?9?$AAs?$AAe@ 000000018017f168     libucrt:lcidtoname_downlevel.obj
 0002:00008178       ??_C@_1M@MPNDHLFK@?$AAs?$AAw?$AA?9?$AAk?$AAe@ 000000018017f178     libucrt:lcidtoname_downlevel.obj
 0002:00008188       ??_C@_1O@KOHBJJI@?$AAs?$AAy?$AAr?$AA?9?$AAs?$AAy@ 000000018017f188     libucrt:lcidtoname_downlevel.obj
 0002:00008198       ??_C@_1M@LDCEFHA@?$AAt?$AAa?$AA?9?$AAi?$AAn@ 000000018017f198     libucrt:lcidtoname_downlevel.obj
 0002:000081a8       ??_C@_1M@CNJOFAK@?$AAt?$AAe?$AA?9?$AAi?$AAn@ 000000018017f1a8     libucrt:lcidtoname_downlevel.obj
 0002:000081b8       ??_C@_1M@GNAECACD@?$AAt?$AAh?$AA?9?$AAt?$AAh@ 000000018017f1b8     libucrt:lcidtoname_downlevel.obj
 0002:000081c8       ??_C@_1M@CHBIHOJO@?$AAt?$AAn?$AA?9?$AAz?$AAa@ 000000018017f1c8     libucrt:lcidtoname_downlevel.obj
 0002:000081d8       ??_C@_1M@GCCMIGPJ@?$AAt?$AAr?$AA?9?$AAt?$AAr@ 000000018017f1d8     libucrt:lcidtoname_downlevel.obj
 0002:000081e8       ??_C@_1M@CELMCNBK@?$AAt?$AAt?$AA?9?$AAr?$AAu@ 000000018017f1e8     libucrt:lcidtoname_downlevel.obj
 0002:000081f8       ??_C@_1M@KLMCELGA@?$AAu?$AAk?$AA?9?$AAu?$AAa@ 000000018017f1f8     libucrt:lcidtoname_downlevel.obj
 0002:00008208       ??_C@_1M@EPAJJAJF@?$AAu?$AAr?$AA?9?$AAp?$AAk@ 000000018017f208     libucrt:lcidtoname_downlevel.obj
 0002:00008218       ??_C@_1BG@GEGPMCDJ@?$AAu?$AAz?$AA?9?$AAu?$AAz?$AA?9?$AAc?$AAy?$AAr?$AAl@ 000000018017f218     libucrt:lcidtoname_downlevel.obj
 0002:00008230       ??_C@_1BG@EGGKJILM@?$AAu?$AAz?$AA?9?$AAu?$AAz?$AA?9?$AAl?$AAa?$AAt?$AAn@ 000000018017f230     libucrt:lcidtoname_downlevel.obj
 0002:00008248       ??_C@_1M@GFOCLFF@?$AAv?$AAi?$AA?9?$AAv?$AAn@ 000000018017f248     libucrt:lcidtoname_downlevel.obj
 0002:00008258       ??_C@_1M@CPAMEDFI@?$AAx?$AAh?$AA?9?$AAz?$AAa@ 000000018017f258     libucrt:lcidtoname_downlevel.obj
 0002:00008268       ??_C@_1O@EBKIFIGN@?$AAz?$AAh?$AA?9?$AAc?$AAh?$AAs@ 000000018017f268     libucrt:lcidtoname_downlevel.obj
 0002:00008278       ??_C@_1O@NMHPGANE@?$AAz?$AAh?$AA?9?$AAc?$AAh?$AAt@ 000000018017f278     libucrt:lcidtoname_downlevel.obj
 0002:00008288       ??_C@_1M@LPINJOMC@?$AAz?$AAh?$AA?9?$AAc?$AAn@ 000000018017f288     libucrt:lcidtoname_downlevel.obj
 0002:00008298       ??_C@_1M@OCJEJODD@?$AAz?$AAh?$AA?9?$AAh?$AAk@ 000000018017f298     libucrt:lcidtoname_downlevel.obj
 0002:000082a8       ??_C@_1M@DNDLJINH@?$AAz?$AAh?$AA?9?$AAm?$AAo@ 000000018017f2a8     libucrt:lcidtoname_downlevel.obj
 0002:000082b8       ??_C@_1M@MBFDNDND@?$AAz?$AAh?$AA?9?$AAs?$AAg@ 000000018017f2b8     libucrt:lcidtoname_downlevel.obj
 0002:000082c8       ??_C@_1M@IMEPLEPE@?$AAz?$AAh?$AA?9?$AAt?$AAw@ 000000018017f2c8     libucrt:lcidtoname_downlevel.obj
 0002:000082d8       ??_C@_1M@BBGHNHJP@?$AAz?$AAu?$AA?9?$AAz?$AAa@ 000000018017f2d8     libucrt:lcidtoname_downlevel.obj
 0002:00008738       ??_C@_05HGHHAHAP@log10@    000000018017f738     libucrt:log10.obj
 0002:00008740       ??_C@_1BA@BALFACEM@?$AAC?$AAO?$AAN?$AAO?$AAU?$AAT?$AA$@ 000000018017f740     libucrt:initcon.obj
 0002:00008750       _Asan_string_should_annotate 000000018017f750     libcpmt:asan_noop.obj
 0002:00008750       _Asan_string_should_annotate_default 000000018017f750     libcpmt:asan_noop.obj
 0002:00008751       _Asan_vector_should_annotate_default 000000018017f751     libcpmt:asan_noop.obj
 0002:00008758       ??_C@_0BN@PIGJJKFN@shared?2portable_settings?4cpp@ 000000018017f758     portable_settings.obj
 0002:00008778       ??_C@_0BC@IJHGPFDC@invalid?5hex?5digit@ 000000018017f778     portable_settings.obj
 0002:0000878c       ??_C@_02DEBJNODD@?$PP?$PO@ 000000018017f78c     portable_settings.obj
 0002:00008790       ??_C@_15JNBOKNOG@?$AA?$AN?$AA?6@ 000000018017f790     portable_settings.obj
 0002:00008798       ??_C@_0L@BNKBKFNE@odd?5length@ 000000018017f798     portable_settings.obj
 0002:000087a8       ??_C@_0CA@DKOHHGJO@shared?2libraries?2wil?2safecast?4h@ 000000018017f7a8     portable_settings.obj
 0002:000087c8       ??_C@_0BA@FOIKENOD@vector?5too?5long@ 000000018017f7c8     portable_settings.obj
 0002:000087e0       ??_7?$EnumIteratorRegistryBase@H@@6B@ 000000018017f7e0     portable_settings.obj
 0002:00008800       ??_7?$EnumIteratorRegistryBase@V?$basic_string@_WU?$char_traits@_W@std@@V?$allocator@_W@2@@std@@@@6B@ 000000018017f800     portable_settings.obj
 0002:00008820       ??_7?$EnumIteratorIniFileBase@H@@6B@ 000000018017f820     portable_settings.obj
 0002:00008840       ??_7?$EnumIteratorImpl@H@@6B@ 000000018017f840     portable_settings.obj
 0002:00008860       ??_7?$EnumIteratorIniFileBase@V?$basic_string@_WU?$char_traits@_W@std@@V?$allocator@_W@2@@std@@@@6B@ 000000018017f860     portable_settings.obj
 0002:00008880       ??_7?$EnumIteratorImpl@V?$basic_string@_WU?$char_traits@_W@std@@V?$allocator@_W@2@@std@@@@6B@ 000000018017f880     portable_settings.obj
 0002:00008898       ??_C@_0BI@CFPLBAOH@invalid?5string?5position@ 000000018017f898     portable_settings.obj
 0002:000088e0       ??_7IniFileSettings@@6B@   000000018017f8e0     portable_settings.obj
 0002:00008938       ??_7EnumIteratorIniFileString@@6B@ 000000018017f938     portable_settings.obj
 0002:00008958       ??_7EnumIteratorIniFileInt@@6B@ 000000018017f958     portable_settings.obj
 0002:00008970       ??_C@_00CNPNBAHC@@         000000018017f970     portable_settings.obj
 0002:00008978       ??_C@_09FBNMMHMJ@Exception@ 000000018017f978     portable_settings.obj
 0002:00008988       ??_C@_08PHCNGLJD@ReturnNt@ 000000018017f988     portable_settings.obj
 0002:00008998       ??_C@_08KFPKLAKH@ReturnHr@ 000000018017f998     portable_settings.obj
 0002:000089a4       ??_C@_05LKGDKHFF@LogNt@    000000018017f9a4     portable_settings.obj
 0002:000089ac       ??_C@_05OILEHMGB@LogHr@    000000018017f9ac     portable_settings.obj
 0002:000089b8       ??_C@_08IAOKKAJK@FailFast@ 000000018017f9b8     portable_settings.obj
 0002:000089c8       ??_C@_1CC@NCIPMFAO@?$AA?$CF?$AAh?$AAs?$AA?$CI?$AA?$CF?$AAu?$AA?$CJ?$AA?2?$AA?$CF?$AAh?$AAs?$AA?$CB?$AA?$CF?$AAp?$AA?3@ 000000018017f9c8     portable_settings.obj
 0002:000089f0       ??_C@_1BC@HOGHCIFF@?$AA?$CF?$AAh?$AAs?$AA?$CB?$AA?$CF?$AAp?$AA?3?$AA?5@ 000000018017f9f0     portable_settings.obj
 0002:00008a08       ??_C@_1BM@EAHLIJPA@?$AA?$CI?$AAc?$AAa?$AAl?$AAl?$AAe?$AAr?$AA?3?$AA?5?$AA?$CF?$AAp?$AA?$CJ?$AA?5@ 000000018017fa08     portable_settings.obj
 0002:00008a28       ??_C@_1DC@MFHOKFOG@?$AA?$CF?$AAh?$AAs?$AA?$CI?$AA?$CF?$AAd?$AA?$CJ?$AA?5?$AAt?$AAi?$AAd?$AA?$CI?$AA?$CF?$AAx?$AA?$CJ@ 000000018017fa28     portable_settings.obj
 0002:00008a60       ??_C@_19NMAFMAH@?$AA?5?$AA?5?$AA?5?$AA?5@ 000000018017fa60     portable_settings.obj
 0002:00008a70       ??_C@_1BG@MCLOHHAM@?$AAM?$AAs?$AAg?$AA?3?$AA?$FL?$AA?$CF?$AAw?$AAs?$AA?$FN?$AA?5@ 000000018017fa70     portable_settings.obj
 0002:00008a88       ??_C@_1CG@CGJKEFKG@?$AAC?$AAa?$AAl?$AAl?$AAC?$AAo?$AAn?$AAt?$AAe?$AAx?$AAt?$AA?3?$AA?$FL?$AA?$CF?$AAh@ 000000018017fa88     portable_settings.obj
 0002:00008ab0       ??_C@_1BI@PKOCHLJN@?$AA?$FL?$AA?$CF?$AAh?$AAs?$AA?$CI?$AA?$CF?$AAh?$AAs?$AA?$CJ?$AA?$FN?$AA?6@ 000000018017fab0     portable_settings.obj
 0002:00008ac8       ??_C@_1O@PJKHPDBK@?$AA?$FL?$AA?$CF?$AAh?$AAs?$AA?$FN?$AA?6@ 000000018017fac8     portable_settings.obj
 0002:00008ad8       ??_C@_13LBAGMAIH@?$AA?6@   000000018017fad8     portable_settings.obj
 0002:00008ae8       ??_7RegistrySettings@@6B@  000000018017fae8     portable_settings.obj
 0002:00008b40       ??_7EnumIteratorRegistryString@@6B@ 000000018017fb40     portable_settings.obj
 0002:00008b60       ??_7EnumIteratorRegistryInt@@6B@ 000000018017fb60     portable_settings.obj
 0002:00008b78       ??_C@_0BG@HBEOPAA@invalid?5stol?5argument@ 000000018017fb78     portable_settings.obj
 0002:00008b90       ??_C@_0BL@CNHODNBK@stol?5argument?5out?5of?5range@ 000000018017fb90     portable_settings.obj
 0002:00008bb0       ??_C@_0BA@JFNIOLAK@string?5too?5long@ 000000018017fbb0     portable_settings.obj
 0002:00008bc0       ??_C@_0BF@KINCDENJ@bad?5array?5new?5length@ 000000018017fbc0     portable_settings.obj
 0002:00008bd8       ??_C@_0BC@EOODALEL@Unknown?5exception@ 000000018017fbd8     portable_settings.obj
 0002:00008bf0       ??_C@_0BB@NNNBNIDF@NtQueueApcThread@ 000000018017fbf0     dll_inject.obj
 0002:00008c08       ??_C@_0BL@NGJPPJDB@NtQueueApcThread?5not?5found@ 000000018017fc08     dll_inject.obj
 0002:00008c28       ??_C@_0BG@IEENCHJM@engine?2dll_inject?4cpp@ 000000018017fc28     dll_inject.obj
 0002:00008c40       ??_C@_1BK@MGMFAEKH@?$AAk?$AAe?$AAr?$AAn?$AAe?$AAl?$AA3?$AA2?$AA?4?$AAd?$AAl?$AAl@ 000000018017fc40     dll_inject.obj
 0002:00008c60       ??_C@_0BG@IFILFNJG@GetProcessInformation@ 000000018017fc60     dll_inject.obj
 0002:00008c78       ??_C@_1BC@PFDDLKEP@?$AAS?$AAe?$AAt?$AAt?$AAi?$AAn?$AAg?$AAs@ 000000018017fc78     dll_inject.obj
 0002:00008c90       ??_C@_1CI@POBIGHKE@?$AAU?$AAs?$AAe?$AAP?$AAh?$AAa?$AAn?$AAt?$AAo?$AAm?$AAI?$AAn?$AAj?$AAe?$AAc@ 000000018017fc90     dll_inject.obj
 0002:00008cb8       ??_C@_0BL@CPBNLHLM@Invalid?5architecture?5value@ 000000018017fcb8     dll_inject.obj
 0002:00008cd8       ??_C@_1BK@LAAHIMOG@?$AAw?$AAi?$AAn?$AAd?$AAh?$AAa?$AAw?$AAk?$AA?4?$AAd?$AAl?$AAl@ 000000018017fcd8     dll_inject.obj
 0002:00008cf8       ??_C@_1CI@EPIKOING@?$AAU?$AAs?$AAe?$AAI?$AAn?$AAd?$AAi?$AAr?$AAe?$AAc?$AAt?$AAS?$AAy?$AAs?$AAc@ 000000018017fcf8     dll_inject.obj
 0002:00008d20       ??_C@_1CE@DGDDLKJN@?$AAU?$AAs?$AAe?$AAM?$AAo?$AAd?$AAu?$AAl?$AAe?$AAS?$AAt?$AAo?$AAm?$AAp?$AAi@ 000000018017fd20     dll_inject.obj
 0002:00008d48       ??_C@_1BK@BNOFJAFM@?$AAx?$AAp?$AAs?$AAp?$AAr?$AAi?$AAn?$AAt?$AA?4?$AAd?$AAl?$AAl@ 000000018017fd48     dll_inject.obj
 0002:00008d68       ??_C@_0BF@MKCNNBBA@DllInject?3?3DllInject@ 000000018017fd68     dll_inject.obj
 0002:00008d80       ??_C@_1IE@FPKGECOI@?$AA?$FL?$AAW?$AAH?$AA?$FN?$AA?5?$AA?$FL?$AA?$CF?$AAS?$AA?$FN?$AA?3?$AA?5?$AAM?$AAo?$AAd?$AAu@ 000000018017fd80     dll_inject.obj
 0002:00008e08       ??_C@_0CJ@PBEBNAOB@IndirectNtAllocateVirtualMemory@ 000000018017fe08     dll_inject.obj
 0002:00008e38       ??_C@_0CE@KKGNENMH@IndirectNtWriteVirtualMemory?5fa@ 000000018017fe38     dll_inject.obj
 0002:00008e60       ??_C@_0CG@HGIJEAPA@IndirectNtProtectVirtualMemory?5@ 000000018017fe60     dll_inject.obj
 0002:00008e88       ??_C@_0CA@LOHDOHIF@IndirectNtQueueApcThread?5failed@ 000000018017fe88     dll_inject.obj
 0002:00008ea8       ??_C@_0CA@OPHJBLCP@IndirectNtCreateThreadEx?5failed@ 000000018017fea8     dll_inject.obj
 0002:00008ec8       ??_C@_1DI@PNLAENMD@?$AAW?$AAi?$AAn?$AAd?$AAh?$AAa?$AAw?$AAk?$AAI?$AAn?$AAj?$AAe?$AAc?$AAt?$AAe@ 000000018017fec8     dll_inject.obj
 0002:00008f00       ??_C@_1CC@CFCNHABB@?$AAW?$AAi?$AAn?$AAd?$AAh?$AAa?$AAw?$AAk?$AAI?$AAn?$AAj?$AAe?$AAc?$AAt?$AAe@ 000000018017ff00     dll_inject.obj
 0002:00008f28       ??_C@_1BE@GJOFHIHD@?$AAn?$AAt?$AAd?$AAl?$AAl?$AA?4?$AAd?$AAl?$AAl@ 000000018017ff28     dll_inject.obj
 0002:0000e310       ??_C@_0O@MJPOMPOC@EtwEventWrite@ 0000000180185310     etw_stealth.obj
 0002:0000e320       ??_C@_0BP@GINMGICN@EtwStealth?3?3PatchEtwEventWrite@ 0000000180185320     etw_stealth.obj
 0002:0000e340       ??_C@_1II@DGGHEFIH@?$AA?$FL?$AAW?$AAH?$AA?$FN?$AA?5?$AA?$FL?$AA?$CF?$AAS?$AA?$FN?$AA?3?$AA?5?$AAE?$AAt?$AAw?$AAE@ 0000000180185340     etw_stealth.obj
 0002:0000e3d0       ??_C@_1GI@FHIJNNGI@?$AA?$FL?$AAW?$AAH?$AA?$FN?$AA?5?$AA?$FL?$AA?$CF?$AAS?$AA?$FN?$AA?3?$AA?5?$AAF?$AAa?$AAi?$AAl@ 00000001801853d0     etw_stealth.obj
 0002:0000e440       ??_C@_1GI@PCDAMHNG@?$AA?$FL?$AAW?$AAH?$AA?$FN?$AA?5?$AA?$FL?$AA?$CF?$AAS?$AA?$FN?$AA?3?$AA?5?$AAF?$AAa?$AAi?$AAl@ 0000000180185440     etw_stealth.obj
 0002:0000e4a8       ??_C@_15EAECJAPL@?$AA?$CK?$AA?$DP@ 00000001801854a8     functions.obj
 0002:0000e4b0       ??_C@_1JK@LKBPHDHG@?$AAD?$AA?3?$AAP?$AA?$CI?$AAA?$AA?$DL?$AA?$DL?$AAG?$AAA?$AA?$DL?$AA?$DL?$AA?$DL?$AAW?$AAD?$AA?$CJ@ 00000001801854b0     functions.obj
 0002:0000e550       ??_C@_0BB@KGGDNLNO@NtCreateThreadEx@ 0000000180185550     functions.obj
 0002:0000e568       ??_C@_0CA@ODLDBBMI@Functions?3?3MyCreateRemoteThread@ 0000000180185568     functions.obj
 0002:0000e590       ??_C@_1GI@JMENFCGJ@?$AA?$FL?$AAW?$AAH?$AA?$FN?$AA?5?$AA?$FL?$AA?$CF?$AAS?$AA?$FN?$AA?3?$AA?5?$AAS?$AAt?$AAa?$AAc@ 0000000180185590     functions.obj
 0002:0000e5f8       ??_C@_0BH@OLGOMKMH@RtlGetNtVersionNumbers@ 00000001801855f8     functions.obj
 0002:0000e610       ??_C@_1BI@JADLCDAP@?$AAv?$AAe?$AAr?$AAs?$AAi?$AAo?$AAn?$AA?4?$AAd?$AAl?$AAl@ 0000000180185610     functions.obj
 0002:0000e628       ??_C@_0P@BMNOKKJF@VerQueryValueW@ 0000000180185628     functions.obj
 0002:0000e638       ??_C@_13FPGAJAPJ@?$AA?2@   0000000180185638     functions.obj
 0002:0000e640       ??_C@_0BF@HANKKIJA@SetThreadDescription@ 0000000180185640     functions.obj
 0002:0000e660       ??_7?$__func@V<lambda_1>@?1???$ExpandEnvironmentStringsW@V?$basic_string@_WU?$char_traits@_W@std@@V?$allocator@_W@2@@std@@$0BAA@@wil@@YAJPEB_WAEAV?$basic_string@_WU?$char_traits@_W@std@@V?$allocator@_W@2@@std@@@Z@$$A6AJPEA_W_KPEA_K@Z@__function@wistd@@6B@ 0000000180185660     functions.obj
 0002:0000e690       ??_7?$__base@$$A6AJPEA_W_KPEA_K@Z@__function@wistd@@6B@ 0000000180185690     functions.obj
 0002:0000e6b8       ??_C@_0BN@OFDOGPDL@invalid?5string_view?5position@ 00000001801856b8     functions.obj
 0002:0000e6d8       ??_C@_0CF@JDAAONOL@shared?2libraries?2wil?2win32_help@ 00000001801856d8     functions.obj
 0002:0000e700       ??_C@_1BA@LEPJIIOK@?$AAU?$AAn?$AAk?$AAn?$AAo?$AAw?$AAn@ 0000000180185700     injection_monitor.obj
 0002:0000e710       ??_C@_19EOHDNDII@?$AAR?$AAe?$AAa?$AAd@ 0000000180185710     injection_monitor.obj
 0002:0000e720       ??_C@_1M@GNJKCMMA@?$AAW?$AAr?$AAi?$AAt?$AAe@ 0000000180185720     injection_monitor.obj
 0002:0000e730       ??_C@_1BA@GMIPEBEM@?$AAE?$AAx?$AAe?$AAc?$AAu?$AAt?$AAe@ 0000000180185730     injection_monitor.obj
 0002:0000e740       ??_C@_0BN@KADMGPJM@InjectionMonitor?3?3VehHandler@ 0000000180185740     injection_monitor.obj
 0002:0000e760       ??_C@_1NC@DEMJNABA@?$AA?$FL?$AAW?$AAH?$AA?$FN?$AA?5?$AA?$FL?$AA?$CF?$AAS?$AA?$FN?$AA?3?$AA?5?$AA?$FL?$AAH?$AAo?$AAo@ 0000000180185760     injection_monitor.obj
 0002:0000e838       ??_C@_0BN@HHCFNBIN@InjectionMonitor?3?3Initialize@ 0000000180185838     injection_monitor.obj
 0002:0000e860       ??_C@_1FI@LFANCLJA@?$AA?$FL?$AAW?$AAH?$AA?$FN?$AA?5?$AA?$FL?$AA?$CF?$AAS?$AA?$FN?$AA?3?$AA?5?$AAI?$AAn?$AAj?$AAe@ 0000000180185860     injection_monitor.obj
 0002:0000e8c0       ??_C@_1GI@CCGJEDEF@?$AA?$FL?$AAW?$AAH?$AA?$FN?$AA?5?$AA?$FL?$AA?$CF?$AAS?$AA?$FN?$AA?3?$AA?5?$AAF?$AAa?$AAi?$AAl@ 00000001801858c0     injection_monitor.obj
 0002:0000e928       ??_C@_0CF@FIJELLOA@InjectionMonitor?3?3RegisterHookR@ 0000000180185928     injection_monitor.obj
 0002:0000e950       ??_C@_1GO@BDODFKBH@?$AA?$FL?$AAW?$AAH?$AA?$FN?$AA?5?$AA?$FL?$AA?$CF?$AAS?$AA?$FN?$AA?3?$AA?5?$AAF?$AAa?$AAi?$AAl@ 0000000180185950     injection_monitor.obj
 0002:0000e9c0       ??_C@_1IA@LHCECGLG@?$AA?$FL?$AAW?$AAH?$AA?$FN?$AA?5?$AA?$FL?$AA?$CF?$AAS?$AA?$FN?$AA?3?$AA?5?$AAR?$AAe?$AAg?$AAi@ 00000001801859c0     injection_monitor.obj
 0002:0000ea40       ??_C@_0BL@GOIGLPKN@unordered_map?1set?5too?5long@ 0000000180185a40     injection_monitor.obj
 0002:0000ea60       ??_C@_0BK@OGNNAFAB@invalid?5hash?5bucket?5count@ 0000000180185a60     injection_monitor.obj
 0002:0000ea80       ??_C@_1CC@EPFAMDMB@?$AAL?$AAo?$AAg?$AAg?$AAi?$AAn?$AAg?$AAV?$AAe?$AAr?$AAb?$AAo?$AAs?$AAi?$AAt@ 0000000180185a80     logger.obj
 0002:0000eaa8       ??_C@_0P@NHEEEMO@FlsAlloc?5error@ 0000000180185aa8     logger.obj
 0002:0000eac0       ??_7?$_Func_impl_no_alloc@U?$default_delete@V?$optional@W4Verbosity@LoggerBase@@@std@@@std@@XPEAV?$optional@W4Verbosity@LoggerBase@@@2@@std@@6B@ 0000000180185ac0     logger.obj
 0002:0000eaf8       ??_7?$_Func_impl_no_alloc@V<lambda_5_>@?0???0?$ThreadLocal@V?$optional@W4Verbosity@LoggerBase@@@std@@@@QEAA@XZ@PEAV?$optional@W4Verbosity@LoggerBase@@@std@@$$V@std@@6B@ 0000000180185af8     logger.obj
 0002:0000eb28       ??_C@_06FHFOAHML@system@   0000000180185b28     logger.obj
 0002:0000eb30       ?_Unknown_error@?6??message@_System_error_category@std@@UEBA?AV?$basic_string@DU?$char_traits@D@std@@V?$allocator@D@2@@3@H@Z@4QBDB 0000000180185b30     logger.obj
 0002:0000eb40       ??_C@_07DCLBNMLN@generic@  0000000180185b40     logger.obj
 0002:0000eb50       ??_7_System_error_category@std@@6B@ 0000000180185b50     logger.obj
 0002:0000eb80       ??_C@_02LMMGGCAJ@?3?5@     0000000180185b80     logger.obj
 0002:0000eb90       ??_C@_0EC@FPACEJAO@?$GAanonymous?9namespace?8?3?3ModDebug@ 0000000180185b90     mod.obj
 0002:0000ebd8       ??_C@_1DI@FDIPNKDM@?$AA?$FL?$AAW?$AAH?$AA?$FN?$AA?5?$AA?$FL?$AA?$CF?$AAS?$AA?$FN?$AA?3?$AA?5?$AA?$DO?$AA?$DO?$AA?$DO?$AA?5@ 0000000180185bd8     mod.obj
 0002:0000ec10       ??_C@_0ED@IFAJIPBG@?$GAanonymous?9namespace?8?3?3ModDebug@ 0000000180185c10     mod.obj
 0002:0000ec58       ??_C@_1DG@KEGIJEBK@?$AA?$FL?$AAW?$AAH?$AA?$FN?$AA?5?$AA?$FL?$AA?$CF?$AAS?$AA?$FN?$AA?3?$AA?5?$AA?$DM?$AA?$DM?$AA?$DM?$AA?5@ 0000000180185c58     mod.obj
 0002:0000ec90       ??_C@_0DE@JHEIDOCF@?$GAanonymous?9namespace?8?3?3CrossMod@ 0000000180185c90     mod.obj
 0002:0000ecc8       ??_C@_1BO@CJDPGKLP@?$AA?$FL?$AAW?$AAH?$AA?$FN?$AA?5?$AA?$FL?$AA?$CF?$AAS?$AA?$FN?$AA?3?$AA?5?$AA?$CF?$AAS?$AA?6@ 0000000180185cc8     mod.obj
 0002:0000ece8       ??_C@_0P@PAHLILCK@engine?2mod?4cpp@ 0000000180185ce8     mod.obj
 0002:0000ecf8       ??_C@_13ENNFDPBH@?$AA_@    0000000180185cf8     mod.obj
 0002:0000ed00       ??_C@_1O@EPKDGFAP@?$AAx?$AA8?$AA6?$AA?9?$AA6?$AA4@ 0000000180185d00     mod.obj
 0002:0000ed10       ??_C@_1M@CDOFHCHO@?$AAa?$AAr?$AAm?$AA6?$AA4@ 0000000180185d10     mod.obj
 0002:0000ed20       ??_C@_1BA@LIACFDLB@?$AAV?$AAe?$AAr?$AAs?$AAi?$AAo?$AAn@ 0000000180185d20     mod.obj
 0002:0000ed30       ??_C@_13IMODFHAA@?$AA?9@   0000000180185d30     mod.obj
 0002:0000ed38       ??_C@_1CI@HEMOPGAP@?$AAs?$AAt?$AAa?$AAr?$AAt?$AA?9?$AAm?$AAe?$AAn?$AAu?$AA?9?$AAa?$AAl?$AAl?$AA?9@ 0000000180185d38     mod.obj
 0002:0000ed60       ??_C@_17BODHOPJC@?$AA1?$AA?4?$AA0@ 0000000180185d60     mod.obj
 0002:0000ed68       ??_C@_1M@KKMONIGH@?$AA1?$AA?4?$AA0?$AA?4?$AA1@ 0000000180185d68     mod.obj
 0002:0000ed78       ??_C@_1CK@DFOIIMGI@?$AAt?$AAa?$AAs?$AAk?$AAb?$AAa?$AAr?$AA?9?$AAb?$AAu?$AAt?$AAt?$AAo?$AAn?$AA?9@ 0000000180185d78     mod.obj
 0002:0000eda8       ??_C@_1DI@CHBMBGCK@?$AAt?$AAa?$AAs?$AAk?$AAb?$AAa?$AAr?$AA?9?$AAc?$AAl?$AAo?$AAc?$AAk?$AA?9?$AAc@ 0000000180185da8     mod.obj
 0002:0000ede0       ??_C@_1M@LIHLHHIJ@?$AA1?$AA?4?$AA0?$AA?4?$AA2@ 0000000180185de0     mod.obj
 0002:0000edf0       ??_C@_1M@MHBAOM@?$AA1?$AA?4?$AA0?$AA?4?$AA3@ 0000000180185df0     mod.obj
 0002:0000ee00       ??_C@_1M@JNBACIFF@?$AA1?$AA?4?$AA0?$AA?4?$AA4@ 0000000180185e00     mod.obj
 0002:0000ee10       ??_C@_1M@CFKMEPDA@?$AA1?$AA?4?$AA0?$AA?4?$AA5@ 0000000180185e10     mod.obj
 0002:0000ee20       ??_C@_1CC@ILNPLFL@?$AAt?$AAa?$AAs?$AAk?$AAb?$AAa?$AAr?$AA?9?$AAg?$AAr?$AAo?$AAu?$AAp?$AAi?$AAn@ 0000000180185e20     mod.obj
 0002:0000ee48       ??_C@_1CE@KJIOFEAH@?$AAt?$AAa?$AAs?$AAk?$AAb?$AAa?$AAr?$AA?9?$AAi?$AAc?$AAo?$AAn?$AA?9?$AAs?$AAi@ 0000000180185e48     mod.obj
 0002:0000ee70       ??_C@_1BO@DGLKOHAB@?$AAt?$AAa?$AAs?$AAk?$AAb?$AAa?$AAr?$AA?9?$AAl?$AAa?$AAb?$AAe?$AAl?$AAs@ 0000000180185e70     mod.obj
 0002:0000ee90       ??_C@_1DE@HOOMCEJM@?$AAt?$AAa?$AAs?$AAk?$AAb?$AAa?$AAr?$AA?9?$AAt?$AAh?$AAu?$AAm?$AAb?$AAn?$AAa@ 0000000180185e90     mod.obj
 0002:0000eec8       ??_C@_1O@BABJODAP@?$AAl?$AAo?$AAc?$AAa?$AAl?$AA?$EA@ 0000000180185ec8     mod.obj
 0002:0000eee0       ??_C@_0ED@GKIJGNNP@_ZN13WindhawkUtils11HookSymbols@ 0000000180185ee0     mod.obj
 0002:0000ef30       ??_C@_0GA@NAFEAKO@_ZN13WindhawkUtils11HookSymbols@ 0000000180185f30     mod.obj
 0002:0000ef90       ??_C@_0CO@GGMNFFLP@_Z11HookSymbolsP11HINSTANCE__PK@ 0000000180185f90     mod.obj
 0002:0000efc0       ??_C@_0EF@JHMGHDPK@_Z34HookSymbolsWithOnlineCacheF@ 0000000180185fc0     mod.obj
 0002:0000f008       ??_C@_0DH@IMCPJBKE@_Z15CmwfHookSymbolsP11HINSTANCE@ 0000000180186008     mod.obj
 0002:0000f040       ??_C@_0EJ@LGLACAKP@_ZN13WindhawkUtils11HookSymbols@ 0000000180186040     mod.obj
 0002:0000f090       ??_C@_0GO@DEDLPJF@_ZN13WindhawkUtils11HookSymbols@ 0000000180186090     mod.obj
 0002:0000f100       ??_C@_1O@MMEACLKK@?$AAe?$AAr?$AAr?$AAo?$AAr?$AA?3@ 0000000180186100     mod.obj
 0002:0000f110       ??_C@_0DM@KGAJFPID@?$GAanonymous?9namespace?8?3?3HookSymb@ 0000000180186110     mod.obj
 0002:0000f150       ??_C@_1EE@CDDPBOPM@?$AA?$FL?$AAW?$AAH?$AA?$FN?$AA?5?$AA?$FL?$AA?$CF?$AAS?$AA?$FN?$AA?3?$AA?5?$AAT?$AAo?$AA?5?$AAb@ 0000000180186150     mod.obj
 0002:0000f198       ??_C@_1DG@PBDCMBIN@?$AA?$FL?$AAW?$AAH?$AA?$FN?$AA?5?$AA?$FL?$AA?$CF?$AAS?$AA?$FN?$AA?3?$AA?5?$AAF?$AAo?$AAu?$AAn@ 0000000180186198     mod.obj
 0002:0000f1d0       ??_C@_1BI@LNPACGDA@?$AAS?$AAy?$AAm?$AAb?$AAo?$AAl?$AAC?$AAa?$AAc?$AAh?$AAe@ 00000001801861d0     mod.obj
 0002:0000f1f0       ??_C@_0ED@JPAPPDDC@?$GAanonymous?9namespace?8?3?3HookSymb@ 00000001801861f0     mod.obj
 0002:0000f240       ??_C@_1FE@OIFFLCLG@?$AA?$FL?$AAW?$AAH?$AA?$FN?$AA?5?$AA?$FL?$AA?$CF?$AAS?$AA?$FN?$AA?3?$AA?5?$AAU?$AAs?$AAi?$AAn@ 0000000180186240     mod.obj
 0002:0000f298       ??_C@_0DO@OFPCGNB@?$GAanonymous?9namespace?8?3?3HookSymb@ 0000000180186298     mod.obj
 0002:0000f2e0       ??_C@_0FC@INJFNLAD@?$GAanonymous?9namespace?8?3?3HookSymb@ 00000001801862e0     mod.obj
 0002:0000f338       ??_C@_0DN@BOILKIBG@?$GAanonymous?9namespace?8?3?3HookSymb@ 0000000180186338     mod.obj
 0002:0000f378       ??_C@_1DG@GBDPDCMC@?$AA?$FL?$AAW?$AAH?$AA?$FN?$AA?5?$AA?$FL?$AA?$CF?$AAS?$AA?$FN?$AA?3?$AA?5?$AAA?$AAp?$AAp?$AAl@ 0000000180186378     mod.obj
 0002:0000f3b0       ??_C@_0EN@OHEGFJDB@?$GAanonymous?9namespace?8?3?3HookSymb@ 00000001801863b0     mod.obj
 0002:0000f400       ??_C@_1CO@OICDLOII@?$AA?$FL?$AAW?$AAH?$AA?$FN?$AA?5?$AA?$FL?$AA?$CF?$AAS?$AA?$FN?$AA?3?$AA?5?$AAM?$AAo?$AAd?$AAu@ 0000000180186400     mod.obj
 0002:0000f430       ??_C@_1CK@DDGMBLMJ@?$AA?$FL?$AAW?$AAH?$AA?$FN?$AA?5?$AA?$FL?$AA?$CF?$AAS?$AA?$FN?$AA?3?$AA?5?$AAP?$AAa?$AAt?$AAh@ 0000000180186430     mod.obj
 0002:0000f460       ??_C@_1DA@PBKOJHBP@?$AA?$FL?$AAW?$AAH?$AA?$FN?$AA?5?$AA?$FL?$AA?$CF?$AAS?$AA?$FN?$AA?3?$AA?5?$AAV?$AAe?$AAr?$AAs@ 0000000180186460     mod.obj
 0002:0000f490       ??_C@_1FO@HKOEALMA@?$AA?$CF?$AA0?$AA8?$AAX?$AA?$CF?$AA0?$AA4?$AAX?$AA?$CF?$AA0?$AA4?$AAX?$AA?$CF?$AA0?$AA2@ 0000000180186490     mod.obj
 0002:0000f4f0       ??_C@_19GIMPANPF@?$AAp?$AAd?$AAb?$AA_@ 00000001801864f0     mod.obj
 0002:0000f500       ??_C@_1BC@MMJCMAGC@?$AA_?$AAh?$AAy?$AAb?$AAr?$AAi?$AAd?$AA?9@ 0000000180186500     mod.obj
 0002:0000f518       ??_C@_17PNNKDABL@?$AAp?$AAe?$AA_@ 0000000180186518     mod.obj
 0002:0000f520       ??_C@_1BA@PDEIENOI@?$AA_?$AAh?$AAy?$AAb?$AAr?$AAi?$AAd@ 0000000180186520     mod.obj
 0002:0000f530       ??_C@_1M@BNADFHPB@?$AA?$CF?$AAs?$AAe?$AAp?$AA?$CF@ 0000000180186530     mod.obj
 0002:0000f540       ??_C@_1BK@MIHJMJHO@?$AAC?$AAu?$AAr?$AAr?$AAe?$AAn?$AAt?$AAB?$AAu?$AAi?$AAl?$AAd@ 0000000180186540     mod.obj
 0002:0000f560       ??_C@_1FK@EDIIEKBJ@?$AAS?$AAO?$AAF?$AAT?$AAW?$AAA?$AAR?$AAE?$AA?2?$AAM?$AAi?$AAc?$AAr?$AAo?$AAs@ 0000000180186560     mod.obj
 0002:0000f5c0       ??_C@_17KEIPLBHK@?$AAU?$AAB?$AAR@ 00000001801865c0     mod.obj
 0002:0000f5c8       ??_C@_15CMBHNMLL@?$AA?5?$AA?$CI@ 00000001801865c8     mod.obj
 0002:0000f5d0       ??_C@_0BF@HJJKEGON@LoadedMod?3?3LoadedMod@ 00000001801865d0     mod.obj
 0002:0000f5e8       ??_C@_1CO@PNCBJCLP@?$AA?$FL?$AAW?$AAH?$AA?$FN?$AA?5?$AA?$FL?$AA?$CF?$AAS?$AA?$FN?$AA?3?$AA?5?$AAW?$AAi?$AAn?$AAd@ 00000001801865e8     mod.obj
 0002:0000f620       ??_C@_1EE@LPGMOFNA@?$AA?$FL?$AAW?$AAH?$AA?$FN?$AA?5?$AA?$FL?$AA?$CF?$AAS?$AA?$FN?$AA?3?$AA?5?$AAW?$AAi?$AAn?$AAd@ 0000000180186620     mod.obj
 0002:0000f668       ??_C@_1CO@PJDFLNNJ@?$AA?$FL?$AAW?$AAH?$AA?$FN?$AA?5?$AA?$FL?$AA?$CF?$AAS?$AA?$FN?$AA?3?$AA?5?$AAM?$AAo?$AAd?$AA?5@ 0000000180186668     mod.obj
 0002:0000f698       ??_C@_1DI@BJDNEACD@?$AA?$FL?$AAW?$AAH?$AA?$FN?$AA?5?$AA?$FL?$AA?$CF?$AAS?$AA?$FN?$AA?3?$AA?5?$AAM?$AAo?$AAd?$AA?5@ 0000000180186698     mod.obj
 0002:0000f6d0       ??_C@_1EC@PILLHDBJ@?$AA?$FL?$AAW?$AAH?$AA?$FN?$AA?5?$AA?$FL?$AA?$CF?$AAS?$AA?$FN?$AA?3?$AA?5?$AAM?$AAo?$AAd?$AA?5@ 00000001801866d0     mod.obj
 0002:0000f718       ??_C@_0BB@PGDKCKED@InternalWhModPtr@ 0000000180186718     mod.obj
 0002:0000f730       ??_C@_1FO@DEEKIPCP@?$AA?$FL?$AAW?$AAH?$AA?$FN?$AA?5?$AA?$FL?$AA?$CF?$AAS?$AA?$FN?$AA?3?$AA?5?$AAM?$AAo?$AAd?$AA?5@ 0000000180186730     mod.obj
 0002:0000f790       ??_C@_1CO@HELKALHB@?$AA?$FL?$AAW?$AAH?$AA?$FN?$AA?5?$AA?$FL?$AA?$CF?$AAS?$AA?$FN?$AA?3?$AA?5?$AAM?$AAo?$AAd?$AA?5@ 0000000180186790     mod.obj
 0002:0000f7c0       ??_C@_0BG@CMIJCIOI@LoadedMod?3?3?$HOLoadedMod@ 00000001801867c0     mod.obj
 0002:0000f7e0       ??_C@_1GM@HPLKCHML@?$AA?$FL?$AAW?$AAH?$AA?$FN?$AA?5?$AA?$FL?$AA?$CF?$AAS?$AA?$FN?$AA?3?$AA?5?$AAM?$AAo?$AAd?$AA?5@ 00000001801867e0     mod.obj
 0002:0000f850       ??_C@_0BG@MHKBODPL@LoadedMod?3?3Initialize@ 0000000180186850     mod.obj
 0002:0000f868       ??_C@_0BE@LNLBJNNO@Already?5initialized@ 0000000180186868     mod.obj
 0002:0000f880       ??_C@_1CA@CPAJBOA@?$AAI?$AAn?$AAi?$AAt?$AAi?$AAa?$AAl?$AAi?$AAz?$AAi?$AAn?$AAg?$AA?4?$AA?4?$AA?4@ 0000000180186880     mod.obj
 0002:0000f8a0       ??_C@_1BO@JEAOPBAI@?$AAS?$AAa?$AAn?$AAd?$AAb?$AAo?$AAx?$AAC?$AAp?$AAu?$AAR?$AAa?$AAt?$AAe@ 00000001801868a0     mod.obj
 0002:0000f8c0       ??_C@_1CA@NFCDAAOK@?$AAS?$AAa?$AAn?$AAd?$AAb?$AAo?$AAx?$AAM?$AAe?$AAm?$AAo?$AAr?$AAy?$AAM?$AAB@ 00000001801868c0     mod.obj
 0002:0000f8e0       ??_C@_1CE@IDPEHBOJ@?$AAS?$AAa?$AAn?$AAd?$AAb?$AAo?$AAx?$AAM?$AAa?$AAx?$AAH?$AAa?$AAn?$AAd?$AAl@ 00000001801868e0     mod.obj
 0002:0000f910       ??_C@_1GC@HJHDKLAI@?$AA?$FL?$AAW?$AAH?$AA?$FN?$AA?5?$AA?$FL?$AA?$CF?$AAS?$AA?$FN?$AA?3?$AA?5?$AAA?$AAp?$AAp?$AAl@ 0000000180186910     mod.obj
 0002:0000f978       ??_C@_1BO@GHDAOEKG@?$AAU?$AAs?$AAe?$AAH?$AAw?$AAb?$AAp?$AAH?$AAo?$AAo?$AAk?$AAi?$AAn?$AAg@ 0000000180186978     mod.obj
 0002:0000f9a0       ??_C@_1II@IMIEECLF@?$AA?$FL?$AAW?$AAH?$AA?$FN?$AA?5?$AA?$FL?$AA?$CF?$AAS?$AA?$FN?$AA?3?$AA?5?$AAS?$AAt?$AAe?$AAa@ 00000001801869a0     mod.obj
 0002:0000fa28       ??_C@_0BA@FMCDNJEK@_Z10Wh_ModInitv@ 0000000180186a28     mod.obj
 0002:0000fa38       ??_C@_0BF@GJKBPIFI@LoadedMod?3?3AfterInit@ 0000000180186a38     mod.obj
 0002:0000fa50       ??_C@_0BF@FDMDBIDB@_Z15Wh_ModAfterInitv@ 0000000180186a50     mod.obj
 0002:0000fa68       ??_C@_0BI@GCJDPNAA@LoadedMod?3?3BeforeUninit@ 0000000180186a68     mod.obj
 0002:0000fa80       ??_C@_1CE@MNKCPMGJ@?$AAU?$AAn?$AAi?$AAn?$AAi?$AAt?$AAi?$AAa?$AAl?$AAi?$AAz?$AAi?$AAn?$AAg?$AA?4@ 0000000180186a80     mod.obj
 0002:0000faa8       ??_C@_0BI@DEIHADGH@_Z18Wh_ModBeforeUninitv@ 0000000180186aa8     mod.obj
 0002:0000fac0       ??_C@_1HI@OFLKGCLH@?$AA?$FL?$AAW?$AAH?$AA?$FN?$AA?5?$AA?$FL?$AA?$CF?$AAS?$AA?$FN?$AA?3?$AA?5?$AAM?$AAo?$AAd?$AA?5@ 0000000180186ac0     mod.obj
 0002:0000fb38       ??_C@_0BI@LONAHPGO@LoadedMod?3?3Uninitialize@ 0000000180186b38     mod.obj
 0002:0000fb50       ??_C@_0BC@HOLMNCDP@_Z12Wh_ModUninitv@ 0000000180186b50     mod.obj
 0002:0000fb68       ??_C@_0BL@BPHCAEHG@LoadedMod?3?3SettingsChanged@ 0000000180186b68     mod.obj
 0002:0000fb88       ??_C@_0BM@CNHELBPE@_Z21Wh_ModSettingsChangedPi@ 0000000180186b88     mod.obj
 0002:0000fba8       ??_C@_0BL@IBOOCDCH@_Z21Wh_ModSettingsChangedv@ 0000000180186ba8     mod.obj
 0002:0000fbc8       ??_C@_1BM@ODEOFMJK@?$AA?$FL?$AAW?$AAH?$AA?$FN?$AA?5?$AA?$FL?$AA?$CF?$AAs?$AA?$FN?$AA?5?$AA?$CF?$AAs?$AA?6@ 0000000180186bc8     mod.obj
 0002:0000fbe8       ??_C@_0BH@DGPKBCFL@LoadedMod?3?3GetIntValue@ 0000000180186be8     mod.obj
 0002:0000fc00       ??_C@_1DE@KAJMLPEL@?$AA?$FL?$AAW?$AAH?$AA?$FN?$AA?5?$AA?$FL?$AA?$CF?$AAS?$AA?$FN?$AA?3?$AA?5?$AAv?$AAa?$AAl?$AAu@ 0000000180186c00     mod.obj
 0002:0000fc38       ??_C@_1BK@KFPDIKCN@?$AAL?$AAo?$AAc?$AAa?$AAl?$AAS?$AAt?$AAo?$AAr?$AAa?$AAg?$AAe@ 0000000180186c38     mod.obj
 0002:0000fc58       ??_C@_1CM@DDPBFKK@?$AA?$FL?$AAW?$AAH?$AA?$FN?$AA?5?$AA?$FL?$AA?$CF?$AAS?$AA?$FN?$AA?3?$AA?5?$AAv?$AAa?$AAl?$AAu@ 0000000180186c58     mod.obj
 0002:0000fc88       ??_C@_0BH@DJOEMENI@LoadedMod?3?3SetIntValue@ 0000000180186c88     mod.obj
 0002:0000fca0       ??_C@_0BK@IHEKKGMM@LoadedMod?3?3GetStringValue@ 0000000180186ca0     mod.obj
 0002:0000fcc0       ??_C@_1CM@BNOMCHIJ@?$AA?$FL?$AAW?$AAH?$AA?$FN?$AA?5?$AA?$FL?$AA?$CF?$AAS?$AA?$FN?$AA?3?$AA?5?$AAv?$AAa?$AAl?$AAu@ 0000000180186cc0     mod.obj
 0002:0000fcf0       ??_C@_1FK@BFCHAKEN@?$AA?$FL?$AAW?$AAH?$AA?$FN?$AA?5?$AA?$FL?$AA?$CF?$AAS?$AA?$FN?$AA?3?$AA?5?$AAB?$AAu?$AAf?$AAf@ 0000000180186cf0     mod.obj
 0002:0000fd50       ??_C@_0BK@EJFEFMOA@LoadedMod?3?3SetStringValue@ 0000000180186d50     mod.obj
 0002:0000fd70       ??_C@_0BK@OPCKIOBK@LoadedMod?3?3GetBinaryValue@ 0000000180186d70     mod.obj
 0002:0000fd90       ??_C@_0BK@CBDEHEDG@LoadedMod?3?3SetBinaryValue@ 0000000180186d90     mod.obj
 0002:0000fdb0       ??_C@_0BH@DNAKMKJJ@LoadedMod?3?3DeleteValue@ 0000000180186db0     mod.obj
 0002:0000fdc8       ??_C@_0BN@JEDCEFN@LoadedMod?3?3GetModStoragePath@ 0000000180186dc8     mod.obj
 0002:0000fde8       ??_C@_0BJ@OGJPOEOO@LoadedMod?3?3GetIntSetting@ 0000000180186de8     mod.obj
 0002:0000fe10       ??_C@_1EG@ODGHADEM@?$AA?$FL?$AAW?$AAH?$AA?$FN?$AA?5?$AA?$FL?$AA?$CF?$AAS?$AA?$FN?$AA?3?$AA?5?$AAv?$AAa?$AAl?$AAu@ 0000000180186e10     mod.obj
 0002:0000fe58       ??_C@_0BM@BEJDDOBG@LoadedMod?3?3GetStringSetting@ 0000000180186e58     mod.obj
 0002:0000fe78       ??_C@_0BN@PLLHCENB@LoadedMod?3?3FreeStringSetting@ 0000000180186e78     mod.obj
 0002:0000fe98       ??_C@_0BL@EBLCKIEL@LoadedMod?3?3SetFunctionHook@ 0000000180186e98     mod.obj
 0002:0000feb8       ??_C@_1CO@GGIGDGAD@?$AA?$FL?$AAW?$AAH?$AA?$FN?$AA?5?$AA?$FL?$AA?$CF?$AAS?$AA?$FN?$AA?3?$AA?5?$AAT?$AAa?$AAr?$AAg@ 0000000180186eb8     mod.obj
 0002:0000fee8       ??_C@_1CK@BBFFDGIB@?$AA?$FL?$AAW?$AAH?$AA?$FN?$AA?5?$AA?$FL?$AA?$CF?$AAS?$AA?$FN?$AA?3?$AA?5?$AAH?$AAo?$AAo?$AAk@ 0000000180186ee8     mod.obj
 0002:0000ff20       ??_C@_1GK@EPJNNMD@?$AA?$FL?$AAW?$AAH?$AA?$FN?$AA?5?$AA?$FL?$AA?$CF?$AAS?$AA?$FN?$AA?3?$AA?5?$AAU?$AAn?$AAi?$AAn@ 0000000180186f20     mod.obj
 0002:0000ff90       ??_C@_1GM@MJJBGIAP@?$AA?$FL?$AAW?$AAH?$AA?$FN?$AA?5?$AA?$FL?$AA?$CF?$AAS?$AA?$FN?$AA?3?$AA?5?$AAM?$AAo?$AAd?$AA?5@ 0000000180186f90     mod.obj
 0002:00010000       ??_C@_1HG@ELEENOBK@?$AA?$FL?$AAW?$AAH?$AA?$FN?$AA?5?$AA?$FL?$AA?$CF?$AAS?$AA?$FN?$AA?3?$AA?5?$AAM?$AAo?$AAd?$AA?5@ 0000000180187000     mod.obj
 0002:00010078       ??_C@_0BO@OLEBILBI@LoadedMod?3?3RemoveFunctionHook@ 0000000180187078     mod.obj
 0002:000100a0       ??_C@_1HC@GOILHHHO@?$AA?$FL?$AAW?$AAH?$AA?$FN?$AA?5?$AA?$FL?$AA?$CF?$AAS?$AA?$FN?$AA?3?$AA?5?$AAN?$AAo?$AAt?$AA?5@ 00000001801870a0     mod.obj
 0002:00010120       ??_C@_1HA@EHEEBLEE@?$AA?$FL?$AAW?$AAH?$AA?$FN?$AA?5?$AA?$FL?$AA?$CF?$AAS?$AA?$FN?$AA?3?$AA?5?$AAU?$AAn?$AAi?$AAn@ 0000000180187120     mod.obj
 0002:00010190       ??_C@_0BP@PMNEJKOM@LoadedMod?3?3ApplyHookOperations@ 0000000180187190     mod.obj
 0002:000101b0       ??_C@_1HA@LMJOGLNI@?$AA?$FL?$AAW?$AAH?$AA?$FN?$AA?5?$AA?$FL?$AA?$CF?$AAS?$AA?$FN?$AA?3?$AA?5?$AAN?$AAo?$AAt?$AA?5@ 00000001801871b0     mod.obj
 0002:00010220       ??_C@_1GO@HFPDFHAH@?$AA?$FL?$AAW?$AAH?$AA?$FN?$AA?5?$AA?$FL?$AA?$CF?$AAS?$AA?$FN?$AA?3?$AA?5?$AAU?$AAn?$AAi?$AAn@ 0000000180187220     mod.obj
 0002:00010290       ??_C@_1GO@BDLAGCMH@?$AA?$FL?$AAW?$AAH?$AA?$FN?$AA?5?$AA?$FL?$AA?$CF?$AAS?$AA?$FN?$AA?3?$AA?5?$AAM?$AAo?$AAd?$AA?5@ 0000000180187290     mod.obj
 0002:00010300       ??_C@_1HO@BAPLEFJC@?$AA?$FL?$AAW?$AAH?$AA?$FN?$AA?5?$AA?$FL?$AA?$CF?$AAS?$AA?$FN?$AA?3?$AA?5?$AAM?$AAo?$AAd?$AA?5@ 0000000180187300     mod.obj
 0002:00010380       ??_C@_0DF@EPGGDAMI@LoadedMod?3?3FindFirstSymbol4?3?3?$DMl@ 0000000180187380     mod.obj
 0002:000103b8       ??_C@_13DIBMAFH@?$AA?$CJ@  00000001801873b8     mod.obj
 0002:000103c0       ??_C@_17EJGBMOED@?$AA?$CF?$AA?5?$AA?$CI@ 00000001801873c0     mod.obj
 0002:000103d0       ??_C@_1CI@OFMIJKMG@?$AAL?$AAo?$AAa?$AAd?$AAi?$AAn?$AAg?$AA?5?$AAs?$AAy?$AAm?$AAb?$AAo?$AAl?$AAs@ 00000001801873d0     mod.obj
 0002:000103f8       ??_C@_0DF@OBAOKBFJ@LoadedMod?3?3FindFirstSymbol4?3?3?$DMl@ 00000001801873f8     mod.obj
 0002:00010430       ??_C@_0BM@NFHKEOKL@LoadedMod?3?3FindFirstSymbol4@ 0000000180187430     mod.obj
 0002:00010450       ??_C@_1HA@EGPBMHME@?$AA?$FL?$AAW?$AAH?$AA?$FN?$AA?5?$AA?$FL?$AA?$CF?$AAS?$AA?$FN?$AA?3?$AA?5?$AAU?$AAn?$AAs?$AAu@ 0000000180187450     mod.obj
 0002:000104c0       ??_C@_1BA@FCPOJOJP@?$AA?5?$AA?$CI?$AAm?$AAa?$AAi?$AAn?$AA?$CJ@ 00000001801874c0     mod.obj
 0002:000104d0       ??_C@_1DC@DFAILPBE@?$AA?$FL?$AAW?$AAH?$AA?$FN?$AA?5?$AA?$FL?$AA?$CF?$AAS?$AA?$FN?$AA?3?$AA?5?$AAM?$AAo?$AAd?$AAu@ 00000001801874d0     mod.obj
 0002:00010510       ??_C@_1CK@OIPMGIIL@?$AAL?$AAo?$AAa?$AAd?$AAi?$AAn?$AAg?$AA?5?$AAs?$AAy?$AAm?$AAb?$AAo?$AAl?$AAs@ 0000000180187510     mod.obj
 0002:00010540       ??_C@_1IG@DFFPGOCH@?$AAS?$AAy?$AAm?$AAb?$AAo?$AAl?$AAL?$AAo?$AAa?$AAd?$AAL?$AAo?$AAc?$AAk?$AAM@ 0000000180187540     mod.obj
 0002:000105d0       ??_C@_1GC@MNBNLAFF@?$AA?$FL?$AAW?$AAH?$AA?$FN?$AA?5?$AA?$FL?$AA?$CF?$AAS?$AA?$FN?$AA?3?$AA?5?$AAF?$AAa?$AAi?$AAl@ 00000001801875d0     mod.obj
 0002:00010640       ??_C@_1DC@HGAHMPAE@?$AAW?$AAa?$AAi?$AAt?$AAi?$AAn?$AAg?$AA?5?$AAf?$AAo?$AAr?$AA?5?$AAs?$AAy?$AAm@ 0000000180187640     mod.obj
 0002:00010680       ??_C@_1EI@JOHCLEEI@?$AA?$FL?$AAW?$AAH?$AA?$FN?$AA?5?$AA?$FL?$AA?$CF?$AAS?$AA?$FN?$AA?3?$AA?5?$AAA?$AAb?$AAo?$AAr@ 0000000180187680     mod.obj
 0002:000106c8       ??_C@_1DK@LAMLAHAF@?$AA?$FL?$AAW?$AAH?$AA?$FN?$AA?5?$AA?$FL?$AA?$CF?$AAS?$AA?$FN?$AA?3?$AA?5?$AAN?$AAo?$AA?5?$AAs@ 00000001801876c8     mod.obj
 0002:00010708       ??_C@_0BL@LAAOFLCI@LoadedMod?3?3FindCloseSymbol@ 0000000180187708     mod.obj
 0002:00010728       ??_C@_0BH@JOFACNIA@LoadedMod?3?3HookSymbols@ 0000000180187728     mod.obj
 0002:00010740       ??_C@_1EE@EKKKCGJK@?$AA?$FL?$AAW?$AAH?$AA?$FN?$AA?5?$AA?$FL?$AA?$CF?$AAS?$AA?$FN?$AA?3?$AA?5?$AAM?$AAo?$AAd?$AAu@ 0000000180187740     mod.obj
 0002:00010790       ??_C@_1EA@EKIMPHEI@?$AA?$FL?$AAW?$AAH?$AA?$FN?$AA?5?$AA?$FL?$AA?$CF?$AAS?$AA?$FN?$AA?3?$AA?5?$AAs?$AAy?$AAm?$AAb@ 0000000180187790     mod.obj
 0002:000107d0       ??_C@_1GM@PDIPDHFL@?$AA?$FL?$AAW?$AAH?$AA?$FN?$AA?5?$AA?$FL?$AA?$CF?$AAS?$AA?$FN?$AA?3?$AA?5?$AAR?$AAe?$AAt?$AAu@ 00000001801877d0     mod.obj
 0002:00010840       ??_C@_1HE@PGLPPEGF@?$AA?$FL?$AAW?$AAH?$AA?$FN?$AA?5?$AA?$FL?$AA?$CF?$AAS?$AA?$FN?$AA?3?$AA?5?$AAC?$AAo?$AAu?$AAl@ 0000000180187840     mod.obj
 0002:000108b8       ??_C@_1DG@EJDEIBJ@?$AAS?$AAy?$AAm?$AAb?$AAo?$AAl?$AAG?$AAe?$AAt?$AAO?$AAn?$AAl?$AAi?$AAn?$AAe@ 00000001801878b8     mod.obj
 0002:000108f0       ??_C@_1GE@JDIKCGBP@?$AA?$FL?$AAW?$AAH?$AA?$FN?$AA?5?$AA?$FL?$AA?$CF?$AAS?$AA?$FN?$AA?3?$AA?5?$AAC?$AAo?$AAu?$AAl@ 00000001801878f0     mod.obj
 0002:00010960       ??_C@_1GC@NKBAKPHB@?$AA?$FL?$AAW?$AAH?$AA?$FN?$AA?5?$AA?$FL?$AA?$CF?$AAS?$AA?$FN?$AA?3?$AA?5?$AAU?$AAs?$AAi?$AAn@ 0000000180187960     mod.obj
 0002:000109d0       ??_C@_1HG@HGGPBPNN@?$AA?$FL?$AAW?$AAH?$AA?$FN?$AA?5?$AA?$FL?$AA?$CF?$AAS?$AA?$FN?$AA?3?$AA?5?$AAC?$AAo?$AAu?$AAl@ 00000001801879d0     mod.obj
 0002:00010a48       ??_C@_0BC@CMOFIDGI@LoadedMod?3?3Disasm@ 0000000180187a48     mod.obj
 0002:00010a60       ??_C@_1JA@JOILBMDE@?$AA?$FL?$AAW?$AAH?$AA?$FN?$AA?5?$AA?$FL?$AA?$CF?$AAS?$AA?$FN?$AA?3?$AA?5?$AAM?$AAo?$AAd?$AA?5@ 0000000180187a60     mod.obj
 0002:00010af0       ??_C@_1BI@DHLGAPDE@?$AAw?$AAi?$AAn?$AAh?$AAt?$AAt?$AAp?$AA?4?$AAd?$AAl?$AAl@ 0000000180187af0     mod.obj
 0002:00010b08       ??_C@_0DN@IFBDILGM@LoadedMod?3?3GetUrlContent?3?3WinHt@ 0000000180187b08     mod.obj
 0002:00010b50       ??_C@_1EO@HLFHNNLN@?$AA?$FL?$AAW?$AAH?$AA?$FN?$AA?5?$AA?$FL?$AA?$CF?$AAS?$AA?$FN?$AA?3?$AA?5?$AAF?$AAa?$AAi?$AAl@ 0000000180187b50     mod.obj
 0002:00010ba0       ??_C@_0BD@JHEHAPIO@WinHttpCloseHandle@ 0000000180187ba0     mod.obj
 0002:00010bb8       ??_C@_0M@HCNFPBAH@WinHttpOpen@ 0000000180187bb8     mod.obj
 0002:00010bc8       ??_C@_0P@FPJFCHEB@WinHttpConnect@ 0000000180187bc8     mod.obj
 0002:00010bd8       ??_C@_0BE@GNIOOJIH@WinHttpQueryHeaders@ 0000000180187bd8     mod.obj
 0002:00010bf0       ??_C@_0BH@OJNKOBKL@WinHttpReceiveResponse@ 0000000180187bf0     mod.obj
 0002:00010c08       ??_C@_0BD@OOKJOHJ@WinHttpSendRequest@ 0000000180187c08     mod.obj
 0002:00010c20       ??_C@_0BD@LFJHCHOE@WinHttpOpenRequest@ 0000000180187c20     mod.obj
 0002:00010c38       ??_C@_0BK@EMLOBLJE@WinHttpQueryDataAvailable@ 0000000180187c38     mod.obj
 0002:00010c58       ??_C@_0BA@FGGCGJIN@WinHttpReadData@ 0000000180187c58     mod.obj
 0002:00010c68       ??_C@_0BA@LFJOCOJ@WinHttpCrackUrl@ 0000000180187c68     mod.obj
 0002:00010c80       ??_C@_1GI@MKELPLEJ@?$AA?$FL?$AAW?$AAH?$AA?$FN?$AA?5?$AA?$FL?$AA?$CF?$AAS?$AA?$FN?$AA?3?$AA?5?$AAF?$AAa?$AAi?$AAl@ 0000000180187c80     mod.obj
 0002:00010ce8       ??_C@_0BJ@DJEGICFP@LoadedMod?3?3GetUrlContent@ 0000000180187ce8     mod.obj
 0002:00010d08       ??_C@_1CI@IMNNHBAC@?$AA?$FL?$AAW?$AAH?$AA?$FN?$AA?5?$AA?$FL?$AA?$CF?$AAS?$AA?$FN?$AA?3?$AA?5?$AAU?$AAR?$AAL?$AA?3@ 0000000180187d08     mod.obj
 0002:00010d30       ??_C@_1O@HBJEMMOJ@?$AA?$CI?$AAn?$AAo?$AAn?$AAe?$AA?$CJ@ 0000000180187d30     mod.obj
 0002:00010d40       ??_C@_1EC@LFEABJJD@?$AA?$FL?$AAW?$AAH?$AA?$FN?$AA?5?$AA?$FL?$AA?$CF?$AAS?$AA?$FN?$AA?3?$AA?5?$AAT?$AAa?$AAr?$AAg@ 0000000180187d40     mod.obj
 0002:00010d90       ??_C@_1GA@HBFCEDMK@?$AA?$FL?$AAW?$AAH?$AA?$FN?$AA?5?$AA?$FL?$AA?$CF?$AAS?$AA?$FN?$AA?3?$AA?5?$AAW?$AAi?$AAn?$AAH@ 0000000180187d90     mod.obj
 0002:00010df0       ??_C@_1BO@KCPGGCB@?$AAW?$AAi?$AAn?$AAd?$AAh?$AAa?$AAw?$AAk?$AA?1?$AA1?$AA?4?$AA7?$AA?4?$AA3@ 0000000180187df0     mod.obj
 0002:00010e10       ??_C@_17KCHPOIEI@?$AAG?$AAE?$AAT@ 0000000180187e10     mod.obj
 0002:00010e18       ??_C@_0BK@INNJJGLC@LoadedMod?3?3FreeUrlContent@ 0000000180187e18     mod.obj
 0002:00010e40       ??_C@_1HG@FIBCCOAO@?$AAh?$AAt?$AAt?$AAp?$AAs?$AA?3?$AA?1?$AA?1?$AAr?$AAa?$AAm?$AAe?$AAn?$AAs?$AAo@ 0000000180187e40     mod.obj
 0002:00010eb8       ??_C@_0CF@NOBACLNL@LoadedMod?3?3HookSymbolsGetOnline@ 0000000180187eb8     mod.obj
 0002:00010ee0       ??_C@_1FC@ONGLHBL@?$AA?$FL?$AAW?$AAH?$AA?$FN?$AA?5?$AA?$FL?$AA?$CF?$AAS?$AA?$FN?$AA?3?$AA?5?$AAS?$AAk?$AAi?$AAp@ 0000000180187ee0     mod.obj
 0002:00010f38       ??_C@_19GGNHIDOH@?$AA?4?$AAt?$AAx?$AAt@ 0000000180187f38     mod.obj
 0002:00010f50       ??_C@_1GC@IHGDPGB@?$AA?$FL?$AAW?$AAH?$AA?$FN?$AA?5?$AA?$FL?$AA?$CF?$AAS?$AA?$FN?$AA?3?$AA?5?$AAA?$AAb?$AAo?$AAr@ 0000000180187f50     mod.obj
 0002:00010fc0       ??_C@_1GK@KAHDOL@?$AA?$FL?$AAW?$AAH?$AA?$FN?$AA?5?$AA?$FL?$AA?$CF?$AAS?$AA?$FN?$AA?3?$AA?5?$AAG?$AAe?$AAt?$AAt@ 0000000180187fc0     mod.obj
 0002:00011030       ??_C@_1FA@EDBGIPAE@?$AA?$FL?$AAW?$AAH?$AA?$FN?$AA?5?$AA?$FL?$AA?$CF?$AAS?$AA?$FN?$AA?3?$AA?5?$AAG?$AAe?$AAt?$AAt@ 0000000180188030     mod.obj
 0002:00011080       ??_C@_1GK@CKIGCCOE@?$AA?$FL?$AAW?$AAH?$AA?$FN?$AA?5?$AA?$FL?$AA?$CF?$AAS?$AA?$FN?$AA?3?$AA?5?$AAC?$AAo?$AAu?$AAl@ 0000000180188080     mod.obj
 0002:000110f0       ??_C@_1EG@MEIACHGE@?$AA?$FL?$AAW?$AAH?$AA?$FN?$AA?5?$AA?$FL?$AA?$CF?$AAS?$AA?$FN?$AA?3?$AA?5?$AAO?$AAn?$AAl?$AAi@ 00000001801880f0     mod.obj
 0002:00011140       ??_C@_1GG@MENDMHGN@?$AA?$FL?$AAW?$AAH?$AA?$FN?$AA?5?$AA?$FL?$AA?$CF?$AAS?$AA?$FN?$AA?3?$AA?5?$AAO?$AAn?$AAl?$AAi@ 0000000180188140     mod.obj
 0002:000111b0       ??_C@_1BAA@MGMAIJDG@?$AA?$FL?$AAW?$AAH?$AA?$FN?$AA?5?$AA?$FL?$AA?$CF?$AAS?$AA?$FN?$AA?3?$AA?5?$AAI?$AAn?$AA?5?$AAc@ 00000001801881b0     mod.obj
 0002:000112b0       ??_C@_1BDC@JIFPHACN@?$AA?$FL?$AAW?$AAH?$AA?$FN?$AA?5?$AA?$FL?$AA?$CF?$AAS?$AA?$FN?$AA?3?$AA?5?$AAf?$AAo?$AAr?$AA?5@ 00000001801882b0     mod.obj
 0002:000113e8       ??_C@_1BC@KKLCINDK@?$AAm?$AAo?$AAd?$AA?9?$AAt?$AAa?$AAs?$AAk@ 00000001801883e8     mod.obj
 0002:00011400       ??_C@_0BD@OMPOPKOD@LoadedMod?3?3SetTask@ 0000000180188400     mod.obj
 0002:00011418       ??_C@_0BM@NKNLDAF@LoadedMod?3?3LogFunctionError@ 0000000180188418     mod.obj
 0002:00011438       ??_C@_1DK@HGMKDHMP@?$AA?$FL?$AAW?$AAH?$AA?$FN?$AA?5?$AA?$FL?$AA?$CF?$AAS?$AA?$FN?$AA?3?$AA?5?$AAM?$AAo?$AAd?$AA?5@ 0000000180188438     mod.obj
 0002:00011478       ??_C@_1BG@GCBDAABL@?$AAP?$AAe?$AAn?$AAd?$AAi?$AAn?$AAg?$AA?4?$AA?4?$AA?4@ 0000000180188478     mod.obj
 0002:00011490       ??_C@_1O@JJDHCMCP@?$AAL?$AAo?$AAa?$AAd?$AAe?$AAd@ 0000000180188490     mod.obj
 0002:000114a0       ??_C@_1BC@ILOENEMO@?$AAU?$AAn?$AAl?$AAo?$AAa?$AAd?$AAe?$AAd@ 00000001801884a0     mod.obj
 0002:000114b8       ??_C@_0P@JBFCGIKL@Already?5loaded@ 00000001801884b8     mod.obj
 0002:000114c8       ??_C@_1CA@JJCILGFB@?$AAL?$AAi?$AAb?$AAr?$AAa?$AAr?$AAy?$AAF?$AAi?$AAl?$AAe?$AAN?$AAa?$AAm?$AAe@ 00000001801884c8     mod.obj
 0002:000114e8       ??_C@_0BO@NJBKHGLO@Missing?5LibraryFileName?5value@ 00000001801884e8     mod.obj
 0002:00011508       ??_C@_1CG@OGMLJLAD@?$AAS?$AAe?$AAt?$AAt?$AAi?$AAn?$AAg?$AAs?$AAC?$AAh?$AAa?$AAn?$AAg?$AAe?$AAT@ 0000000180188508     mod.obj
 0002:00011530       ??_C@_1BO@MEGJABNJ@?$AAL?$AAo?$AAg?$AAg?$AAi?$AAn?$AAg?$AAE?$AAn?$AAa?$AAb?$AAl?$AAe?$AAd@ 0000000180188530     mod.obj
 0002:00011550       ??_C@_1CI@CHEFKADJ@?$AAD?$AAe?$AAb?$AAu?$AAg?$AAL?$AAo?$AAg?$AAg?$AAi?$AAn?$AAg?$AAE?$AAn?$AAa@ 0000000180188550     mod.obj
 0002:00011578       ??_C@_1BG@IPGMPLAM@?$AAL?$AAo?$AAa?$AAd?$AAi?$AAn?$AAg?$AA?4?$AA?4?$AA?4@ 0000000180188578     mod.obj
 0002:00011590       ??_C@_1BC@FGCJDNHA@?$AAD?$AAi?$AAs?$AAa?$AAb?$AAl?$AAe?$AAd@ 0000000180188590     mod.obj
 0002:000115a8       ??_C@_1BK@NGNFGMBN@?$AAA?$AAr?$AAc?$AAh?$AAi?$AAt?$AAe?$AAc?$AAt?$AAu?$AAr?$AAe@ 00000001801885a8     mod.obj
 0002:000115d0       ??_C@_1EK@BJBDAMDJ@?$AAP?$AAa?$AAt?$AAt?$AAe?$AAr?$AAn?$AAs?$AAM?$AAa?$AAt?$AAc?$AAh?$AAC?$AAr@ 00000001801885d0     mod.obj
 0002:00011620       ??_C@_1DC@FEPFJCAC@?$AAI?$AAn?$AAc?$AAl?$AAu?$AAd?$AAe?$AAE?$AAx?$AAc?$AAl?$AAu?$AAd?$AAe?$AAC@ 0000000180188620     mod.obj
 0002:00011658       ??_C@_1BA@EIDNBJKI@?$AAI?$AAn?$AAc?$AAl?$AAu?$AAd?$AAe@ 0000000180188658     mod.obj
 0002:00011668       ??_C@_1BM@NHLNIHFB@?$AAI?$AAn?$AAc?$AAl?$AAu?$AAd?$AAe?$AAC?$AAu?$AAs?$AAt?$AAo?$AAm@ 0000000180188668     mod.obj
 0002:00011688       ??_C@_1BA@HBGPLNLK@?$AAE?$AAx?$AAc?$AAl?$AAu?$AAd?$AAe@ 0000000180188688     mod.obj
 0002:00011698       ??_C@_1BM@EJEJBNAE@?$AAE?$AAx?$AAc?$AAl?$AAu?$AAd?$AAe?$AAC?$AAu?$AAs?$AAt?$AAo?$AAm@ 0000000180188698     mod.obj
 0002:000116b8       ??_C@_1BG@MDFIMHKE@?$AAm?$AAo?$AAd?$AA?9?$AAs?$AAt?$AAa?$AAt?$AAu?$AAs@ 00000001801886b8     mod.obj
 0002:000116d0       ??_C@_0P@MGGFIAAM@Mod?3?3SetStatus@ 00000001801886d0     mod.obj
 0002:000116e0       ??_C@_0GH@EIEHOGDA@?$GAanonymous?9namespace?8?3?3HookSymb@ 00000001801886e0     mod.obj
 0002:00011750       ??_C@_1GO@FCGHEMKK@?$AA?$FL?$AAW?$AAH?$AA?$FN?$AA?5?$AA?$FL?$AA?$CF?$AAS?$AA?$FN?$AA?3?$AA?5?$AAO?$AAp?$AAt?$AAi@ 0000000180188750     mod.obj
 0002:000117c0       ??_C@_1CK@HOJMLLMG@?$AA?$FL?$AAW?$AAH?$AA?$FN?$AA?5?$AA?$FL?$AA?$CF?$AAS?$AA?$FN?$AA?3?$AA?5?$AA?5?$AA?5?$AA?5?$AA?5@ 00000001801887c0     mod.obj
 0002:000117f0       ??_C@_1BI@LLOKMOP@?$AA?5?$AA?$CI?$AAo?$AAp?$AAt?$AAi?$AAo?$AAn?$AAa?$AAl?$AA?$CJ@ 00000001801887f0     mod.obj
 0002:00011810       ??_C@_0GD@JELNLJFL@?$GAanonymous?9namespace?8?3?3HookSymb@ 0000000180188810     mod.obj
 0002:00011880       ??_C@_1EA@JDBGDJMA@?$AA?$FL?$AAW?$AAH?$AA?$FN?$AA?5?$AA?$FL?$AA?$CF?$AAS?$AA?$FN?$AA?3?$AA?5?$AAU?$AAn?$AAr?$AAe@ 0000000180188880     mod.obj
 0002:000118c8       ??_7?$__func@V<lambda_1>@?1???$K32GetModuleFileNameExW@V?$basic_string@_WU?$char_traits@_W@std@@V?$allocator@_W@2@@std@@$0IA@@wil@@YAJPEAXPEAUHINSTANCE__@@AEAV?$basic_string@_WU?$char_traits@_W@std@@V?$allocator@_W@2@@std@@@Z@$$A6AJPEA_W_KPEA_K@Z@__function@wistd@@6B@ 00000001801888c8     mod.obj
 0002:000118f8       ??_7?$__func@V<lambda_1>@?1???$QueryFullProcessImageNameW@V?$basic_string@_WU?$char_traits@_W@std@@V?$allocator@_W@2@@std@@$0BAA@@wil@@YAJPEAXKAEAV?$basic_string@_WU?$char_traits@_W@std@@V?$allocator@_W@2@@std@@@Z@$$A6AJPEA_W_KPEA_K@Z@__function@wistd@@6B@ 00000001801888f8     mod.obj
 0002:000119b0       ??_C@_0CA@IMBMGMGL@shared?2libraries?2wil?2resource?4h@ 00000001801889b0     mod.obj
 0002:000119d0       ??_C@_11LOCGONAA@@         00000001801889d0     mod.obj
 0002:000119e0       ?kCriticalProcessesForMods@ProcessLists@@3QB_WB 00000001801889e0     mod.obj
 0002:00011b40       ?kCriticalProcesses@ProcessLists@@3QB_WB 0000000180188b40     mod.obj
 0002:00012480       ??_C@_0BF@NGCCGCKP@SetThreadInformation@ 0000000180189480     mod_sandbox.obj
 0002:00012498       ??_C@_1BE@BIOKAAFN@?$AAA?$AAn?$AAo?$AAn?$AAy?$AAm?$AAo?$AAu?$AAs@ 0000000180189498     mod_sandbox.obj
 0002:000124b0       ??_C@_0CJ@HCNMNOEI@ModSandbox?3?3SandboxObject?3?3Sand@ 00000001801894b0     mod_sandbox.obj
 0002:000124e0       ??_C@_1FC@PPLCDPIG@?$AA?$FL?$AAW?$AAH?$AA?$FN?$AA?5?$AA?$FL?$AA?$CF?$AAS?$AA?$FN?$AA?3?$AA?5?$AAS?$AAa?$AAn?$AAd@ 00000001801894e0     mod_sandbox.obj
 0002:00012538       ??_C@_0CN@IELJBBNA@ModSandbox?3?3SandboxObject?3?3Appl@ 0000000180189538     mod_sandbox.obj
 0002:00012570       ??_C@_1HE@MBFDAAFB@?$AA?$FL?$AAW?$AAH?$AA?$FN?$AA?5?$AA?$FL?$AA?$CF?$AAS?$AA?$FN?$AA?3?$AA?5?$AAF?$AAa?$AAi?$AAl@ 0000000180189570     mod_sandbox.obj
 0002:000125f0       ??_C@_1GK@GLEDKGOK@?$AA?$FL?$AAW?$AAH?$AA?$FN?$AA?5?$AA?$FL?$AA?$CF?$AAS?$AA?$FN?$AA?3?$AA?5?$AAF?$AAa?$AAi?$AAl@ 00000001801895f0     mod_sandbox.obj
 0002:00012660       ??_C@_0CH@BLCNHMHD@A?5mod?5with?5that?5name?5is?5already@ 0000000180189660     mods_manager.obj
 0002:00012688       ??_C@_0CN@LDELCPOF@ModsManager?3?3?$HLctor?$HN?3?3?$DMlambda_1?$DO@ 0000000180189688     mods_manager.obj
 0002:000126c0       ??_C@_1FK@GPENLBEN@?$AA?$FL?$AAW?$AAH?$AA?$FN?$AA?5?$AA?$FL?$AA?$CF?$AAS?$AA?$FN?$AA?3?$AA?5?$AAM?$AAo?$AAd?$AA?5@ 00000001801896c0     mods_manager.obj
 0002:00012720       ??_C@_0BJ@KKIIMDJL@ModsManager?3?3ModsManager@ 0000000180189720     mods_manager.obj
 0002:00012740       ??_C@_1FA@NEPONGHE@?$AA?$FL?$AAW?$AAH?$AA?$FN?$AA?5?$AA?$FL?$AA?$CF?$AAS?$AA?$FN?$AA?3?$AA?5?$AAM?$AAo?$AAd?$AA?5@ 0000000180189740     mods_manager.obj
 0002:00012790       ??_C@_0BK@KBIACGJD@ModsManager?3?3?$HOModsManager@ 0000000180189790     mods_manager.obj
 0002:000127b0       ??_C@_1FK@NKLEDPDL@?$AA?$FL?$AAW?$AAH?$AA?$FN?$AA?5?$AA?$FL?$AA?$CF?$AAS?$AA?$FN?$AA?3?$AA?5?$AAM?$AAo?$AAd?$AA?5@ 00000001801897b0     mods_manager.obj
 0002:00012810       ??_C@_0BH@BPKDDFGO@ModsManager?3?3AfterInit@ 0000000180189810     mods_manager.obj
 0002:00012830       ??_C@_1FE@JMCNPMHF@?$AA?$FL?$AAW?$AAH?$AA?$FN?$AA?5?$AA?$FL?$AA?$CF?$AAS?$AA?$FN?$AA?3?$AA?5?$AAM?$AAo?$AAd?$AA?5@ 0000000180189830     mods_manager.obj
 0002:00012888       ??_C@_0BK@NCCPKMHL@ModsManager?3?3BeforeUninit@ 0000000180189888     mods_manager.obj
 0002:000128b0       ??_C@_1FK@PEKBEGOF@?$AA?$FL?$AAW?$AAH?$AA?$FN?$AA?5?$AA?$FL?$AA?$CF?$AAS?$AA?$FN?$AA?3?$AA?5?$AAM?$AAo?$AAd?$AA?5@ 00000001801898b0     mods_manager.obj
 0002:00012910       ??_C@_0DM@MJNEBKK@ModsManager?3?3ReloadModsAndSetti@ 0000000180189910     mods_manager.obj
 0002:00012950       ??_C@_1FE@DKKIPEHH@?$AA?$FL?$AAW?$AAH?$AA?$FN?$AA?5?$AA?$FL?$AA?$CF?$AAS?$AA?$FN?$AA?3?$AA?5?$AAM?$AAo?$AAd?$AA?5@ 0000000180189950     mods_manager.obj
 0002:000129a8       ??_C@_0CD@OLBBKIEG@ModsManager?3?3ReloadModsAndSetti@ 00000001801899a8     mods_manager.obj
 0002:000129d0       ??_C@_1FI@DOMAIEPP@?$AA?$FL?$AAW?$AAH?$AA?$FN?$AA?5?$AA?$FL?$AA?$CF?$AAS?$AA?$FN?$AA?3?$AA?5?$AAM?$AAH?$AA_?$AAA@ 00000001801899d0     mods_manager.obj
 0002:00012a28       ??_C@_1DA@LCPJOBBB@?$AAH?$AAo?$AAo?$AAk?$AAI?$AAn?$AAt?$AAe?$AAg?$AAr?$AAi?$AAt?$AAy?$AAM?$AAo@ 0000000180189a28     mods_manager.obj
 0002:00012ac8       ??_C@_0N@KCFDJLIF@LoadLibraryW@ 0000000180189ac8     module_stomp.obj
 0002:00012ad8       ??_C@_0BN@MECLNDMG@ModuleStomp?3?3LoadStompTarget@ 0000000180189ad8     module_stomp.obj
 0002:00012b00       ??_C@_1HK@NLKKCEKC@?$AA?$FL?$AAW?$AAH?$AA?$FN?$AA?5?$AA?$FL?$AA?$CF?$AAS?$AA?$FN?$AA?3?$AA?5?$AAM?$AAo?$AAd?$AAu@ 0000000180189b00     module_stomp.obj
 0002:00012b80       ??_C@_1FC@CJIICPEG@?$AA?$FL?$AAW?$AAH?$AA?$FN?$AA?5?$AA?$FL?$AA?$CF?$AAS?$AA?$FN?$AA?3?$AA?5?$AAM?$AAo?$AAd?$AAu@ 0000000180189b80     module_stomp.obj
 0002:00012bd8       ??_C@_0CA@DJFMEEGA@engine?2new_process_injector?4cpp@ 0000000180189bd8     new_process_injector.obj
 0002:00012bf8       ??_C@_1DI@PIELCBOE@?$AA?2?$AAP?$AAr?$AAo?$AAc?$AAe?$AAs?$AAs?$AAI?$AAn?$AAi?$AAt?$AAA?$AAP?$AAC@ 0000000180189bf8     new_process_injector.obj
 0002:00012c30       ??_C@_0DB@DHDNIPMI@Only?5one?5instance?5is?5supported?5@ 0000000180189c30     new_process_injector.obj
 0002:00012c68       ??_C@_0BH@IODECGKA@CreateProcessInternalW@ 0000000180189c68     new_process_injector.obj
 0002:00012c80       ??_C@_0CH@MGPFIJKK@NewProcessInjector?3?3NewProcessI@ 0000000180189c80     new_process_injector.obj
 0002:00012cb0       ??_C@_1GE@PKEPCMFJ@?$AA?$FL?$AAW?$AAH?$AA?$FN?$AA?5?$AA?$FL?$AA?$CF?$AAS?$AA?$FN?$AA?3?$AA?5?$AAF?$AAa?$AAi?$AAl@ 0000000180189cb0     new_process_injector.obj
 0002:00012d18       ??_C@_1CG@KNFPBPCF@?$AAT?$AAh?$AAr?$AAe?$AAa?$AAd?$AAA?$AAt?$AAt?$AAa?$AAc?$AAh?$AAE?$AAx?$AAe@ 0000000180189d18     new_process_injector.obj
 0002:00012d40       ??_C@_1DI@BNBDNAFM@?$AAI?$AAn?$AAj?$AAe?$AAc?$AAt?$AAI?$AAn?$AAt?$AAo?$AAC?$AAr?$AAi?$AAt?$AAi@ 0000000180189d40     new_process_injector.obj
 0002:00012d78       ??_C@_1DO@EKDDOBHN@?$AAI?$AAn?$AAj?$AAe?$AAc?$AAt?$AAI?$AAn?$AAt?$AAo?$AAI?$AAn?$AAc?$AAo?$AAm@ 0000000180189d78     new_process_injector.obj
 0002:00012db8       ??_C@_1CA@NPFNGIIF@?$AAI?$AAn?$AAj?$AAe?$AAc?$AAt?$AAI?$AAn?$AAt?$AAo?$AAG?$AAa?$AAm?$AAe?$AAs@ 0000000180189db8     new_process_injector.obj
 0002:00012dd8       ??_C@_0CI@EFDJLFDM@NewProcessInjector?3?3?$HONewProcess@ 0000000180189dd8     new_process_injector.obj
 0002:00012e00       ??_C@_1IM@DPCLEKMN@?$AA?$FL?$AAW?$AAH?$AA?$FN?$AA?5?$AA?$FL?$AA?$CF?$AAS?$AA?$FN?$AA?3?$AA?5?$AAc?$AAo?$AAm?$AAp@ 0000000180189e00     new_process_injector.obj
 0002:00012e90       ??_C@_1O@INIEDEDF@?$AA?$CI?$AAN?$AAU?$AAL?$AAL?$AA?$CJ@ 0000000180189e90     new_process_injector.obj
 0002:00012ea0       ??_C@_0DA@MGBBGCLC@NewProcessInjector?3?3CreateProce@ 0000000180189ea0     new_process_injector.obj
 0002:00012ed0       ??_C@_1IG@JDEPAMMN@?$AA?$FL?$AAW?$AAH?$AA?$FN?$AA?5?$AA?$FL?$AA?$CF?$AAS?$AA?$FN?$AA?3?$AA?5?$AAN?$AAe?$AAw?$AA?5@ 0000000180189ed0     new_process_injector.obj
 0002:00012f60       ??_C@_0EC@CGPIDGAC@NewProcessInjector?3?3HandleCreat@ 0000000180189f60     new_process_injector.obj
 0002:00012fb0       ??_C@_1HA@IKIEKKLI@?$AA?$FL?$AAW?$AAH?$AA?$FN?$AA?5?$AA?$FL?$AA?$CF?$AAS?$AA?$FN?$AA?3?$AA?5?$AAD?$AAl?$AAl?$AAI@ 0000000180189fb0     new_process_injector.obj
 0002:00013020       ??_C@_1FM@FPJOJIG@?$AA?$FL?$AAW?$AAH?$AA?$FN?$AA?5?$AA?$FL?$AA?$CF?$AAS?$AA?$FN?$AA?3?$AA?5?$AAE?$AAr?$AAr?$AAo@ 000000018018a020     new_process_injector.obj
 0002:00013080       ??_C@_0CJ@PMHPMLLL@NewProcessInjector?3?3HandleCreat@ 000000018018a080     new_process_injector.obj
 0002:000130b0       ??_C@_1FC@GPDBFCGC@?$AA?$FL?$AAW?$AAH?$AA?$FN?$AA?5?$AA?$FL?$AA?$CF?$AAS?$AA?$FN?$AA?3?$AA?5?$AAS?$AAk?$AAi?$AAp@ 000000018018a0b0     new_process_injector.obj
 0002:00013110       ??_C@_1GG@LCHFKICL@?$AA?$FL?$AAW?$AAH?$AA?$FN?$AA?5?$AA?$FL?$AA?$CF?$AAS?$AA?$FN?$AA?3?$AA?5?$AAD?$AAe?$AAf?$AAe@ 000000018018a110     new_process_injector.obj
 0002:00013180       ??_C@_1GG@PNLLHMKA@?$AA?$FL?$AAW?$AAH?$AA?$FN?$AA?5?$AA?$FL?$AA?$CF?$AAS?$AA?$FN?$AA?3?$AA?5?$AAD?$AAl?$AAl?$AAI@ 000000018018a180     new_process_injector.obj
 0002:000131f0       ??_C@_1FC@BHKILBAF@?$AA?$FL?$AAW?$AAH?$AA?$FN?$AA?5?$AA?$FL?$AA?$CF?$AAS?$AA?$FN?$AA?3?$AA?5?$AAE?$AAr?$AAr?$AAo@ 000000018018a1f0     new_process_injector.obj
 0002:00013248       ??_C@_1BO@MFOKJHPK@?$AAk?$AAe?$AAr?$AAn?$AAe?$AAl?$AAb?$AAa?$AAs?$AAe?$AA?4?$AAd?$AAl?$AAl@ 000000018018a248     new_process_injector.obj
 0002:00013270       ?kGames@ProcessLists@@3QB_WB 000000018018a270     new_process_injector.obj
 0002:000141b0       ?kIncompatiblePrograms@ProcessLists@@3QB_WB 000000018018b1b0     new_process_injector.obj
 0002:00014250       ?kDeferredProcesses@ProcessLists@@3QB_WB 000000018018b250     new_process_injector.obj
 0002:00014388       ??_C@_0P@LDMPNPEN@LazyInitialize@ 000000018018b388     main.obj
 0002:000143a0       ??_C@_1EM@BANCDMDL@?$AA?$FL?$AAW?$AAH?$AA?$FN?$AA?5?$AA?$FL?$AA?$CF?$AAS?$AA?$FN?$AA?3?$AA?5?$AAI?$AAn?$AAi?$AAt@ 000000018018b3a0     main.obj
 0002:000143f0       ??_C@_0L@PLHBHKF@InjectInit@ 000000018018b3f0     main.obj
 0002:00014400       ??_C@_1DO@JJEEIGIB@?$AA?$FL?$AAW?$AAH?$AA?$FN?$AA?5?$AA?$FL?$AA?$CF?$AAS?$AA?$FN?$AA?3?$AA?5?$AAR?$AAu?$AAn?$AAn@ 000000018018b400     main.obj
 0002:00014440       ??_C@_1HC@KCIELEPH@?$AA?$FL?$AAW?$AAH?$AA?$FN?$AA?5?$AA?$FL?$AA?$CF?$AAS?$AA?$FN?$AA?3?$AA?5?$AAS?$AAe?$AAs?$AAs@ 000000018018b440     main.obj
 0002:000144b8       ??_C@_0BA@KFLOHNAA@NtGetNextThread@ 000000018018b4b8     customization_session.obj
 0002:000144c8       ??_C@_0DG@CPPLMOPJ@?$GAanonymous?9namespace?8?3?3GetFirst@ 000000018018b4c8     customization_session.obj
 0002:00014500       ??_C@_1GE@FKPJPKAG@?$AA?$FL?$AAW?$AAH?$AA?$FN?$AA?5?$AA?$FL?$AA?$CF?$AAS?$AA?$FN?$AA?3?$AA?5?$AAF?$AAa?$AAi?$AAl@ 000000018018b500     customization_session.obj
 0002:00014570       ??_C@_1IG@GLBNDFMG@?$AA?$FL?$AAW?$AAH?$AA?$FN?$AA?5?$AA?$FL?$AA?$CF?$AAS?$AA?$FN?$AA?3?$AA?5?$AAF?$AAa?$AAi?$AAl@ 000000018018b570     customization_session.obj
 0002:00014600       ??_C@_1GM@GHLHHCCC@?$AA?$FL?$AAW?$AAH?$AA?$FN?$AA?5?$AA?$FL?$AA?$CF?$AAS?$AA?$FN?$AA?3?$AA?5?$AAC?$AAu?$AAr?$AAr@ 000000018018b600     customization_session.obj
 0002:00014670       ??_C@_1FG@FMMILFIP@?$AA?$FL?$AAW?$AAH?$AA?$FN?$AA?5?$AA?$FL?$AA?$CF?$AAS?$AA?$FN?$AA?3?$AA?5?$AAN?$AAt?$AAG?$AAe@ 000000018018b670     customization_session.obj
 0002:000146d0       ??_C@_1HA@FNLPAPCB@?$AA?$FL?$AAW?$AAH?$AA?$FN?$AA?5?$AA?$FL?$AA?$CF?$AAS?$AA?$FN?$AA?3?$AA?5?$AAW?$AAa?$AAi?$AAt@ 000000018018b6d0     customization_session.obj
 0002:00014740       ??_C@_0BL@OHHPJCHM@GetProcessMitigationPolicy@ 000000018018b740     customization_session.obj
 0002:00014760       ??_C@_0DJ@BDGPCIOL@?$GAanonymous?9namespace?8?3?3CurrentP@ 000000018018b760     customization_session.obj
 0002:000147a0       ??_C@_1HK@PFKJPKNC@?$AA?$FL?$AAW?$AAH?$AA?$FN?$AA?5?$AA?$FL?$AA?$CF?$AAS?$AA?$FN?$AA?3?$AA?5?$AAF?$AAa?$AAi?$AAl@ 000000018018b7a0     customization_session.obj
 0002:00014820       ??_C@_1FG@KEBELNLO@?$AAW?$AAi?$AAn?$AAd?$AAh?$AAa?$AAw?$AAk?$AAC?$AAu?$AAs?$AAt?$AAo?$AAm?$AAi@ 000000018018b820     customization_session.obj
 0002:00014878       ??_C@_0DC@PDKGDLCJ@Failed?5to?5acquire?5customization@ 000000018018b878     customization_session.obj
 0002:000148b0       ??_C@_0DA@DEHLLPBB@Only?5one?5session?5is?5supported?5a@ 000000018018b8b0     customization_session.obj
 0002:000148e0       ??_C@_0CB@DBKGNDAI@engine?2customization_session?4cp@ 000000018018b8e0     customization_session.obj
 0002:00014908       ??_C@_0CL@EILCJNLJ@CustomizationSession?3?3Customiza@ 000000018018b908     customization_session.obj
 0002:00014940       ??_C@_1EC@NFGMCMCP@?$AA?$FL?$AAW?$AAH?$AA?$FN?$AA?5?$AA?$FL?$AA?$CF?$AAS?$AA?$FN?$AA?3?$AA?5?$AAA?$AAf?$AAt?$AAe@ 000000018018b940     customization_session.obj
 0002:00014988       ??_C@_0CM@HLAKOFNG@CustomizationSession?3?3?$HOCustomiz@ 000000018018b988     customization_session.obj
 0002:000149c0       ??_C@_1EI@IMKCJLDK@?$AA?$FL?$AAW?$AAH?$AA?$FN?$AA?5?$AA?$FL?$AA?$CF?$AAS?$AA?$FN?$AA?3?$AA?5?$AAB?$AAe?$AAf?$AAo@ 000000018018b9c0     customization_session.obj
 0002:00014a10       ??_C@_0EI@JCMPCIAN@CustomizationSession?3?3MinHookSc@ 000000018018ba10     customization_session.obj
 0002:00014a60       ??_C@_1HO@LHNOFDHK@?$AA?$FL?$AAW?$AAH?$AA?$FN?$AA?5?$AA?$FL?$AA?$CF?$AAS?$AA?$FN?$AA?3?$AA?5?$AAH?$AAo?$AAo?$AAk@ 000000018018ba60     customization_session.obj
 0002:00014ae0       ??_C@_0DJ@ECAOMJFE@CustomizationSession?3?3MinHookSc@ 000000018018bae0     customization_session.obj
 0002:00014b20       ??_C@_1FC@MCDFOEFC@?$AA?$FL?$AAW?$AAH?$AA?$FN?$AA?5?$AA?$FL?$AA?$CF?$AAS?$AA?$FN?$AA?3?$AA?5?$AAM?$AAH?$AA_?$AAI@ 000000018018bb20     customization_session.obj
 0002:00014b78       ??_C@_0BN@ENMBCIJ@Failed?5to?5initialize?5MinHook@ 000000018018bb78     customization_session.obj
 0002:00014b98       ??_C@_0DK@BJADIFIP@CustomizationSession?3?3MinHookSc@ 000000018018bb98     customization_session.obj
 0002:00014be0       ??_C@_1GE@LHODKLON@?$AA?$FL?$AAW?$AAH?$AA?$FN?$AA?5?$AA?$FL?$AA?$CF?$AAS?$AA?$FN?$AA?3?$AA?5?$AAM?$AAH?$AA_?$AAU@ 000000018018bbe0     customization_session.obj
 0002:00014c48       ??_C@_0DL@BPIHPBJL@CustomizationSession?3?3MinHookSc@ 000000018018bc48     customization_session.obj
 0002:00014c88       ??_C@_0DM@HNKHIHHP@CustomizationSession?3?3MinHookSc@ 000000018018bc88     customization_session.obj
 0002:00014cd0       ??_C@_1GG@ICAMIFAP@?$AA?$FL?$AAW?$AAH?$AA?$FN?$AA?5?$AA?$FL?$AA?$CF?$AAS?$AA?$FN?$AA?3?$AA?5?$AAM?$AAH?$AA_?$AAD@ 000000018018bcd0     customization_session.obj
 0002:00014d38       ??_C@_0DF@NCOKHKGM@CustomizationSession?3?3MainLoopR@ 000000018018bd38     customization_session.obj
 0002:00014d70       ??_C@_1HO@ILHAAKMJ@?$AA?$FL?$AAW?$AAH?$AA?$FN?$AA?5?$AA?$FL?$AA?$CF?$AAS?$AA?$FN?$AA?3?$AA?5?$AAM?$AAo?$AAd?$AAC@ 000000018018bd70     customization_session.obj
 0002:00014df0       ??_C@_0CK@NLGIHGCO@CustomizationSession?3?3MainLoopR@ 000000018018bdf0     customization_session.obj
 0002:00014e20       ??_C@_1HM@OGHDLPBH@?$AA?$FL?$AAW?$AAH?$AA?$FN?$AA?5?$AA?$FL?$AA?$CF?$AAS?$AA?$FN?$AA?3?$AA?5?$AAW?$AAa?$AAi?$AAt@ 000000018018be20     customization_session.obj
 0002:00014ea0       ??_C@_0DJ@LDENHEFA@CustomizationSession?3?3MainLoopR@ 000000018018bea0     customization_session.obj
 0002:00014ee0       ??_C@_1FE@JIHCCDAG@?$AA?$FL?$AAW?$AAH?$AA?$FN?$AA?5?$AA?$FL?$AA?$CF?$AAS?$AA?$FN?$AA?3?$AA?5?$AAC?$AAo?$AAn?$AAt@ 000000018018bee0     customization_session.obj
 0002:00014f38       ??_C@_0CH@FEBDMDDF@CustomizationSession?3?3StartInit@ 000000018018bf38     customization_session.obj
 0002:00014f60       ??_C@_1EO@IFGIBHP@?$AA?$FL?$AAW?$AAH?$AA?$FN?$AA?5?$AA?$FL?$AA?$CF?$AAS?$AA?$FN?$AA?3?$AA?5?$AAT?$AAh?$AAr?$AAe@ 000000018018bf60     customization_session.obj
 0002:00014fb0       ??_C@_1EG@IIGBIEAA@?$AAW?$AAi?$AAn?$AAd?$AAh?$AAa?$AAw?$AAk?$AAM?$AAa?$AAi?$AAn?$AAL?$AAo?$AAo@ 000000018018bfb0     customization_session.obj
 0002:00015000       ??_C@_0FK@MDHANPJI@CustomizationSession?3?3RunMainLo@ 000000018018c000     customization_session.obj
 0002:00015060       ??_C@_1IM@MOPBDCC@?$AA?$FL?$AAW?$AAH?$AA?$FN?$AA?5?$AA?$FL?$AA?$CF?$AAS?$AA?$FN?$AA?3?$AA?5?$AAP?$AAr?$AAo?$AAc@ 000000018018c060     customization_session.obj
 0002:000150f0       ??_C@_1CE@PGMIGCFK@?$AAE?$AAt?$AAw?$AAS?$AAt?$AAe?$AAa?$AAl?$AAt?$AAh?$AAE?$AAn?$AAa?$AAb?$AAl@ 000000018018c0f0     customization_session.obj
 0002:00015120       ??_C@_1FK@OBJHDDJL@?$AA?$FL?$AAW?$AAH?$AA?$FN?$AA?5?$AA?$FL?$AA?$CF?$AAS?$AA?$FN?$AA?3?$AA?5?$AAR?$AAe?$AAl?$AAo@ 000000018018c120     customization_session.obj
 0002:00015180       ??_C@_0EB@LMHEBHMK@CustomizationSession?3?3RunMainLo@ 000000018018c180     customization_session.obj
 0002:000151c8       ??_C@_1CC@EMPLNHHG@?$AAW?$AAi?$AAn?$AAd?$AAh?$AAa?$AAw?$AAk?$AAM?$AAa?$AAi?$AAn?$AAL?$AAo?$AAo@ 000000018018c1c8     customization_session.obj
 0002:000151f0       ??_C@_0CC@NENIACNA@CustomizationSession?3?3RunMainLo@ 000000018018c1f0     customization_session.obj
 0002:00015220       ??_C@_1FI@LDJBDPFN@?$AA?$FL?$AAW?$AAH?$AA?$FN?$AA?5?$AA?$FL?$AA?$CF?$AAS?$AA?$FN?$AA?3?$AA?5?$AAE?$AAx?$AAi?$AAt@ 000000018018c220     customization_session.obj
 0002:00015278       ??_C@_0CB@DCKAFHOJ@CustomizationSession?3?3DeleteThi@ 000000018018c278     customization_session.obj
 0002:000152a0       ??_C@_1IC@BLOMNFNP@?$AA?$FL?$AAW?$AAH?$AA?$FN?$AA?5?$AA?$FL?$AA?$CF?$AAS?$AA?$FN?$AA?3?$AA?5?$AAP?$AAr?$AAo?$AAc@ 000000018018c2a0     customization_session.obj
 0002:00015328       ??_C@_0CF@GKBMNDBC@shared?2libraries?2wil?2result_mac@ 000000018018c328     customization_session.obj
 0002:00015350       ??_C@_0BE@LMOOKEAD@Bad?5optional?5access@ 000000018018c350     customization_session.obj
 0002:00015370       ??_7bad_optional_access@std@@6B@ 000000018018c370     customization_session.obj
 0002:00015380       ??_C@_0CF@NBBGCGHK@engine?2session_private_namespac@ 000000018018c380     session_private_namespace.obj
 0002:000153a8       ??_C@_1CE@BMACEPKB@?$AAW?$AAi?$AAn?$AAd?$AAh?$AAa?$AAw?$AAk?$AAS?$AAe?$AAs?$AAs?$AAi?$AAo?$AAn@ 000000018018c3a8     session_private_namespace.obj
 0002:000153d0       ??_C@_0BH@MFPBLOMC@StackSpoof?3?3Initialize@ 000000018018c3d0     stack_spoof.obj
 0002:000153f0       ??_C@_1JG@NLNDBJFK@?$AA?$FL?$AAW?$AAH?$AA?$FN?$AA?5?$AA?$FL?$AA?$CF?$AAS?$AA?$FN?$AA?3?$AA?5?$AAS?$AAt?$AAa?$AAc@ 000000018018c3f0     stack_spoof.obj
 0002:00015488       ??_C@_1BI@BNFKGMFK@?$AAs?$AAh?$AAe?$AAl?$AAl?$AA3?$AA2?$AA?4?$AAd?$AAl?$AAl@ 000000018018c488     storage_manager.obj
 0002:000154a0       ??_C@_0BF@OMOLCJCE@SHGetKnownFolderPath@ 000000018018c4a0     storage_manager.obj
 0002:000154b8       ??_C@_1BE@DPMNNGMJ@?$AAo?$AAl?$AAe?$AA3?$AA2?$AA?4?$AAd?$AAl?$AAl@ 000000018018c4b8     storage_manager.obj
 0002:000154d0       ??_C@_0O@MIBPKJDN@CoTaskMemFree@ 000000018018c4d0     storage_manager.obj
 0002:000154e0       ??_C@_0BD@HKLFGHMI@Missing?5path?5value@ 000000018018c4e0     storage_manager.obj
 0002:000154f8       ??_C@_1BI@PCFBINBH@?$AAP?$AAr?$AAo?$AAg?$AAr?$AAa?$AAm?$AAD?$AAa?$AAt?$AAa@ 000000018018c4f8     storage_manager.obj
 0002:00015510       ??_C@_1BM@BPCHLFEE@?$AA?$CF?$AAP?$AAr?$AAo?$AAg?$AAr?$AAa?$AAm?$AAD?$AAa?$AAt?$AAa?$AA?$CF@ 000000018018c510     storage_manager.obj
 0002:00015530       ??_C@_1BI@BNLANBPC@?$AAS?$AAy?$AAs?$AAt?$AAe?$AAm?$AAD?$AAr?$AAi?$AAv?$AAe@ 000000018018c530     storage_manager.obj
 0002:00015550       ??_C@_1BK@OPEJHODM@?$AA?2?$AAP?$AAr?$AAo?$AAg?$AAr?$AAa?$AAm?$AAD?$AAa?$AAt?$AAa@ 000000018018c550     storage_manager.obj
 0002:00015570       ??_C@_1BO@DPOFENEI@?$AAC?$AA?3?$AA?2?$AAP?$AAr?$AAo?$AAg?$AAr?$AAa?$AAm?$AAD?$AAa?$AAt?$AAa@ 000000018018c570     storage_manager.obj
 0002:00015590       ??_C@_19PGJFMJNJ@?$AA?4?$AAi?$AAn?$AAi@ 000000018018c590     storage_manager.obj
 0002:000155a0       ??_C@_19JEBFOLLA@?$AAM?$AAo?$AAd?$AAs@ 000000018018c5a0     storage_manager.obj
 0002:000155b0       ??_C@_17GFKDCKHB@?$AAM?$AAo?$AAd@ 000000018018c5b0     storage_manager.obj
 0002:000155b8       ??_C@_1O@PFFGFEFP@?$AA?2?$AAM?$AAo?$AAd?$AAs?$AA?2@ 000000018018c5b8     storage_manager.obj
 0002:000155c8       ??_C@_1BK@LOEJHKPH@?$AAM?$AAo?$AAd?$AAs?$AAW?$AAr?$AAi?$AAt?$AAa?$AAb?$AAl?$AAe@ 000000018018c5c8     storage_manager.obj
 0002:000155f0       ??_C@_1BO@ELFKPADN@?$AA?2?$AAM?$AAo?$AAd?$AAs?$AAW?$AAr?$AAi?$AAt?$AAa?$AAb?$AAl?$AAe?$AA?2@ 000000018018c5f0     storage_manager.obj
 0002:00015610       ??_C@_1BI@EHAKDGJC@?$AAm?$AAo?$AAd?$AA?9?$AAs?$AAt?$AAo?$AAr?$AAa?$AAg?$AAe@ 000000018018c610     storage_manager.obj
 0002:00015628       ??_C@_0BL@CJFKFCI@engine?2storage_manager?4cpp@ 000000018018c628     storage_manager.obj
 0002:00015644       ??_C@_15JGPBBLHF@?$AA3?$AA2@ 000000018018c644     storage_manager.obj
 0002:0001564c       ??_C@_15ODFHNFBK@?$AA6?$AA4@ 000000018018c64c     storage_manager.obj
 0002:00015658       ??_C@_0BF@PAAHKDFF@Unknown?5architecture@ 000000018018c658     storage_manager.obj
 0002:00015670       ??_C@_1BA@NKHEEPNG@?$AAS?$AAy?$AAm?$AAb?$AAo?$AAl?$AAs@ 000000018018c670     storage_manager.obj
 0002:00015680       ??_C@_1BG@JHPKGNCN@?$AAe?$AAn?$AAg?$AAi?$AAn?$AAe?$AA?4?$AAi?$AAn?$AAi@ 000000018018c680     storage_manager.obj
 0002:00015698       ??_C@_0BF@NIEEMBFP@engine?4ini?5not?5found@ 000000018018c698     storage_manager.obj
 0002:000156b0       ??_C@_1BA@KMCEMKEI@?$AAS?$AAt?$AAo?$AAr?$AAa?$AAg?$AAe@ 000000018018c6b0     storage_manager.obj
 0002:000156c0       ??_C@_1BI@HCGPBLCP@?$AAA?$AAp?$AAp?$AAD?$AAa?$AAt?$AAa?$AAP?$AAa?$AAt?$AAh@ 000000018018c6c0     storage_manager.obj
 0002:000156d8       ??_C@_1BC@EIAJDLIM@?$AAP?$AAo?$AAr?$AAt?$AAa?$AAb?$AAl?$AAe@ 000000018018c6d8     storage_manager.obj
 0002:000156f0       ??_C@_1BK@BDLHIEGA@?$AAs?$AAe?$AAt?$AAt?$AAi?$AAn?$AAg?$AAs?$AA?4?$AAi?$AAn?$AAi@ 000000018018c6f0     storage_manager.obj
 0002:00015710       ??_C@_1BI@PJNLJJGH@?$AAR?$AAe?$AAg?$AAi?$AAs?$AAt?$AAr?$AAy?$AAK?$AAe?$AAy@ 000000018018c710     storage_manager.obj
 0002:00015728       ??_C@_0BK@LMMIEMIN@Missing?5RegistryKey?5value@ 000000018018c728     storage_manager.obj
 0002:00015748       ??_C@_0BK@NBAMLEHE@Invalid?5RegistryKey?5value@ 000000018018c748     storage_manager.obj
 0002:00015768       ??_C@_1CE@HLHNCBPM@?$AAH?$AAK?$AAE?$AAY?$AA_?$AAC?$AAU?$AAR?$AAR?$AAE?$AAN?$AAT?$AA_?$AAU?$AAS@ 000000018018c768     storage_manager.obj
 0002:00015790       ??_C@_19JAPAIJDE@?$AAH?$AAK?$AAC?$AAU@ 000000018018c790     storage_manager.obj
 0002:000157a0       ??_C@_1BG@BGODANIO@?$AAH?$AAK?$AAE?$AAY?$AA_?$AAU?$AAS?$AAE?$AAR?$AAS@ 000000018018c7a0     storage_manager.obj
 0002:000157b8       ??_C@_17PJOJPMPB@?$AAH?$AAK?$AAU@ 000000018018c7b8     storage_manager.obj
 0002:000157c0       ??_C@_1CG@GFBEANJL@?$AAH?$AAK?$AAE?$AAY?$AA_?$AAL?$AAO?$AAC?$AAA?$AAL?$AA_?$AAM?$AAA?$AAC?$AAH@ 000000018018c7c0     storage_manager.obj
 0002:000157e8       ??_C@_19PEALEEJB@?$AAH?$AAK?$AAL?$AAM@ 000000018018c7e8     storage_manager.obj
 0002:000157f8       ??_C@_0BO@LNGLPCAK@Unsupported?5RegistryKey?5value@ 000000018018c7f8     storage_manager.obj
 0002:00015818       ??_C@_1M@DFDLFCCE@?$AA?2?$AAM?$AAo?$AAd?$AAs@ 000000018018c818     storage_manager.obj
 0002:00015830       ??_7?$__func@V<lambda_1>@?1???$GetEnvironmentVariableW@V?$basic_string@_WU?$char_traits@_W@std@@V?$allocator@_W@2@@std@@$0IA@@wil@@YAJPEB_WAEAV?$basic_string@_WU?$char_traits@_W@std@@V?$allocator@_W@2@@std@@@Z@$$A6AJPEA_W_KPEA_K@Z@__function@wistd@@6B@ 000000018018c830     storage_manager.obj
 0002:00015858       ??_C@_0BI@LBKDNGFK@directory_entry?3?3status@ 000000018018c858     storage_manager.obj
 0002:00015870       ??_C@_0BP@DPMCMHCK@directory_iterator?3?3operator?$CL?$CL@ 000000018018c870     storage_manager.obj
 0002:00015890       ??_C@_13BBDEGPLJ@?$AA?$CK@ 000000018018c890     storage_manager.obj
 0002:000158a0       ??_7?$_Ref_count_obj2@U_Dir_enum_impl@filesystem@std@@@std@@6B@ 000000018018c8a0     storage_manager.obj
 0002:000158c0       ??_C@_0CH@GANCNKKD@directory_iterator?3?3directory_i@ 000000018018c8c0     storage_manager.obj
 0002:000158e8       ??_C@_06OGCODMJI@exists@   000000018018c8e8     storage_manager.obj
 0002:000158f0       ??_C@_03NONCDIOG@?3?5?$CC@ 000000018018c8f0     storage_manager.obj
 0002:000158f4       ??_C@_04PHMHGEMA@?$CC?0?5?$CC@ 000000018018c8f4     storage_manager.obj
 0002:00015908       ??_7filesystem_error@filesystem@std@@6B@ 000000018018c908     storage_manager.obj
 0002:00015918       ??_C@_06DJIHEMFI@status@   000000018018c918     storage_manager.obj
 0002:00015920       ??_C@_0BD@FGIAGBIG@bad?5variant?5access@ 000000018018c920     storage_manager.obj
 0002:00015940       ??_7bad_variant_access@std@@6B@ 000000018018c940     storage_manager.obj
 0002:00015950       ??_C@_13JOFGPIOO@?$AA?4@   000000018018c950     storage_manager.obj
 0002:00015954       ??_C@_15DDHGOCBH@?$AA?4?$AA?4@ 000000018018c954     storage_manager.obj
 0002:00015960       ??_C@_0BO@ELAFCPOP@RtlDisownModuleHeapAllocation@ 000000018018c960     stdafx.obj
 0002:00015980       ??_C@_0BH@EEDPADAA@RaiseFailFastException@ 000000018018c980     stdafx.obj
 0002:00015998       ??_C@_0O@KIMGFJMA@WIL?5Exception@ 000000018018c998     stdafx.obj
 0002:000159a8       ??_C@_03KGBNGMMC@wil@      000000018018c9a8     stdafx.obj
 0002:000159b0       ??_C@_17ONNCDEJM@?$AA_?$AAp?$AA0@ 000000018018c9b0     stdafx.obj
 0002:000159b8       ??_C@_13CACJPPAP@?$AAh@    000000018018c9b8     stdafx.obj
 0002:000159c0       ??_C@_0M@BENCEGID@WilError_03@ 000000018018c9c0     stdafx.obj
 0002:000159d0       ??_C@_1CM@DFICJNGJ@?$AAL?$AAo?$AAc?$AAa?$AAl?$AA?2?$AAS?$AAM?$AA0?$AA?3?$AA?$CF?$AAl?$AAu?$AA?3?$AA?$CF@ 000000018018c9d0     stdafx.obj
 0002:00015a08       ??_7ResultException@wil@@6B@ 000000018018ca08     stdafx.obj
 0002:00015a18       ??_C@_1BK@LEFPDCAJ@?$AAo?$AAl?$AAe?$AAa?$AAu?$AAt?$AA3?$AA2?$AA?4?$AAd?$AAl?$AAl@ 000000018018ca18     symbol_enum.obj
 0002:00015a38       ??_C@_0O@HGGCANLK@SysFreeString@ 000000018018ca38     symbol_enum.obj
 0002:00015a48       ??_C@_0BA@BMHIEGEI@MySysFreeString@ 000000018018ca48     symbol_enum.obj
 0002:00015a60       ??_C@_1GE@LFJMGENG@?$AA?$FL?$AAW?$AAH?$AA?$FN?$AA?5?$AA?$FL?$AA?$CF?$AAS?$AA?$FN?$AA?3?$AA?5?$AAF?$AAa?$AAi?$AAl@ 000000018018ca60     symbol_enum.obj
 0002:00015ad0       ??_C@_1FI@FKNELKHO@?$AAh?$AAt?$AAt?$AAp?$AAs?$AA?3?$AA?1?$AA?1?$AAm?$AAs?$AAd?$AAl?$AA?4?$AAm?$AAi@ 000000018018cad0     symbol_enum.obj
 0002:00015b28       ??_C@_19PNIKJOHJ@?$AAs?$AAr?$AAv?$AA?$CK@ 000000018018cb28     symbol_enum.obj
 0002:00015b38       ??_C@_0CM@OKJEFOLI@?$GAanonymous?9namespace?8?3?3LogSymbo@ 000000018018cb38     symbol_enum.obj
 0002:00015b68       ??_C@_1CC@FFLFECJ@?$AA?$FL?$AAW?$AAH?$AA?$FN?$AA?5?$AA?$FL?$AA?$CF?$AAS?$AA?$FN?$AA?3?$AA?5?$AA?$CF?$AA?4?$AA?$CK?$AAS@ 000000018018cb68     symbol_enum.obj
 0002:00015b90       ??_C@_1BA@ICANLBCA@?$AAs?$AAu?$AAc?$AAc?$AAe?$AAs?$AAs@ 000000018018cb90     symbol_enum.obj
 0002:00015ba0       ??_C@_1M@BAIGDEFI@?$AAe?$AAr?$AAr?$AAo?$AAr@ 000000018018cba0     symbol_enum.obj
 0002:00015bb0       ??_C@_0DG@GICDKMFB@?$GAanonymous?9namespace?8?3?3DiaLoadC@ 000000018018cbb0     symbol_enum.obj
 0002:00015bf0       ??_C@_1FE@CBJGICIH@?$AA?$FL?$AAW?$AAH?$AA?$FN?$AA?5?$AA?$FL?$AA?$CF?$AAS?$AA?$FN?$AA?3?$AA?5?$AAO?$AAp?$AAe?$AAn@ 000000018018cbf0     symbol_enum.obj
 0002:00015c48       ??_C@_0DG@MOKCOEGO@?$GAanonymous?9namespace?8?3?3DiaLoadC@ 000000018018cc48     symbol_enum.obj
 0002:00015c80       ??_C@_1FE@ODOBHGHE@?$AA?$FL?$AAW?$AAH?$AA?$FN?$AA?5?$AA?$FL?$AA?$CF?$AAS?$AA?$FN?$AA?3?$AA?5?$AAO?$AAp?$AAe?$AAn@ 000000018018cc80     symbol_enum.obj
 0002:00015cd8       ??_C@_1BG@MIBKINDJ@?$AAS?$AAY?$AAM?$AAS?$AAR?$AAV?$AA?4?$AAD?$AAL?$AAL@ 000000018018ccd8     symbol_enum.obj
 0002:00015cf0       ??_C@_1CI@IMOANIOL@?$AAs?$AAy?$AAm?$AAs?$AAr?$AAv?$AA_?$AAw?$AAi?$AAn?$AAd?$AAh?$AAa?$AAw?$AAk@ 000000018018ccf0     symbol_enum.obj
 0002:00015d18       ??_C@_0CP@OIMKFLMF@?$GAanonymous?9namespace?8?3?3MsdiaLoa@ 000000018018cd18     symbol_enum.obj
 0002:00015d50       ??_C@_1EK@NPJGDDOB@?$AA?$FL?$AAW?$AAH?$AA?$FN?$AA?5?$AA?$FL?$AA?$CF?$AAS?$AA?$FN?$AA?3?$AA?5?$AAC?$AAo?$AAu?$AAl@ 000000018018cd50     symbol_enum.obj
 0002:00015da0       ??_C@_0BH@DMJEJMEL@SymbolServerSetOptions@ 000000018018cda0     symbol_enum.obj
 0002:00015dc0       ??_C@_1GC@CKMMNEL@?$AA?$FL?$AAW?$AAH?$AA?$FN?$AA?5?$AA?$FL?$AA?$CF?$AAS?$AA?$FN?$AA?3?$AA?5?$AAC?$AAo?$AAu?$AAl@ 000000018018cdc0     symbol_enum.obj
 0002:00015e30       ??_C@_1EK@OGDNFMK@?$AA?$FL?$AAW?$AAH?$AA?$FN?$AA?5?$AA?$FL?$AA?$CF?$AAS?$AA?$FN?$AA?3?$AA?5?$AAC?$AAo?$AAu?$AAl@ 000000018018ce30     symbol_enum.obj
 0002:00015e80       ??_C@_0BH@IJJDHMF@engine?2symbol_enum?4cpp@ 000000018018ce80     symbol_enum.obj
 0002:00015e98       ??_C@_1BE@LDDABGGM@?$AAa?$AAr?$AAc?$AAh?$AA?$DN?$AAx?$AA8?$AA6?$AA?2@ 000000018018ce98     symbol_enum.obj
 0002:00015eb0       ??_C@_1BM@PJADIINF@?$AAa?$AAr?$AAc?$AAh?$AA?$DN?$AAA?$AAR?$AAM?$AA6?$AA4?$AAE?$AAC?$AA?2@ 000000018018ceb0     symbol_enum.obj
 0002:00015ed0       ??_C@_1BE@OLHCKFFF@?$AAa?$AAr?$AAc?$AAh?$AA?$DN?$AAx?$AA6?$AA4?$AA?2@ 000000018018ced0     symbol_enum.obj
 0002:00015ee8       ??_C@_1BA@PGNKGJN@?$AAa?$AAr?$AAc?$AAh?$AA?$DN?$AA3?$AA?2@ 000000018018cee8     symbol_enum.obj
 0002:00015ef8       ??_C@_17IFEONEPG@?$AA$?$AA$?$AAh@ 000000018018cef8     symbol_enum.obj
 0002:00015f00       ??_C@_1BK@LGJFFBAN@?$AAt?$AAa?$AAg?$AA?$DN?$AAA?$AAR?$AAM?$AA6?$AA4?$AAE?$AAC?$AA?2@ 000000018018cf00     symbol_enum.obj
 0002:00015f20       ??_C@_1CM@OBDFBEHC@?$AAm?$AAs?$AAd?$AAi?$AAa?$AA1?$AA4?$AA0?$AA_?$AAw?$AAi?$AAn?$AAd?$AAh?$AAa@ 000000018018cf20     symbol_enum.obj
 0002:00015f50       ??_C@_0P@HECBOJPO@LoadLibraryExW@ 000000018018cf50     symbol_enum.obj
 0002:00015f60       ??_C@_0N@MDJJJHMB@kernel32?4dll@ 000000018018cf60     symbol_enum.obj
 0002:00015f78       ??_7?$_Func_impl_no_alloc@U?$default_delete@PEAUCallbacks@SymbolEnum@@@std@@XPEAPEAUCallbacks@SymbolEnum@@@std@@6B@ 000000018018cf78     symbol_enum.obj
 0002:00015fb0       ??_7?$_Func_impl_no_alloc@V<lambda_5_>@?0???0?$ThreadLocal@PEAUCallbacks@SymbolEnum@@@@QEAA@XZ@PEAPEAUCallbacks@SymbolEnum@@$$V@std@@6B@ 000000018018cfb0     symbol_enum.obj
 0002:00015fe0       _GUID_79f1bb5f_b66e_48e5_b6a9_1545c323ca3d 000000018018cfe0     symbol_enum.obj
 0002:00015ff0       _GUID_4688a074_5a4d_4486_aea8_7b90711d9f7c 000000018018cff0     symbol_enum.obj
 0002:00016000       _GUID_c32adb82_73f4_421b_95d5_a4706edf5dbe 000000018018d000     symbol_enum.obj
 0002:00016010       _GUID_00000000_0000_0000_c000_000000000046 000000018018d010     symbol_enum.obj
 0002:00016088       ?kSymTags@SymbolEnum@@0QBW4SymTagEnum@@B 000000018018d088     symbol_enum.obj
 0002:00016098       ??_C@_0CG@JODCHHNK@ThreadPoolInject?3?3FindAlertable@ 000000018018d098     thread_pool_inject.obj
 0002:000160c0       ??_C@_1II@ODDMCDNN@?$AA?$FL?$AAW?$AAH?$AA?$FN?$AA?5?$AA?$FL?$AA?$CF?$AAS?$AA?$FN?$AA?3?$AA?5?$AAP?$AAh?$AAa?$AAn@ 000000018018d0c0     thread_pool_inject.obj
 0002:00016150       ??_C@_1JI@KMICFAKG@?$AA?$FL?$AAW?$AAH?$AA?$FN?$AA?5?$AA?$FL?$AA?$CF?$AAS?$AA?$FN?$AA?3?$AA?5?$AAP?$AAh?$AAa?$AAn@ 000000018018d150     thread_pool_inject.obj
 0002:000161e8       ??_C@_09EMDANCJ@pldl1keep@ 000000018018d1e8     decode_scratchpad.obj
 0002:000161f8       ??_C@_09FKPDDIHJ@pldl1strm@ 000000018018d1f8     decode_scratchpad.obj
 0002:00016208       ??_C@_09ICFHHPIH@pldl2keep@ 000000018018d208     decode_scratchpad.obj
 0002:00016218       ??_C@_09NMGHEKNH@pldl2strm@ 000000018018d218     decode_scratchpad.obj
 0002:00016228       ??_C@_09EJALKMCC@pldl3keep@ 000000018018d228     decode_scratchpad.obj
 0002:00016238       ??_C@_09BHDLJJHC@pldl3strm@ 000000018018d238     decode_scratchpad.obj
 0002:00016244       ??_C@_02LDKJEPCB@?$CD6@    000000018018d244     decode_scratchpad.obj
 0002:00016248       ??_C@_02KKLCHOGA@?$CD7@    000000018018d248     decode_scratchpad.obj
 0002:00016250       ??_C@_09JPMGBIPI@plil1keep@ 000000018018d250     decode_scratchpad.obj
 0002:00016260       ??_C@_09MBPGCNKI@plil1strm@ 000000018018d260     decode_scratchpad.obj
 0002:00016270       ??_C@_09BJFCGKFG@plil2keep@ 000000018018d270     decode_scratchpad.obj
 0002:00016280       ??_C@_09EHGCFPAG@plil2strm@ 000000018018d280     decode_scratchpad.obj
 0002:00016290       ??_C@_09NCAOLJPD@plil3keep@ 000000018018d290     decode_scratchpad.obj
 0002:000162a0       ??_C@_09IMDOIMKD@plil3strm@ 000000018018d2a0     decode_scratchpad.obj
 0002:000162ac       ??_C@_03PCLPFMGD@?$CD14@   000000018018d2ac     decode_scratchpad.obj
 0002:000162b0       ??_C@_03OLKEGNCC@?$CD15@   000000018018d2b0     decode_scratchpad.obj
 0002:000162b8       ??_C@_09LABLBKC@pstl1keep@ 000000018018d2b8     decode_scratchpad.obj
 0002:000162c8       ??_C@_09FFDBIEPC@pstl1strm@ 000000018018d2c8     decode_scratchpad.obj
 0002:000162d8       ??_C@_09INJFMDAM@pstl2keep@ 000000018018d2d8     decode_scratchpad.obj
 0002:000162e8       ??_C@_09NDKFPGFM@pstl2strm@ 000000018018d2e8     decode_scratchpad.obj
 0002:000162f8       ??_C@_09EGMJBAKJ@pstl3keep@ 000000018018d2f8     decode_scratchpad.obj
 0002:00016308       ??_C@_09BIPJCFPJ@pstl3strm@ 000000018018d308     decode_scratchpad.obj
 0002:00016314       ??_C@_03KGKDEFLM@?$CD22@   000000018018d314     decode_scratchpad.obj
 0002:00016318       ??_C@_03LPLIHEPN@?$CD23@   000000018018d318     decode_scratchpad.obj
 0002:0001631c       ??_C@_03PAPJOCDK@?$CD24@   000000018018d31c     decode_scratchpad.obj
 0002:00016320       ??_C@_03OJOCNDHL@?$CD25@   000000018018d320     decode_scratchpad.obj
 0002:00016324       ??_C@_03MCMPIALI@?$CD26@   000000018018d324     decode_scratchpad.obj
 0002:00016328       ??_C@_03NLNELBPJ@?$CD27@   000000018018d328     decode_scratchpad.obj
 0002:0001632c       ??_C@_03FMEMKNDG@?$CD28@   000000018018d32c     decode_scratchpad.obj
 0002:00016330       ??_C@_03EFFHJMHH@?$CD29@   000000018018d330     decode_scratchpad.obj
 0002:00016334       ??_C@_03JFFHENAJ@?$CD30@   000000018018d334     decode_scratchpad.obj
 0002:00016338       ??_C@_03IMEMHMEI@?$CD31@   000000018018d338     decode_scratchpad.obj
 0002:0001633c       ??_C@_05KKCIMGE@error@     000000018018d33c     decode_scratchpad.obj
 0002:00016344       ??_C@_04BPIECFNM@pow2@     000000018018d344     decode_scratchpad.obj
 0002:0001634c       ??_C@_03BHHPOKFF@vl1@      000000018018d34c     decode_scratchpad.obj
 0002:00016350       ??_C@_03DMFCLJJG@vl2@      000000018018d350     decode_scratchpad.obj
 0002:00016354       ??_C@_03CFEJIINH@vl3@      000000018018d354     decode_scratchpad.obj
 0002:00016358       ??_C@_03GKAIBOBA@vl4@      000000018018d358     decode_scratchpad.obj
 0002:0001635c       ??_C@_03HDBDCPFB@vl5@      000000018018d35c     decode_scratchpad.obj
 0002:00016360       ??_C@_03FIDOHMJC@vl6@      000000018018d360     decode_scratchpad.obj
 0002:00016364       ??_C@_03EBCFENND@vl7@      000000018018d364     decode_scratchpad.obj
 0002:00016368       ??_C@_03MGLNFBBM@vl8@      000000018018d368     decode_scratchpad.obj
 0002:0001636c       ??_C@_04JCAKELOE@vl16@     000000018018d36c     decode_scratchpad.obj
 0002:00016374       ??_C@_04PFOCFKIO@vl32@     000000018018d374     decode_scratchpad.obj
 0002:0001637c       ??_C@_04KFHDDPOD@vl64@     000000018018d37c     decode_scratchpad.obj
 0002:00016384       ??_C@_05LHGDDIAN@vl128@    000000018018d384     decode_scratchpad.obj
 0002:0001638c       ??_C@_05DOBKKMOI@vl256@    000000018018d38c     decode_scratchpad.obj
 0002:00016394       ??_C@_04POHJCKAD@mul4@     000000018018d394     decode_scratchpad.obj
 0002:0001639c       ??_C@_04LBDILMME@mul3@     000000018018d39c     decode_scratchpad.obj
 0002:000163a4       ??_C@_03NFKEKGGK@all@      000000018018d3a4     decode_scratchpad.obj
 0002:000163a8       ??_C@_02JFGJGFGH@c0@       000000018018d3a8     decode_scratchpad.obj
 0002:000163ac       ??_C@_02IMHCFECG@c1@       000000018018d3ac     decode_scratchpad.obj
 0002:000163b0       ??_C@_02KHFPAHOF@c2@       000000018018d3b0     decode_scratchpad.obj
 0002:000163b4       ??_C@_02LOEEDGKE@c3@       000000018018d3b4     decode_scratchpad.obj
 0002:000163b8       ??_C@_02PBAFKAGD@c4@       000000018018d3b8     decode_scratchpad.obj
 0002:000163bc       ??_C@_02OIBOJBCC@c5@       000000018018d3bc     decode_scratchpad.obj
 0002:000163c0       ??_C@_02MDDDMCOB@c6@       000000018018d3c0     decode_scratchpad.obj
 0002:000163c4       ??_C@_02NKCIPDKA@c7@       000000018018d3c4     decode_scratchpad.obj
 0002:000163c8       ??_C@_02FNLAOPGP@c8@       000000018018d3c8     decode_scratchpad.obj
 0002:000163cc       ??_C@_02EEKLNOCO@c9@       000000018018d3cc     decode_scratchpad.obj
 0002:000163d0       ??_C@_03NMHMBFK@c10@       000000018018d3d0     decode_scratchpad.obj
 0002:000163d4       ??_C@_03BENMPABL@c11@      000000018018d3d4     decode_scratchpad.obj
 0002:000163d8       ??_C@_03DPPBKDNI@c12@      000000018018d3d8     decode_scratchpad.obj
 0002:000163dc       ??_C@_03CGOKJCJJ@c13@      000000018018d3dc     decode_scratchpad.obj
 0002:000163e0       ??_C@_03GJKLAEFO@c14@      000000018018d3e0     decode_scratchpad.obj
 0002:000163e4       ??_C@_03HALADFBP@c15@      000000018018d3e4     decode_scratchpad.obj
 0002:000163e8       ??_C@_05GEIBIIOP@csync@    000000018018d3e8     decode_scratchpad.obj
 0002:000163f0       ??_C@_03IMIFIBCN@mul@      000000018018d3f0     decode_scratchpad.obj
 0002:000163f4       ??_C@_04CHECNANC@rctx@     000000018018d3f4     decode_scratchpad.obj
 0002:000163fc       ??_C@_05FJIIKNEN@S1E1R@    000000018018d3fc     decode_scratchpad.obj
 0002:00016404       ??_C@_05CEPPFJAI@S1E1W@    000000018018d404     decode_scratchpad.obj
 0002:0001640c       ??_C@_05FIEKMHHK@S1E0R@    000000018018d40c     decode_scratchpad.obj
 0002:00016414       ??_C@_05CFDNDDDP@S1E0W@    000000018018d414     decode_scratchpad.obj
 0002:0001641c       ??_C@_06LCIPOINE@S1E1RP@   000000018018d41c     decode_scratchpad.obj
 0002:00016424       ??_C@_06LEEECKDP@S1E1WP@   000000018018d424     decode_scratchpad.obj
 0002:0001642c       ??_C@_05DIGHOMNP@S1E1A@    000000018018d42c     decode_scratchpad.obj
 0002:00016434       ??_C@_05FLMOBDBE@S1E2R@    000000018018d434     decode_scratchpad.obj
 0002:0001643c       ??_C@_05CGLJOHFB@S1E2W@    000000018018d43c     decode_scratchpad.obj
 0002:00016444       ??_C@_06GFIHPEDL@S12E1R@   000000018018d444     decode_scratchpad.obj
 0002:0001644c       ??_C@_06BIPAAAHO@S12E1W@   000000018018d44c     decode_scratchpad.obj
 0002:00016454       ??_C@_06GEEFJOAM@S12E0R@   000000018018d454     decode_scratchpad.obj
 0002:0001645c       ??_C@_06BJDCGKEJ@S12E0W@   000000018018d45c     decode_scratchpad.obj
 0002:00016464       ??_C@_05DKCBFCIG@S1E2A@    000000018018d464     decode_scratchpad.obj
 0002:0001646c       ??_C@_05FKAMHJCD@S1E3R@    000000018018d46c     decode_scratchpad.obj
 0002:00016474       ??_C@_05CHHLINGG@S1E3W@    000000018018d474     decode_scratchpad.obj
 0002:0001647c       ??_C@_05DLODDILB@S1E3A@    000000018018d47c     decode_scratchpad.obj
 0002:00016488       ??_C@_08CHHGCPCC@RESERVED@ 000000018018d488     decode_scratchpad.obj
 0002:00016494       ??_C@_04CIFEJJJF@IVAC@     000000018018d494     decode_scratchpad.obj
 0002:0001649c       ??_C@_03KDKHGMCO@ISW@      000000018018d49c     decode_scratchpad.obj
 0002:000164a0       ??_C@_05MINDCKOO@IGVAC@    000000018018d4a0     decode_scratchpad.obj
 0002:000164a8       ??_C@_04PBPNAJCE@IGSW@     000000018018d4a8     decode_scratchpad.obj
 0002:000164b0       ??_C@_06EIEEHPDJ@IGDVAC@   000000018018d4b0     decode_scratchpad.obj
 0002:000164b8       ??_C@_05DMPBFLB@IGDSW@     000000018018d4b8     decode_scratchpad.obj
 0002:000164c0       ??_C@_03MMBKIMEK@CSW@      000000018018d4c0     decode_scratchpad.obj
 0002:000164c4       ??_C@_04LLENBBIF@CGSW@     000000018018d4c4     decode_scratchpad.obj
 0002:000164cc       ??_C@_05KCFEDGNH@CGDSW@    000000018018d4cc     decode_scratchpad.obj
 0002:000164d4       ??_C@_04FLJCGGLG@CISW@     000000018018d4d4     decode_scratchpad.obj
 0002:000164dc       ??_C@_05PNBCHFI@CIGSW@     000000018018d4dc     decode_scratchpad.obj
 0002:000164e4       ??_C@_06FKICAEII@CIGDSW@   000000018018d4e4     decode_scratchpad.obj
 0002:000164ec       ??_C@_06FGPGDBNF@CIVAPS@   000000018018d4ec     decode_scratchpad.obj
 0002:000164f8       ??_C@_08LEIPCLMM@CIGDVAPS@ 000000018018d4f8     decode_scratchpad.obj
 0002:00016504       ??_C@_03PLFIODGD@ZVA@      000000018018d504     decode_scratchpad.obj
 0002:00016508       ??_C@_03FJCLGMCB@GVA@      000000018018d508     decode_scratchpad.obj
 0002:0001650c       ??_C@_04PGONEPDL@GZVA@     000000018018d50c     decode_scratchpad.obj
 0002:00016514       ??_C@_04GCOEIBDE@CVAC@     000000018018d514     decode_scratchpad.obj
 0002:0001651c       ??_C@_05GJEIAJII@CGVAC@    000000018018d51c     decode_scratchpad.obj
 0002:00016524       ??_C@_06OMDECAHH@CGDVAC@   000000018018d524     decode_scratchpad.obj
 0002:0001652c       ??_C@_05PDJIPFJG@CVAOC@    000000018018d52c     decode_scratchpad.obj
 0002:00016534       ??_C@_04HOHMDEOD@CVAU@     000000018018d534     decode_scratchpad.obj
 0002:00016540       ??_C@_07BMMDDFBN@CGDVAOC@  000000018018d540     decode_scratchpad.obj
 0002:00016548       ??_C@_04DALMAKG@CVAP@      000000018018d548     decode_scratchpad.obj
 0002:00016550       ??_C@_05IKHEIBK@CGVAP@     000000018018d550     decode_scratchpad.obj
 0002:00016558       ??_C@_06INNLGBOF@CGDVAP@   000000018018d558     decode_scratchpad.obj
 0002:00016560       ??_C@_05JOCCFLOF@CVADP@    000000018018d560     decode_scratchpad.obj
 0002:00016568       ??_C@_06FMPOAIMK@CGVADP@   000000018018d568     decode_scratchpad.obj
 0002:00016570       ??_C@_07HBHJJLGO@CGDVADP@  000000018018d570     decode_scratchpad.obj
 0002:00016578       ??_C@_05NGHILHOJ@CIVAC@    000000018018d578     decode_scratchpad.obj
 0002:00016580       ??_C@_06JBJODLNH@CIGVAC@   000000018018d580     decode_scratchpad.obj
 0002:00016588       ??_C@_07BHBILKCA@CIGDVAC@  000000018018d588     decode_scratchpad.obj
 0002:00016590       ??_C@_06LEOMHMJ@CIVAOC@    000000018018d590     decode_scratchpad.obj
 0002:00016598       ??_C@_08OJDHNNNA@CIGDVAOC@ 000000018018d598     decode_scratchpad.obj
 0002:000165a4       ??_C@_05KFEJEPLD@CIPAE@    000000018018d5a4     decode_scratchpad.obj
 0002:000165b0       ??_C@_07GECJECHK@CIGDPAE@  000000018018d5b0     decode_scratchpad.obj
 0002:000165b8       ??_C@_06KBECLEKG@CIPAPA@   000000018018d5b8     decode_scratchpad.obj
 0002:000165c0       ??_C@_08EDDLKOLP@CIGDPAPA@ 000000018018d5c0     decode_scratchpad.obj
 0002:000165d0       ??_C@_07EELJADAO@ialluis@  000000018018d5d0     decode_scratchpad.obj
 0002:000165d8       ??_C@_05KHOBKJHP@iallu@    000000018018d5d8     decode_scratchpad.obj
 0002:000165e0       ??_C@_04PIPGMODK@ivau@     000000018018d5e0     decode_scratchpad.obj
 0002:000165e8       ??_C@_02OFPDOIKH@?$CD0@    000000018018d5e8     decode_scratchpad.obj
 0002:000165ec       ??_C@_05LHCDDKMH@oshld@    000000018018d5ec     decode_scratchpad.obj
 0002:000165f4       ??_C@_05OKJLMMNL@oshst@    000000018018d5f4     decode_scratchpad.obj
 0002:000165fc       ??_C@_03EGGNPABA@osh@      000000018018d5fc     decode_scratchpad.obj
 0002:00016600       ??_C@_02IBJPCNKD@?$CD4@    000000018018d600     decode_scratchpad.obj
 0002:00016604       ??_C@_05HMHPOJGC@nshld@    000000018018d604     decode_scratchpad.obj
 0002:0001660c       ??_C@_05CBMHBPHO@nshst@    000000018018d60c     decode_scratchpad.obj
 0002:00016614       ??_C@_03PONBJHHF@nsh@      000000018018d614     decode_scratchpad.obj
 0002:00016618       ??_C@_02CNCKGCKP@?$CD8@    000000018018d618     decode_scratchpad.obj
 0002:0001661c       ??_C@_05GBHKNJNK@ishld@    000000018018d61c     decode_scratchpad.obj
 0002:00016624       ??_C@_05DMMCCPMG@ishst@    000000018018d624     decode_scratchpad.obj
 0002:0001662c       ??_C@_03GDAGKPMM@ish@      000000018018d62c     decode_scratchpad.obj
 0002:00016630       ??_C@_03KEOFPLOF@?$CD12@   000000018018d630     decode_scratchpad.obj
 0002:00016634       ??_C@_02EAOCLKAK@ld@       000000018018d634     decode_scratchpad.obj
 0002:00016638       ??_C@_02BNFKEMBG@st@       000000018018d638     decode_scratchpad.obj
 0002:0001663c       ??_C@_02KIPEDCFL@sy@       000000018018d63c     decode_scratchpad.obj
 0002:00016640       ??_C@_06BDFJKOMB@oshnXS@   000000018018d640     decode_scratchpad.obj
 0002:00016648       ??_C@_06LFCOKFHF@nshnXS@   000000018018d648     decode_scratchpad.obj
 0002:00016650       ??_C@_06HAIJJLPL@ishnXS@   000000018018d650     decode_scratchpad.obj
 0002:00016658       ??_C@_05BPIJFCCC@synXS@    000000018018d658     decode_scratchpad.obj
 0002:00016660       ??_C@_02CLJDIHEM@SM@       000000018018d660     decode_scratchpad.obj
 0002:00016664       ??_C@_02IIPHPDMP@ZA@       000000018018d664     decode_scratchpad.obj
 0002:00016668       ??_C@_09DLLDIMOB@vmalle1os@ 000000018018d668     decode_scratchpad.obj
 0002:00016674       ??_C@_06HAFPNILO@vae1os@   000000018018d674     decode_scratchpad.obj
 0002:00016680       ??_C@_08KDKGGNGO@aside1os@ 000000018018d680     decode_scratchpad.obj
 0002:00016690       ??_C@_07EAFHOCPO@vaae1os@  000000018018d690     decode_scratchpad.obj
 0002:00016698       ??_C@_07PMMJPBCA@vale1os@  000000018018d698     decode_scratchpad.obj
 0002:000166a0       ??_C@_08IKCFLIIK@vaale1os@ 000000018018d6a0     decode_scratchpad.obj
 0002:000166b0       ??_C@_07GCOJDCPG@rvae1is@  000000018018d6b0     decode_scratchpad.obj
 0002:000166b8       ??_C@_08BJKELONI@rvaae1is@ 000000018018d6b8     decode_scratchpad.obj
 0002:000166c8       ??_C@_08KFDKKNAG@rvale1is@ 000000018018d6c8     decode_scratchpad.obj
 0002:000166d8       ??_C@_09HJJHONEF@rvaale1is@ 000000018018d6d8     decode_scratchpad.obj
 0002:000166e8       ??_C@_09DPDOPAFD@vmalle1is@ 000000018018d6e8     decode_scratchpad.obj
 0002:000166f4       ??_C@_06HENCKEAM@vae1is@   000000018018d6f4     decode_scratchpad.obj
 0002:00016700       ??_C@_08KHCLBBNM@aside1is@ 000000018018d700     decode_scratchpad.obj
 0002:00016710       ??_C@_07EENKJOEM@vaae1is@  000000018018d710     decode_scratchpad.obj
 0002:00016718       ??_C@_07PIEEINJC@vale1is@  000000018018d718     decode_scratchpad.obj
 0002:00016720       ??_C@_08IOKIMEDI@vaale1is@ 000000018018d720     decode_scratchpad.obj
 0002:00016730       ??_C@_07GGGEEOEE@rvae1os@  000000018018d730     decode_scratchpad.obj
 0002:00016738       ??_C@_08BNCJMCGK@rvaae1os@ 000000018018d738     decode_scratchpad.obj
 0002:00016748       ??_C@_08KBLHNBLE@rvale1os@ 000000018018d748     decode_scratchpad.obj
 0002:00016758       ??_C@_09HNBKJBPH@rvaale1os@ 000000018018d758     decode_scratchpad.obj
 0002:00016764       ??_C@_05HFJOHJOG@rvae1@    000000018018d764     decode_scratchpad.obj
 0002:0001676c       ??_C@_06GLJGMPLN@rvaae1@   000000018018d76c     decode_scratchpad.obj
 0002:00016774       ??_C@_06JJPMBHGA@rvale1@   000000018018d774     decode_scratchpad.obj
 0002:00016780       ??_C@_07GFFLJHKK@rvaale1@  000000018018d780     decode_scratchpad.obj
 0002:00016788       ??_C@_07HMFIJFNF@vmalle1@  000000018018d788     decode_scratchpad.obj
 0002:00016790       ??_C@_04EEJEIDJC@vae1@     000000018018d790     decode_scratchpad.obj
 0002:00016798       ??_C@_06GKMDGDKO@aside1@   000000018018d798     decode_scratchpad.obj
 0002:000167a0       ??_C@_05DMMPHAGC@vaae1@    000000018018d7a0     decode_scratchpad.obj
 0002:000167a8       ??_C@_05MOKFKILP@vale1@    000000018018d7a8     decode_scratchpad.obj
 0002:000167b0       ??_C@_06HDGAABFA@vaale1@   000000018018d7b0     decode_scratchpad.obj
 0002:000167b8       ??_C@_0N@OIHHBMDA@vmalle1osnxs@ 000000018018d7b8     decode_scratchpad.obj
 0002:000167c8       ??_C@_09PIPMEDPF@vae1osnxs@ 000000018018d7c8     decode_scratchpad.obj
 0002:000167d8       ??_C@_0M@CIKGGGFD@aside1osnxs@ 000000018018d7d8     decode_scratchpad.obj
 0002:000167e8       ??_C@_0L@KDBEJIEO@vaae1osnxs@ 000000018018d7e8     decode_scratchpad.obj
 0002:000167f8       ??_C@_0L@FCFLHPBJ@vale1osnxs@ 000000018018d7f8     decode_scratchpad.obj
 0002:00016808       ??_C@_0M@OLDPNMG@vaale1osnxs@ 000000018018d808     decode_scratchpad.obj
 0002:00016818       ??_C@_0L@OGJCEA@rvae1isnxs@ 000000018018d818     decode_scratchpad.obj
 0002:00016828       ??_C@_0M@KNGOBDLL@rvaae1isnxs@ 000000018018d828     decode_scratchpad.obj
 0002:00016838       ??_C@_0M@FMCBPEOM@rvale1isnxs@ 000000018018d838     decode_scratchpad.obj
 0002:00016848       ??_C@_0N@HGODFHPJ@rvaale1isnxs@ 000000018018d848     decode_scratchpad.obj
 0002:00016858       ??_C@_0N@DOCOPPCN@vmalle1isnxs@ 000000018018d858     decode_scratchpad.obj
 0002:00016868       ??_C@_09COKFKAOI@vae1isnxs@ 000000018018d868     decode_scratchpad.obj
 0002:00016878       ??_C@_0M@POPPIFEO@aside1isnxs@ 000000018018d878     decode_scratchpad.obj
 0002:00016888       ??_C@_0L@HFENHLFD@vaae1isnxs@ 000000018018d888     decode_scratchpad.obj
 0002:00016898       ??_C@_0L@IEACJMAE@vale1isnxs@ 000000018018d898     decode_scratchpad.obj
 0002:000168a8       ??_C@_0M@NIOKBONL@vaale1isnxs@ 000000018018d8a8     decode_scratchpad.obj
 0002:000168b8       ??_C@_0L@NGLPHBFN@rvae1osnxs@ 000000018018d8b8     decode_scratchpad.obj
 0002:000168c8       ??_C@_0M@HLDHPAKG@rvaae1osnxs@ 000000018018d8c8     decode_scratchpad.obj
 0002:000168d8       ??_C@_0M@IKHIBHPB@rvale1osnxs@ 000000018018d8d8     decode_scratchpad.obj
 0002:000168e8       ??_C@_0N@KALKLEOE@rvaale1osnxs@ 000000018018d8e8     decode_scratchpad.obj
 0002:000168f8       ??_C@_08MBCMEDHG@rvae1nxs@ 000000018018d8f8     decode_scratchpad.obj
 0002:00016908       ??_C@_09BNIBADDF@rvaae1nxs@ 000000018018d908     decode_scratchpad.obj
 0002:00016918       ??_C@_09HMFGGCPF@rvale1nxs@ 000000018018d918     decode_scratchpad.obj
 0002:00016928       ??_C@_0L@JDFPNPJP@rvaale1nxs@ 000000018018d928     decode_scratchpad.obj
 0002:00016938       ??_C@_0L@GHMNMDND@vmalle1nxs@ 000000018018d938     decode_scratchpad.obj
 0002:00016948       ??_C@_07JMFCGDOC@vae1nxs@  000000018018d948     decode_scratchpad.obj
 0002:00016950       ??_C@_09BKFCEIID@aside1nxs@ 000000018018d950     decode_scratchpad.obj
 0002:00016960       ??_C@_08OKLOCKEI@vaae1nxs@ 000000018018d960     decode_scratchpad.obj
 0002:00016970       ??_C@_08ILGJELII@vale1nxs@ 000000018018d970     decode_scratchpad.obj
 0002:00016980       ??_C@_09LNBMONDH@vaale1nxs@ 000000018018d980     decode_scratchpad.obj
 0002:00016990       ??_C@_09BDAGAKLA@ipas2e1is@ 000000018018d990     decode_scratchpad.obj
 0002:000169a0       ??_C@_0L@DNEFDIBI@ripas2e1is@ 000000018018d9a0     decode_scratchpad.obj
 0002:000169b0       ??_C@_0L@DKPEKGJL@ipas2le1is@ 000000018018d9b0     decode_scratchpad.obj
 0002:000169c0       ??_C@_0M@OCNHMOHD@ripas2le1is@ 000000018018d9c0     decode_scratchpad.obj
 0002:000169d0       ??_C@_07PJNFAHDM@alle2os@  000000018018d9d0     decode_scratchpad.obj
 0002:000169d8       ??_C@_06GCOKHHFA@vae2os@   000000018018d9d8     decode_scratchpad.obj
 0002:000169e0       ??_C@_07OLGAKINC@alle1os@  000000018018d9e0     decode_scratchpad.obj
 0002:000169e8       ??_C@_07OOHMFOMO@vale2os@  000000018018d9e8     decode_scratchpad.obj
 0002:000169f0       ??_C@_0N@IHBEPHJG@vmalls12e1os@ 000000018018d9f0     decode_scratchpad.obj
 0002:00016a00       ??_C@_07HAFMJNBI@rvae2is@  000000018018da00     decode_scratchpad.obj
 0002:00016a08       ??_C@_0N@NEEHOBIO@vmallws2e1is@ 000000018018da08     decode_scratchpad.obj
 0002:00016a18       ??_C@_08LHIPACOI@rvale2is@ 000000018018da18     decode_scratchpad.obj
 0002:00016a28       ??_C@_07PNFIHLIO@alle2is@  000000018018da28     decode_scratchpad.obj
 0002:00016a30       ??_C@_06GGGHALOC@vae2is@   000000018018da30     decode_scratchpad.obj
 0002:00016a38       ??_C@_07OPONNEGA@alle1is@  000000018018da38     decode_scratchpad.obj
 0002:00016a40       ??_C@_07OKPBCCHM@vale2is@  000000018018da40     decode_scratchpad.obj
 0002:00016a48       ??_C@_0N@IDJJILCE@vmalls12e1is@ 000000018018da48     decode_scratchpad.obj
 0002:00016a58       ??_C@_09BHILHGAC@ipas2e1os@ 000000018018da58     decode_scratchpad.obj
 0002:00016a68       ??_C@_07BGKIDDJO@ipas2e1@  000000018018da68     decode_scratchpad.obj
 0002:00016a70       ??_C@_08ELNGBDAK@ripas2e1@ 000000018018da70     decode_scratchpad.obj
 0002:00016a80       ??_C@_0L@DJMIEEKK@ripas2e1os@ 000000018018da80     decode_scratchpad.obj
 0002:00016a90       ??_C@_0L@DOHJNKCJ@ipas2le1os@ 000000018018da90     decode_scratchpad.obj
 0002:00016aa0       ??_C@_08MHEBNICE@ipas2le1@ 000000018018daa0     decode_scratchpad.obj
 0002:00016ab0       ??_C@_09DAHOPBFJ@ripas2le1@ 000000018018dab0     decode_scratchpad.obj
 0002:00016ac0       ??_C@_0M@OGFKLCMB@ripas2le1os@ 000000018018dac0     decode_scratchpad.obj
 0002:00016ad0       ??_C@_07HENBOBKK@rvae2os@  000000018018dad0     decode_scratchpad.obj
 0002:00016ad8       ??_C@_0N@NAMKJNDM@vmallws2e1os@ 000000018018dad8     decode_scratchpad.obj
 0002:00016ae8       ??_C@_08LDACHOFK@rvale2os@ 000000018018dae8     decode_scratchpad.obj
 0002:00016af4       ??_C@_05FOLDCKCF@rvae2@    000000018018daf4     decode_scratchpad.obj
 0002:00016b00       ??_C@_0L@FMIKMGNE@vmallws2e1@ 000000018018db00     decode_scratchpad.obj
 0002:00016b0c       ??_C@_06LCNBEEKD@rvale2@   000000018018db0c     decode_scratchpad.obj
 0002:00016b14       ??_C@_05DMLANOO@alle2@     000000018018db14     decode_scratchpad.obj
 0002:00016b1c       ??_C@_04GPLJNAFB@vae2@     000000018018db1c     decode_scratchpad.obj
 0002:00016b24       ??_C@_05CIOGFOCN@alle1@    000000018018db24     decode_scratchpad.obj
 0002:00016b2c       ??_C@_05OFIIPLHM@vale2@    000000018018db2c     decode_scratchpad.obj
 0002:00016b38       ??_C@_0L@OFCIIPOL@vmalls12e1@ 000000018018db38     decode_scratchpad.obj
 0002:00016b48       ??_C@_0N@FDNLCAFB@ipas2e1isnxs@ 000000018018db48     decode_scratchpad.obj
 0002:00016b58       ??_C@_0O@IGBFGIPM@ripas2e1isnxs@ 000000018018db58     decode_scratchpad.obj
 0002:00016b68       ??_C@_0O@DGMCOJKM@ipas2le1isnxs@ 000000018018db68     decode_scratchpad.obj
 0002:00016b78       ??_C@_0P@JOHAPILB@ripas2le1isnxs@ 000000018018db78     decode_scratchpad.obj
 0002:00016b88       ??_C@_0L@BBIADPHM@alle2osnxs@ 000000018018db88     decode_scratchpad.obj
 0002:00016b98       ??_C@_09MJBEFJGI@vae2osnxs@ 000000018018db98     decode_scratchpad.obj
 0002:00016ba8       ??_C@_0L@CAGICFOB@alle1osnxs@ 000000018018dba8     decode_scratchpad.obj
 0002:00016bb8       ??_C@_0L@GDLDGFIE@vale2osnxs@ 000000018018dbb8     decode_scratchpad.obj
 0002:00016bc8       ??_C@_0BA@DNLAPECP@vmalls12e1osnxs@ 000000018018dbc8     decode_scratchpad.obj
 0002:00016bd8       ??_C@_0L@DBAOIINN@rvae2isnxs@ 000000018018dbd8     decode_scratchpad.obj
 0002:00016be8       ??_C@_0BA@MBHPLDCN@vmallws2e1isnxs@ 000000018018dbe8     decode_scratchpad.obj
 0002:00016bf8       ??_C@_0M@GNMJOOHB@rvale2isnxs@ 000000018018dbf8     decode_scratchpad.obj
 0002:00016c08       ??_C@_0L@MHNJNMGB@alle2isnxs@ 000000018018dc08     decode_scratchpad.obj
 0002:00016c18       ??_C@_09BPENLKHF@vae2isnxs@ 000000018018dc18     decode_scratchpad.obj
 0002:00016c28       ??_C@_0L@PGDBMGPM@alle1isnxs@ 000000018018dc28     decode_scratchpad.obj
 0002:00016c38       ??_C@_0L@LFOKIGJJ@vale2isnxs@ 000000018018dc38     decode_scratchpad.obj
 0002:00016c48       ??_C@_0BA@OLOJBHDC@vmalls12e1isnxs@ 000000018018dc48     decode_scratchpad.obj
 0002:00016c58       ??_C@_0N@IFICMDEM@ipas2e1osnxs@ 000000018018dc58     decode_scratchpad.obj
 0002:00016c68       ??_C@_0L@FOOCEIOL@ipas2e1nxs@ 000000018018dc68     decode_scratchpad.obj
 0002:00016c78       ??_C@_0M@IGMBCAAD@ripas2e1nxs@ 000000018018dc78     decode_scratchpad.obj
 0002:00016c88       ??_C@_0O@FAEMILOB@ripas2e1osnxs@ 000000018018dc88     decode_scratchpad.obj
 0002:00016c98       ??_C@_0O@OAJLAKLB@ipas2le1osnxs@ 000000018018dc98     decode_scratchpad.obj
 0002:00016ca8       ??_C@_0M@PCHHEDAH@ipas2le1nxs@ 000000018018dca8     decode_scratchpad.obj
 0002:00016cb8       ??_C@_0N@FMHOAKCF@ripas2le1nxs@ 000000018018dcb8     decode_scratchpad.obj
 0002:00016cc8       ??_C@_0P@EICJBLKM@ripas2le1osnxs@ 000000018018dcc8     decode_scratchpad.obj
 0002:00016cd8       ??_C@_0L@OHFHGLMA@rvae2osnxs@ 000000018018dcd8     decode_scratchpad.obj
 0002:00016ce8       ??_C@_0BA@BHCGFADA@vmallws2e1osnxs@ 000000018018dce8     decode_scratchpad.obj
 0002:00016cf8       ??_C@_0M@LLJAANGM@rvale2osnxs@ 000000018018dcf8     decode_scratchpad.obj
 0002:00016d08       ??_C@_08IGIMDJKG@rvae2nxs@ 000000018018dd08     decode_scratchpad.obj
 0002:00016d18       ??_C@_0O@JPEEBEKL@vmallws2e1nxs@ 000000018018dd18     decode_scratchpad.obj
 0002:00016d28       ??_C@_09DLPGBICF@rvale2nxs@ 000000018018dd28     decode_scratchpad.obj
 0002:00016d38       ??_C@_08JPGNALDB@alle2nxs@ 000000018018dd38     decode_scratchpad.obj
 0002:00016d48       ??_C@_07NLPCBJDC@vae2nxs@  000000018018dd48     decode_scratchpad.obj
 0002:00016d50       ??_C@_08NIMNHBOB@alle1nxs@ 000000018018dd50     decode_scratchpad.obj
 0002:00016d60       ??_C@_08MMMJDBFI@vale2nxs@ 000000018018dd60     decode_scratchpad.obj
 0002:00016d70       ??_C@_0O@KJBAIADH@vmalls12e1nxs@ 000000018018dd70     decode_scratchpad.obj
 0002:00016d80       ??_C@_07EBGJGAFJ@alle3os@  000000018018dd80     decode_scratchpad.obj
 0002:00016d88       ??_C@_06NKFGBADF@vae3os@   000000018018dd88     decode_scratchpad.obj
 0002:00016d90       ??_C@_07LCEPFOHH@paallos@  000000018018dd90     decode_scratchpad.obj
 0002:00016d98       ??_C@_07FGMADJKL@vale3os@  000000018018dd98     decode_scratchpad.obj
 0002:00016da0       ??_C@_07MIOAPKHN@rvae3is@  000000018018dda0     decode_scratchpad.obj
 0002:00016da8       ??_C@_08PDDGFIN@rvale3is@  000000018018dda8     decode_scratchpad.obj
 0002:00016db8       ??_C@_07EFOEBMOL@alle3is@  000000018018ddb8     decode_scratchpad.obj
 0002:00016dc0       ??_C@_06NONLGMIH@vae3is@   000000018018ddc0     decode_scratchpad.obj
 0002:00016dc8       ??_C@_07FCENEFBJ@vale3is@  000000018018ddc8     decode_scratchpad.obj
 0002:00016dd0       ??_C@_05DFAGCEBH@rpaos@    000000018018ddd0     decode_scratchpad.obj
 0002:00016dd8       ??_C@_06IAHNFMCM@rpalos@   000000018018ddd8     decode_scratchpad.obj
 0002:00016de0       ??_C@_07MMGNIGMP@rvae3os@  000000018018dde0     decode_scratchpad.obj
 0002:00016de8       ??_C@_08LLOBJDP@rvale3os@  000000018018dde8     decode_scratchpad.obj
 0002:00016df4       ??_C@_05EHKIBLGE@rvae3@    000000018018ddf4     decode_scratchpad.obj
 0002:00016dfc       ??_C@_06KLMKHFOC@rvale3@   000000018018ddfc     decode_scratchpad.obj
 0002:00016e04       ??_C@_05BKNADMKP@alle3@    000000018018de04     decode_scratchpad.obj
 0002:00016e0c       ??_C@_04HGKCOBBA@vae3@     000000018018de0c     decode_scratchpad.obj
 0002:00016e14       ??_C@_05OKFCILOJ@paall@    000000018018de14     decode_scratchpad.obj
 0002:00016e1c       ??_C@_05PMJDMKDN@vale3@    000000018018de1c     decode_scratchpad.obj
 0002:00016e28       ??_C@_0L@LHPHDEMI@alle3osnxs@ 000000018018de28     decode_scratchpad.obj
 0002:00016e38       ??_C@_09GPGDFCNM@vae3osnxs@ 000000018018de38     decode_scratchpad.obj
 0002:00016e48       ??_C@_0L@MFMEGODA@vale3osnxs@ 000000018018de48     decode_scratchpad.obj
 0002:00016e58       ??_C@_0L@JHHJIDGJ@rvae3isnxs@ 000000018018de58     decode_scratchpad.obj
 0002:00016e68       ??_C@_0M@MLLOOFMF@rvale3isnxs@ 000000018018de68     decode_scratchpad.obj
 0002:00016e78       ??_C@_0L@GBKONHNF@alle3isnxs@ 000000018018de78     decode_scratchpad.obj
 0002:00016e88       ??_C@_09LJDKLBMB@vae3isnxs@ 000000018018de88     decode_scratchpad.obj
 0002:00016e98       ??_C@_0L@BDJNINCN@vale3isnxs@ 000000018018de98     decode_scratchpad.obj
 0002:00016ea8       ??_C@_0L@EBCAGAHE@rvae3osnxs@ 000000018018dea8     decode_scratchpad.obj
 0002:00016eb8       ??_C@_0M@BNOHAGNI@rvale3osnxs@ 000000018018deb8     decode_scratchpad.obj
 0002:00016ec8       ??_C@_08LLOMBABG@rvae3nxs@ 000000018018dec8     decode_scratchpad.obj
 0002:00016ed8       ??_C@_09GJGDBJF@rvale3nxs@ 000000018018ded8     decode_scratchpad.obj
 0002:00016ee8       ??_C@_08KCANCCIB@alle3nxs@ 000000018018dee8     decode_scratchpad.obj
 0002:00016ef8       ??_C@_07OGJCDAIC@vae3nxs@  000000018018def8     decode_scratchpad.obj
 0002:00016f00       ??_C@_08PBKJBIOI@vale3nxs@ 000000018018df00     decode_scratchpad.obj
 0002:00016f0c       ??_C@_01PAPGNFGE@c@        000000018018df0c     decode_scratchpad.obj
 0002:00016f10       ??_C@_01CBDEGOCN@j@        000000018018df10     decode_scratchpad.obj
 0002:00016f14       ??_C@_02LCOFAHP@jc@        000000018018df14     decode_scratchpad.obj
 0002:00016f18       ??_C@_03INNLDPPO@?41q@     000000018018df18     format.obj
 0002:00016f1c       ??_C@_03LICIGHLD@?42d@     000000018018df1c     format.obj
 0002:00016f20       ??_C@_03LJCGJPJH@?44s@     000000018018df20     format.obj
 0002:00016f24       ??_C@_03BJAKKNGJ@?48h@     000000018018df24     format.obj
 0002:00016f28       ??_C@_04HIJGJGEE@?416b@    000000018018df28     format.obj
 0002:00016f30       ??_C@_03LKGONJOK@?41d@     000000018018df30     format.obj
 0002:00016f34       ??_C@_03LNKLODCF@?42s@     000000018018df34     format.obj
 0002:00016f38       ??_C@_03BABAFEAN@?44h@     000000018018df38     format.obj
 0002:00016f3c       ??_C@_03ODOFEFOD@?48b@     000000018018df3c     format.obj
 0002:00016f40       ??_C@_03LPONFNHM@?41s@     000000018018df40     format.obj
 0002:00016f44       ??_C@_03BEJNCILP@?42h@     000000018018df44     format.obj
 0002:00016f48       ??_C@_03OKPPLMIH@?44b@     000000018018df48     format.obj
 0002:00016f4c       ??_C@_03BGNLJGOG@?41h@     000000018018df4c     format.obj
 0002:00016f50       ??_C@_03OMDEHOGM@?41b@     000000018018df50     format.obj
 0002:00016f54       ??_C@_02EEJAFLA@?4q@       000000018018df54     format.obj
 0002:00016f58       ??_C@_02DDPMODKE@?4d@      000000018018df58     format.obj
 0002:00016f5c       ??_C@_02DGHPGHDC@?4s@      000000018018df5c     format.obj
 0002:00016f60       ??_C@_02JPEJKMKI@?4h@      000000018018df60     format.obj
 0002:00016f64       ??_C@_02GFKGEECC@?4b@      000000018018df64     format.obj
 0002:00016f68       ??_C@_0BC@FPDLANAC@s?$CFd_?$CFd_c?$CFd_c?$CFd_?$CFd@ 000000018018df68     format.obj
 0002:00016f7c       ??_C@_02HIIGGHJB@eq@       000000018018df7c     format.obj
 0002:00016f80       ??_C@_02FKHNFPCF@ne@       000000018018df80     format.obj
 0002:00016f84       ??_C@_02EODNHJKB@cs@       000000018018df84     format.obj
 0002:00016f88       ??_C@_02EPPGLPA@cc@        000000018018df88     format.obj
 0002:00016f8c       ??_C@_02PEIOKOHA@mi@       000000018018df8c     format.obj
 0002:00016f90       ??_C@_02JNAHGKBG@pl@       000000018018df90     format.obj
 0002:00016f94       ??_C@_02FENABIDK@vs@       000000018018df94     format.obj
 0002:00016f98       ??_C@_02BOBCAKGL@vc@       000000018018df98     format.obj
 0002:00016f9c       ??_C@_02PCEFGMJL@hi@       000000018018df9c     format.obj
 0002:00016fa0       ??_C@_02EFGBDOJM@ls@       000000018018dfa0     format.obj
 0002:00016fa4       ??_C@_02FFKMGEKK@ge@       000000018018dfa4     format.obj
 0002:00016fa8       ??_C@_02KCAKIFL@lt@        000000018018dfa8     format.obj
 0002:00016fac       ??_C@_02GHFEHLK@gt@        000000018018dfac     format.obj
 0002:00016fb0       ??_C@_02FJPJILEL@le@       000000018018dfb0     format.obj
 0002:00016fb4       ??_C@_02IAODKDFB@al@       000000018018dfb4     format.obj
 0002:00016fb8       ??_C@_02DLJCBOLH@nv@       000000018018dfb8     format.obj
 0002:00016fbc       ??_C@_04OKGDLNCL@NONE@     000000018018dfbc     format.obj
 0002:00016fc4       ??_C@_03DALEJKPK@lsl@      000000018018dfc4     format.obj
 0002:00016fc8       ??_C@_03OEPFKFCF@lsr@      000000018018dfc8     format.obj
 0002:00016fcc       ??_C@_03BGJPHNPI@asr@      000000018018dfcc     format.obj
 0002:00016fd0       ??_C@_03EBAPNPJN@ror@      000000018018dfd0     format.obj
 0002:00016fd4       ??_C@_04JFOCMAJD@uxtw@     000000018018dfd4     format.obj
 0002:00016fdc       ??_C@_04BKKCDFDD@sxtw@     000000018018dfdc     format.obj
 0002:00016fe4       ??_C@_04JNDKCJPM@sxtx@     000000018018dfe4     format.obj
 0002:00016fec       ??_C@_04BCHKNMFM@uxtx@     000000018018dfec     format.obj
 0002:00016ff4       ??_C@_04CNBHNDCH@sxtb@     000000018018dff4     format.obj
 0002:00016ffc       ??_C@_04NHPIDLKN@sxth@     000000018018dffc     format.obj
 0002:00017004       ??_C@_04FILIMOAN@uxth@     000000018018e004     format.obj
 0002:0001700c       ??_C@_04KCFHCGIH@uxtb@     000000018018e00c     format.obj
 0002:00017014       ??_C@_03IIAIPNJP@msl@      000000018018e014     format.obj
 0002:00017018       ??_C@_05IFPBFKPF@?5?$CD?$CF?$CDx@ 000000018018e018     format.obj
 0002:00017020       ??_C@_06CHBNHHGH@?0?5?$CFs?$CFs@ 000000018018e020     format.obj
 0002:00017028       ??_C@_04HDOCAJNK@?$CFs?$CFs@ 000000018018e028     format.obj
 0002:00017030       ??_C@_01JOAMLHOP@?9@       000000018018e030     format.obj
 0002:00017034       ??_C@_04LIFAFMCE@?$FL?$CFs?$FN@ 000000018018e034     format.obj
 0002:00017040       ??_C@_0BA@MIBMIMHB@?$FL?$CFs?0?5?$CD?$CFs?$CF?$CDllx?$FN?$CB@ 000000018018e040     format.obj
 0002:00017050       ??_C@_04KHEKMLOH@?0?5?$CFs@ 000000018018e050     format.obj
 0002:00017058       ??_C@_0L@IGBCAAGB@?0?5?$CD?$CFs?$CF?$CDllx@ 000000018018e058     format.obj
 0002:00017064       ??_C@_06KJKBOKBH@?$FL?$CFs?$FN?$CFs@ 000000018018e064     format.obj
 0002:00017070       ??_C@_08FAAPEMNM@?0?5mul?5vl@ 000000018018e070     format.obj
 0002:00017080       ??_C@_0N@EGHCHCMK@?0?5?$CD?$CFs?$CF?$CDllx?$CFs@ 000000018018e080     format.obj
 0002:00017090       ??_C@_06GEBMDJEK@?$FL?$CFs?$CFs?$FN@ 000000018018e090     format.obj
 0002:00017098       ??_C@_0L@OJIEMJPE@?$FL?$CFs?0?5?$CFs?$CFs?$FN@ 000000018018e098     format.obj
 0002:000170a4       ??_C@_02DKCKIIND@?$CFs@    000000018018e0a4     format.obj
 0002:000170a8       ??_C@_05CPCJFDMB@?$CFs?1?$CFc@ 000000018018e0a8     format.obj
 0002:000170b0       ??_C@_04LMNNCAJG@?$FL?$CFu?$FN@ 000000018018e0b0     format.obj
 0002:000170b8       ??_C@_04KBDJOJNB@?$FL?$CFd?$FN@ 000000018018e0b8     format.obj
 0002:000170c0       ??_C@_06MGCOHMLF@?$HL?$CFs?$HN?$CFs@ 000000018018e0c0     format.obj
 0002:000170c8       ??_C@_0L@CJHDKEA@?$HL?$CFs?0?5?$CFs?$HN?$CFs@ 000000018018e0c8     format.obj
 0002:000170d8       ??_C@_0P@GODGDOPP@?$HL?$CFs?0?5?$CFs?0?5?$CFs?$HN?$CFs@ 000000018018e0d8     format.obj
 0002:000170e8       ??_C@_0BD@NPDGGIDE@?$HL?$CFs?0?5?$CFs?0?5?$CFs?0?5?$CFs?$HN?$CFs@ 000000018018e0e8     format.obj
 0002:00017100       ??_C@_08DNGMIJMP@?$CD?$CF?408f?$CFs@ 000000018018e100     format.obj
 0002:00017110       ??_C@_08ILIDBEKP@?$CD?$CFs?$CF?$CDx?$CFs@ 000000018018e110     format.obj
 0002:0001711c       ??_C@_06PDHLCDAK@0x?$CFllx@ 000000018018e11c     format.obj
 0002:00017128       ??_C@_0L@BKCNLHIA@?$CFs?5?$CD0x?$CFllx@ 000000018018e128     format.obj
 0002:00017138       ??_C@_0L@BDHEKMFC@?$CD?$CFs?$CF?$CDllx?$CFs@ 000000018018e138     format.obj
 0002:00017148       ??_C@_0M@GHOMCFKM@?$FL?$CFs?0?5?$CD?$CFllu?$FN@ 000000018018e148     format.obj
 0002:00017154       ??_C@_01IGIGCIAN@H@        000000018018e154     format.obj
 0002:00017158       ??_C@_01FCMHBHNC@V@        000000018018e158     format.obj
 0002:00017160       ??_C@_09HEIIIAMJ@Z?$CFd?$CFs?$CFs?$CFs@ 000000018018e160     format.obj
 0002:00017170       ??_C@_07BBNFEOLD@?0?5?$CD?$CFllu@ 000000018018e170     format.obj
 0002:00017178       ??_C@_0L@JCPLBLEJ@?$CFs?$CFs?$FL?$CFs?$CFs?$FN@ 000000018018e178     format.obj
 0002:00017188       ??_C@_0O@FIKFMDCM@ZA?$FL?$CFs?0?5?$CD?$CFllu?$FN@ 000000018018e188     format.obj
 0002:00017198       ??_C@_03JJCHMBFH@?7?$CFs@  000000018018e198     format.obj
 0002:000171a0       ??_C@_0N@FHAODGGC@?$CFs?$CFs?$CFs?$CFs?$CFs?$CFs@ 000000018018e1a0     format.obj
 0002:000171b0       ??_C@_03BCGAIFPO@abs@      000000018018e1b0     operations.obj
 0002:000171b4       ??_C@_03FMCPOLBN@adc@      000000018018e1b4     operations.obj
 0002:000171b8       ??_C@_05NOLCDAKC@adclb@    000000018018e1b8     operations.obj
 0002:000171c0       ??_C@_05MCCKIFHF@adclt@    000000018018e1c0     operations.obj
 0002:000171c8       ??_C@_04GHEIGJAH@adcs@     000000018018e1c8     operations.obj
 0002:000171d0       ??_C@_03BDGOHNNK@add@      000000018018e1d0     operations.obj
 0002:000171d4       ??_C@_04EMKJKINH@addg@     000000018018e1d4     operations.obj
 0002:000171dc       ??_C@_05GPEBPDAE@addha@    000000018018e1dc     operations.obj
 0002:000171e4       ??_C@_05OINJOPML@addhn@    000000018018e1e4     operations.obj
 0002:000171ec       ??_C@_06OBCOJGKG@addhn2@   000000018018e1ec     operations.obj
 0002:000171f4       ??_C@_06FLJFMLPC@addhnb@   000000018018e1f4     operations.obj
 0002:000171fc       ??_C@_06EHANHOCF@addhnt@   000000018018e1fc     operations.obj
 0002:00017204       ??_C@_04EJCKCMEB@addp@     000000018018e204     operations.obj
 0002:0001720c       ??_C@_05MINKHPIB@addpl@    000000018018e20c     operations.obj
 0002:00017214       ??_C@_04GCAHHPIC@adds@     000000018018e214     operations.obj
 0002:0001721c       ??_C@_04BPHAILMH@addv@     000000018018e21c     operations.obj
 0002:00017224       ??_C@_05HJPJHNHO@addva@    000000018018e224     operations.obj
 0002:0001722c       ??_C@_05MMFHADDD@addvl@    000000018018e22c     operations.obj
 0002:00017234       ??_C@_03PPGMIAN@adr@       000000018018e234     operations.obj
 0002:00017238       ??_C@_04FBIBPDID@adrp@     000000018018e238     operations.obj
 0002:00017240       ??_C@_04MGFBCJIE@aesd@     000000018018e240     operations.obj
 0002:00017248       ??_C@_04NPEKBIMF@aese@     000000018018e248     operations.obj
 0002:00017250       ??_C@_06OBOILLLI@aesimc@   000000018018e250     operations.obj
 0002:00017258       ??_C@_05KLBCBFPL@aesmc@    000000018018e258     operations.obj
 0002:00017260       ??_C@_03BOPJPIAM@and@      000000018018e260     operations.obj
 0002:00017264       ??_C@_04NLKJPOG@ands@      000000018018e264     operations.obj
 0002:0001726c       ??_C@_04HAMNGLKD@andv@     000000018018e26c     operations.obj
 0002:00017274       ??_C@_04LCOBELPA@asrd@     000000018018e274     operations.obj
 0002:0001727c       ??_C@_04KOHJPOCH@asrr@     000000018018e27c     operations.obj
 0002:00017284       ??_C@_04MKBFDLCD@asrv@     000000018018e284     operations.obj
 0002:0001728c       ??_C@_02CPIDLAI@at@        000000018018e28c     operations.obj
 0002:00017290       ??_C@_05GLMCODMN@autda@    000000018018e290     operations.obj
 0002:00017298       ??_C@_05EAOPLAAO@autdb@    000000018018e298     operations.obj
 0002:000172a0       ??_C@_06IJCLGKJJ@autdza@   000000018018e2a0     operations.obj
 0002:000172a8       ??_C@_06KCAGDJFK@autdzb@   000000018018e2a8     operations.obj
 0002:000172b0       ??_C@_05GDBKHAJO@autia@    000000018018e2b0     operations.obj
 0002:000172b8       ??_C@_09DAPAHLAC@autia1716@ 000000018018e2b8     operations.obj
 0002:000172c8       ??_C@_07MGEPBKEN@autiasp@  000000018018e2c8     operations.obj
 0002:000172d0       ??_C@_06MCAEDFEP@autiaz@   000000018018e2d0     operations.obj
 0002:000172d8       ??_C@_05EIDHCDFN@autib@    000000018018e2d8     operations.obj
 0002:000172e0       ??_C@_09LGGEAJKM@autib1716@ 000000018018e2e0     operations.obj
 0002:000172f0       ??_C@_07NEPKLFKD@autibsp@  000000018018e2f0     operations.obj
 0002:000172f8       ??_C@_06MAECILBG@autibz@   000000018018e2f8     operations.obj
 0002:00017300       ??_C@_06HLEBLCEE@autiza@   000000018018e300     operations.obj
 0002:00017308       ??_C@_06FAGMOBIH@autizb@   000000018018e308     operations.obj
 0002:00017310       ??_C@_06KMAIHOFN@axflag@   000000018018e310     operations.obj
 0002:00017318       ??_C@_01OJONOECF@b@        000000018018e318     operations.obj
 0002:0001731c       ??_C@_04FNEPCGML@bcax@     000000018018e31c     operations.obj
 0002:00017324       ??_C@_04PEIDMKG@bdep@      000000018018e324     operations.obj
 0002:0001732c       ??_C@_04MHGGKOOE@bext@     000000018018e32c     operations.obj
 0002:00017334       ??_C@_03ENBOJAJN@bfc@      000000018018e334     operations.obj
 0002:00017338       ??_C@_05CPMPICBN@bfcvt@    000000018018e338     operations.obj
 0002:00017340       ??_C@_06JIFHOFHC@bfcvtn@   000000018018e340     operations.obj
 0002:00017348       ??_C@_07FDODBDIE@bfcvtn2@  000000018018e348     operations.obj
 0002:00017350       ??_C@_07PFMAPLAH@bfcvtnt@  000000018018e350     operations.obj
 0002:00017358       ??_C@_05KBOPCCFL@bfdot@    000000018018e358     operations.obj
 0002:00017360       ??_C@_03LHPBHIBH@bfi@      000000018018e360     operations.obj
 0002:00017364       ??_C@_03NDJNLNBD@bfm@      000000018018e364     operations.obj
 0002:00017368       ??_C@_06DABIOPPB@bfmlal@   000000018018e368     operations.obj
 0002:00017370       ??_C@_07JNEBNDEA@bfmlalb@  000000018018e370     operations.obj
 0002:00017378       ??_C@_07IBNJGGJH@bfmlalt@  000000018018e378     operations.obj
 0002:00017380       ??_C@_06DFNCGFIK@bfmmla@   000000018018e380     operations.obj
 0002:00017388       ??_C@_06IKOHPHBF@bfmopa@   000000018018e388     operations.obj
 0002:00017390       ??_C@_06PCBDIHMG@bfmops@   000000018018e390     operations.obj
 0002:00017398       ??_C@_05DNLGCOJH@bfxil@    000000018018e398     operations.obj
 0002:000173a0       ??_C@_04EJECGLN@bgrp@      000000018018e3a0     operations.obj
 0002:000173a8       ??_C@_03EGECNHKA@bic@      000000018018e3a8     operations.obj
 0002:000173ac       ??_C@_04NCICMLAK@bics@     000000018018e3ac     operations.obj
 0002:000173b4       ??_C@_03DLDFCDOF@bif@      000000018018e3b4     operations.obj
 0002:000173b8       ??_C@_03EDMBFDDG@bit@      000000018018e3b8     operations.obj
 0002:000173bc       ??_C@_02ICKFBNAI@bl@       000000018018e3bc     operations.obj
 0002:000173c0       ??_C@_03BDFADGFL@blr@      000000018018e3c0     operations.obj
 0002:000173c4       ??_C@_05KDAGPJKH@blraa@    000000018018e3c4     operations.obj
 0002:000173cc       ??_C@_06JNMBKBMO@blraaz@   000000018018e3cc     operations.obj
 0002:000173d4       ??_C@_05IICLKKGE@blrab@    000000018018e3d4     operations.obj
 0002:000173dc       ??_C@_06JPIHBPJH@blrabz@   000000018018e3dc     operations.obj
 0002:000173e4       ??_C@_02FGOECCNH@br@       000000018018e3e4     operations.obj
 0002:000173e8       ??_C@_04COOKLPCJ@braa@     000000018018e3e8     operations.obj
 0002:000173f0       ??_C@_05JHEMODKP@braaz@    000000018018e3f0     operations.obj
 0002:000173f8       ??_C@_04FMHOMOK@brab@      000000018018e3f8     operations.obj
 0002:00017400       ??_C@_05JFAKFNPG@brabz@    000000018018e400     operations.obj
 0002:00017408       ??_C@_03JOOIBBDJ@brk@      000000018018e408     operations.obj
 0002:0001740c       ??_C@_04CDHNDKPP@brka@     000000018018e40c     operations.obj
 0002:00017414       ??_C@_05CJDDLIIC@brkas@    000000018018e414     operations.obj
 0002:0001741c       ??_C@_04IFAGJDM@brkb@      000000018018e41c     operations.obj
 0002:00017424       ??_C@_05CLHFAGNL@brkbs@    000000018018e424     operations.obj
 0002:0001742c       ??_C@_04KEOFCGDA@brkn@     000000018018e42c     operations.obj
 0002:00017434       ??_C@_05CCGPPPLP@brkns@    000000018018e434     operations.obj
 0002:0001743c       ??_C@_05EMCDABBG@brkpa@    000000018018e43c     operations.obj
 0002:00017444       ??_C@_06PAIKLMGF@brkpas@   000000018018e444     operations.obj
 0002:0001744c       ??_C@_05GHAOFCNF@brkpb@    000000018018e44c     operations.obj
 0002:00017454       ??_C@_06PCMMACDM@brkpbs@   000000018018e454     operations.obj
 0002:0001745c       ??_C@_03NAGLONMJ@bsl@      000000018018e45c     operations.obj
 0002:00017460       ??_C@_05BKFEOLCH@bsl1n@    000000018018e460     operations.obj
 0002:00017468       ??_C@_05BIBCFFHO@bsl2n@    000000018018e468     operations.obj
 0002:00017470       ??_C@_03KIFDAPAJ@bti@      000000018018e470     operations.obj
 0002:00017474       ??_C@_04BKJPHBHO@b?4al@    000000018018e474     operations.obj
 0002:0001747c       ??_C@_04DJGKLBOO@b?4lo@    000000018018e47c     operations.obj
 0002:00017484       ??_C@_04NIBEEEGP@b?4hs@    000000018018e484     operations.obj
 0002:0001748c       ??_C@_04OCPKLFLO@b?4eq@    000000018018e48c     operations.obj
 0002:00017494       ??_C@_04MPNALGIF@b?4ge@    000000018018e494     operations.obj
 0002:0001749c       ??_C@_04JMAJJFJF@b?4gt@    000000018018e49c     operations.obj
 0002:000174a4       ??_C@_04GIDJLOLE@b?4hi@    000000018018e4a4     operations.obj
 0002:000174ac       ??_C@_04MDIFFJGE@b?4le@    000000018018e4ac     operations.obj
 0002:000174b4       ??_C@_04NPBNOMLD@b?4ls@    000000018018e4b4     operations.obj
 0002:000174bc       ??_C@_04JAFMHKHE@b?4lt@    000000018018e4bc     operations.obj
 0002:000174c4       ??_C@_04GOPCHMFP@b?4mi@    000000018018e4c4     operations.obj
 0002:000174cc       ??_C@_04MAABINAK@b?4ne@    000000018018e4cc     operations.obj
 0002:000174d4       ??_C@_04KBOOMMJI@b?4nv@    000000018018e4d4     operations.obj
 0002:000174dc       ??_C@_04HHLLIDJ@b?4pl@     000000018018e4dc     operations.obj
 0002:000174e4       ??_C@_04IEGONIEE@b?4vc@    000000018018e4e4     operations.obj
 0002:000174ec       ??_C@_04MOKMMKBF@b?4vs@    000000018018e4ec     operations.obj
 0002:000174f4       ??_C@_04CKJKFIEG@cadd@     000000018018e4f4     operations.obj
 0002:000174fc       ??_C@_03LKCPPDCM@cas@      000000018018e4fc     operations.obj
 0002:00017500       ??_C@_04EOIEBJPG@casa@     000000018018e500     operations.obj
 0002:00017508       ??_C@_05DFLNKBF@casab@     000000018018e508     operations.obj
 0002:00017510       ??_C@_05PJLEDCJP@casah@    000000018018e510     operations.obj
 0002:00017518       ??_C@_05JNNIPHJL@casal@    000000018018e518     operations.obj
 0002:00017520       ??_C@_06DAILJLBO@casalb@   000000018018e520     operations.obj
 0002:00017528       ??_C@_06MKGEHDJE@casalh@   000000018018e528     operations.obj
 0002:00017530       ??_C@_04GFKJEKDF@casb@     000000018018e530     operations.obj
 0002:00017538       ??_C@_04JPEGKCLP@cash@     000000018018e538     operations.obj
 0002:00017540       ??_C@_04PLCKGHLL@casl@     000000018018e540     operations.obj
 0002:00017548       ??_C@_05LIDEJEG@caslb@     000000018018e548     operations.obj
 0002:00017550       ??_C@_05PBGMKBMM@caslh@    000000018018e550     operations.obj
 0002:00017558       ??_C@_04BNFNDKOG@casp@     000000018018e558     operations.obj
 0002:00017560       ??_C@_05DFJCEAJB@caspa@    000000018018e560     operations.obj
 0002:00017568       ??_C@_06EOHFBFDJ@caspal@   000000018018e568     operations.obj
 0002:00017570       ??_C@_05IADMDONM@caspl@    000000018018e570     operations.obj
 0002:00017578       ??_C@_04OBPJENKB@cbnz@     000000018018e578     operations.obj
 0002:00017580       ??_C@_03GJKLPGDM@cbz@      000000018018e580     operations.obj
 0002:00017584       ??_C@_04HFKNEDMI@ccmn@     000000018018e584     operations.obj
 0002:0001758c       ??_C@_04KBOMHMBH@ccmp@     000000018018e58c     operations.obj
 0002:00017594       ??_C@_04FLNDFFME@cdot@     000000018018e594     operations.obj
 0002:0001759c       ??_C@_05KLCNCBJG@cfinv@    000000018018e59c     operations.obj
 0002:000175a4       ??_C@_03JEENLGGK@cfp@      000000018018e5a4     operations.obj
 0002:000175a8       ??_C@_04KNPIGDLI@cinc@     000000018018e5a8     operations.obj
 0002:000175b0       ??_C@_04JKENIFKM@cinv@     000000018018e5b0     operations.obj
 0002:000175b8       ??_C@_06FFDNHCDN@clasta@   000000018018e5b8     operations.obj
 0002:000175c0       ??_C@_06HOBACBPO@clastb@   000000018018e5c0     operations.obj
 0002:000175c8       ??_C@_05PEFDCLMG@clrex@    000000018018e5c8     operations.obj
 0002:000175d0       ??_C@_03LCPHGAHP@cls@      000000018018e5d0     operations.obj
 0002:000175d4       ??_C@_03GDDFNLDG@clz@      000000018018e5d4     operations.obj
 0002:000175d8       ??_C@_04FGDLGLNN@cmeq@     000000018018e5d8     operations.obj
 0002:000175e0       ??_C@_04HLBBGIOG@cmge@     000000018018e5e0     operations.obj
 0002:000175e8       ??_C@_04CIMIELPG@cmgt@     000000018018e5e8     operations.obj
 0002:000175f0       ??_C@_04NMPIGANH@cmhi@     000000018018e5f0     operations.obj
 0002:000175f8       ??_C@_04GMNFJKAM@cmhs@     000000018018e5f8     operations.obj
 0002:00017600       ??_C@_04BDCIECAD@cmla@     000000018018e600     operations.obj
 0002:00017608       ??_C@_04HHEEIHAH@cmle@     000000018018e608     operations.obj
 0002:00017610       ??_C@_04CEJNKEBH@cmlt@     000000018018e610     operations.obj
 0002:00017618       ??_C@_03EMFJGGFE@cmn@      000000018018e618     operations.obj
 0002:0001761c       ??_C@_03JIBIFJIL@cmp@      000000018018e61c     operations.obj
 0002:00017620       ??_C@_05LCPIHBLE@cmpeq@    000000018018e620     operations.obj
 0002:00017628       ??_C@_05JPNCHCIP@cmpge@    000000018018e628     operations.obj
 0002:00017630       ??_C@_05MMALFBJP@cmpgt@    000000018018e630     operations.obj
 0002:00017638       ??_C@_05DIDLHKLO@cmphi@    000000018018e638     operations.obj
 0002:00017640       ??_C@_05IIBGIAGF@cmphs@    000000018018e640     operations.obj
 0002:00017648       ??_C@_05JDIHJNGO@cmple@    000000018018e648     operations.obj
 0002:00017650       ??_C@_05GJGIHFOE@cmplo@    000000018018e650     operations.obj
 0002:00017658       ??_C@_05IPBPCILJ@cmpls@    000000018018e658     operations.obj
 0002:00017660       ??_C@_05MAFOLOHO@cmplt@    000000018018e660     operations.obj
 0002:00017668       ??_C@_05JAADEJAA@cmpne@    000000018018e668     operations.obj
 0002:00017670       ??_C@_04FFMNDLAH@cmpp@     000000018018e670     operations.obj
 0002:00017678       ??_C@_05FIEGMNGE@cmtst@    000000018018e678     operations.obj
 0002:00017680       ??_C@_04FIBGHBOE@cneg@     000000018018e680     operations.obj
 0002:00017688       ??_C@_04DEGOLFKA@cnot@     000000018018e688     operations.obj
 0002:00017690       ??_C@_03PODCCCNG@cnt@      000000018018e690     operations.obj
 0002:00017694       ??_C@_04DIIFEMOG@cntb@     000000018018e694     operations.obj
 0002:0001769c       ??_C@_04GONPOLGA@cntd@     000000018018e69c     operations.obj
 0002:000176a4       ??_C@_04MCGKKEGM@cnth@     000000018018e6a4     operations.obj
 0002:000176ac       ??_C@_04EAHBDMDF@cntp@     000000018018e6ac     operations.obj
 0002:000176b4       ??_C@_04PDAKKPC@cntw@      000000018018e6b4     operations.obj
 0002:000176c0       ??_C@_07HGKHBOGE@compact@  000000018018e6c0     operations.obj
 0002:000176c8       ??_C@_03IMOGGJKI@cpp@      000000018018e6c8     operations.obj
 0002:000176cc       ??_C@_03FNCENCOB@cpy@      000000018018e6cc     operations.obj
 0002:000176d0       ??_C@_06NCAPLIDK@crc32b@   000000018018e6d0     operations.obj
 0002:000176d8       ??_C@_07JANHLFBI@crc32cb@  000000018018e6d8     operations.obj
 0002:000176e0       ??_C@_07GKDIFNJC@crc32ch@  000000018018e6e0     operations.obj
 0002:000176e8       ??_C@_07KHGCFDAM@crc32cw@  000000018018e6e8     operations.obj
 0002:000176f0       ??_C@_07CAPKEPMD@crc32cx@  000000018018e6f0     operations.obj
 0002:000176f8       ??_C@_06CIOAFALA@crc32h@   000000018018e6f8     operations.obj
 0002:00017700       ??_C@_06OFLKFOCO@crc32w@   000000018018e700     operations.obj
 0002:00017708       ??_C@_06GCCCECOB@crc32x@   000000018018e708     operations.obj
 0002:00017710       ??_C@_04IGNAGANE@csdb@     000000018018e710     operations.obj
 0002:00017718       ??_C@_04BJJBCHGN@csel@     000000018018e718     operations.obj
 0002:00017720       ??_C@_04JLIKLPDE@cset@     000000018018e720     operations.obj
 0002:00017728       ??_C@_05PBHMGLOA@csetm@    000000018018e728     operations.obj
 0002:00017730       ??_C@_05DEJINPHA@csinc@    000000018018e730     operations.obj
 0002:00017738       ??_C@_05DCNDJGE@csinv@     000000018018e738     operations.obj
 0002:00017740       ??_C@_05MBHGMNCM@csneg@    000000018018e740     operations.obj
 0002:00017748       ??_C@_07LGMBDABC@ctermeq@  000000018018e748     operations.obj
 0002:00017750       ??_C@_07JEDKAIKG@ctermne@  000000018018e750     operations.obj
 0002:00017758       ??_C@_02BLAHNHF@dc@        000000018018e758     operations.obj
 0002:0001775c       ??_C@_05PIBPGPKK@dcps1@    000000018018e75c     operations.obj
 0002:00017764       ??_C@_05NDDCDMGJ@dcps2@    000000018018e764     operations.obj
 0002:0001776c       ??_C@_05MKCJANCI@dcps3@    000000018018e76c     operations.obj
 0002:00017774       ??_C@_04EEMNKCAC@decb@     000000018018e774     operations.obj
 0002:0001777c       ??_C@_04BCJHAFIE@decd@     000000018018e77c     operations.obj
 0002:00017784       ??_C@_04LOCCEKII@dech@     000000018018e784     operations.obj
 0002:0001778c       ??_C@_04DMDJNCNB@decp@     000000018018e78c     operations.obj
 0002:00017794       ??_C@_04HDHIEEBG@decw@     000000018018e794     operations.obj
 0002:0001779c       ??_C@_03IKEDHMLN@dgh@      000000018018e79c     operations.obj
 0002:000177a0       ??_C@_03HNDLBBOB@dmb@      000000018018e7a0     operations.obj
 0002:000177a4       ??_C@_04MELKPDBN@drps@     000000018018e7a4     operations.obj
 0002:000177ac       ??_C@_03GLIDJPJL@dsb@      000000018018e7ac     operations.obj
 0002:000177b0       ??_C@_03BHPKJDPK@dup@      000000018018e7b0     operations.obj
 0002:000177b4       ??_C@_04INCMPEHL@dupm@     000000018018e7b4     operations.obj
 0002:000177bc       ??_C@_03BFLMCNKD@dvp@      000000018018e7bc     operations.obj
 0002:000177c0       ??_C@_03GKLGONOG@eon@      000000018018e7c0     operations.obj
 0002:000177c4       ??_C@_03IMMBLALL@eor@      000000018018e7c4     operations.obj
 0002:000177c8       ??_C@_04KIFEMOIE@eor3@     000000018018e7c8     operations.obj
 0002:000177d0       ??_C@_05MMFAOLIC@eorbt@    000000018018e7d0     operations.obj
 0002:000177d8       ??_C@_04FICNIBIB@eors@     000000018018e7d8     operations.obj
 0002:000177e0       ??_C@_05MIGDIBJH@eortb@    000000018018e7e0     operations.obj
 0002:000177e8       ??_C@_04CFFKHFME@eorv@     000000018018e7e8     operations.obj
 0002:000177f0       ??_C@_04KMHGCNPB@eret@     000000018018e7f0     operations.obj
 0002:000177f8       ??_C@_06HNILNLAO@eretaa@   000000018018e7f8     operations.obj
 0002:00017800       ??_C@_06FGKGIIMN@eretab@   000000018018e800     operations.obj
 0002:00017808       ??_C@_03NDDPPIPO@esb@      000000018018e808     operations.obj
 0002:0001780c       ??_C@_03MDPCKCMI@ext@      000000018018e80c     operations.obj
 0002:00017810       ??_C@_04IIHFKDFE@extr@     000000018018e810     operations.obj
 0002:00017818       ??_C@_04OGPHKLIE@fabd@     000000018018e818     operations.obj
 0002:00017820       ??_C@_04ODHECPBC@fabs@     000000018018e820     operations.obj
 0002:00017828       ??_C@_05EIEDPGEM@facge@    000000018018e828     operations.obj
 0002:00017830       ??_C@_05BLJKNFFM@facgt@    000000018018e830     operations.obj
 0002:00017838       ??_C@_05EEBGBJKN@facle@    000000018018e838     operations.obj
 0002:00017840       ??_C@_05BHMPDKLN@faclt@    000000018018e840     operations.obj
 0002:00017848       ??_C@_04OCHKNHDG@fadd@     000000018018e848     operations.obj
 0002:00017850       ??_C@_05LDLOLFKI@fadda@    000000018018e850     operations.obj
 0002:00017858       ??_C@_05OAGHJGLI@faddp@    000000018018e858     operations.obj
 0002:00017860       ??_C@_05LGDNDBDO@faddv@    000000018018e860     operations.obj
 0002:00017868       ??_C@_05IDNHOCLP@fcadd@    000000018018e868     operations.obj
 0002:00017870       ??_C@_05IKBMGOO@fccmp@     000000018018e870     operations.obj
 0002:00017878       ??_C@_06FPDAPBFL@fccmpe@   000000018018e878     operations.obj
 0002:00017880       ??_C@_05PPHGNBCE@fcmeq@    000000018018e880     operations.obj
 0002:00017888       ??_C@_05NCFMNCBP@fcmge@    000000018018e888     operations.obj
 0002:00017890       ??_C@_05IBIFPBAP@fcmgt@    000000018018e890     operations.obj
 0002:00017898       ??_C@_05LKGFPIPK@fcmla@    000000018018e898     operations.obj
 0002:000178a0       ??_C@_05NOAJDNPO@fcmle@    000000018018e8a0     operations.obj
 0002:000178a8       ??_C@_05INNABOOO@fcmlt@    000000018018e8a8     operations.obj
 0002:000178b0       ??_C@_05NNINOJJA@fcmne@    000000018018e8b0     operations.obj
 0002:000178b8       ??_C@_04GJAMPDGH@fcmp@     000000018018e8b8     operations.obj
 0002:000178c0       ??_C@_05MLDFGHOK@fcmpe@    000000018018e8c0     operations.obj
 0002:000178c8       ??_C@_05DHBBENIL@fcmuo@    000000018018e8c8     operations.obj
 0002:000178d0       ??_C@_04KMDAHIAN@fcpy@     000000018018e8d0     operations.obj
 0002:000178d8       ??_C@_05LANMJNJE@fcsel@    000000018018e8d8     operations.obj
 0002:000178e0       ??_C@_04BNBDHKPC@fcvt@     000000018018e8e0     operations.obj
 0002:000178e8       ??_C@_06NLFNINCM@fcvtas@   000000018018e8e8     operations.obj
 0002:000178f0       ??_C@_06INAHCKKK@fcvtau@   000000018018e8f0     operations.obj
 0002:000178f8       ??_C@_05JKOGKEOB@fcvtl@    000000018018e8f8     operations.obj
 0002:00017900       ??_C@_06DKOHGADL@fcvtl2@   000000018018e900     operations.obj
 0002:00017908       ??_C@_06JMMEIILI@fcvtlt@   000000018018e908     operations.obj
 0002:00017910       ??_C@_06NCEHHEEI@fcvtms@   000000018018e910     operations.obj
 0002:00017918       ??_C@_06IEBNNDMO@fcvtmu@   000000018018e918     operations.obj
 0002:00017920       ??_C@_05KINAMGGD@fcvtn@    000000018018e920     operations.obj
 0002:00017928       ??_C@_06DJGDLEFF@fcvtn2@   000000018018e928     operations.obj
 0002:00017930       ??_C@_06NAABMKBB@fcvtns@   000000018018e930     operations.obj
 0002:00017938       ??_C@_06JPEAFMNG@fcvtnt@   000000018018e938     operations.obj
 0002:00017940       ??_C@_06IGFLGNJH@fcvtnu@   000000018018e940     operations.obj
 0002:00017948       ??_C@_06MGLJEEGL@fcvtps@   000000018018e948     operations.obj
 0002:00017950       ??_C@_06JAODODON@fcvtpu@   000000018018e950     operations.obj
 0002:00017958       ??_C@_05LEEIHDLE@fcvtx@    000000018018e958     operations.obj
 0002:00017960       ??_C@_06DHMGHJMP@fcvtxn@   000000018018e960     operations.obj
 0002:00017968       ??_C@_07OGJMENCJ@fcvtxn2@  000000018018e968     operations.obj
 0002:00017970       ??_C@_07EALPKFKK@fcvtxnt@  000000018018e970     operations.obj
 0002:00017978       ??_C@_06MLCOMBLN@fcvtzs@   000000018018e978     operations.obj
 0002:00017980       ??_C@_06JNHEGGDL@fcvtzu@   000000018018e980     operations.obj
 0002:00017988       ??_C@_04KFIIMEIE@fdiv@     000000018018e988     operations.obj
 0002:00017990       ??_C@_05PHHJNEIJ@fdivr@    000000018018e990     operations.obj
 0002:00017998       ??_C@_04OGOODJBG@fdup@     000000018018e998     operations.obj
 0002:000179a0       ??_C@_05EHNOPAOD@fexpa@    000000018018e9a0     operations.obj
 0002:000179a8       ??_C@_07OCEEACOC@fjcvtzs@  000000018018e9a8     operations.obj
 0002:000179b0       ??_C@_05LFEEBLIC@flogb@    000000018018e9b0     operations.obj
 0002:000179b8       ??_C@_04KOGHKKGF@fmad@     000000018018e9b8     operations.obj
 0002:000179c0       ??_C@_05DMOHFMNO@fmadd@    000000018018e9c0     operations.obj
 0002:000179c8       ??_C@_04EIBAPHDI@fmax@     000000018018e9c8     operations.obj
 0002:000179d0       ??_C@_06KGFMGAJE@fmaxnm@   000000018018e9d0     operations.obj
 0002:000179d8       ??_C@_07NIPLHCML@fmaxnmp@  000000018018e9d8     operations.obj
 0002:000179e0       ??_C@_07IOKBNFEN@fmaxnmv@  000000018018e9e0     operations.obj
 0002:000179e8       ??_C@_05HHFNBJP@fmaxp@     000000018018e9e8     operations.obj
 0002:000179f0       ??_C@_05FBCPHGBJ@fmaxv@    000000018018e9f0     operations.obj
 0002:000179f8       ??_C@_04FKJLBDFH@fmin@     000000018018e9f8     operations.obj
 0002:00017a00       ??_C@_06ODFOCDBG@fminnm@   000000018018ea00     operations.obj
 0002:00017a08       ??_C@_07NLAIJCIE@fminnmp@  000000018018ea08     operations.obj
 0002:00017a10       ??_C@_07INFCDFAC@fminnmv@  000000018018ea10     operations.obj
 0002:00017a18       ??_C@_05NKGKCGLC@fminp@    000000018018ea18     operations.obj
 0002:00017a20       ??_C@_05IMDAIBDE@fminv@    000000018018ea20     operations.obj
 0002:00017a28       ??_C@_04NLMIMNHD@fmla@     000000018018ea28     operations.obj
 0002:00017a30       ??_C@_05JPMMOA@fmlal@      000000018018ea30     operations.obj
 0002:00017a38       ??_C@_06ENHKCJMF@fmlal2@   000000018018ea38     operations.obj
 0002:00017a40       ??_C@_06PHMBHEJB@fmlalb@   000000018018ea40     operations.obj
 0002:00017a48       ??_C@_06OLFJMBEG@fmlalt@   000000018018ea48     operations.obj
 0002:00017a50       ??_C@_04KDDMLNKA@fmls@     000000018018ea50     operations.obj
 0002:00017a58       ??_C@_05BPDNLLPO@fmlsl@    000000018018ea58     operations.obj
 0002:00017a60       ??_C@_06LHGKLGNB@fmlsl2@   000000018018ea60     operations.obj
 0002:00017a68       ??_C@_06NNBOLIF@fmlslb@    000000018018ea68     operations.obj
 0002:00017a70       ??_C@_06BBEJFOFC@fmlslt@   000000018018ea70     operations.obj
 0002:00017a78       ??_C@_05FFFEGJL@fmmla@     000000018018ea78     operations.obj
 0002:00017a80       ??_C@_05LKGANEAE@fmopa@    000000018018ea80     operations.obj
 0002:00017a88       ??_C@_05MCJEKENH@fmops@    000000018018ea88     operations.obj
 0002:00017a90       ??_C@_04NMANPHLM@fmov@     000000018018ea90     operations.obj
 0002:00017a98       ??_C@_04OHJPHKPN@fmsb@     000000018018ea98     operations.obj
 0002:00017aa0       ??_C@_05INEJKNAL@fmsub@    000000018018eaa0     operations.obj
 0002:00017aa8       ??_C@_04HNJBCLMB@fmul@     000000018018eaa8     operations.obj
 0002:00017ab0       ??_C@_05LPIJAPD@fmulx@     000000018018eab0     operations.obj
 0002:00017ab8       ??_C@_04JAPGPOJE@fneg@     000000018018eab8     operations.obj
 0002:00017ac0       ??_C@_05DHFKFLFN@fnmad@    000000018018eac0     operations.obj
 0002:00017ac8       ??_C@_06BEHMNJLB@fnmadd@   000000018018eac8     operations.obj
 0002:00017ad0       ??_C@_05ECPFDMEL@fnmla@    000000018018ead0     operations.obj
 0002:00017ad8       ??_C@_05DKABEMJI@fnmls@    000000018018ead8     operations.obj
 0002:00017ae0       ??_C@_05HOKCILMF@fnmsb@    000000018018eae0     operations.obj
 0002:00017ae8       ??_C@_06KFNCCIGE@fnmsub@   000000018018eae8     operations.obj
 0002:00017af0       ??_C@_05OEKMNKPJ@fnmul@    000000018018eaf0     operations.obj
 0002:00017af8       ??_C@_06PICFKCPG@frecpe@   000000018018eaf8     operations.obj
 0002:00017b00       ??_C@_06OELNBHCB@frecps@   000000018018eb00     operations.obj
 0002:00017b08       ??_C@_06HEJMOOK@frecpx@    000000018018eb08     operations.obj
 0002:00017b10       ??_C@_08NKOPDBMO@frint32x@ 000000018018eb10     operations.obj
 0002:00017b20       ??_C@_08OINJFDEM@frint32z@ 000000018018eb20     operations.obj
 0002:00017b30       ??_C@_08OJLMLNEO@frint64x@ 000000018018eb30     operations.obj
 0002:00017b40       ??_C@_08NLIKNPMM@frint64z@ 000000018018eb40     operations.obj
 0002:00017b4c       ??_C@_06KMNKPKPC@frinta@   000000018018eb4c     operations.obj
 0002:00017b54       ??_C@_06GEADHAPK@frinti@   000000018018eb54     operations.obj
 0002:00017b5c       ??_C@_06GPLFPO@frintm@     000000018018eb5c     operations.obj
 0002:00017b64       ??_C@_06CLECOGDN@frintn@   000000018018eb64     operations.obj
 0002:00017b6c       ??_C@_06PPADNJOC@frintp@   000000018018eb6c     operations.obj
 0002:00017b74       ??_C@_06DHNKFDOK@frintx@   000000018018eb74     operations.obj
 0002:00017b7c       ??_C@_06FOMDBGI@frintz@    000000018018eb7c     operations.obj
 0002:00017b88       ??_C@_07DEOOMJMB@frsqrte@  000000018018eb88     operations.obj
 0002:00017b90       ??_C@_07CIHGHMBG@frsqrts@  000000018018eb90     operations.obj
 0002:00017b98       ??_C@_06DAMBGGM@fscale@    000000018018eb98     operations.obj
 0002:00017ba0       ??_C@_05OBEHOPDB@fsqrt@    000000018018eba0     operations.obj
 0002:00017ba8       ??_C@_04FDNECGOD@fsub@     000000018018eba8     operations.obj
 0002:00017bb0       ??_C@_05CEFJHMJA@fsubr@    000000018018ebb0     operations.obj
 0002:00017bb8       ??_C@_05BNAKNEHO@ftmad@    000000018018ebb8     operations.obj
 0002:00017bc0       ??_C@_06PGAKCNFI@ftsmul@   000000018018ebc0     operations.obj
 0002:00017bc8       ??_C@_06FKOKKOIE@ftssel@   000000018018ebc8     operations.obj
 0002:00017bd0       ??_C@_03IMHKGHME@gmi@      000000018018ebd0     operations.obj
 0002:00017bd4       ??_C@_04NPKLNGDP@hint@     000000018018ebd4     operations.obj
 0002:00017be0       ??_C@_07CGJAKJPL@histcnt@  000000018018ebe0     operations.obj
 0002:00017be8       ??_C@_07BLDDFABH@histseg@  000000018018ebe8     operations.obj
 0002:00017bf0       ??_C@_03CKLHHBLJ@hlt@      000000018018ebf0     operations.obj
 0002:00017bf4       ??_C@_03DOIFNDIJ@hvc@      000000018018ebf4     operations.obj
 0002:00017bf8       ??_C@_02JGIOOCG@ic@        000000018018ebf8     operations.obj
 0002:00017bfc       ??_C@_04GLFMOBLC@incb@     000000018018ebfc     operations.obj
 0002:00017c04       ??_C@_04DNAGEGDE@incd@     000000018018ec04     operations.obj
 0002:00017c0c       ??_C@_04JBLDAJDI@inch@     000000018018ec0c     operations.obj
 0002:00017c14       ??_C@_04BDKIJBGB@incp@     000000018018ec14     operations.obj
 0002:00017c1c       ??_C@_04FMOJAHKG@incw@     000000018018ec1c     operations.obj
 0002:00017c24       ??_C@_05FKHKFDID@index@    000000018018ec24     operations.obj
 0002:00017c2c       ??_C@_03NOMOFEHF@ins@      000000018018ec2c     operations.obj
 0002:00017c30       ??_C@_04DNLIFAJD@insr@     000000018018ec30     operations.obj
 0002:00017c38       ??_C@_03OFFMNJDE@irg@      000000018018ec38     operations.obj
 0002:00017c3c       ??_C@_03JJOJEHEG@isb@      000000018018ec3c     operations.obj
 0002:00017c40       ??_C@_05MDMNFKJI@lasta@    000000018018ec40     operations.obj
 0002:00017c48       ??_C@_05OIOAAJFL@lastb@    000000018018ec48     operations.obj
 0002:00017c50       ??_C@_03CGMIAMBG@ld1@      000000018018ec50     operations.obj
 0002:00017c54       ??_C@_04KDDJHEHI@ld1b@     000000018018ec54     operations.obj
 0002:00017c5c       ??_C@_04PFGDNDPO@ld1d@     000000018018ec5c     operations.obj
 0002:00017c64       ??_C@_04FJNGJMPC@ld1h@     000000018018ec64     operations.obj
 0002:00017c6c       ??_C@_04MCNGDFOK@ld1q@     000000018018ec6c     operations.obj
 0002:00017c74       ??_C@_04OJPLGGCJ@ld1r@     000000018018ec74     operations.obj
 0002:00017c7c       ??_C@_05BFJAGKCP@ld1rb@    000000018018ec7c     operations.obj
 0002:00017c84       ??_C@_05EDMKMNKJ@ld1rd@    000000018018ec84     operations.obj
 0002:00017c8c       ??_C@_05OPHPICKF@ld1rh@    000000018018ec8c     operations.obj
 0002:00017c94       ??_C@_06PENHDHEF@ld1rob@   000000018018ec94     operations.obj
 0002:00017c9c       ??_C@_06KCINJAMD@ld1rod@   000000018018ec9c     operations.obj
 0002:00017ca4       ??_C@_06ODINPMP@ld1roh@    000000018018eca4     operations.obj
 0002:00017cac       ??_C@_06MDGCNBFB@ld1row@   000000018018ecac     operations.obj
 0002:00017cb4       ??_C@_06OCGPLJDP@ld1rqb@   000000018018ecb4     operations.obj
 0002:00017cbc       ??_C@_06LEDFBOLJ@ld1rqd@   000000018018ecbc     operations.obj
 0002:00017cc4       ??_C@_06BIIAFBLF@ld1rqh@   000000018018ecc4     operations.obj
 0002:00017ccc       ??_C@_06NFNKFPCL@ld1rqw@   000000018018eccc     operations.obj
 0002:00017cd4       ??_C@_06OBOLGNFB@ld1rsb@   000000018018ecd4     operations.obj
 0002:00017cdc       ??_C@_06BLAEIFNL@ld1rsh@   000000018018ecdc     operations.obj
 0002:00017ce4       ??_C@_06NGFOILEF@ld1rsw@   000000018018ece4     operations.obj
 0002:00017cec       ??_C@_05CCCFIMDL@ld1rw@    000000018018ecec     operations.obj
 0002:00017cf4       ??_C@_05BEFCAABI@ld1sb@    000000018018ecf4     operations.obj
 0002:00017cfc       ??_C@_05OOLNOIJC@ld1sh@    000000018018ecfc     operations.obj
 0002:00017d04       ??_C@_05CDOHOGAM@ld1sw@    000000018018ed04     operations.obj
 0002:00017d0c       ??_C@_04JEIMJCGM@ld1w@     000000018018ed0c     operations.obj
 0002:00017d14       ??_C@_03NOFFPNF@ld2@       000000018018ed14     operations.obj
 0002:00017d18       ??_C@_04KBHPMKCB@ld2b@     000000018018ed18     operations.obj
 0002:00017d20       ??_C@_04PHCFGNKH@ld2d@     000000018018ed20     operations.obj
 0002:00017d28       ??_C@_04FLJACCKL@ld2h@     000000018018ed28     operations.obj
 0002:00017d30       ??_C@_04OLLNNIHA@ld2r@     000000018018ed30     operations.obj
 0002:00017d38       ??_C@_04JGMKCMDF@ld2w@     000000018018ed38     operations.obj
 0002:00017d40       ??_C@_03BEPOGOJE@ld3@      000000018018ed40     operations.obj
 0002:00017d44       ??_C@_04KALNKABG@ld3b@     000000018018ed44     operations.obj
 0002:00017d4c       ??_C@_04PGOHAHJA@ld3d@     000000018018ed4c     operations.obj
 0002:00017d54       ??_C@_04FKFCEIJM@ld3h@     000000018018ed54     operations.obj
 0002:00017d5c       ??_C@_04OKHPLCEH@ld3r@     000000018018ed5c     operations.obj
 0002:00017d64       ??_C@_04JHAIEGAC@ld3w@     000000018018ed64     operations.obj
 0002:00017d6c       ??_C@_03FLLPPIFD@ld4@      000000018018ed6c     operations.obj
 0002:00017d70       ??_C@_04KFPCLGJD@ld4b@     000000018018ed70     operations.obj
 0002:00017d78       ??_C@_04PDKIBBBF@ld4d@     000000018018ed78     operations.obj
 0002:00017d80       ??_C@_04FPBNFOBJ@ld4h@     000000018018ed80     operations.obj
 0002:00017d88       ??_C@_04OPDAKEMC@ld4r@     000000018018ed88     operations.obj
 0002:00017d90       ??_C@_04JCEHFAIH@ld4w@     000000018018ed90     operations.obj
 0002:00017d98       ??_C@_05PMFAKDOE@ld64b@    000000018018ed98     operations.obj
 0002:00017da0       ??_C@_05JAGMBNMJ@ldadd@    000000018018eda0     operations.obj
 0002:00017da8       ??_C@_06JOMOEMOP@ldadda@   000000018018eda8     operations.obj
 0002:00017db0       ??_C@_07GHOADIIA@ldaddab@  000000018018edb0     operations.obj
 0002:00017db8       ??_C@_07JNAPNAAK@ldaddah@  000000018018edb8     operations.obj
 0002:00017dc0       ??_C@_07PJGDBFAO@ldaddal@  000000018018edc0     operations.obj
 0002:00017dc8       ??_C@_08LAIKEHDH@ldaddalb@ 000000018018edc8     operations.obj
 0002:00017dd8       ??_C@_08EKGFKPLN@ldaddalh@ 000000018018edd8     operations.obj
 0002:00017de4       ??_C@_06LFODBPCM@ldaddb@   000000018018ede4     operations.obj
 0002:00017dec       ??_C@_06EPAMPHKG@ldaddh@   000000018018edec     operations.obj
 0002:00017df4       ??_C@_06CLGADCKC@ldaddl@   000000018018edf4     operations.obj
 0002:00017e00       ??_C@_07GPDIKLND@ldaddlb@  000000018018ee00     operations.obj
 0002:00017e08       ??_C@_07JFNHEDFJ@ldaddlh@  000000018018ee08     operations.obj
 0002:00017e10       ??_C@_05JHNLKDLC@ldapr@    000000018018ee10     operations.obj
 0002:00017e18       ??_C@_06HCDDAACG@ldaprb@   000000018018ee18     operations.obj
 0002:00017e20       ??_C@_06IINMOIKM@ldaprh@   000000018018ee20     operations.obj
 0002:00017e28       ??_C@_06DNLOAEPC@ldapur@   000000018018ee28     operations.obj
 0002:00017e30       ??_C@_07EEFCEBB@ldapurb@   000000018018ee30     operations.obj
 0002:00017e38       ??_C@_07POKKMMJL@ldapurh@  000000018018ee38     operations.obj
 0002:00017e40       ??_C@_08CAJLKFLE@ldapursb@ 000000018018ee40     operations.obj
 0002:00017e50       ??_C@_08NKHEENDO@ldapursh@ 000000018018ee50     operations.obj
 0002:00017e60       ??_C@_08BHCOEDKA@ldapursw@ 000000018018ee60     operations.obj
 0002:00017e6c       ??_C@_04IFEHEIJJ@ldar@     000000018018ee6c     operations.obj
 0002:00017e74       ??_C@_05NOJNGFIN@ldarb@    000000018018ee74     operations.obj
 0002:00017e7c       ??_C@_05CEHCINAH@ldarh@    000000018018ee7c     operations.obj
 0002:00017e84       ??_C@_05KLPOJAII@ldaxp@    000000018018ee84     operations.obj
 0002:00017e8c       ??_C@_05JJMIPCAK@ldaxr@    000000018018ee8c     operations.obj
 0002:00017e94       ??_C@_06LHIHCIMJ@ldaxrb@   000000018018ee94     operations.obj
 0002:00017e9c       ??_C@_06ENGIMAED@ldaxrh@   000000018018ee9c     operations.obj
 0002:00017ea4       ??_C@_05CIOODBCN@ldclr@    000000018018eea4     operations.obj
 0002:00017eac       ??_C@_06DJBBOIKC@ldclra@   000000018018eeac     operations.obj
 0002:00017eb8       ??_C@_07GPCKNKAJ@ldclrab@  000000018018eeb8     operations.obj
 0002:00017ec0       ??_C@_07JFMFDCID@ldclrah@  000000018018eec0     operations.obj
 0002:00017ec8       ??_C@_07PBKJPHIH@ldclral@  000000018018eec8     operations.obj
 0002:00017ed0       ??_C@_08CEOGLGFB@ldclralb@ 000000018018eed0     operations.obj
 0002:00017ee0       ??_C@_08NOAJFONL@ldclralh@ 000000018018eee0     operations.obj
 0002:00017eec       ??_C@_06BCDMLLGB@ldclrb@   000000018018eeec     operations.obj
 0002:00017ef4       ??_C@_06OINDFDOL@ldclrh@   000000018018eef4     operations.obj
 0002:00017efc       ??_C@_06IMLPJGOP@ldclrl@   000000018018eefc     operations.obj
 0002:00017f08       ??_C@_07GHPCEJFK@ldclrlb@  000000018018ef08     operations.obj
 0002:00017f10       ??_C@_07JNBNKBNA@ldclrlh@  000000018018ef10     operations.obj
 0002:00017f18       ??_C@_05PMDNAKI@ldeor@     000000018018ef18     operations.obj
 0002:00017f20       ??_C@_06KEOELCOM@ldeora@   000000018018ef20     operations.obj
 0002:00017f28       ??_C@_07PONDEDME@ldeorab@  000000018018ef28     operations.obj
 0002:00017f30       ??_C@_07EDMKLEO@ldeorah@   000000018018ef30     operations.obj
 0002:00017f38       ??_C@_07GAFAGOEK@ldeoral@  000000018018ef38     operations.obj
 0002:00017f40       ??_C@_08MBKCPBMF@ldeoralb@ 000000018018ef40     operations.obj
 0002:00017f50       ??_C@_08DLENBJEP@ldeoralh@ 000000018018ef50     operations.obj
 0002:00017f5c       ??_C@_06IPMJOBCP@ldeorb@   000000018018ef5c     operations.obj
 0002:00017f64       ??_C@_06HFCGAJKF@ldeorh@   000000018018ef64     operations.obj
 0002:00017f6c       ??_C@_06BBEKMMKB@ldeorl@   000000018018ef6c     operations.obj
 0002:00017f78       ??_C@_07PGALNAJH@ldeorlb@  000000018018ef78     operations.obj
 0002:00017f80       ??_C@_07MOEDIBN@ldeorlh@   000000018018ef80     operations.obj
 0002:00017f88       ??_C@_06MHLNOHOM@ldff1b@   000000018018ef88     operations.obj
 0002:00017f90       ??_C@_06JBOHEAGK@ldff1d@   000000018018ef90     operations.obj
 0002:00017f98       ??_C@_06DNFCAPGG@ldff1h@   000000018018ef98     operations.obj
 0002:00017fa0       ??_C@_07ODFENDNG@ldff1sb@  000000018018efa0     operations.obj
 0002:00017fa8       ??_C@_07BJLLDLFM@ldff1sh@  000000018018efa8     operations.obj
 0002:00017fb0       ??_C@_07NEOBDFMC@ldff1sw@  000000018018efb0     operations.obj
 0002:00017fb8       ??_C@_06PAAIABPI@ldff1w@   000000018018efb8     operations.obj
 0002:00017fc0       ??_C@_03MKCJPGME@ldg@      000000018018efc0     operations.obj
 0002:00017fc4       ??_C@_04EMJADKLF@ldgm@     000000018018efc4     operations.obj
 0002:00017fcc       ??_C@_05HIFFLCCI@ldlar@    000000018018efcc     operations.obj
 0002:00017fd4       ??_C@_06GCAGPEGN@ldlarb@   000000018018efd4     operations.obj
 0002:00017fdc       ??_C@_06JIOJBMOH@ldlarh@   000000018018efdc     operations.obj
 0002:00017fe4       ??_C@_06PHMNKMCN@ldnf1b@   000000018018efe4     operations.obj
 0002:00017fec       ??_C@_06KBJHALKL@ldnf1d@   000000018018efec     operations.obj
 0002:00017ff4       ??_C@_06NCCEEKH@ldnf1h@    000000018018eff4     operations.obj
 0002:00018000       ??_C@_07PAHFBLL@ldnf1sb@   000000018018f000     operations.obj
 0002:00018008       ??_C@_07PFOILJDB@ldnf1sh@  000000018018f008     operations.obj
 0002:00018010       ??_C@_07DILCLHKP@ldnf1sw@  000000018018f010     operations.obj
 0002:00018018       ??_C@_06MAHIEKDJ@ldnf1w@   000000018018f018     operations.obj
 0002:00018020       ??_C@_04LMCNGNCG@ldnp@     000000018018f020     operations.obj
 0002:00018028       ??_C@_06NNNDDDJ@ldnt1b@    000000018018f028     operations.obj
 0002:00018030       ??_C@_06FLIHJELP@ldnt1d@   000000018018f030     operations.obj
 0002:00018038       ??_C@_06PHDCNLLD@ldnt1h@   000000018018f038     operations.obj
 0002:00018040       ??_C@_07BFCHJFFJ@ldnt1sb@  000000018018f040     operations.obj
