 windhawk

 Timestamp is 69baede5 (Wed Mar 18 18:24:37 2026)

 Preferred load address is 00400000

 Start         Length     Name                   Class
 0001:00000000 000015b0H .text$di                CODE
 0001:000015b0 00071fb0H .text$mn                CODE
 0001:00073560 000057a0H .text$x                 CODE
 0001:00078d00 0000037fH .text$yd                CODE
 0002:00000000 00000560H .idata$5                DATA
 0002:00000560 00000008H .00cfg                  DATA
 0002:00000568 00000004H .CRT$XCA                DATA
 0002:0000056c 00000004H .CRT$XCAA               DATA
 0002:00000570 0000000cH .CRT$XCC                DATA
 0002:0000057c 0000000cH .CRT$XCL                DATA
 0002:00000588 00000030H .CRT$XCU                DATA
 0002:000005b8 00000004H .CRT$XCZ                DATA
 0002:000005bc 00000004H .CRT$XIA                DATA
 0002:000005c0 00000004H .CRT$XIAA               DATA
 0002:000005c4 00000004H .CRT$XIAC               DATA
 0002:000005c8 00000018H .CRT$XIC                DATA
 0002:000005e0 00000004H .CRT$XIZ                DATA
 0002:000005e4 00000004H .CRT$XLA                DATA
 0002:000005e8 00000004H .CRT$XLZ                DATA
 0002:000005ec 00000004H .CRT$XPA                DATA
 0002:000005f0 00000008H .CRT$XPX                DATA
 0002:000005f8 00000004H .CRT$XPXA               DATA
 0002:000005fc 00000004H .CRT$XPZ                DATA
 0002:00000600 00000004H .CRT$XTA                DATA
 0002:00000604 0000001cH .CRT$XTZ                DATA
 0002:00000608 00000000H .gfids$y                DATA
 0002:00000608 00000000H .giats$y                DATA
 0002:00000620 00010960H .rdata                  DATA
 0002:00010f80 00000000H .rdata$CastGuardVftablesA DATA
 0002:00010f80 00000000H .rdata$CastGuardVftablesC DATA
 0002:00010f80 00000018H .rdata$T                DATA
 0002:00010f98 00002594H .rdata$r                DATA
 0002:0001352c 00000474H .rdata$sxdata           DATA
 0002:000139a0 00000188H .rdata$voltmd           DATA
 0002:00013b28 000003f8H .rdata$zzzdbg           DATA
 0002:00013f20 00000004H .rtc$IAA                DATA
 0002:00013f24 00000004H .rtc$IZZ                DATA
 0002:00013f28 00000004H .rtc$TAA                DATA
 0002:00013f2c 00000004H .rtc$TZZ                DATA
 0002:00013f30 00000004H .tls                    DATA
 0002:00013f34 00000004H .tls$                   DATA
 0002:00013f38 00000008H .tls$ZZZ                DATA
 0002:00013f40 00005c04H .xdata$x                DATA
 0002:00019b44 00000004H ATL$__a                 DATA
 0002:00019b48 00000004H ATL$__z                 DATA
 0002:00019b4c 00000000H .edata                  DATA
 0002:00019b4c 00000104H .idata$2                DATA
 0002:00019c50 00000014H .idata$3                DATA
 0002:00019c64 00000560H .idata$4                DATA
 0002:0001a1c4 0000187cH .idata$6                DATA
 0003:00000000 00000c70H .data                   DATA
 0003:00000c70 000006c0H .data$r                 DATA
 0003:00001330 00001bb8H .data$rs                DATA
 0003:00002ee8 0000109cH .bss                    DATA
 0004:00000000 00000080H .fptable                DATA
 0005:00000000 00001e10H .rsrc$01                DATA
 0005:00001e10 00029cb0H .rsrc$02                DATA

  Address         Publics by Value              Rva+Base       Lib:Object

 0000:00000000       ___AbsoluteZero            00000000     <absolute>
 0000:00000000       ___arm64x_extra_rfe_table  00000000     <absolute>
 0000:00000000       ___arm64x_extra_rfe_table_size 00000000     <absolute>
 0000:00000000       ___arm64x_native_entrypoint 00000000     <absolute>
 0000:00000000       ___arm64x_redirection_metadata 00000000     <absolute>
 0000:00000000       ___arm64x_redirection_metadata_count 00000000     <absolute>
 0000:00000000       ___dynamic_value_reloc_table 00000000     <absolute>
 0000:00000000       ___enclave_config          00000000     <absolute>
 0000:00000000       ___guard_check_icall_a64n_fptr 00000000     <absolute>
 0000:00000000       ___guard_eh_cont_count     00000000     <absolute>
 0000:00000000       ___guard_eh_cont_table     00000000     <absolute>
 0000:00000000       ___guard_fids_count        00000000     <absolute>
 0000:00000000       ___guard_fids_table        00000000     <absolute>
 0000:00000000       ___guard_iat_count         00000000     <absolute>
 0000:00000000       ___guard_iat_table         00000000     <absolute>
 0000:00000000       ___guard_longjmp_count     00000000     <absolute>
 0000:00000000       ___guard_longjmp_table     00000000     <absolute>
 0000:00000000       ___hybrid_auxiliary_delayload_iat 00000000     <absolute>
 0000:00000000       ___hybrid_auxiliary_delayload_iat_copy 00000000     <absolute>
 0000:00000000       ___hybrid_auxiliary_iat    00000000     <absolute>
 0000:00000000       ___hybrid_auxiliary_iat_copy 00000000     <absolute>
 0000:00000000       ___hybrid_code_map         00000000     <absolute>
 0000:00000000       ___hybrid_code_map_count   00000000     <absolute>
 0000:00000000       ___hybrid_image_info_bitfield 00000000     <absolute>
 0000:00000000       ___x64_code_ranges_to_entry_points 00000000     <absolute>
 0000:00000000       ___x64_code_ranges_to_entry_points_count 00000000     <absolute>
 0000:00000000       __except_list              00000000     <absolute>
 0000:0000002c       __tls_array                0000002c     <absolute>
 0000:00000100       ___guard_flags             00000100     <absolute>
 0000:0000011d       ___safe_se_handler_count   0000011d     <absolute>
 0000:00000000       ___ImageBase               00400000     <linker-defined>
 0001:000015b0       ??0CAtlException@ATL@@QAE@J@Z 004025b0 f   app.obj
 0001:000015b0       ??0LoggerBase@@QAE@W4Verbosity@0@@Z 004025b0 f   logger_base.obj
 0001:000015c0       ?GetVerbosity@LoggerBase@@QAE?AW4Verbosity@1@XZ 004025c0 f   logger_base.obj
 0001:000015d0       ?LogLine@LoggerBase@@QAAXPB_WZZ 004025d0 f   logger_base.obj
 0001:00001690       ___local_stdio_printf_options 00402690 f i logger_base.obj
 0001:000016a0       ??$?0URawData@RegistrySettings@@$0A@@?$optional@URawData@RegistrySettings@@@std@@QAE@$$QAURawData@RegistrySettings@@@Z 004026a0 f i portable_settings.obj
 0001:00001700       ??$?0V?$basic_string@_WU?$char_traits@_W@std@@V?$allocator@_W@2@@std@@V01@$0A@@?$pair@V?$basic_string@_WU?$char_traits@_W@std@@V?$allocator@_W@2@@std@@V12@@std@@QAE@$$QAV?$basic_string@_WU?$char_traits@_W@std@@V?$allocator@_W@2@@1@0@Z 00402700 f i portable_settings.obj
 0001:00001780       ??$?0V?$tuple@V?$basic_string@_WU?$char_traits@_W@std@@V?$allocator@_W@2@@std@@V12@KK@std@@$0A@@?$optional@V?$tuple@V?$basic_string@_WU?$char_traits@_W@std@@V?$allocator@_W@2@@std@@V12@KK@std@@@std@@QAE@$$QAV?$tuple@V?$basic_string@_WU?$char_traits@_W@std@@V?$allocator@_W@2@@std@@V12@KK@1@@Z 00402780 f i portable_settings.obj
 0001:00001810       ??$?4U?$pair@V?$basic_string@_WU?$char_traits@_W@std@@V?$allocator@_W@2@@std@@V12@@std@@$0A@@?$pair@V?$basic_string@_WU?$char_traits@_W@std@@V?$allocator@_W@2@@std@@V12@@std@@QAEAAU01@$$QAU01@@Z 00402810 f i portable_settings.obj
 0001:00001890       ??$ReportFailure_Base@$01$0A@@details@wil@@YAXPAXIPBD110ABUResultStatus@01@PB_WW4ReportFailureOptions@01@W4FailureFlags@1@@Z 00402890 f i portable_settings.obj
 0001:000018a0       ??$ReportFailure_Base@$0A@$0A@@details@wil@@YAXPAXIPBD110ABUResultStatus@01@PB_WW4ReportFailureOptions@01@W4FailureFlags@1@@Z 004028a0 f i portable_settings.obj
 0001:000018d0       ??$ReportFailure_Hr@$01@details@wil@@YAXPAXIPBD110JW4FailureFlags@1@@Z 004028d0 f i portable_settings.obj
 0001:00001920       ??$ReportFailure_NoReturn@$0A@@details@wil@@YAXPAXIPBD110ABUResultStatus@01@PB_WW4ReportFailureOptions@01@@Z 00402920 f i portable_settings.obj
 0001:00001c90       ??$ReportFailure_Return@$01@details@wil@@YAXPAXIPBD110ABUResultStatus@01@PB_WW4ReportFailureOptions@01@W4FailureFlags@1@@Z 00402c90 f i portable_settings.obj
 0001:00001d40       ??$ReportFailure_Win32@$0A@@details@wil@@YAJPAXIPBD110K@Z 00402d40 f i portable_settings.obj
 0001:00001da0       ??$_Allocate_at_least_helper@V?$allocator@D@std@@@std@@YAPADAAV?$allocator@D@0@AAI@Z 00402da0 f i ui_control.obj
 0001:00001da0       ??$_Allocate_at_least_helper@V?$allocator@E@std@@@std@@YAPAEAAV?$allocator@E@0@AAI@Z 00402da0 f i portable_settings.obj
 0001:00001e00       ??$_Allocate_for_capacity@$0A@@?$basic_string@_WU?$char_traits@_W@std@@V?$allocator@_W@2@@std@@CAPA_WAAV?$allocator@_W@1@AAI@Z 00402e00 f i portable_settings.obj
 0001:00001e70       ??$_Assign_counted_range@PBE@?$vector@EV?$allocator@E@std@@@std@@AAEXPBEI@Z 00402e70 f i portable_settings.obj
 0001:00001fc0       ??$_Construct@$00PB_W@?$basic_string@_WU?$char_traits@_W@std@@V?$allocator@_W@2@@std@@AAEXQB_WI@Z 00402fc0 f i portable_settings.obj
 0001:00002060       ??$_UIntegral_to_buff@_WI@std@@YAPA_WPA_WI@Z 00403060 f i portable_settings.obj
 0001:000020a0       ??$make_tuple@V?$basic_string@_WU?$char_traits@_W@std@@V?$allocator@_W@2@@std@@V12@AAKAAK@std@@YA?AV?$tuple@V?$basic_string@_WU?$char_traits@_W@std@@V?$allocator@_W@2@@std@@V12@KK@0@$$QAV?$basic_string@_WU?$char_traits@_W@std@@V?$allocator@_W@2@@0@0AAK1@Z 004030a0 f i portable_settings.obj
 0001:00002130       ??0?$EnumIteratorIniFileBase@H@@QAE@PBVIniFileSettings@@@Z 00403130 f i portable_settings.obj
 0001:000022a0       ??0?$EnumIteratorIniFileBase@V?$basic_string@_WU?$char_traits@_W@std@@V?$allocator@_W@2@@std@@@@QAE@PBVIniFileSettings@@@Z 004032a0 f i portable_settings.obj
 0001:00002420       ??0?$basic_string@_WU?$char_traits@_W@std@@V?$allocator@_W@2@@std@@QAE@$$QAV01@@Z 00403420 f i portable_settings.obj
 0001:00002470       ??0?$basic_string@_WU?$char_traits@_W@std@@V?$allocator@_W@2@@std@@QAE@ABV01@@Z 00403470 f i portable_settings.obj
 0001:00002520       ??0EnumIteratorRegistryInt@@QAE@PAUHKEY__@@@Z 00403520 f i portable_settings.obj
 0001:00002710       ??0IniFileSettings@@QAE@PB_W0_N@Z 00403710 f   portable_settings.obj
 0001:00002810       ??0RegistrySettings@@QAE@PAUHKEY__@@PB_W_N@Z 00403810 f   portable_settings.obj
 0001:000028b0       ??0bad_alloc@std@@QAE@ABV01@@Z 004038b0 f i portable_settings.obj
 0001:000028f0       ??0bad_array_new_length@std@@QAE@ABV01@@Z 004038f0 f i portable_settings.obj
 0001:00002930       ??0bad_array_new_length@std@@QAE@XZ 00403930 f i portable_settings.obj
 0001:00002950       ??0exception@std@@QAE@ABV01@@Z 00403950 f i portable_settings.obj
 0001:00002980       ??0invalid_argument@std@@QAE@ABV01@@Z 00403980 f i portable_settings.obj
 0001:000029c0       ??0invalid_argument@std@@QAE@PBD@Z 004039c0 f i portable_settings.obj
 0001:00002a10       ??0logic_error@std@@QAE@ABV01@@Z 00403a10 f i portable_settings.obj
 0001:00002a50       ??1?$EnumIteratorImpl@H@@UAE@XZ 00403a50 f i portable_settings.obj
 0001:00002a50       ??1?$EnumIteratorRegistryBase@H@@UAE@XZ 00403a50 f i portable_settings.obj
 0001:00002a60       ??1?$EnumIteratorImpl@V?$basic_string@_WU?$char_traits@_W@std@@V?$allocator@_W@2@@std@@@@UAE@XZ 00403a60 f i portable_settings.obj
 0001:00002a60       ??1?$EnumIteratorRegistryBase@V?$basic_string@_WU?$char_traits@_W@std@@V?$allocator@_W@2@@std@@@@UAE@XZ 00403a60 f i portable_settings.obj
 0001:00002a80       ??1?$EnumIteratorIniFileBase@H@@UAE@XZ 00403a80 f i portable_settings.obj
 0001:00002aa0       ??1?$EnumIteratorIniFileBase@V?$basic_string@_WU?$char_traits@_W@std@@V?$allocator@_W@2@@std@@@@UAE@XZ 00403aa0 f i portable_settings.obj
 0001:00002ac0       ??1?$basic_string@_WU?$char_traits@_W@std@@V?$allocator@_W@2@@std@@QAE@XZ 00403ac0 f i portable_settings.obj
 0001:00002ac0       ??1path@filesystem@std@@QAE@XZ 00403ac0 f i app.obj
 0001:00002ad0       ??1?$optional@URawData@RegistrySettings@@@std@@QAE@XZ 00403ad0 f i portable_settings.obj
 0001:00002ae0       ??1?$optional@V?$basic_string@_WU?$char_traits@_W@std@@V?$allocator@_W@2@@std@@@std@@QAE@XZ 00403ae0 f i portable_settings.obj
 0001:00002af0       ??1?$optional@V?$tuple@V?$basic_string@_WU?$char_traits@_W@std@@V?$allocator@_W@2@@std@@V12@KK@std@@@std@@QAE@XZ 00403af0 f i portable_settings.obj
 0001:00002b10       ??1?$unique_any_t@V?$unique_storage@U?$resource_policy@PAUHKEY__@@P6GJPAU1@@Z$1?RegCloseKey@@YGJ0@ZU?$integral_constant@I$0A@@wistd@@PAU1@PAU1@$0A@$$T@details@wil@@@details@wil@@@wil@@QAE@XZ 00403b10 f i portable_settings.obj
 0001:00002b20       ??1?$vector@DV?$allocator@D@std@@@std@@QAE@XZ 00403b20 f i ui_control.obj
 0001:00002b20       ??1?$vector@EV?$allocator@E@std@@@std@@QAE@XZ 00403b20 f i portable_settings.obj
 0001:00002b20       ?_Tidy@?$vector@EV?$allocator@E@std@@@std@@AAEXXZ 00403b20 f i ui_control.obj
 0001:00002b80       ??1bad_alloc@std@@UAE@XZ   00403b80 f i libcpmt:xthrow.obj
 0001:00002b80       ??1bad_array_new_length@std@@UAE@XZ 00403b80 f i portable_settings.obj
 0001:00002b80       ??1bad_exception@std@@UAE@XZ 00403b80 f i libvcruntime:frame.obj
 0001:00002b80       ??1bad_function_call@std@@UAE@XZ 00403b80 f i libcpmt:xthrow.obj
 0001:00002b80       ??1bad_optional_access@std@@UAE@XZ 00403b80 f i app.obj
 0001:00002b80       ??1bad_variant_access@std@@UAE@XZ 00403b80 f i storage_manager.obj
 0001:00002b80       ??1failure@ios_base@std@@UAE@XZ 00403b80 f i ui_control.obj
 0001:00002b80       ??1invalid_argument@std@@UAE@XZ 00403b80 f i portable_settings.obj
 0001:00002b80       ??1length_error@std@@UAE@XZ 00403b80 f i libcpmt:xthrow.obj
 0001:00002b80       ??1logic_error@std@@UAE@XZ 00403b80 f i event_viewer_crash_monitor.obj
 0001:00002b80       ??1out_of_range@std@@UAE@XZ 00403b80 f i libcpmt:xthrow.obj
 0001:00002b80       ??1runtime_error@std@@UAE@XZ 00403b80 f i engine_control.obj
 0001:00002b80       ??1system_error@std@@UAE@XZ 00403b80 f i storage_manager.obj
 0001:00002ba0       ??4?$basic_string@_WU?$char_traits@_W@std@@V?$allocator@_W@2@@std@@QAEAAV01@$$QAV01@@Z 00403ba0 f i portable_settings.obj
 0001:00002be0       ??_E?$EnumIteratorImpl@H@@UAEPAXI@Z 00403be0 f i portable_settings.obj
 0001:00002be0       ??_G?$EnumIteratorImpl@H@@UAEPAXI@Z 00403be0 f i portable_settings.obj
 0001:00002c10       ??_E?$EnumIteratorImpl@V?$basic_string@_WU?$char_traits@_W@std@@V?$allocator@_W@2@@std@@@@UAEPAXI@Z 00403c10 f i portable_settings.obj
 0001:00002c10       ??_G?$EnumIteratorImpl@V?$basic_string@_WU?$char_traits@_W@std@@V?$allocator@_W@2@@std@@@@UAEPAXI@Z 00403c10 f i portable_settings.obj
 0001:00002c40       ??_E?$EnumIteratorIniFileBase@H@@UAEPAXI@Z 00403c40 f i portable_settings.obj
 0001:00002c40       ??_EEnumIteratorIniFileInt@@UAEPAXI@Z 00403c40 f i portable_settings.obj
 0001:00002c40       ??_G?$EnumIteratorIniFileBase@H@@UAEPAXI@Z 00403c40 f i portable_settings.obj
 0001:00002c40       ??_GEnumIteratorIniFileInt@@UAEPAXI@Z 00403c40 f i portable_settings.obj
 0001:00002c70       ??_E?$EnumIteratorIniFileBase@V?$basic_string@_WU?$char_traits@_W@std@@V?$allocator@_W@2@@std@@@@UAEPAXI@Z 00403c70 f i portable_settings.obj
 0001:00002c70       ??_EEnumIteratorIniFileString@@UAEPAXI@Z 00403c70 f i portable_settings.obj
 0001:00002c70       ??_G?$EnumIteratorIniFileBase@V?$basic_string@_WU?$char_traits@_W@std@@V?$allocator@_W@2@@std@@@@UAEPAXI@Z 00403c70 f i portable_settings.obj
 0001:00002c70       ??_GEnumIteratorIniFileString@@UAEPAXI@Z 00403c70 f i portable_settings.obj
 0001:00002cb0       ??_E?$EnumIteratorRegistryBase@H@@UAEPAXI@Z 00403cb0 f i portable_settings.obj
 0001:00002cb0       ??_EEnumIteratorRegistryInt@@UAEPAXI@Z 00403cb0 f i portable_settings.obj
 0001:00002cb0       ??_G?$EnumIteratorRegistryBase@H@@UAEPAXI@Z 00403cb0 f i portable_settings.obj
 0001:00002cb0       ??_GEnumIteratorRegistryInt@@UAEPAXI@Z 00403cb0 f i portable_settings.obj
 0001:00002ce0       ??_E?$EnumIteratorRegistryBase@V?$basic_string@_WU?$char_traits@_W@std@@V?$allocator@_W@2@@std@@@@UAEPAXI@Z 00403ce0 f i portable_settings.obj
 0001:00002ce0       ??_EEnumIteratorRegistryString@@UAEPAXI@Z 00403ce0 f i portable_settings.obj
 0001:00002ce0       ??_G?$EnumIteratorRegistryBase@V?$basic_string@_WU?$char_traits@_W@std@@V?$allocator@_W@2@@std@@@@UAEPAXI@Z 00403ce0 f i portable_settings.obj
 0001:00002ce0       ??_GEnumIteratorRegistryString@@UAEPAXI@Z 00403ce0 f i portable_settings.obj
 0001:00002d10       ??_EIniFileSettings@@UAEPAXI@Z 00403d10 f i portable_settings.obj
 0001:00002d10       ??_GIniFileSettings@@UAEPAXI@Z 00403d10 f i portable_settings.obj
 0001:00002d40       ??_ERegistrySettings@@UAEPAXI@Z 00403d40 f i portable_settings.obj
 0001:00002d40       ??_GRegistrySettings@@UAEPAXI@Z 00403d40 f i portable_settings.obj
 0001:00002d70       ??_Ebad_alloc@std@@UAEPAXI@Z 00403d70 f i portable_settings.obj
 0001:00002d70       ??_Ebad_array_new_length@std@@UAEPAXI@Z 00403d70 f i portable_settings.obj
 0001:00002d70       ??_Ebad_optional_access@std@@UAEPAXI@Z 00403d70 f i app.obj
 0001:00002d70       ??_Ebad_variant_access@std@@UAEPAXI@Z 00403d70 f i storage_manager.obj
 0001:00002d70       ??_Eexception@std@@UAEPAXI@Z 00403d70 f i portable_settings.obj
 0001:00002d70       ??_Einvalid_argument@std@@UAEPAXI@Z 00403d70 f i portable_settings.obj
 0001:00002d70       ??_Elogic_error@std@@UAEPAXI@Z 00403d70 f i portable_settings.obj
 0001:00002d70       ??_Eruntime_error@std@@UAEPAXI@Z 00403d70 f i engine_control.obj
 0001:00002d70       ??_Gbad_alloc@std@@UAEPAXI@Z 00403d70 f i portable_settings.obj
 0001:00002d70       ??_Gbad_array_new_length@std@@UAEPAXI@Z 00403d70 f i portable_settings.obj
 0001:00002d70       ??_Gbad_optional_access@std@@UAEPAXI@Z 00403d70 f i app.obj
 0001:00002d70       ??_Gbad_variant_access@std@@UAEPAXI@Z 00403d70 f i storage_manager.obj
 0001:00002d70       ??_Gexception@std@@UAEPAXI@Z 00403d70 f i portable_settings.obj
 0001:00002d70       ??_Ginvalid_argument@std@@UAEPAXI@Z 00403d70 f i portable_settings.obj
 0001:00002d70       ??_Glogic_error@std@@UAEPAXI@Z 00403d70 f i portable_settings.obj
 0001:00002d70       ??_Gruntime_error@std@@UAEPAXI@Z 00403d70 f i engine_control.obj
 0001:00002da0       ?EnumIntValues@IniFileSettings@@UBE?AV?$EnumIterator@H@PortableSettings@@XZ 00403da0 f   portable_settings.obj
 0001:00002e30       ?EnumIntValues@RegistrySettings@@UBE?AV?$EnumIterator@H@PortableSettings@@XZ 00403e30 f   portable_settings.obj
 0001:00002eb0       ?EnumStringValues@IniFileSettings@@UBE?AV?$EnumIterator@V?$basic_string@_WU?$char_traits@_W@std@@V?$allocator@_W@2@@std@@@PortableSettings@@XZ 00403eb0 f   portable_settings.obj
 0001:00002f40       ?EnumStringValues@RegistrySettings@@UBE?AV?$EnumIterator@V?$basic_string@_WU?$char_traits@_W@std@@V?$allocator@_W@2@@std@@@PortableSettings@@XZ 00403f40 f   portable_settings.obj
 0001:000030e0       ?FromResult@ResultStatus@details@wil@@SA?AU123@J@Z 004040e0 f i portable_settings.obj
 0001:00003110       ?GetBinary@IniFileSettings@@UBE?AV?$optional@V?$vector@EV?$allocator@E@std@@@std@@@std@@PB_W@Z 00404110 f   portable_settings.obj
 0001:00003430       ?GetBinary@RegistrySettings@@UBE?AV?$optional@V?$vector@EV?$allocator@E@std@@@std@@@std@@PB_W@Z 00404430 f   portable_settings.obj
 0001:00003570       ?GetFailureLogString@wil@@YAJPA_WIABUFailureInfo@1@@Z 00404570 f i portable_settings.obj
 0001:00003800       ?GetInt@IniFileSettings@@UBE?AV?$optional@H@std@@PB_W@Z 00404800 f   portable_settings.obj
 0001:000038d0       ?GetInt@RegistrySettings@@UBE?AV?$optional@H@std@@PB_W@Z 004048d0 f   portable_settings.obj
 0001:000039e0       ?GetRaw@RegistrySettings@@ABE?AV?$optional@URawData@RegistrySettings@@@std@@PB_W@Z 004049e0 f   portable_settings.obj
 0001:00003b90       ?GetString@IniFileSettings@@UBE?AV?$optional@V?$basic_string@_WU?$char_traits@_W@std@@V?$allocator@_W@2@@std@@@std@@PB_W@Z 00404b90 f   portable_settings.obj
 0001:00003d70       ?GetString@RegistrySettings@@UBE?AV?$optional@V?$basic_string@_WU?$char_traits@_W@std@@V?$allocator@_W@2@@std@@@std@@PB_W@Z 00404d70 f   portable_settings.obj
 0001:00003ec0       ?HrToNtStatus@details@wil@@YAJJ@Z 00404ec0 f i portable_settings.obj
 0001:000041c0       ?LogFailure@details@wil@@YAXPAXIPBD110W4FailureType@2@ABUResultStatus@12@PB_W_NPA_WIPADIW4FailureFlags@2@PAUFailureInfo@2@@Z 004051c0 f i portable_settings.obj
 0001:00004470       ?LogStringPrintf@details@wil@@YAPA_WPA_WPB_W1ZZ 00405470 f i portable_settings.obj
 0001:000047a0       ?RecordException@details@wil@@YAHJ@Z 004057a0 f i portable_settings.obj
 0001:000047c0       ?RecordFailFast@details@wil@@YAHJ@Z 004057c0 f i portable_settings.obj
 0001:000047e0       ?RecordLog@details@wil@@YAHJ@Z 004057e0 f i portable_settings.obj
 0001:00004800       ?RecordReturn@details@wil@@YAHJ@Z 00405800 f i portable_settings.obj
 0001:00004820       ?Remove@IniFileSettings@@UAEXPB_W@Z 00405820 f   portable_settings.obj
 0001:00004880       ?Remove@RegistrySettings@@UAEXPB_W@Z 00405880 f   portable_settings.obj
 0001:000048c0       ?RethrowCaughtException@wil@@YAXXZ 004058c0 f i portable_settings.obj
 0001:000048d0       ?SetBinary@IniFileSettings@@UAEXPB_WPBEI@Z 004058d0 f   portable_settings.obj
 0001:00004c40       ?SetBinary@RegistrySettings@@UAEXPB_WPBEI@Z 00405c40 f   portable_settings.obj
 0001:00004c80       ?SetInt@IniFileSettings@@UAEXPB_WH@Z 00405c80 f   portable_settings.obj
 0001:00004d00       ?SetInt@RegistrySettings@@UAEXPB_WH@Z 00405d00 f   portable_settings.obj
 0001:00004d40       ?SetString@IniFileSettings@@UAEXPB_W0@Z 00405d40 f   portable_settings.obj
 0001:00005370       ?SetString@RegistrySettings@@UAEXPB_W0@Z 00406370 f   portable_settings.obj
 0001:000053d0       ?ThrowResultException@wil@@YAXABUFailureInfo@1@@Z 004063d0 f i portable_settings.obj
 0001:000053f0       ?Throw_Win32@in1diag3@details@wil@@YAXPAXIPBDK@Z 004063f0 f i portable_settings.obj
 0001:00005410       ?WilFailFast@details@wil@@YGXABUFailureInfo@2@@Z 00406410 f i portable_settings.obj
 0001:000054b0       ?WilRaiseFailFastException@details@wil@@YGXPAU_EXCEPTION_RECORD@@PAU_CONTEXT@@K@Z 004064b0 f i portable_settings.obj
 0001:000054e0       ?_Change_array@?$vector@EV?$allocator@E@std@@@std@@AAEXQAEII@Z 004064e0 f i portable_settings.obj
 0001:00005540       ?_Deallocate_for_capacity@?$basic_string@_WU?$char_traits@_W@std@@V?$allocator@_W@2@@std@@CAXAAV?$allocator@_W@2@QA_WI@Z 00406540 f i portable_settings.obj
 0001:00005590       ?_FailFastImmediate_Unexpected@in1diag3@details@wil@@YAXXZ 00406590 f i portable_settings.obj
 0001:00005590       ?__throw_bad_function_call@wistd@@YAXXZ 00406590 f i app.obj
 0001:000055a0       ?_Throw_bad_array_new_length@std@@YAXXZ 004065a0 f i portable_settings.obj
 0001:000055a0       ?__scrt_throw_std_bad_array_new_length@@YAXXZ 004065a0 f i LIBCMT:throw_bad_alloc.obj
 0001:000055c0       ?_Tidy_deallocate@?$basic_string@_WU?$char_traits@_W@std@@V?$allocator@_W@2@@std@@AAEXXZ 004065c0 f i portable_settings.obj
 0001:00005620       ?_Xlen_string@std@@YAXXZ   00406620 f i portable_settings.obj
 0001:00005630       ?_Xlength@?$vector@DV?$allocator@D@std@@@std@@CAXXZ 00406630 f i ui_control.obj
 0001:00005630       ?_Xlength@?$vector@EV?$allocator@E@std@@@std@@CAXXZ 00406630 f i portable_settings.obj
 0001:00005630       ?_Xlength@?$vector@IV?$allocator@I@std@@@std@@CAXXZ 00406630 f i ui_control.obj
 0001:00005630       ?_Xlength@?$vector@PAUHWND__@@V?$allocator@PAUHWND__@@@std@@@std@@CAXXZ 00406630 f i ui_control.obj
 0001:00005630       ?_Xlength@?$vector@PAV?$basic_json@Uordered_map@nlohmann@@Vvector@std@@V?$basic_string@DU?$char_traits@D@std@@V?$allocator@D@2@@4@_N_J_KNVallocator@4@Uadl_serializer@2@V?$vector@EV?$allocator@E@std@@@4@@nlohmann@@V?$allocator@PAV?$basic_json@Uordered_map@nlohmann@@Vvector@std@@V?$basic_string@DU?$char_traits@D@std@@V?$allocator@D@2@@4@_N_J_KNVallocator@4@Uadl_serializer@2@V?$vector@EV?$allocator@E@std@@@4@@nlohmann@@@std@@@std@@CAXXZ 00406630 f i ui_control.obj
 0001:00005630       ?_Xlength@?$vector@PAV?$basic_json@Vmap@std@@Vvector@2@V?$basic_string@DU?$char_traits@D@std@@V?$allocator@D@2@@2@_N_J_KNVallocator@2@Uadl_serializer@nlohmann@@V?$vector@EV?$allocator@E@std@@@2@@nlohmann@@V?$allocator@PAV?$basic_json@Vmap@std@@Vvector@2@V?$basic_string@DU?$char_traits@D@std@@V?$allocator@D@2@@2@_N_J_KNVallocator@2@Uadl_serializer@nlohmann@@V?$vector@EV?$allocator@E@std@@@2@@nlohmann@@@std@@@std@@CAXXZ 00406630 f i userprofile.obj
 0001:00005630       ?_Xlength@?$vector@PB_WV?$allocator@PB_W@std@@@std@@CAXXZ 00406630 f i update_checker.obj
 0001:00005630       ?_Xlength@?$vector@U?$pair@$$CBV?$basic_string@DU?$char_traits@D@std@@V?$allocator@D@2@@std@@V?$basic_json@Uordered_map@nlohmann@@Vvector@std@@V?$basic_string@DU?$char_traits@D@std@@V?$allocator@D@2@@4@_N_J_KNVallocator@4@Uadl_serializer@2@V?$vector@EV?$allocator@E@std@@@4@@nlohmann@@@std@@V?$allocator@U?$pair@$$CBV?$basic_string@DU?$char_traits@D@std@@V?$allocator@D@2@@std@@V?$basic_json@Uordered_map@nlohmann@@Vvector@std@@V?$basic_string@DU?$char_traits@D@std@@V?$allocator@D@2@@4@_N_J_KNVallocator@4@Uadl_serializer@2@V?$vector@EV?$allocator@E@std@@@4@@nlohmann@@@std@@@2@@std@@CAXXZ 00406630 f i ui_control.obj
 0001:00005630       ?_Xlength@?$vector@V?$basic_json@Uordered_map@nlohmann@@Vvector@std@@V?$basic_string@DU?$char_traits@D@std@@V?$allocator@D@2@@4@_N_J_KNVallocator@4@Uadl_serializer@2@V?$vector@EV?$allocator@E@std@@@4@@nlohmann@@V?$allocator@V?$basic_json@Uordered_map@nlohmann@@Vvector@std@@V?$basic_string@DU?$char_traits@D@std@@V?$allocator@D@2@@4@_N_J_KNVallocator@4@Uadl_serializer@2@V?$vector@EV?$allocator@E@std@@@4@@nlohmann@@@std@@@std@@CAXXZ 00406630 f i ui_control.obj
 0001:00005630       ?_Xlength@?$vector@V?$basic_json@Vmap@std@@Vvector@2@V?$basic_string@DU?$char_traits@D@std@@V?$allocator@D@2@@2@_N_J_KNVallocator@2@Uadl_serializer@nlohmann@@V?$vector@EV?$allocator@E@std@@@2@@nlohmann@@V?$allocator@V?$basic_json@Vmap@std@@Vvector@2@V?$basic_string@DU?$char_traits@D@std@@V?$allocator@D@2@@2@_N_J_KNVallocator@2@Uadl_serializer@nlohmann@@V?$vector@EV?$allocator@E@std@@@2@@nlohmann@@@std@@@std@@CAXXZ 00406630 f i userprofile.obj
 0001:00005630       ?_Xlength@?$vector@V?$basic_string@_WU?$char_traits@_W@std@@V?$allocator@_W@2@@std@@V?$allocator@V?$basic_string@_WU?$char_traits@_W@std@@V?$allocator@_W@2@@std@@@2@@std@@CAXXZ 00406630 f i functions.obj
 0001:00005630       ?_Xlength@?$vector@V?$basic_string_view@_WU?$char_traits@_W@std@@@std@@V?$allocator@V?$basic_string_view@_WU?$char_traits@_W@std@@@std@@@2@@std@@CAXXZ 00406630 f i functions.obj
 0001:00005640       ?append@?$basic_string@_WU?$char_traits@_W@std@@V?$allocator@_W@2@@std@@QAEAAV12@I_W@Z 00406640 f i portable_settings.obj
 0001:000057c0       ?append@?$basic_string@_WU?$char_traits@_W@std@@V?$allocator@_W@2@@std@@QAEAAV12@QB_WI@Z 004067c0 f i portable_settings.obj
 0001:00005910       ?clone@EnumIteratorIniFileInt@@UBE?AV?$unique_ptr@V?$EnumIteratorImpl@H@@U?$default_delete@V?$EnumIteratorImpl@H@@@std@@@std@@XZ 00406910 f i portable_settings.obj
 0001:000059d0       ?clone@EnumIteratorIniFileString@@UBE?AV?$unique_ptr@V?$EnumIteratorImpl@V?$basic_string@_WU?$char_traits@_W@std@@V?$allocator@_W@2@@std@@@@U?$default_delete@V?$EnumIteratorImpl@V?$basic_string@_WU?$char_traits@_W@std@@V?$allocator@_W@2@@std@@@@@std@@@std@@XZ 004069d0 f i portable_settings.obj
 0001:00005aa0       ?clone@EnumIteratorRegistryInt@@UBE?AV?$unique_ptr@V?$EnumIteratorImpl@H@@U?$default_delete@V?$EnumIteratorImpl@H@@@std@@@std@@XZ 00406aa0 f i portable_settings.obj
 0001:00005b60       ?clone@EnumIteratorRegistryString@@UBE?AV?$unique_ptr@V?$EnumIteratorImpl@V?$basic_string@_WU?$char_traits@_W@std@@V?$allocator@_W@2@@std@@@@U?$default_delete@V?$EnumIteratorImpl@V?$basic_string@_WU?$char_traits@_W@std@@V?$allocator@_W@2@@std@@@@@std@@@std@@XZ 00406b60 f i portable_settings.obj
 0001:00005c30       ?deallocate@?$allocator@E@std@@QAEXQAEI@Z 00406c30 f i portable_settings.obj
 0001:00005c80       ?get_next_item_raw@?$EnumIteratorRegistryBase@H@@IAE?AV?$optional@V?$tuple@V?$basic_string@_WU?$char_traits@_W@std@@V?$allocator@_W@2@@std@@V12@KK@std@@@std@@XZ 00406c80 f i portable_settings.obj
 0001:00005f20       ?get_next_item_raw@?$EnumIteratorRegistryBase@V?$basic_string@_WU?$char_traits@_W@std@@V?$allocator@_W@2@@std@@@@IAE?AV?$optional@V?$tuple@V?$basic_string@_WU?$char_traits@_W@std@@V?$allocator@_W@2@@std@@V12@KK@std@@@std@@XZ 00406f20 f i portable_settings.obj
 0001:000061c0       ?next@EnumIteratorIniFileInt@@UAEXXZ 004071c0 f i portable_settings.obj
 0001:000063f0       ?next@EnumIteratorIniFileString@@UAEXXZ 004073f0 f i portable_settings.obj
 0001:000065c0       ?next@EnumIteratorRegistryInt@@UAEXXZ 004075c0 f i portable_settings.obj
 0001:00006740       ?next@EnumIteratorRegistryString@@UAEXXZ 00407740 f i portable_settings.obj
 0001:00006860       ?push_back@?$basic_string@_WU?$char_traits@_W@std@@V?$allocator@_W@2@@std@@QAEX_W@Z 00407860 f i portable_settings.obj
 0001:00006960       ?reserve@?$basic_string@_WU?$char_traits@_W@std@@V?$allocator@_W@2@@std@@QAEXI@Z 00407960 f i portable_settings.obj
 0001:00006a50       ?stol@std@@YAJABV?$basic_string@_WU?$char_traits@_W@std@@V?$allocator@_W@2@@1@PAIH@Z 00407a50 f i portable_settings.obj
 0001:00006ac0       ?to_wstring@std@@YA?AV?$basic_string@_WU?$char_traits@_W@std@@V?$allocator@_W@2@@1@H@Z 00407ac0 f i portable_settings.obj
 0001:00006bf0       ?what@exception@std@@UBEPBDXZ 00407bf0 f i portable_settings.obj
 0001:00006c00       _wmemchr                   00407c00 f i portable_settings.obj
 0001:00006d50       ?Allocate@CAtlStringMgr@ATL@@UAEPAUCStringData@2@HH@Z 00407d50 f i app.obj
 0001:00006dc0       ?Free@CAtlStringMgr@ATL@@UAEXPAUCStringData@2@@Z 00407dc0 f i app.obj
 0001:00006dd0       ?Reallocate@CAtlStringMgr@ATL@@UAEPAUCStringData@2@PAU32@HH@Z 00407dd0 f i app.obj
 0001:00006e30       ?GetNilString@CAtlStringMgr@ATL@@UAEPAUCStringData@2@XZ 00407e30 f i app.obj
 0001:00006e40       ?Clone@CAtlStringMgr@ATL@@UAEPAUIAtlStringMgr@2@XZ 00407e40 f i app.obj
 0001:00006e40       ?EnsureLinked@CAtlStringMgrStaticInitializer@ATLImplementationDetails@ATL@@QAEPAXXZ 00407e40 f i app.obj
 0001:00006e50       ??_ECAtlStringMgr@ATL@@UAEPAXI@Z 00407e50 f i app.obj
 0001:00006e50       ??_GCAtlStringMgr@ATL@@UAEPAXI@Z 00407e50 f i app.obj
 0001:00006e80       ?Lock@CAtlModule@ATL@@UAEJXZ 00407e80 f i app.obj
 0001:00006e90       ?Unlock@CAtlModule@ATL@@UAEJXZ 00407e90 f i app.obj
 0001:00006ea0       ?GetLockCount@CAtlModule@ATL@@UAEJXZ 00407ea0 f i app.obj
 0001:00006eb0       ?GetGITPtr@CAtlModule@ATL@@UAEJPAPAUIGlobalInterfaceTable@@@Z 00407eb0 f i app.obj
 0001:00006f40       ?AddCommonRGSReplacements@?$CAtlModuleT@VCComModule@ATL@@@ATL@@UAEJPAUIRegistrarBase@@@Z 00407f40 f i app.obj
 0001:00006f90       ?UpdateRegistryFromResourceD@CComModule@ATL@@UAGJIHPAU_ATL_REGMAP_ENTRY@2@@Z 00407f90 f i app.obj
 0001:00006f90       ?UpdateRegistryFromResourceD@CComModule@ATL@@UAGJPB_WHPAU_ATL_REGMAP_ENTRY@2@@Z 00407f90 f i app.obj
 0001:00006fa0       ?UpdateRegistryFromResource@CComModule@ATL@@UAGJPB_WHPAU_ATL_REGMAP_ENTRY@2@@Z 00407fa0 f i app.obj
 0001:00006fb0       ?UpdateRegistryFromResource@CComModule@ATL@@UAGJIHPAU_ATL_REGMAP_ENTRY@2@@Z 00407fb0 f i app.obj
 0001:00006fc0       ??_ECComModule@ATL@@UAEPAXI@Z 00407fc0 f i app.obj
 0001:00006fc0       ??_GCComModule@ATL@@UAEPAXI@Z 00407fc0 f i app.obj
 0001:00006ff0       ??_ECAppModule@WTL@@UAEPAXI@Z 00407ff0 f i app.obj
 0001:00006ff0       ??_GCAppModule@WTL@@UAEPAXI@Z 00407ff0 f i app.obj
 0001:00007020       ?QueryInterface@CRegObject@ATL@@UAGJABU_GUID@@PAPAX@Z 00408020 f i app.obj
 0001:00007030       ?AddRef@CRegObject@ATL@@UAGKXZ 00408030 f i app.obj
 0001:00007040       ?Release@CRegObject@ATL@@UAGKXZ 00408040 f i app.obj
 0001:00007040       ?_Get_deleter@_Ref_count_base@std@@UBEPAXABVtype_info@@@Z 00408040 f i task_manager_dlg.obj
 0001:00007050       ?AddReplacement@CRegObject@ATL@@UAGJPB_W0@Z 00408050 f i app.obj
 0001:000070f0       ?ClearReplacements@CRegObject@ATL@@UAGJXZ 004080f0 f i app.obj
 0001:00007120       ??_ECRegObject@ATL@@UAEPAXI@Z 00408120 f i app.obj
 0001:00007120       ??_GCRegObject@ATL@@UAEPAXI@Z 00408120 f i app.obj
 0001:00007150       ?Allocate@CWin32Heap@ATL@@UAEPAXI@Z 00408150 f i app.obj
 0001:00007170       ?Free@CWin32Heap@ATL@@UAEXPAX@Z 00408170 f i app.obj
 0001:00007190       ?Reallocate@CWin32Heap@ATL@@UAEPAXPAXI@Z 00408190 f i app.obj
 0001:000071d0       ?GetSize@CWin32Heap@ATL@@UAEIPAX@Z 004081d0 f i app.obj
 0001:000071f0       ??_ECWin32Heap@ATL@@UAEPAXI@Z 004081f0 f i app.obj
 0001:000071f0       ??_GCWin32Heap@ATL@@UAEPAXI@Z 004081f0 f i app.obj
 0001:00007230       ??$AdaptFixedSizeToAllocatedResult@V?$basic_string@_WU?$char_traits@_W@std@@V?$allocator@_W@2@@std@@$0BAA@@wil@@YAJAAV?$basic_string@_WU?$char_traits@_W@std@@V?$allocator@_W@2@@std@@V?$function@$$A6AJPA_WIPAI@Z@wistd@@@Z 00408230 f i app.obj
 0001:00007720       ??$AdaptFixedSizeToAllocatedResult@V?$basic_string@_WU?$char_traits@_W@std@@V?$allocator@_W@2@@std@@$0IA@@wil@@YAJAAV?$basic_string@_WU?$char_traits@_W@std@@V?$allocator@_W@2@@std@@V?$function@$$A6AJPA_WIPAI@Z@wistd@@@Z 00408720 f i app.obj
 0001:00007c10       ??$AtlModuleRegisterWndClassInfoT@VAtlModuleRegisterWndClassInfoParamW@ATL@@@ATL@@YAGPAU_ATL_BASE_MODULE70@0@PAU_ATL_WIN_MODULE70@0@PAU_ATL_WNDCLASSINFOW@0@PAP6GJPAUHWND__@@IIJ@ZVAtlModuleRegisterWndClassInfoParamW@0@@Z 00408c10 f i app.obj
 0001:00007e00       ??$GetModuleFileNameW@V?$basic_string@_WU?$char_traits@_W@std@@V?$allocator@_W@2@@std@@$0IA@@wil@@YA?AV?$basic_string@_WU?$char_traits@_W@std@@V?$allocator@_W@2@@std@@PAUHINSTANCE__@@@Z 00408e00 f i app.obj
 0001:00007ed0       ??$ReportFailure_Base@$00$0A@@details@wil@@YAXPAXIPBD110ABUResultStatus@01@PB_WW4ReportFailureOptions@01@W4FailureFlags@1@@Z 00408ed0 f i app.obj
 0001:00007ee0       ??$ReportFailure_Base@$02$0A@@details@wil@@YAXPAXIPBD110ABUResultStatus@01@PB_WW4ReportFailureOptions@01@W4FailureFlags@1@@Z 00408ee0 f i app.obj
 0001:00007f10       ??$ReportFailure_GetLastError@$02@details@wil@@YAKPAXIPBD110@Z 00408f10 f i app.obj
 0001:00007f80       ??$ReportFailure_GetLastError@$0A@@details@wil@@YAKPAXIPBD110@Z 00408f80 f i app.obj
 0001:00007ff0       ??$ReportFailure_GetLastErrorHr@$00@details@wil@@YAJPAXIPBD110@Z 00408ff0 f i app.obj
 0001:000080b0       ??$ReportFailure_Hr@$00@details@wil@@YAXPAXIPBD110JW4FailureFlags@1@@Z 004090b0 f i app.obj
 0001:00008100       ??$ReportFailure_Hr@$02@details@wil@@YAXPAXIPBD110JW4FailureFlags@1@@Z 00409100 f i app.obj
 0001:00008150       ??$ReportFailure_Hr@$0A@@details@wil@@YAXPAXIPBD110JW4FailureFlags@1@@Z 00409150 f i app.obj
 0001:000081a0       ??$ReportFailure_NoReturn@$02@details@wil@@YAXPAXIPBD110ABUResultStatus@01@PB_WW4ReportFailureOptions@01@@Z 004091a0 f i app.obj
 0001:00008490       ??$ReportFailure_Return@$00@details@wil@@YAXPAXIPBD110ABUResultStatus@01@PB_WW4ReportFailureOptions@01@W4FailureFlags@1@@Z 00409490 f i app.obj
 0001:00008790       ??$_Insert_counted_range@PBE@?$vector@EV?$allocator@E@std@@@std@@AAEXV?$_Vector_const_iterator@V?$_Vector_val@U?$_Simple_types@E@std@@@std@@@1@PBEI@Z 00409790 f i app.obj
 0001:00008980       ??$_Reallocate_grow_by@V<lambda_1>@?1??insert@?$basic_string@_WU?$char_traits@_W@std@@V?$allocator@_W@2@@std@@QAEAAV34@IQB_WI@Z@IPB_WI@?$basic_string@_WU?$char_traits@_W@std@@V?$allocator@_W@2@@std@@AAEAAV01@IV<lambda_1>@?1??insert@01@QAEAAV01@IQB_WI@Z@IPB_WI@Z 00409980 f i app.obj
 0001:00008ab0       ??0?$CStringT@_WV?$StrTraitATL@_WV?$ChTraitsCRT@_W@ATL@@@ATL@@@ATL@@QAE@PB_WPAUIAtlStringMgr@1@@Z 00409ab0 f i app.obj
 0001:00008c50       ??0?$unique_any_t@V?$unique_storage@U?$handle_null_only_resource_policy@P6GHPAX@Z$1?CloseHandle@@YGH0@Z@details@wil@@@details@wil@@@wil@@QAE@XZ 00409c50 f i app.obj
 0001:00008c60       ??0bad_optional_access@std@@QAE@ABV01@@Z 00409c60 f i app.obj
 0001:00008ca0       ??0bad_optional_access@std@@QAE@XZ 00409ca0 f i app.obj
 0001:00008cc0       ??1?$CAtlSafeAllocBufferManager@VCCRTAllocator@ATL@@@_ATL_SAFE_ALLOCA_IMPL@ATL@@QAE@XZ 00409cc0 f i app.obj
 0001:00008cf0       ??1?$CAutoVectorPtr@_W@ATL@@QAE@XZ 00409cf0 f i app.obj
 0001:00008d10       ??1?$CSimpleStringT@D$0A@@ATL@@QAE@XZ 00409d10 f i storage_manager.obj
 0001:00008d10       ??1?$CSimpleStringT@_W$0A@@ATL@@QAE@XZ 00409d10 f i app.obj
 0001:00008d10       ??1?$CStringT@DV?$StrTraitATL@DV?$ChTraitsCRT@D@ATL@@@ATL@@@ATL@@QAE@XZ 00409d10 f i storage_manager.obj
 0001:00008d10       ??1?$CStringT@_WV?$StrTraitATL@_WV?$ChTraitsCRT@_W@ATL@@@ATL@@@ATL@@QAE@XZ 00409d10 f i app.obj
 0001:00008d30       ??1?$CTempBuffer@E$0BAA@VCCRTAllocator@ATL@@@ATL@@QAE@XZ 00409d30 f i app.obj
 0001:00008d30       ??1?$CTempBuffer@_W$0BAA@VCCRTAllocator@ATL@@@ATL@@QAE@XZ 00409d30 f i app.obj
 0001:00008d30       ??1?$CTempBuffer@_W$0EAA@VCCRTAllocator@ATL@@@ATL@@QAE@XZ 00409d30 f i app.obj
 0001:00008d40       ??1?$unique_any_t@V?$event_t@V?$unique_storage@U?$resource_policy@PAXP6GXPAX@_E$1?CloseHandle@details@wil@@YGX0@ZU?$integral_constant@I$0A@@wistd@@PAXPAX$0A@$$T@details@wil@@@details@wil@@Uerr_exception_policy@3@@wil@@@wil@@QAE@XZ 00409d40 f i app.obj
 0001:00008d40       ??1?$unique_any_t@V?$mutex_t@V?$unique_storage@U?$resource_policy@PAXP6GXPAX@_E$1?CloseHandle@details@wil@@YGX0@ZU?$integral_constant@I$0A@@wistd@@PAXPAX$0A@$$T@details@wil@@@details@wil@@Uerr_returncode_policy@3@@wil@@@wil@@QAE@XZ 00409d40 f i app.obj
 0001:00008d70       ??1?$unique_any_t@V?$unique_storage@U?$handle_invalid_resource_policy@P6GHPAX@Z$1?CloseHandle@@YGH0@Z@details@wil@@@details@wil@@@wil@@QAE@XZ 00409d70 f i app.obj
 0001:00008d90       ??1?$unique_any_t@V?$unique_storage@U?$handle_null_only_resource_policy@P6GHPAX@Z$1?CloseHandle@@YGH0@Z@details@wil@@@details@wil@@@wil@@QAE@XZ 00409d90 f i app.obj
 0001:00008da0       ??1?$unique_any_t@V?$unique_storage@U?$resource_policy@PAXP6GXPAX@_E$1?ReleaseMutex@details@wil@@YGX0@ZU?$integral_constant@I$01@wistd@@PAXPAX$0A@$$T@details@wil@@@details@wil@@@wil@@QAE@XZ 00409da0 f i app.obj
 0001:00008dd0       ??1?$unique_ptr@U_WTS_SESSION_INFOW@@U?$function_deleter@P6GXPAX@Z$1?WTSFreeMemory@@YGX0@Z@wil@@@wistd@@QAE@XZ 00409dd0 f i app.obj
 0001:00008dd0       ??1?$unique_ptr@_WU?$function_deleter@P6GXPAX@Z$1?WTSFreeMemory@@YGX0@Z@wil@@@wistd@@QAE@XZ 00409dd0 f i app.obj
 0001:00008df0       ??1?$unique_ptr@VPortableSettings@@U?$default_delete@VPortableSettings@@@std@@@std@@QAE@XZ 00409df0 f i app.obj
 0001:00008df0       ??1?$unique_ptr@V_Facet_base@std@@U?$default_delete@V_Facet_base@std@@@2@@std@@QAE@XZ 00409df0 f i ui_control.obj
 0001:00008e00       ??1?$unique_struct@U_PROCESS_INFORMATION@@P6GXPAU1@@Z$1?CloseProcessInformation@details@wil@@YGX0@Z$$T$0A@@wil@@QAE@XZ 00409e00 f i app.obj
 0001:00008e10       ??1?$vector@IV?$allocator@I@std@@@std@@QAE@XZ 00409e10 f i ui_control.obj
 0001:00008e10       ??1?$vector@PAUHWND__@@V?$allocator@PAUHWND__@@@std@@@std@@QAE@XZ 00409e10 f i app.obj
 0001:00008e10       ??1?$vector@PAV?$basic_json@Uordered_map@nlohmann@@Vvector@std@@V?$basic_string@DU?$char_traits@D@std@@V?$allocator@D@2@@4@_N_J_KNVallocator@4@Uadl_serializer@2@V?$vector@EV?$allocator@E@std@@@4@@nlohmann@@V?$allocator@PAV?$basic_json@Uordered_map@nlohmann@@Vvector@std@@V?$basic_string@DU?$char_traits@D@std@@V?$allocator@D@2@@4@_N_J_KNVallocator@4@Uadl_serializer@2@V?$vector@EV?$allocator@E@std@@@4@@nlohmann@@@std@@@std@@QAE@XZ 00409e10 f i ui_control.obj
 0001:00008e10       ??1?$vector@PAV?$basic_json@Vmap@std@@Vvector@2@V?$basic_string@DU?$char_traits@D@std@@V?$allocator@D@2@@2@_N_J_KNVallocator@2@Uadl_serializer@nlohmann@@V?$vector@EV?$allocator@E@std@@@2@@nlohmann@@V?$allocator@PAV?$basic_json@Vmap@std@@Vvector@2@V?$basic_string@DU?$char_traits@D@std@@V?$allocator@D@2@@2@_N_J_KNVallocator@2@Uadl_serializer@nlohmann@@V?$vector@EV?$allocator@E@std@@@2@@nlohmann@@@std@@@std@@QAE@XZ 00409e10 f i userprofile.obj
 0001:00008e10       ??1?$vector@PB_WV?$allocator@PB_W@std@@@std@@QAE@XZ 00409e10 f i update_checker.obj
 0001:00008e10       ?_Tidy@?$vector@PAUHWND__@@V?$allocator@PAUHWND__@@@std@@@std@@AAEXXZ 00409e10 f i ui_control.obj
 0001:00008e70       ??1CAsyncDownloader@WinHTTPWrappers@@UAE@XZ 00409e70 f i app.obj
 0001:00008f50       ??1CCritSecLock@ATL@@QAE@XZ 00409f50 f i app.obj
 0001:00008f50       ??1CStaticDataInitCriticalSectionLock@WTL@@QAE@XZ 00409f50 f i app.obj
 0001:00008f70       ??1CMainWindow@@UAE@XZ     00409f70 f i app.obj
 0001:00009120       ??1CMessageLoop@WTL@@UAE@XZ 0040a120 f i app.obj
 0001:00009190       ??1CParseBuffer@CRegParser@ATL@@QAE@XZ 0040a190 f i app.obj
 0001:000091a0       ??1CRegKey@ATL@@QAE@XZ     0040a1a0 f i app.obj
 0001:000091c0       ??1CRegObject@ATL@@UAE@XZ  0040a1c0 f i app.obj
 0001:00009270       ??1CSimpleWinHTTPDownloader@CWinHTTPSimple@@UAE@XZ 0040a270 f i app.obj
 0001:000092f0       ??1CWinHTTPSimple@@QAE@XZ  0040a2f0 f i app.obj
 0001:00009350       ??1UpdateChecker@@QAE@XZ   0040a350 f i app.obj
 0001:00009400       ??1_Reallocation_guard@?$vector@EV?$allocator@E@std@@@std@@QAE@XZ 0040a400 f i app.obj
 0001:00009440       ??R?$__func@V<lambda_1>@?1???$K32GetModuleFileNameExW@V?$basic_string@_WU?$char_traits@_W@std@@V?$allocator@_W@2@@std@@$0IA@@wil@@YAJPAXPAUHINSTANCE__@@AAV?$basic_string@_WU?$char_traits@_W@std@@V?$allocator@_W@2@@std@@@Z@$$A6AJPA_WIPAI@Z@__function@wistd@@UAEJ$$QAPA_W$$QAI$$QAPAI@Z 0040a440 f i app.obj
 0001:000094e0       ??R?$__func@V<lambda_1>@?1???$QueryFullProcessImageNameW@V?$basic_string@_WU?$char_traits@_W@std@@V?$allocator@_W@2@@std@@$0BAA@@wil@@YAJPAXKAAV?$basic_string@_WU?$char_traits@_W@std@@V?$allocator@_W@2@@std@@@Z@$$A6AJPA_WIPAI@Z@__function@wistd@@UAEJ$$QAPA_W$$QAI$$QAPAI@Z 0040a4e0 f i app.obj
 0001:00009550       ??R_Is_slash_oper@filesystem@std@@SA_N_W@Z 0040a550 f i app.obj
 0001:00009570       ??_E?$__base@$$A6AJPA_WIPAI@Z@__function@wistd@@UAEPAXI@Z 0040a570 f i app.obj
 0001:00009570       ??_G?$__base@$$A6AJPA_WIPAI@Z@__function@wistd@@UAEPAXI@Z 0040a570 f i app.obj
 0001:000095a0       ??_E?$__func@V<lambda_1>@?1???$K32GetModuleFileNameExW@V?$basic_string@_WU?$char_traits@_W@std@@V?$allocator@_W@2@@std@@$0IA@@wil@@YAJPAXPAUHINSTANCE__@@AAV?$basic_string@_WU?$char_traits@_W@std@@V?$allocator@_W@2@@std@@@Z@$$A6AJPA_WIPAI@Z@__function@wistd@@UAEPAXI@Z 0040a5a0 f i app.obj
 0001:000095a0       ??_E?$__func@V<lambda_1>@?1???$QueryFullProcessImageNameW@V?$basic_string@_WU?$char_traits@_W@std@@V?$allocator@_W@2@@std@@$0BAA@@wil@@YAJPAXKAAV?$basic_string@_WU?$char_traits@_W@std@@V?$allocator@_W@2@@std@@@Z@$$A6AJPA_WIPAI@Z@__function@wistd@@UAEPAXI@Z 0040a5a0 f i app.obj
 0001:000095a0       ??_G?$__func@V<lambda_1>@?1???$K32GetModuleFileNameExW@V?$basic_string@_WU?$char_traits@_W@std@@V?$allocator@_W@2@@std@@$0IA@@wil@@YAJPAXPAUHINSTANCE__@@AAV?$basic_string@_WU?$char_traits@_W@std@@V?$allocator@_W@2@@std@@@Z@$$A6AJPA_WIPAI@Z@__function@wistd@@UAEPAXI@Z 0040a5a0 f i app.obj
 0001:000095a0       ??_G?$__func@V<lambda_1>@?1???$QueryFullProcessImageNameW@V?$basic_string@_WU?$char_traits@_W@std@@V?$allocator@_W@2@@std@@$0BAA@@wil@@YAJPAXKAAV?$basic_string@_WU?$char_traits@_W@std@@V?$allocator@_W@2@@std@@@Z@$$A6AJPA_WIPAI@Z@__function@wistd@@UAEPAXI@Z 0040a5a0 f i app.obj
 0001:000095d0       ??_ECAsyncDownloader@WinHTTPWrappers@@UAEPAXI@Z 0040a5d0 f i app.obj
 0001:000095d0       ??_GCAsyncDownloader@WinHTTPWrappers@@UAEPAXI@Z 0040a5d0 f i app.obj
 0001:00009600       ??_ECConnection@WinHTTPWrappers@@UAEPAXI@Z 0040a600 f i update_checker.obj
 0001:00009600       ??_ECHandle@WinHTTPWrappers@@UAEPAXI@Z 0040a600 f i app.obj
 0001:00009600       ??_ECSession@WinHTTPWrappers@@UAEPAXI@Z 0040a600 f i update_checker.obj
 0001:00009600       ??_GCConnection@WinHTTPWrappers@@UAEPAXI@Z 0040a600 f i update_checker.obj
 0001:00009600       ??_GCHandle@WinHTTPWrappers@@UAEPAXI@Z 0040a600 f i app.obj
 0001:00009600       ??_GCSession@WinHTTPWrappers@@UAEPAXI@Z 0040a600 f i update_checker.obj
 0001:00009640       ??_ECMessageLoop@WTL@@UAEPAXI@Z 0040a640 f i app.obj
 0001:00009640       ??_GCMessageLoop@WTL@@UAEPAXI@Z 0040a640 f i app.obj
 0001:00009670       ??_ECSimpleWinHTTPDownloader@CWinHTTPSimple@@UAEPAXI@Z 0040a670 f i app.obj
 0001:00009670       ??_GCSimpleWinHTTPDownloader@CWinHTTPSimple@@UAEPAXI@Z 0040a670 f i app.obj
 0001:000096a0       ?Add@CExpansionVector@ATL@@QAEHPB_W0@Z 0040a6a0 f i app.obj
 0001:00009860       ?AddValue@CRegParser@ATL@@IAEJAAVCRegKey@2@PB_WPA_W@Z 0040a860 f i app.obj
 0001:00009d80       ?AllocateHeap@?$CTempBuffer@E$0BAA@VCCRTAllocator@ATL@@@ATL@@AAEXI@Z 0040ad80 f i app.obj
 0001:00009d80       ?AllocateHeap@?$CTempBuffer@_W$0BAA@VCCRTAllocator@ATL@@@ATL@@AAEXI@Z 0040ad80 f i app.obj
 0001:00009d80       ?AllocateHeap@?$CTempBuffer@_W$0EAA@VCCRTAllocator@ATL@@@ATL@@AAEXI@Z 0040ad80 f i app.obj
 0001:00009db0       ?Append@CParseBuffer@CRegParser@ATL@@QAEHPB_WH@Z 0040adb0 f i app.obj
 0001:00009e60       ?AtlCrtErrorCheck@ATL@@YAHH@Z 0040ae60 f i app.obj
 0001:00009f00       ?AtlHresultFromLastError@ATL@@YAJXZ 0040af00 f i app.obj
 0001:00009f20       ?AtlHresultFromWin32@ATL@@YAJK@Z 0040af20 f i app.obj
 0001:00009f40       ?AtlThrowImpl@ATL@@YGXJ@Z  0040af40 f i app.obj
 0001:00009f60       ?ChooseAuthScheme@CAsyncDownloader@WinHTTPWrappers@@UAEKKKK@Z 0040af60 f i app.obj
 0001:00009fb0       ?ClearReplacements@CExpansionVector@ATL@@QAEJXZ 0040afb0 f i app.obj
 0001:0000a040       ?CloseProcessInformation@details@wil@@YGXPAU_PROCESS_INFORMATION@@@Z 0040b040 f i app.obj
 0001:0000a0a0       ?DeleteDownloadedFile@CAsyncDownloader@WinHTTPWrappers@@QAEJXZ 0040b0a0 f i app.obj
 0001:0000a0f0       ?DeleteSubKey@CRegKey@ATL@@QAEJPB_W@Z 0040b0f0 f i app.obj
 0001:0000a220       ?DoAuthentication@CAsyncDownloader@WinHTTPWrappers@@UAEJKKK@Z 0040b220 f i app.obj
 0001:0000a2b0       ?DoBandwidthThrottling@CAsyncDownloader@WinHTTPWrappers@@MAEXXZ 0040b2b0 f i app.obj
 0001:0000a410       ?EscapeSingleQuote@CAtlModule@ATL@@SAXPA_WIPB_W@Z 0040b410 f i app.obj
 0001:0000a4a0       ?Fork@?$CSimpleStringT@_W$0A@@ATL@@AAEXH@Z 0040b4a0 f i app.obj
 0001:0000a560       ?Format@?$CStringT@_WV?$StrTraitATL@_WV?$ChTraitsCRT@_W@ATL@@@ATL@@@ATL@@QAAXPB_WZZ 0040b560 f i app.obj
 0001:0000a690       ?FreeHeap@?$CTempBuffer@E$0BAA@VCCRTAllocator@ATL@@@ATL@@AAEXXZ 0040b690 f i app.obj
 0001:0000a690       ?FreeHeap@?$CTempBuffer@_W$0BAA@VCCRTAllocator@ATL@@@ATL@@AAEXXZ 0040b690 f i app.obj
 0001:0000a690       ?FreeHeap@?$CTempBuffer@_W$0EAA@VCCRTAllocator@ATL@@@ATL@@AAEXXZ 0040b690 f i app.obj
 0001:0000a6a0       ?GetContentLength@CAsyncDownloader@WinHTTPWrappers@@UAEKXZ 0040b6a0 f i app.obj
 0001:0000a6d0       ?GetHeaders@CAsyncDownloader@WinHTTPWrappers@@UAE?AV?$basic_string@_WU?$char_traits@_W@std@@V?$allocator@_W@2@@std@@XZ 0040b6d0 f i app.obj
 0001:0000a870       ?GetInstance@CAtlStringMgr@ATL@@SAPAUIAtlStringMgr@2@XZ 0040b870 f i app.obj
 0001:0000a9e0       ?GetLastErrorFail@details@wil@@YAKPAXIPBD110@Z 0040b9e0 f i app.obj
 0001:0000aa50       ?Init@CAppModule@WTL@@QAEJPAU_ATL_OBJMAP_ENTRY30@ATL@@PAUHINSTANCE__@@PBU_GUID@@@Z 0040ba50 f i app.obj
 0001:0000ab80       ?IsIdleMessage@CMessageLoop@WTL@@UBEHPAUtagMSG@@@Z 0040bb80 f i app.obj
 0001:0000abc0       ?NextToken@CRegParser@ATL@@IAEJPA_W@Z 0040bbc0 f i app.obj
 0001:0000ad80       ?On401Response@CAsyncDownloader@WinHTTPWrappers@@MAEJXZ 0040bd80 f i app.obj
 0001:0000aee0       ?On407Response@CAsyncDownloader@WinHTTPWrappers@@MAEJXZ 0040bee0 f i app.obj
 0001:0000b030       ?OnCallback@CAsyncDownloader@WinHTTPWrappers@@MAEJPAXK0K@Z 0040c030 f i app.obj
 0001:0000b090       ?OnCallback@CHandle@WinHTTPWrappers@@MAEJPAXK0K@Z 0040c090 f i app.obj
 0001:0000b0a0       ?OnCallback@CSimpleWinHTTPDownloader@CWinHTTPSimple@@MAEJPAXK0K@Z 0040c0a0 f i app.obj
 0001:0000b150       ?OnCallbackComplete@CAsyncDownloader@WinHTTPWrappers@@MAEJJPAXK0K@Z 0040c150 f i app.obj
 0001:0000b1b0       ?OnCallbackComplete@CHandle@WinHTTPWrappers@@MAEJJPAXK0K@Z 0040c1b0 f i app.obj
 0001:0000b1c0       ?OnCallbackComplete@CSimpleWinHTTPDownloader@CWinHTTPSimple@@MAEJJPAXK0K@Z 0040c1c0 f i app.obj
 0001:0000b260       ?OnCheckStatusCode@CAsyncDownloader@WinHTTPWrappers@@MAEJXZ 0040c260 f i app.obj
 0001:0000b2b0       ?OnHeadersAvailableCallback@CAsyncDownloader@WinHTTPWrappers@@MAEJPAXK0K@Z 0040c2b0 f i app.obj
 0001:0000b3d0       ?OnIdle@CMessageLoop@WTL@@UAEHH@Z 0040c3d0 f i app.obj
 0001:0000b460       ?OnReadCompleteCallback@CAsyncDownloader@WinHTTPWrappers@@MAEJPAXK0K@Z 0040c460 f i app.obj
 0001:0000b530       ?OnReadData@CAsyncDownloader@WinHTTPWrappers@@MAEJPBXK@Z 0040c530 f i app.obj
 0001:0000b630       ?OnRequestErrorCallback@CAsyncDownloader@WinHTTPWrappers@@MAEJPAXK0K@Z 0040c630 f i app.obj
 0001:0000b720       ?OnWriteCallback@CAsyncDownloader@WinHTTPWrappers@@MAEJPAXK0K@Z 0040c720 f i app.obj
 0001:0000b750       ?OnWriteData@CAsyncDownloader@WinHTTPWrappers@@MAEJXZ 0040c750 f i app.obj
 0001:0000b8c0       ?PreProcessBuffer@CRegParser@ATL@@QAEJPA_WPAPA_W@Z 0040c8c0 f i app.obj
 0001:0000bc90       ?PreTranslateMessage@CMessageLoop@WTL@@UAEHPAUtagMSG@@@Z 0040cc90 f i app.obj
 0001:0000bce0       ?PrepareWrite2@?$CSimpleStringT@_W$0A@@ATL@@AAEXH@Z 0040cce0 f i app.obj
 0001:0000bd40       ?QueryContentLength@CAsyncDownloader@WinHTTPWrappers@@IAEJAA_J@Z 0040cd40 f i app.obj
 0001:0000be70       ?Reallocate@?$CSimpleStringT@_W$0A@@ATL@@AAEXH@Z 0040ce70 f i app.obj
 0001:0000beb0       ?RecurseDeleteKey@CRegKey@ATL@@QAEJPB_W@Z 0040ceb0 f i app.obj
 0001:0000c070       ?RegisterBuffer@CRegParser@ATL@@QAEJPA_WH@Z 0040d070 f i app.obj
 0001:0000c210       ?RegisterFromResource@CRegObject@ATL@@IAEJPB_W00H@Z 0040d210 f i app.obj
 0001:0000c420       ?RegisterSubkeys@CRegParser@ATL@@IAEJPA_WPAUHKEY__@@HH@Z 0040d420 f i app.obj
 0001:0000ce40       ?ReleaseResources@CAsyncDownloader@WinHTTPWrappers@@QAEXXZ 0040de40 f i app.obj
 0001:0000cf10       ?RemoveAt@?$CSimpleMap@KPAVCMessageLoop@WTL@@V?$CSimpleMapEqualHelper@KPAVCMessageLoop@WTL@@@ATL@@@ATL@@QAEHH@Z 0040df10 f i app.obj
 0001:0000d060       ?ResultFromCaughtException@wil@@YAJXZ 0040e060 f i app.obj
 0001:0000d0f0       ?Return_GetLastError@in1diag3@details@wil@@YAJPAXIPBD@Z 0040e0f0 f i app.obj
 0001:0000d140       ?Return_Hr@in1diag3@details@wil@@YAXPAXIPBDJ@Z 0040e140 f i app.obj
 0001:0000e3b0       ?SendRequest@CAsyncDownloader@WinHTTPWrappers@@QAEJPAXKABV?$basic_string@_WU?$char_traits@_W@std@@V?$allocator@_W@2@@std@@@Z 0040f3b0 f i app.obj
 0001:0000e490       ?SendRequestSync@CSimpleWinHTTPDownloader@CWinHTTPSimple@@UAEJPAXK@Z 0040f490 f i app.obj
 0001:0000e510       ?SendRequestSync@CSyncDownloader@WinHTTPWrappers@@UAEJPAXKABV?$basic_string@_WU?$char_traits@_W@std@@V?$allocator@_W@2@@std@@@Z 0040f510 f i app.obj
 0001:0000ed50       ?SetString@?$CSimpleStringT@_W$0A@@ATL@@QAEXPB_WH@Z 0040fd50 f i app.obj
 0001:0000ef10       ?SkipAssignment@CRegParser@ATL@@IAEJPA_W@Z 0040ff10 f i app.obj
 0001:0000ef90       ?SkipWhiteSpace@CRegParser@ATL@@IAEXXZ 0040ff90 f i app.obj
 0001:0000f000       ?StartWindowProc@?$CWindowImplBaseT@VCWindow@ATL@@V?$CWinTraits@$0A@$0A@@2@@ATL@@SGJPAUHWND__@@IIJ@Z 00410000 f i app.obj
 0001:0000f0d0       ?Term@CAtlModule@ATL@@QAEXXZ 004100d0 f i app.obj
 0001:0000f190       ?ThrowMemoryException@?$CSimpleStringT@D$0A@@ATL@@KAXXZ 00410190 f i storage_manager.obj
 0001:0000f190       ?ThrowMemoryException@?$CSimpleStringT@_W$0A@@ATL@@KAXXZ 00410190 f i app.obj
 0001:0000f1a0       ?Throw_GetLastError@in1diag3@details@wil@@YAXPAXIPBD@Z 004101a0 f i app.obj
 0001:0000f1a0       ?_Throw_GetLastError@in1diag3@details@wil@@YAXPAXIPBD@Z 004101a0 f i app.obj
 0001:0000f1c0       ?UpdateRegistryFromResource@CAtlModule@ATL@@QAGJIHPAU_ATL_REGMAP_ENTRY@2@@Z 004101c0 f i app.obj
 0001:0000f540       ?UpdateRegistryFromResource@CAtlModule@ATL@@QAGJPB_WHPAU_ATL_REGMAP_ENTRY@2@@Z 00410540 f i app.obj
 0001:00010270       ?_AtlGetStringResourceImage@ATL@@YAPBUATLSTRINGRESOURCEIMAGE@1@PAUHINSTANCE__@@PAUHRSRC__@@I@Z 00411270 f i app.obj
 0001:000102d0       ?_AtlInitializeCriticalSectionEx@ATL@@YAHPAU_RTL_CRITICAL_SECTION@@KK@Z 004112d0 f i app.obj
 0001:000102f0       ?_AtlRaiseException@ATL@@YAXKK@Z 004112f0 f i app.obj
 0001:00010310       ?_FailFast_GetLastError@in1diag3@details@wil@@YAXPAXIPBD@Z 00411310 f i app.obj
 0001:00010350       ?_FailFast_Hr@in1diag3@details@wil@@YAXPAXIPBDJ@Z 00411350 f i app.obj
 0001:000103a0       ?_Find_root_name_end@filesystem@std@@YAPB_WQB_W0@Z 004113a0 f i app.obj
 0001:000104c0       ?_Throw_Hr@in1diag3@details@wil@@YAXPAXIPBDJ@Z 004114c0 f i app.obj
 0001:000104e0       ?_Throw_bad_optional_access@std@@YAXXZ 004114e0 f i app.obj
 0001:00010510       ?_Xran@?$_String_val@U?$_Simple_types@_W@std@@@std@@SAXXZ 00411510 f i app.obj
 0001:00010520       ?__clone@?$__func@V<lambda_1>@?1???$K32GetModuleFileNameExW@V?$basic_string@_WU?$char_traits@_W@std@@V?$allocator@_W@2@@std@@$0IA@@wil@@YAJPAXPAUHINSTANCE__@@AAV?$basic_string@_WU?$char_traits@_W@std@@V?$allocator@_W@2@@std@@@Z@$$A6AJPA_WIPAI@Z@__function@wistd@@UBEXPAV?$__base@$$A6AJPA_WIPAI@Z@23@@Z 00411520 f i app.obj
 0001:00010520       ?__move@?$__func@V<lambda_1>@?1???$K32GetModuleFileNameExW@V?$basic_string@_WU?$char_traits@_W@std@@V?$allocator@_W@2@@std@@$0IA@@wil@@YAJPAXPAUHINSTANCE__@@AAV?$basic_string@_WU?$char_traits@_W@std@@V?$allocator@_W@2@@std@@@Z@$$A6AJPA_WIPAI@Z@__function@wistd@@UAEXPAV?$__base@$$A6AJPA_WIPAI@Z@23@@Z 00411520 f i app.obj
 0001:00010540       ?__clone@?$__func@V<lambda_1>@?1???$QueryFullProcessImageNameW@V?$basic_string@_WU?$char_traits@_W@std@@V?$allocator@_W@2@@std@@$0BAA@@wil@@YAJPAXKAAV?$basic_string@_WU?$char_traits@_W@std@@V?$allocator@_W@2@@std@@@Z@$$A6AJPA_WIPAI@Z@__function@wistd@@UBEXPAV?$__base@$$A6AJPA_WIPAI@Z@23@@Z 00411540 f i app.obj
 0001:00010540       ?__move@?$__func@V<lambda_1>@?1???$QueryFullProcessImageNameW@V?$basic_string@_WU?$char_traits@_W@std@@V?$allocator@_W@2@@std@@$0BAA@@wil@@YAJPAXKAAV?$basic_string@_WU?$char_traits@_W@std@@V?$allocator@_W@2@@std@@@Z@$$A6AJPA_WIPAI@Z@__function@wistd@@UAEXPAV?$__base@$$A6AJPA_WIPAI@Z@23@@Z 00411540 f i app.obj
 0001:00010560       ??1?$CIconT@$0A@@WTL@@QAE@XZ 00411560 f i task_manager_dlg.obj
 0001:00010560       ?_Lock@?$basic_streambuf@DU?$char_traits@D@std@@@std@@UAEXXZ 00411560 f i ui_control.obj
 0001:00010560       ?_Unlock@?$basic_streambuf@DU?$char_traits@D@std@@@std@@UAEXXZ 00411560 f i ui_control.obj
 0001:00010560       ?destroy@?$__func@V<lambda_1>@?1???$ExpandEnvironmentStringsW@V?$basic_string@_WU?$char_traits@_W@std@@V?$allocator@_W@2@@std@@$0BAA@@wil@@YAJPB_WAAV?$basic_string@_WU?$char_traits@_W@std@@V?$allocator@_W@2@@std@@@Z@$$A6AJPA_WIPAI@Z@__function@wistd@@UAEXXZ 00411560 f i storage_manager.obj
 0001:00010560       ?destroy@?$__func@V<lambda_1>@?1???$GetEnvironmentVariableW@V?$basic_string@_WU?$char_traits@_W@std@@V?$allocator@_W@2@@std@@$0IA@@wil@@YAJPB_WAAV?$basic_string@_WU?$char_traits@_W@std@@V?$allocator@_W@2@@std@@@Z@$$A6AJPA_WIPAI@Z@__function@wistd@@UAEXXZ 00411560 f i ui_control.obj
 0001:00010560       ?destroy@?$__func@V<lambda_1>@?1???$GetWindowsDirectoryW@V?$basic_string@_WU?$char_traits@_W@std@@V?$allocator@_W@2@@std@@$0BAA@@wil@@YAJAAV?$basic_string@_WU?$char_traits@_W@std@@V?$allocator@_W@2@@std@@@Z@$$A6AJPA_WIPAI@Z@__function@wistd@@UAEXXZ 00411560 f i main_window.obj
 0001:00010560       ?destroy@?$__func@V<lambda_1>@?1???$K32GetModuleFileNameExW@V?$basic_string@_WU?$char_traits@_W@std@@V?$allocator@_W@2@@std@@$0IA@@wil@@YAJPAXPAUHINSTANCE__@@AAV?$basic_string@_WU?$char_traits@_W@std@@V?$allocator@_W@2@@std@@@Z@$$A6AJPA_WIPAI@Z@__function@wistd@@UAEXXZ 00411560 f i app.obj
 0001:00010560       ?destroy@?$__func@V<lambda_1>@?1???$QueryFullProcessImageNameW@V?$basic_string@_WU?$char_traits@_W@std@@V?$allocator@_W@2@@std@@$0BAA@@wil@@YAJPAXKAAV?$basic_string@_WU?$char_traits@_W@std@@V?$allocator@_W@2@@std@@@Z@$$A6AJPA_WIPAI@Z@__function@wistd@@UAEXXZ 00411560 f i app.obj
 0001:00010560       @_guard_check_icall_nop@4  00411560 f i LIBCMT:guard_support.obj
 0001:00010560       __initialize_denormal_control 00411560 f i LIBCMT:denormal_control.obj
 0001:00010560       __initialize_invalid_parameter_handler 00411560 f i LIBCMT:invalid_parameter_handler.obj
 0001:00010570       ?make@?$string_maker@V?$basic_string@_WU?$char_traits@_W@std@@V?$allocator@_W@2@@std@@@details@wil@@QAEJPB_WI@Z 00411570 f i app.obj
 0001:00010780       ?memcpy_s@Checked@ATL@@YAXPAXIPBXI@Z 00411780 f i app.obj
 0001:00010850       ?reserve@?$vector@EV?$allocator@E@std@@@std@@QAEXI@Z 00411850 f i app.obj
 0001:000108f0       ?what@bad_optional_access@std@@UBEPBDXZ 004118f0 f i app.obj
 0001:00010900       _swprintf_s                00411900 f i app.obj
 0001:00010930       _wWinMain@16               00411930 f   app.obj
 0001:00010ce0       ??$ReportFailure_GetLastErrorMsg@$0A@@details@wil@@YAKPAXIPBD1101PAD@Z 00411ce0 f i engine_control.obj
 0001:00010d50       ??$ReportFailure_Msg@$0A@@details@wil@@YAXPAXIPBD110ABUResultStatus@01@1PAD@Z 00411d50 f i engine_control.obj
 0001:00010dd0       ??$Throw_GetLastErrorIfNullMsg@V?$unique_any_t@V?$unique_storage@U?$resource_policy@PAUHINSTANCE__@@P6GHPAU1@@Z$1?FreeLibrary@@YGH0@ZU?$integral_constant@I$0A@@wistd@@PAU1@PAU1@$0A@$$T@details@wil@@@details@wil@@@wil@@$0A@@in1diag3@details@wil@@YAXPAXIPBDABV?$unique_any_t@V?$unique_storage@U?$resource_policy@PAUHINSTANCE__@@P6GHPAU1@@Z$1?FreeLibrary@@YGH0@ZU?$integral_constant@I$0A@@wistd@@PAU1@PAU1@$0A@$$T@details@wil@@@details@wil@@@2@1ZZ 00411dd0 f i engine_control.obj
 0001:00010e00       ??0EngineControl@@QAE@XZ   00411e00 f   engine_control.obj
 0001:00011060       ??0runtime_error@std@@QAE@ABV01@@Z 00412060 f i engine_control.obj
 0001:000110a0       ??0runtime_error@std@@QAE@PBD@Z 004120a0 f i engine_control.obj
 0001:000110f0       ??1?$unique_any_t@V?$unique_storage@U?$resource_policy@PAUHINSTANCE__@@P6GHPAU1@@Z$1?FreeLibrary@@YGH0@ZU?$integral_constant@I$0A@@wistd@@PAU1@PAU1@$0A@$$T@details@wil@@@details@wil@@@wil@@QAE@XZ 004120f0 f i engine_control.obj
 0001:00011100       ??1EngineControl@@QAE@XZ   00412100 f   engine_control.obj
 0001:00011160       ??4path@filesystem@std@@QAEAAV012@ABV012@@Z 00412160 f i engine_control.obj
 0001:00011260       ??Kfilesystem@std@@YA?AVpath@01@ABV201@0@Z 00412260 f i engine_control.obj
 0001:00011510       ??_0path@filesystem@std@@QAEAAV012@ABV012@@Z 00412510 f i engine_control.obj
 0001:000116b0       ?HandleNewProcesses@EngineControl@@QAEHXZ 004126b0 f   engine_control.obj
 0001:000116c0       ?PrintLoggingMessage@details@wil@@YAXPA_WIPBDPAD@Z 004126c0 f i engine_control.obj
 0001:00011760       ?StringCchPrintfW@@YAJPA_WIPB_WZZ 00412760 f i engine_control.obj
 0001:000117e0       ?StringCchVPrintfW@@YGJPA_WIPB_WPAD@Z 004127e0 f i engine_control.obj
 0001:00011870       ?_Throw_GetLastErrorMsg@in1diag3@details@wil@@YAXPAXIPBD01PAD@Z 00412870 f i engine_control.obj
 0001:00011890       _wmemcmp                   00412890 f i engine_control.obj
 0001:000119f0       ??$safe_cast@HI$0A@@wil@@YAHI@Z 004129f0 f i event_viewer_crash_monitor.obj
 0001:00011a40       ??0EventViewerCrashMonitor@@QAE@V?$basic_string_view@_WU?$char_traits@_W@std@@@std@@@Z 00412a40 f   event_viewer_crash_monitor.obj
 0001:00011bf0       ??0logic_error@std@@QAE@PBD@Z 00412bf0 f i event_viewer_crash_monitor.obj
 0001:00011c40       ??1?$unique_any_t@V?$unique_storage@U?$resource_policy@PAXP6GHPAX@Z$1?EvtClose@@YGH0@ZU?$integral_constant@I$0A@@wistd@@PAXPAX$0A@$$T@details@wil@@@details@wil@@@wil@@QAE@XZ 00412c40 f i event_viewer_crash_monitor.obj
 0001:00011c50       ??1?$unique_ptr@$$BY0A@EU?$default_delete@$$BY0A@E@std@@@std@@QAE@XZ 00412c50 f i event_viewer_crash_monitor.obj
 0001:00011c60       ?DoesEventMatch@EventViewerCrashMonitor@@AAE_NPAX@Z 00412c60 f   event_viewer_crash_monitor.obj
 0001:000120a0       ?GetAmountOfNewEvents@EventViewerCrashMonitor@@QAEHXZ 004130a0 f   event_viewer_crash_monitor.obj
 0001:000121c0       ?GetEventHandle@EventViewerCrashMonitor@@QBEPAXXZ 004131c0 f   event_viewer_crash_monitor.obj
 0001:000123c0       ??1?$_Tidy_guard@V?$vector@V?$basic_string@_WU?$char_traits@_W@std@@V?$allocator@_W@2@@std@@V?$allocator@V?$basic_string@_WU?$char_traits@_W@std@@V?$allocator@_W@2@@std@@@2@@std@@@std@@QAE@XZ 004133c0 f i functions.obj
 0001:000123d0       ??1?$_Uninitialized_backout_al@V?$allocator@V?$basic_string@_WU?$char_traits@_W@std@@V?$allocator@_W@2@@std@@@std@@@std@@QAE@XZ 004133d0 f i functions.obj
 0001:00012400       ??E_Iterator@?$split_view@V?$basic_string_view@_WU?$char_traits@_W@std@@@std@@V?$single_view@_W@ranges@2@@ranges@std@@QAEAAV0123@XZ 00413400 f i functions.obj
 0001:000125e0       ?ApplyDialogLayoutRtl@Functions@@YAXVCWindow@ATL@@_N@Z 004135e0 f   functions.obj
 0001:00012640       ?CreateEventForMediumIntegrity@Functions@@YAPAXPB_WH@Z 00413640 f   functions.obj
 0001:000126b0       ?CreateExecutionRequiredRequest@Functions@@YAJPAXPAPAX@Z 004136b0 f   functions.obj
 0001:000127b0       ?GetDpiForWindowWithFallback@Functions@@YAIPAUHWND__@@@Z 004137b0 f   functions.obj
 0001:00012860       ?GetNtVersionNumbers@Functions@@YAXPAK00@Z 00413860 f   functions.obj
 0001:000129a0       ?GetSystemMetricsForDpiWithFallback@Functions@@YAHHI@Z 004139a0 f   functions.obj
 0001:00012a30       ?IsProcessFrozen@Functions@@YA_NPAX@Z 00413a30 f   functions.obj
 0001:00012ae0       ?IsRightToLeftLanguage@Functions@@YA_NG@Z 00413ae0 f   functions.obj
 0001:00012b40       ?IsRunAsAdmin@Functions@@YAHXZ 00413b40 f   functions.obj
 0001:00012bd0       ?IsWindowsVersionOrGreaterWithBuildNumber@Functions@@YA_NGGG@Z 00413bd0 f   functions.obj
 0001:00012d40       ?LoadStrFromRsrc@Functions@@YAPB_WI@Z 00413d40 f   functions.obj
 0001:00012e00       ?ReplaceAll@Functions@@YA?AV?$basic_string@_WU?$char_traits@_W@std@@V?$allocator@_W@2@@std@@V?$basic_string_view@_WU?$char_traits@_W@std@@@3@00_N@Z 00413e00 f   functions.obj
 0001:00013040       ?SetDebugPrivilege@Functions@@YAHH@Z 00414040 f   functions.obj
 0001:000130f0       ?SplitString@Functions@@YA?AV?$vector@V?$basic_string@_WU?$char_traits@_W@std@@V?$allocator@_W@2@@std@@V?$allocator@V?$basic_string@_WU?$char_traits@_W@std@@V?$allocator@_W@2@@std@@@2@@std@@V?$basic_string_view@_WU?$char_traits@_W@std@@@3@_W@Z 004140f0 f   functions.obj
 0001:000132a0       ?_Tidy@?$vector@V?$basic_string@_WU?$char_traits@_W@std@@V?$allocator@_W@2@@std@@V?$allocator@V?$basic_string@_WU?$char_traits@_W@std@@V?$allocator@_W@2@@std@@@2@@std@@AAEXXZ 004142a0 f i functions.obj
 0001:00013330       ?_Xran@?$basic_string_view@_WU?$char_traits@_W@std@@@std@@CAXXZ 00414330 f i functions.obj
 0001:00013340       ?GetInstance@Logger@@SAAAV1@XZ 00414340 f   logger.obj
 0001:000134d0       ??$?0PA_W$0A@@?$basic_string@_WU?$char_traits@_W@std@@V?$allocator@_W@2@@std@@QAE@PA_W0ABV?$allocator@_W@1@@Z 004144d0 f i main_window.obj
 0001:000135a0       ??$?H_WU?$char_traits@_W@std@@V?$allocator@_W@1@@std@@YA?AV?$basic_string@_WU?$char_traits@_W@std@@V?$allocator@_W@2@@0@$$QAV10@QB_W@Z 004145a0 f i main_window.obj
 0001:00013610       ??$?H_WU?$char_traits@_W@std@@V?$allocator@_W@1@@std@@YA?AV?$basic_string@_WU?$char_traits@_W@std@@V?$allocator@_W@2@@0@QB_W$$QAV10@@Z 00414610 f i main_window.obj
 0001:00013720       ??$_Allocate_for_capacity@$0A@@?$basic_string@DU?$char_traits@D@std@@V?$allocator@D@2@@std@@CAPADAAV?$allocator@D@1@AAI@Z 00414720 f i main_window.obj
 0001:00013790       ??$_snwprintf_s@$0BAA@@@YAHAAY0BAA@_WIPB_WZZ 00414790 f i main_window.obj
 0001:000137d0       ??$emplace@UDialogOptions@CTaskManagerDlg@@@?$optional@VCTaskManagerDlg@@@std@@QAEAAVCTaskManagerDlg@@$$QAUDialogOptions@2@@Z 004147d0 f i main_window.obj
 0001:00013820       ??$value_or@AAY00$$CB_W@?$optional@V?$basic_string@_WU?$char_traits@_W@std@@V?$allocator@_W@2@@std@@@std@@QHAE?AV?$basic_string@_WU?$char_traits@_W@std@@V?$allocator@_W@2@@1@AAY00$$CB_W@Z 00414820 f i storage_manager.obj
 0001:00013820       ??$value_or@AAY01$$CB_W@?$optional@V?$basic_string@_WU?$char_traits@_W@std@@V?$allocator@_W@2@@std@@@std@@QHAE?AV?$basic_string@_WU?$char_traits@_W@std@@V?$allocator@_W@2@@1@AAY01$$CB_W@Z 00414820 f i main_window.obj
 0001:000138c0       ??0?$basic_string@DU?$char_traits@D@std@@V?$allocator@D@2@@std@@QAE@QBD@Z 004148c0 f i main_window.obj
 0001:00013980       ??0CMainWindow@@QAE@_N0@Z  00414980 f   main_window.obj
 0001:00013aa0       ??0DialogOptions@CTaskManagerDlg@@QAE@$$QAU01@@Z 00414aa0 f i main_window.obj
 0001:00013b70       ??0DialogOptions@CToolkitDlg@@QAE@$$QAU01@@Z 00414b70 f i main_window.obj
 0001:00013d00       ??1?$CMenuT@$00@WTL@@QAE@XZ 00414d00 f i main_window.obj
 0001:00013d20       ??1?$basic_string@DU?$char_traits@D@std@@V?$allocator@D@2@@std@@QAE@XZ 00414d20 f i main_window.obj
 0001:00013d20       ?_Tidy_deallocate@?$basic_string@DU?$char_traits@D@std@@V?$allocator@D@2@@std@@AAEXXZ 00414d20 f i ui_control.obj
 0001:00013da0       ??1?$unique_any_t@V?$unique_storage@U?$handle_null_resource_policy@P6GHPAX@Z$1?CloseHandle@@YGH0@Z@details@wil@@@details@wil@@@wil@@QAE@XZ 00414da0 f i main_window.obj
 0001:00013dc0       ??1?$unique_ptr@UServiceInfo@ServiceCommon@@Umapview_deleter@wil@@@wistd@@QAE@XZ 00414dc0 f i main_window.obj
 0001:00013de0       ??1?$unique_ptr@VUpdateChecker@@U?$default_delete@VUpdateChecker@@@std@@@std@@QAE@XZ 00414de0 f i main_window.obj
 0001:00013e50       ??1DialogOptions@CTaskManagerDlg@@QAE@XZ 00414e50 f i main_window.obj
 0001:00013ea0       ??1DialogOptions@CToolkitDlg@@QAE@XZ 00414ea0 f i main_window.obj
 0001:000144d0       ??R?$__func@V<lambda_1>@?1???$GetWindowsDirectoryW@V?$basic_string@_WU?$char_traits@_W@std@@V?$allocator@_W@2@@std@@$0BAA@@wil@@YAJAAV?$basic_string@_WU?$char_traits@_W@std@@V?$allocator@_W@2@@std@@@Z@$$A6AJPA_WIPAI@Z@__function@wistd@@UAEJ$$QAPA_W$$QAI$$QAPAI@Z 004154d0 f i main_window.obj
 0001:00014520       ??Y?$basic_string@DU?$char_traits@D@std@@V?$allocator@D@2@@std@@QAEAAV01@QBD@Z 00415520 f i main_window.obj
 0001:00014550       ??_E?$__func@V<lambda_1>@?1???$ExpandEnvironmentStringsW@V?$basic_string@_WU?$char_traits@_W@std@@V?$allocator@_W@2@@std@@$0BAA@@wil@@YAJPB_WAAV?$basic_string@_WU?$char_traits@_W@std@@V?$allocator@_W@2@@std@@@Z@$$A6AJPA_WIPAI@Z@__function@wistd@@UAEPAXI@Z 00415550 f i storage_manager.obj
 0001:00014550       ??_E?$__func@V<lambda_1>@?1???$GetEnvironmentVariableW@V?$basic_string@_WU?$char_traits@_W@std@@V?$allocator@_W@2@@std@@$0IA@@wil@@YAJPB_WAAV?$basic_string@_WU?$char_traits@_W@std@@V?$allocator@_W@2@@std@@@Z@$$A6AJPA_WIPAI@Z@__function@wistd@@UAEPAXI@Z 00415550 f i ui_control.obj
 0001:00014550       ??_E?$__func@V<lambda_1>@?1???$GetWindowsDirectoryW@V?$basic_string@_WU?$char_traits@_W@std@@V?$allocator@_W@2@@std@@$0BAA@@wil@@YAJAAV?$basic_string@_WU?$char_traits@_W@std@@V?$allocator@_W@2@@std@@@Z@$$A6AJPA_WIPAI@Z@__function@wistd@@UAEPAXI@Z 00415550 f i main_window.obj
 0001:00014550       ??_G?$__func@V<lambda_1>@?1???$ExpandEnvironmentStringsW@V?$basic_string@_WU?$char_traits@_W@std@@V?$allocator@_W@2@@std@@$0BAA@@wil@@YAJPB_WAAV?$basic_string@_WU?$char_traits@_W@std@@V?$allocator@_W@2@@std@@@Z@$$A6AJPA_WIPAI@Z@__function@wistd@@UAEPAXI@Z 00415550 f i storage_manager.obj
 0001:00014550       ??_G?$__func@V<lambda_1>@?1???$GetEnvironmentVariableW@V?$basic_string@_WU?$char_traits@_W@std@@V?$allocator@_W@2@@std@@$0IA@@wil@@YAJPB_WAAV?$basic_string@_WU?$char_traits@_W@std@@V?$allocator@_W@2@@std@@@Z@$$A6AJPA_WIPAI@Z@__function@wistd@@UAEPAXI@Z 00415550 f i ui_control.obj
 0001:00014550       ??_G?$__func@V<lambda_1>@?1???$GetWindowsDirectoryW@V?$basic_string@_WU?$char_traits@_W@std@@V?$allocator@_W@2@@std@@$0BAA@@wil@@YAJAAV?$basic_string@_WU?$char_traits@_W@std@@V?$allocator@_W@2@@std@@@Z@$$A6AJPA_WIPAI@Z@__function@wistd@@UAEPAXI@Z 00415550 f i main_window.obj
 0001:00014580       ??_ECMainWindow@@UAEPAXI@Z 00415580 f i main_window.obj
 0001:00014580       ??_GCMainWindow@@UAEPAXI@Z 00415580 f i main_window.obj
 0001:000145b0       ?CloseUI@CMainWindow@@QAEXXZ 004155b0 f   main_window.obj
 0001:00014640       ?Create@?$CDialogImpl@VCTaskManagerDlg@@VCWindow@ATL@@@ATL@@QAEPAUHWND__@@PAU3@J@Z 00415640 f i main_window.obj
 0001:000146e0       ?Exit@CMainWindow@@QAEXXZ  004156e0 f   main_window.obj
 0001:00014740       ?ExtractCreateWndData@CAtlWinModule@ATL@@QAEPAXXZ 00415740 f i main_window.obj
 0001:000147d0       ?GetMessageLoop@CAppModule@WTL@@QBEPAVCMessageLoop@2@K@Z 004157d0 f i main_window.obj
 0001:00014860       ?GetNextUpdateDelay@CMainWindow@@QAEI_K@Z 00415860 f   main_window.obj
 0001:00014950       ?GetWindowProc@?$CWindowImplBaseT@V?$CListViewCtrlT@VCWindow@ATL@@@WTL@@V?$CWinTraits@$0FGAAAAAJ@$0CAA@@ATL@@@ATL@@UAEP6GJPAUHWND__@@IIJ@ZXZ 00415950 f i task_manager_dlg.obj
 0001:00014950       ?GetWindowProc@?$CWindowImplBaseT@VCWindow@ATL@@V?$CWinTraits@$0A@$0A@@2@@ATL@@UAEP6GJPAUHWND__@@IIJ@ZXZ 00415950 f i main_window.obj
 0001:00014960       ?InitForNonPortableVersion@CMainWindow@@QAEXXZ 00415960 f   main_window.obj
 0001:00014c50       ?LoadSettings@CMainWindow@@QAEXXZ 00415c50 f   main_window.obj
 0001:00015300       ?NotifyAboutAvailableUpdates@CMainWindow@@QAEXUUpdateStatus@UserProfile@@_N@Z 00416300 f   main_window.obj
 0001:00015430       ?OnCreate@CMainWindow@@QAEHPAUtagCREATESTRUCTW@@@Z 00416430 f   main_window.obj
 0001:00015890       ?OnDestroy@CMainWindow@@QAEXXZ 00416890 f   main_window.obj
 0001:00015a40       ?OnFinalMessage@?$CWindowImplBaseT@V?$CListViewCtrlT@VCWindow@ATL@@@WTL@@V?$CWinTraits@$0FGAAAAAJ@$0CAA@@ATL@@@ATL@@UAEXPAUHWND__@@@Z 00416a40 f i task_manager_dlg.obj
 0001:00015a40       ?OnFinalMessage@?$CWindowImplBaseT@VCWindow@ATL@@V?$CWinTraits@$0A@$0A@@2@@ATL@@UAEXPAUHWND__@@@Z 00416a40 f i main_window.obj
 0001:00015a40       ?imbue@?$basic_streambuf@DU?$char_traits@D@std@@@std@@MAEXABVlocale@2@@Z 00416a40 f i ui_control.obj
 0001:00015a50       ?OnIdle@CMainWindow@@EAEHXZ 00416a50 f   main_window.obj
 0001:00015f70       ?OnPowerBroadcast@CMainWindow@@QAEHKK@Z 00416f70 f   main_window.obj
 0001:000160e0       ?OnTimer@CMainWindow@@QAEXI@Z 004170e0 f   main_window.obj
 0001:00016380       ?OnTrayIcon@CMainWindow@@QAEJIIJ@Z 00417380 f   main_window.obj
 0001:000164b0       ?PreTranslateMessage@CMainWindow@@EAEHPAUtagMSG@@@Z 004174b0 f   main_window.obj
 0001:00016530       ?ProcessWindowMessage@CMainWindow@@UAEHPAUHWND__@@IIJAAJK@Z 00417530 f i main_window.obj
 0001:00016560       ?ResetLastUpdateTime@CMainWindow@@QAEXXZ 00417560 f   main_window.obj
 0001:00016610       ?RunUI@CMainWindow@@QAEXPAUHWND__@@@Z 00417610 f   main_window.obj
 0001:000166b0       ?SetEvent@?$event_t@V?$unique_storage@U?$resource_policy@PAXP6GXPAX@_E$1?CloseHandle@details@wil@@YGX0@ZU?$integral_constant@I$0A@@wistd@@PAXPAX$0A@$$T@details@wil@@@details@wil@@Uerr_exception_policy@3@@wil@@QBEXXZ 004176b0 f i main_window.obj
 0001:000166e0       ?SetLastUpdateTime@CMainWindow@@QAEXXZ 004176e0 f   main_window.obj
 0001:00016950       ?ShowLoadedModsDialog@CMainWindow@@QAEXXZ 00417950 f   main_window.obj
 0001:00016b40       ?ShowToolkitDialog@CMainWindow@@QAEX_N@Z 00417b40 f   main_window.obj
 0001:00016d60       ?StartDialogProc@?$CDialogImplBaseT@VCWindow@ATL@@@ATL@@SGHPAUHWND__@@IIJ@Z 00417d60 f i main_window.obj
 0001:00016dd0       ?StopService@CMainWindow@@QAEXPAUHWND__@@@Z 00417dd0 f   main_window.obj
 0001:00016eb0       ?SwitchToSafeMode@CMainWindow@@QAEXXZ 00417eb0 f   main_window.obj
 0001:00017220       ?WindowProc@?$CWindowImplBaseT@V?$CListViewCtrlT@VCWindow@ATL@@@WTL@@V?$CWinTraits@$0FGAAAAAJ@$0CAA@@ATL@@@ATL@@SGJPAUHWND__@@IIJ@Z 00418220 f i task_manager_dlg.obj
 0001:00017220       ?WindowProc@?$CWindowImplBaseT@VCWindow@ATL@@V?$CWinTraits@$0A@$0A@@2@@ATL@@SGJPAUHWND__@@IIJ@Z 00418220 f i main_window.obj
 0001:00017610       ?_ProcessWindowMessage@CMainWindow@@QAEHPAUHWND__@@IIJAAJK@Z 00418610 f i main_window.obj
 0001:00017910       ?__clone@?$__func@V<lambda_1>@?1???$GetWindowsDirectoryW@V?$basic_string@_WU?$char_traits@_W@std@@V?$allocator@_W@2@@std@@$0BAA@@wil@@YAJAAV?$basic_string@_WU?$char_traits@_W@std@@V?$allocator@_W@2@@std@@@Z@$$A6AJPA_WIPAI@Z@__function@wistd@@UBEXPAV?$__base@$$A6AJPA_WIPAI@Z@23@@Z 00418910 f i main_window.obj
 0001:00017910       ?__move@?$__func@V<lambda_1>@?1???$GetWindowsDirectoryW@V?$basic_string@_WU?$char_traits@_W@std@@V?$allocator@_W@2@@std@@$0BAA@@wil@@YAJAAV?$basic_string@_WU?$char_traits@_W@std@@V?$allocator@_W@2@@std@@@Z@$$A6AJPA_WIPAI@Z@__function@wistd@@UAEXPAV?$__base@$$A6AJPA_WIPAI@Z@23@@Z 00418910 f i main_window.obj
 0001:00017920       ?append@?$basic_string@DU?$char_traits@D@std@@V?$allocator@D@2@@std@@QAEAAV12@QBDI@Z 00418920 f i main_window.obj
 0001:00017a90       ?reset@?$_Optional_destruct_base@VEventViewerCrashMonitor@@$0A@@std@@QAEXXZ 00418a90 f i main_window.obj
 0001:00017ae0       ?reset@?$_Optional_destruct_base@VModMetadataChangeNotification@StorageManager@@$0A@@std@@QAEXXZ 00418ae0 f i main_window.obj
 0001:00017b10       ?reset@?$unique_ptr@VUpdateChecker@@U?$default_delete@VUpdateChecker@@@std@@@std@@QAEXPAVUpdateChecker@@@Z 00418b10 f i main_window.obj
 0001:00017b90       ?to_wstring@std@@YA?AV?$basic_string@_WU?$char_traits@_W@std@@V?$allocator@_W@2@@1@K@Z 00418b90 f i main_window.obj
 0001:00017c00       ??$?H_WU?$char_traits@_W@std@@V?$allocator@_W@1@@std@@YA?AV?$basic_string@_WU?$char_traits@_W@std@@V?$allocator@_W@2@@0@QB_WABV10@@Z 00418c00 f i service.obj
 0001:00017cf0       ??1?$unique_any_t@V?$unique_storage@U?$resource_policy@PAUSC_HANDLE__@@P6GHPAU1@@Z$1?CloseServiceHandle@@YGH0@ZU?$integral_constant@I$0A@@wistd@@PAU1@PAU1@$0A@$$T@details@wil@@@details@wil@@@wil@@QAE@XZ 00418cf0 f i service.obj
 0001:00017d00       ??1?$unique_any_t@V?$unique_storage@U?$resource_policy@PAXP6GHPAX@Z$1?DestroyEnvironmentBlock@@YGH0@ZU?$integral_constant@I$0A@@wistd@@PAXPAX$0A@$$T@details@wil@@@details@wil@@@wil@@QAE@XZ 00418d00 f i service.obj
 0001:00017d10       ??1?$unique_any_t@V?$unique_storage@U?$resource_policy@PAXP6GPAXPAX@Z$1?LocalFree@@YGPAX0@ZU?$integral_constant@I$0A@@wistd@@PAXPAX$0A@$$T@details@wil@@@details@wil@@@wil@@QAE@XZ 00418d10 f i service.obj
 0001:00017d20       ??1ServiceInstance@@QAE@XZ 00418d20 f i service.obj
 0001:00017f80       ?FailFast_Unexpected@in1diag3@details@wil@@YAXPAXIPBD@Z 00418f80 f i service.obj
 0001:00017fd0       ?IsRunning@Service@@YA_N_N@Z 00418fd0 f   service.obj
 0001:00018190       ?Run@Service@@YAXXZ        00419190 f   service.obj
 0001:00018210       ?Start@Service@@YAXXZ      00419210 f   service.obj
 0001:00018320       ?Stop@Service@@YAX_N@Z     00419320 f   service.obj
 0001:00018440       ?SvcCtrlHandlerEx@ServiceInstance@@AAEKKKPAX@Z 00419440 f   service.obj
 0001:00018670       ?SvcCtrlHandlerExThunk@ServiceInstance@@CGKKKPAX0@Z 00419670 f   service.obj
 0001:00018690       ?SvcInit@ServiceInstance@@AAEXKPAPA_W@Z 00419690 f   service.obj
 0001:00018bc0       ?SvcMain@@YGXKPAPA_W@Z     00419bc0 f   service.obj
 0001:00018d90       ?SvcMain@ServiceInstance@@QAEXKPAPA_W@Z 00419d90 f   service.obj
 0001:00019090       ?SvcRun@ServiceInstance@@AAEXKPAPA_W@Z 0041a090 f   service.obj
 0001:00019420       ?what@ResultException@wil@@UBEPBDXZ 0041a420 f i stdafx.obj
 0001:000194e0       ??1ResultException@wil@@UAE@XZ 0041a4e0 f i stdafx.obj
 0001:00019570       ??0ResultException@wil@@QAE@ABV01@@Z 0041a570 f i stdafx.obj
 0001:00019620       ??_EResultException@wil@@UAEPAXI@Z 0041a620 f i stdafx.obj
 0001:00019620       ??_GResultException@wil@@UAEPAXI@Z 0041a620 f i stdafx.obj
 0001:000196c0       ??$TryGetValue@K@SemaphoreValue@details_abi@wil@@SAJPB_WPAKPA_N@Z 0041a6c0 f i stdafx.obj
 0001:000198d0       ??0ResultException@wil@@QAE@ABUFailureInfo@1@@Z 0041a8d0 f i stdafx.obj
 0001:00019920       ??1?$ThreadLocalStorage@PAVThreadFailureCallbackHolder@details@wil@@@details_abi@wil@@QAE@XZ 0041a920 f i stdafx.obj
 0001:00019970       ??1?$ThreadLocalStorage@UThreadLocalData@details_abi@wil@@@details_abi@wil@@QAE@XZ 0041a970 f i stdafx.obj
 0001:000199d0       ??1ThreadLocalData@details_abi@wil@@QAE@XZ 0041a9d0 f i stdafx.obj
 0001:00019a40       ?Acquire@?$ProcessLocalStorageData@UProcessLocalData@details_abi@wil@@@details_abi@wil@@SAJPBDPAPAV123@@Z 0041aa40 f i stdafx.obj
 0001:00019d40       ?CreateFromValueInternal@SemaphoreValue@details_abi@wil@@AAEJPB_W_N_K@Z 0041ad40 f i stdafx.obj
 0001:0001a050       ?DebugBreak@details@wil@@YGXXZ 0041b050 f i stdafx.obj
 0001:0001a060       ?GetContextAndNotifyFailure@details@wil@@YGXPAUFailureInfo@2@PADI@Z 0041b060 f i stdafx.obj
 0001:0001a220       ?GetCurrentModuleName@details@wil@@YGPBDXZ 0041b220 f i stdafx.obj
 0001:0001a250       ?GetLastErrorFailHr@details@wil@@YAJXZ 0041b250 f i stdafx.obj
 0001:0001a2d0       ?GetLocal@?$ThreadLocalStorage@PAVThreadFailureCallbackHolder@details@wil@@@details_abi@wil@@QAEPAPAVThreadFailureCallbackHolder@details@3@_N@Z 0041b2d0 f i stdafx.obj
 0001:0001a430       ?GetModuleInformation@details@wil@@YG_NPAXPAIPADI@Z 0041b430 f i stdafx.obj
 0001:0001a560       ?GetThreadContext@ThreadFailureCallbackHolder@details@wil@@SA_NPAUFailureInfo@3@PAV123@PADI@Z 0041b560 f i stdafx.obj
 0001:0001a6a0       ?GetThreadLocalDataCache@details_abi@wil@@YAPAUThreadLocalData@12@_N@Z 0041b6a0 f i stdafx.obj
 0001:0001a800       ?GetValueFromSemaphore@SemaphoreValue@details_abi@wil@@CAJPAXPAJ@Z 0041b800 f i stdafx.obj
 0001:0001a9b0       ?ProcessHeapAlloc@details@wil@@YAPAXKI@Z 0041b9b0 f i stdafx.obj
 0001:0001aa50       ?RecognizeCaughtExceptionFromCallback@details@wil@@YAJPA_WI@Z 0041ba50 f i stdafx.obj
 0001:0001ab00       ?Release@?$ProcessLocalStorageData@UProcessLocalData@details_abi@wil@@@details_abi@wil@@QAEXXZ 0041bb00 f i stdafx.obj
 0001:0001ad00       ?ResultFromCaughtExceptionInternal@details@wil@@YG?AUResultStatus@12@PA_WIPA_N@Z 0041bd00 f i stdafx.obj
 0001:0001af80       ?Rethrow@details@wil@@YGXXZ 0041bf80 f i stdafx.obj
 0001:0001af90       ?RunFunctorWithExceptionFilter@details@wil@@YGJAAUIFunctor@12@AAUIFunctorHost@12@PAX@Z 0041bf90 f i stdafx.obj
 0001:0001b010       ?Set@ThreadLocalFailureInfo@details_abi@wil@@QAEXABUFailureInfo@3@I@Z 0041c010 f i stdafx.obj
 0001:0001b2a0       ?SetFailureInfo@StoredFailureInfo@wil@@QAEXABUFailureInfo@2@@Z 0041c2a0 f i stdafx.obj
 0001:0001bb20       ?ThrowResultExceptionInternal@details@wil@@YGXABUFailureInfo@2@@Z 0041cb20 f i stdafx.obj
 0001:0001bb40       ?WilDynamicLoadRaiseFailFastException@details@wil@@YGXPAU_EXCEPTION_RECORD@@PAU_CONTEXT@@K@Z 0041cb40 f i stdafx.obj
 0001:0001bb70       ?create@shared_buffer@details@wil@@QAE_NI@Z 0041cb70 f i stdafx.obj
 0001:0001bc20       ??$?0$00URegistryPath@StorageManager@@$0A@@?$_Variant_storage_@$0A@Umonostate@std@@URegistryPath@StorageManager@@UIniFilePath@4@@std@@QAE@U?$integral_constant@I$00@1@$$QAURegistryPath@StorageManager@@@Z 0041cc20 f i storage_manager.obj
 0001:0001bc70       ??$?8_WU?$char_traits@_W@std@@V?$allocator@_W@1@@std@@YA_NABV?$basic_string@_WU?$char_traits@_W@std@@V?$allocator@_W@2@@0@QB_W@Z 0041cc70 f i storage_manager.obj
 0001:0001bcd0       ??$?H_WU?$char_traits@_W@std@@V?$allocator@_W@1@@std@@YA?AV?$basic_string@_WU?$char_traits@_W@std@@V?$allocator@_W@2@@0@ABV10@_W@Z 0041ccd0 f i storage_manager.obj
 0001:0001bd90       ??$ExpandEnvironmentStringsW@V?$basic_string@_WU?$char_traits@_W@std@@V?$allocator@_W@2@@std@@$0BAA@@wil@@YA?AV?$basic_string@_WU?$char_traits@_W@std@@V?$allocator@_W@2@@std@@PB_W@Z 0041cd90 f i storage_manager.obj
 0001:0001be50       ??$_Allocate_at_least_helper@V?$allocator@V?$basic_string_view@_WU?$char_traits@_W@std@@@std@@@std@@@std@@YAPAV?$basic_string_view@_WU?$char_traits@_W@std@@@0@AAV?$allocator@V?$basic_string_view@_WU?$char_traits@_W@std@@@std@@@0@AAI@Z 0041ce50 f i storage_manager.obj
 0001:0001beb0       ??$_Construct@$00PBD@?$basic_string@DU?$char_traits@D@std@@V?$allocator@D@2@@std@@AAEXQBDI@Z 0041ceb0 f i storage_manager.obj
 0001:0001bf40       ??$_Convert_wide_to_narrow_replace_chars@U?$char_traits@D@std@@V?$allocator@D@2@@filesystem@std@@YA?AV?$basic_string@DU?$char_traits@D@std@@V?$allocator@D@2@@1@W4__std_code_page@@V?$basic_string_view@_WU?$char_traits@_W@std@@@1@ABV?$allocator@D@1@@Z 0041cf40 f i storage_manager.obj
 0001:0001c040       ??0?$CStringT@DV?$StrTraitATL@DV?$ChTraitsCRT@D@ATL@@@ATL@@@ATL@@QAE@PB_W@Z 0041d040 f i storage_manager.obj
 0001:0001c180       ??0?$basic_string@DU?$char_traits@D@std@@V?$allocator@D@2@@std@@QAE@ABV01@@Z 0041d180 f i storage_manager.obj
 0001:0001c230       ??0ModMetadataChangeNotification@StorageManager@@QAE@PB_W@Z 0041d230 f   storage_manager.obj
 0001:0001c3c0       ??0StorageManager@@AAE@XZ  0041d3c0 f   storage_manager.obj
 0001:0001ce70       ??0_System_error@std@@IAE@Verror_code@1@ABV?$basic_string@DU?$char_traits@D@std@@V?$allocator@D@2@@1@@Z 0041de70 f i storage_manager.obj
 0001:0001d020       ??0_System_error@std@@QAE@ABV01@@Z 0041e020 f i storage_manager.obj
 0001:0001d070       ??0bad_variant_access@std@@QAE@ABV01@@Z 0041e070 f i storage_manager.obj
 0001:0001d0b0       ??0bad_variant_access@std@@QAE@XZ 0041e0b0 f i storage_manager.obj
 0001:0001d0d0       ??0filesystem_error@filesystem@std@@QAE@ABV012@@Z 0041e0d0 f i storage_manager.obj
 0001:0001d180       ??0filesystem_error@filesystem@std@@QAE@ABV?$basic_string@DU?$char_traits@D@std@@V?$allocator@D@2@@2@ABVpath@12@Verror_code@2@@Z 0041e180 f i storage_manager.obj
 0001:0001d2b0       ??0system_error@std@@QAE@ABV01@@Z 0041e2b0 f i storage_manager.obj
 0001:0001d300       ??0system_error@std@@QAE@Verror_code@1@@Z 0041e300 f i storage_manager.obj
 0001:0001d3d0       ??1?$unique_any_t@V?$unique_storage@U?$handle_invalid_resource_policy@P6GHPAX@Z$1?FindCloseChangeNotification@@YGH0@Z@details@wil@@@details@wil@@@wil@@QAE@XZ 0041e3d0 f i storage_manager.obj
 0001:0001d3f0       ??1?$variant@Umonostate@std@@URegistryPath@StorageManager@@UIniFilePath@4@@std@@QAE@XZ 0041e3f0 f i storage_manager.obj
 0001:0001d420       ??1?$vector@V?$basic_string_view@_WU?$char_traits@_W@std@@@std@@V?$allocator@V?$basic_string_view@_WU?$char_traits@_W@std@@@std@@@2@@std@@QAE@XZ 0041e420 f i storage_manager.obj
 0001:0001d480       ??1IniFileSettings@@UAE@XZ 0041e480 f i storage_manager.obj
 0001:0001d4a0       ??1_System_error_message@std@@QAE@XZ 0041e4a0 f i storage_manager.obj
 0001:0001d4b0       ??1filesystem_error@filesystem@std@@UAE@XZ 0041e4b0 f i storage_manager.obj
 0001:0001d4e0       ??B?$CSimpleStringT@D$0A@@ATL@@QBEPBDXZ 0041e4e0 f i storage_manager.obj
 0001:0001d4e0       ?GetHandle@ModMetadataChangeNotification@StorageManager@@QAEPAXXZ 0041e4e0 f i storage_manager.obj
 0001:0001d4f0       ??HATL@@YA?AV?$CStringT@DV?$StrTraitATL@DV?$ChTraitsCRT@D@ATL@@@ATL@@@0@PBDABV10@@Z 0041e4f0 f i storage_manager.obj
 0001:0001d670       ??R?$__func@V<lambda_1>@?1???$ExpandEnvironmentStringsW@V?$basic_string@_WU?$char_traits@_W@std@@V?$allocator@_W@2@@std@@$0BAA@@wil@@YAJPB_WAAV?$basic_string@_WU?$char_traits@_W@std@@V?$allocator@_W@2@@std@@@Z@$$A6AJPA_WIPAI@Z@__function@wistd@@UAEJ$$QAPA_W$$QAI$$QAPAI@Z 0041e670 f i storage_manager.obj
 0001:0001d6c0       ??_E?$output_stream_adapter@D@detail@nlohmann@@UAEPAXI@Z 0041e6c0 f i ui_control.obj
 0001:0001d6c0       ??_E?$output_string_adapter@DV?$basic_string@DU?$char_traits@D@std@@V?$allocator@D@2@@std@@@detail@nlohmann@@UAEPAXI@Z 0041e6c0 f i userprofile.obj
 0001:0001d6c0       ??_E_Generic_error_category@std@@UAEPAXI@Z 0041e6c0 f i storage_manager.obj
 0001:0001d6c0       ??_E_Iostream_error_category2@std@@UAEPAXI@Z 0041e6c0 f i ui_control.obj
 0001:0001d6c0       ??_E_System_error_category@std@@UAEPAXI@Z 0041e6c0 f i storage_manager.obj
 0001:0001d6c0       ??_G?$output_stream_adapter@D@detail@nlohmann@@UAEPAXI@Z 0041e6c0 f i ui_control.obj
 0001:0001d6c0       ??_G?$output_string_adapter@DV?$basic_string@DU?$char_traits@D@std@@V?$allocator@D@2@@std@@@detail@nlohmann@@UAEPAXI@Z 0041e6c0 f i userprofile.obj
 0001:0001d6c0       ??_G_Generic_error_category@std@@UAEPAXI@Z 0041e6c0 f i storage_manager.obj
 0001:0001d6c0       ??_G_Iostream_error_category2@std@@UAEPAXI@Z 0041e6c0 f i ui_control.obj
 0001:0001d6c0       ??_G_System_error_category@std@@UAEPAXI@Z 0041e6c0 f i storage_manager.obj
 0001:0001d6e0       ??_E_System_error@std@@UAEPAXI@Z 0041e6e0 f i storage_manager.obj
 0001:0001d6e0       ??_Efailure@ios_base@std@@UAEPAXI@Z 0041e6e0 f i ui_control.obj
 0001:0001d6e0       ??_Esystem_error@std@@UAEPAXI@Z 0041e6e0 f i storage_manager.obj
 0001:0001d6e0       ??_G_System_error@std@@UAEPAXI@Z 0041e6e0 f i storage_manager.obj
 0001:0001d6e0       ??_Gfailure@ios_base@std@@UAEPAXI@Z 0041e6e0 f i ui_control.obj
 0001:0001d6e0       ??_Gsystem_error@std@@UAEPAXI@Z 0041e6e0 f i storage_manager.obj
 0001:0001d710       ??_Efilesystem_error@filesystem@std@@UAEPAXI@Z 0041e710 f i storage_manager.obj
 0001:0001d710       ??_Gfilesystem_error@filesystem@std@@UAEPAXI@Z 0041e710 f i storage_manager.obj
 0001:0001d760       ?ContinueMonitoring@ModMetadataChangeNotification@StorageManager@@QAEXXZ 0041e760 f   storage_manager.obj
 0001:0001d790       ?FlushAppConfig@StorageManager@@QAE_NPB_W@Z 0041e790 f   storage_manager.obj
 0001:0001d880       ?Fork@?$CSimpleStringT@D$0A@@ATL@@AAEXH@Z 0041e880 f i storage_manager.obj
 0001:0001d930       ?GetAppConfig@StorageManager@@QAE?AV?$unique_ptr@VPortableSettings@@U?$default_delete@VPortableSettings@@@std@@@std@@PB_W_N@Z 0041e930 f   storage_manager.obj
 0001:0001da50       ?GetCompilerPath@StorageManager@@QAE?AVpath@filesystem@std@@XZ 0041ea50 f   storage_manager.obj
 0001:0001da70       ?GetEditorWorkspacePath@StorageManager@@QAE?AVpath@filesystem@std@@XZ 0041ea70 f   storage_manager.obj
 0001:0001db50       ?GetEnginePath@StorageManager@@QAE?AVpath@filesystem@std@@G@Z 0041eb50 f   storage_manager.obj
 0001:0001dca0       ?GetInstance@StorageManager@@SAAAV1@XZ 0041eca0 f   storage_manager.obj
 0001:0001dd40       ?GetModMetadataPath@StorageManager@@QAE?AVpath@filesystem@std@@PB_W@Z 0041ed40 f   storage_manager.obj
 0001:0001df60       ?GetUIDataPath@StorageManager@@QAE?AVpath@filesystem@std@@XZ 0041ef60 f   storage_manager.obj
 0001:0001e040       ?GetUIPath@StorageManager@@QAE?AVpath@filesystem@std@@XZ 0041f040 f   storage_manager.obj
 0001:0001e060       ?GetUserProfileJsonPath@StorageManager@@QAE?AVpath@filesystem@std@@XZ 0041f060 f   storage_manager.obj
 0001:0001e140       ?IsPortable@StorageManager@@QAE_NXZ 0041f140 f   storage_manager.obj
 0001:0001e150       ?LoadStringW@?$CStringT@DV?$StrTraitATL@DV?$ChTraitsCRT@D@ATL@@@ATL@@@ATL@@QAEHI@Z 0041f150 f i storage_manager.obj
 0001:0001e500       ?PrepareWrite2@?$CSimpleStringT@D$0A@@ATL@@AAEXH@Z 0041f500 f i storage_manager.obj
 0001:0001e560       ?Reallocate@?$CSimpleStringT@D$0A@@ATL@@AAEXH@Z 0041f560 f i storage_manager.obj
 0001:0001e5a0       ?_Make_ec@std@@YA?AVerror_code@1@W4__std_win_error@@@Z 0041f5a0 f i storage_manager.obj
 0001:0001e5c0       ?_Pretty_message@filesystem_error@filesystem@std@@CA?AV?$basic_string@DU?$char_traits@D@std@@V?$allocator@D@2@@3@V?$basic_string_view@DU?$char_traits@D@std@@@3@ABVpath@23@1@Z 0041f5c0 f i storage_manager.obj
 0001:0001e970       ?_Reset@?$_Variant_base@Umonostate@std@@URegistryPath@StorageManager@@UIniFilePath@4@@std@@QAEXXZ 0041f970 f i storage_manager.obj
 0001:0001e9a0       ?_Throw_bad_variant_access@std@@YAXXZ 0041f9a0 f i storage_manager.obj
 0001:0001e9d0       ?_Throw_fs_error@filesystem@std@@YAXPBDW4__std_win_error@@ABVpath@12@@Z 0041f9d0 f i storage_manager.obj
 0001:0001ea60       ?_Throw_system_error@std@@YAXW4errc@1@@Z 0041fa60 f i storage_manager.obj
 0001:0001eaa0       ?_Throw_system_error_from_std_win_error@std@@YAXW4__std_win_error@@@Z 0041faa0 f i storage_manager.obj
 0001:0001eae0       ?__clone@?$__func@V<lambda_1>@?1???$ExpandEnvironmentStringsW@V?$basic_string@_WU?$char_traits@_W@std@@V?$allocator@_W@2@@std@@$0BAA@@wil@@YAJPB_WAAV?$basic_string@_WU?$char_traits@_W@std@@V?$allocator@_W@2@@std@@@Z@$$A6AJPA_WIPAI@Z@__function@wistd@@UBEXPAV?$__base@$$A6AJPA_WIPAI@Z@23@@Z 0041fae0 f i storage_manager.obj
 0001:0001eae0       ?__move@?$__func@V<lambda_1>@?1???$ExpandEnvironmentStringsW@V?$basic_string@_WU?$char_traits@_W@std@@V?$allocator@_W@2@@std@@$0BAA@@wil@@YAJPB_WAAV?$basic_string@_WU?$char_traits@_W@std@@V?$allocator@_W@2@@std@@@Z@$$A6AJPA_WIPAI@Z@__function@wistd@@UAEXPAV?$__base@$$A6AJPA_WIPAI@Z@23@@Z 0041fae0 f i storage_manager.obj
 0001:0001eb00       ?append@?$basic_string@DU?$char_traits@D@std@@V?$allocator@D@2@@std@@QAEAAV12@ID@Z 0041fb00 f i storage_manager.obj
 0001:0001ec70       ?assign@?$basic_string@_WU?$char_traits@_W@std@@V?$allocator@_W@2@@std@@QAEAAV12@QB_WI@Z 0041fc70 f i storage_manager.obj
 0001:0001ed50       ?create_directories@filesystem@std@@YA_NABVpath@12@AAVerror_code@2@@Z 0041fd50 f i storage_manager.obj
 0001:0001efd0       ?default_error_condition@_System_error_category@std@@UBE?AVerror_condition@2@H@Z 0041ffd0 f i storage_manager.obj
 0001:0001f040       ?default_error_condition@error_category@std@@UBE?AVerror_condition@2@H@Z 00420040 f i storage_manager.obj
 0001:0001f060       ?equivalent@error_category@std@@UBE_NABVerror_code@2@H@Z 00420060 f i storage_manager.obj
 0001:0001f090       ?equivalent@error_category@std@@UBE_NHABVerror_condition@2@@Z 00420090 f i storage_manager.obj
 0001:0001f0d0       ?is_directory@filesystem@std@@YA_NABVpath@12@@Z 004200d0 f i storage_manager.obj
 0001:0001f1b0       ?lexically_normal@path@filesystem@std@@QBE?AV123@XZ 004201b0 f i storage_manager.obj
 0001:0001fa00       ?make_error_code@std@@YA?AVerror_code@1@W4errc@1@@Z 00420a00 f i storage_manager.obj
 0001:0001fa20       ?message@_Generic_error_category@std@@UBE?AV?$basic_string@DU?$char_traits@D@std@@V?$allocator@D@2@@2@H@Z 00420a20 f i storage_manager.obj
 0001:0001fa70       ?message@_System_error_category@std@@UBE?AV?$basic_string@DU?$char_traits@D@std@@V?$allocator@D@2@@2@H@Z 00420a70 f i storage_manager.obj
 0001:0001fb40       ?name@_Generic_error_category@std@@UBEPBDXZ 00420b40 f i storage_manager.obj
 0001:0001fb50       ?name@_System_error_category@std@@UBEPBDXZ 00420b50 f i storage_manager.obj
 0001:0001fb60       ?replace_extension@path@filesystem@std@@QAEAAV123@ABV123@@Z 00420b60 f i storage_manager.obj
 0001:0001fcb0       ?substr@?$basic_string@_WU?$char_traits@_W@std@@V?$allocator@_W@2@@std@@QGBE?AV12@II@Z 00420cb0 f i storage_manager.obj
 0001:0001fd10       ?what@bad_variant_access@std@@UBEPBDXZ 00420d10 f i storage_manager.obj
 0001:0001fd20       ?what@filesystem_error@filesystem@std@@UBEPBDXZ 00420d20 f i storage_manager.obj
 0001:0001fd30       ??$_Find_last@V?$basic_string_view@_WU?$char_traits@_W@std@@@std@@@?$_Hash@V?$_Umap_traits@V?$basic_string_view@_WU?$char_traits@_W@std@@@std@@IV?$_Uhash_compare@V?$basic_string_view@_WU?$char_traits@_W@std@@@std@@U?$hash@V?$basic_string_view@_WU?$char_traits@_W@std@@@std@@@2@U?$equal_to@V?$basic_string_view@_WU?$char_traits@_W@std@@@std@@@2@@2@V?$allocator@U?$pair@$$CBV?$basic_string_view@_WU?$char_traits@_W@std@@@std@@I@std@@@2@$0A@@std@@@std@@IBE?AU?$_Hash_find_last_result@PAU?$_List_node@U?$pair@$$CBV?$basic_string_view@_WU?$char_traits@_W@std@@@std@@I@std@@PAX@std@@@1@ABV?$basic_string_view@_WU?$char_traits@_W@std@@@1@I@Z 00420d30 f i task_manager_dlg.obj
 0001:0001fdd0       ??$_Insert_range_unchecked@PBU?$pair@$$CBV?$basic_string_view@_WU?$char_traits@_W@std@@@std@@I@std@@PBU12@@?$_Hash@V?$_Umap_traits@V?$basic_string_view@_WU?$char_traits@_W@std@@@std@@IV?$_Uhash_compare@V?$basic_string_view@_WU?$char_traits@_W@std@@@std@@U?$hash@V?$basic_string_view@_WU?$char_traits@_W@std@@@std@@@2@U?$equal_to@V?$basic_string_view@_WU?$char_traits@_W@std@@@std@@@2@@2@V?$allocator@U?$pair@$$CBV?$basic_string_view@_WU?$char_traits@_W@std@@@std@@I@std@@@2@$0A@@std@@@std@@IAEXPBU?$pair@$$CBV?$basic_string_view@_WU?$char_traits@_W@std@@@std@@I@1@QBU21@@Z 00420dd0 f i task_manager_dlg.obj
 0001:0001ffe0       ??$_snwprintf_s@$0EAA@@@YAHAAY0EAA@_WIPB_WZZ 00420fe0 f i task_manager_dlg.obj
 0001:00020020       ??$fill@PAV?$_List_unchecked_iterator@V?$_List_val@U?$_List_simple_types@U?$pair@$$CBV?$basic_string_view@_WU?$char_traits@_W@std@@@std@@I@std@@@std@@@std@@@std@@V12@@std@@YAXQAV?$_List_unchecked_iterator@V?$_List_val@U?$_List_simple_types@U?$pair@$$CBV?$basic_string_view@_WU?$char_traits@_W@std@@@std@@I@std@@@std@@@std@@@0@0ABV10@@Z 00421020 f i task_manager_dlg.obj
 0001:00020090       ??0?$basic_string@_WU?$char_traits@_W@std@@V?$allocator@_W@2@@std@@QAE@QB_W@Z 00421090 f i task_manager_dlg.obj
 0001:000200e0       ??0CTaskManagerDlg@@QAE@UDialogOptions@0@@Z 004210e0 f   task_manager_dlg.obj
 0001:00020380       ??0_Dir_enum_impl@filesystem@std@@QAE@$$QAU_Creator@012@W4directory_options@12@@Z 00421380 f i task_manager_dlg.obj
 0001:00020480       ??0directory_iterator@filesystem@std@@QAE@ABVpath@12@@Z 00421480 f i task_manager_dlg.obj
 0001:00020630       ??0filesystem_error@filesystem@std@@QAE@ABV?$basic_string@DU?$char_traits@D@std@@V?$allocator@D@2@@2@Verror_code@2@@Z 00421630 f i task_manager_dlg.obj
 0001:00020700       ??1?$CBitmapT@$00@WTL@@QAE@XZ 00421700 f i task_manager_dlg.obj
 0001:00020720       ??1?$CDialogImpl@VCTaskManagerDlg@@VCWindow@ATL@@@ATL@@UAE@XZ 00421720 f i task_manager_dlg.obj
 0001:00020720       ??1?$CWindowImpl@VCSortListViewCtrl@WTL@@V?$CListViewCtrlT@VCWindow@ATL@@@2@V?$CWinTraits@$0FGAAAAAJ@$0CAA@@ATL@@@ATL@@UAE@XZ 00421720 f i task_manager_dlg.obj
 0001:00020730       ??1?$CDialogResize@VCTaskManagerDlg@@@WTL@@QAE@XZ 00421730 f i task_manager_dlg.obj
 0001:00020730       ??1?$CSimpleArray@GV?$CSimpleArrayEqualHelper@G@ATL@@@ATL@@QAE@XZ 00421730 f i task_manager_dlg.obj
 0001:00020760       ??1?$CIconT@$00@WTL@@QAE@XZ 00421760 f i task_manager_dlg.obj
 0001:00020770       ??1?$_Alloc_construct_ptr@V?$allocator@U?$_List_node@U?$pair@$$CBV?$basic_string_view@_WU?$char_traits@_W@std@@@std@@I@std@@PAX@std@@@std@@@std@@QAE@XZ 00421770 f i task_manager_dlg.obj
 0001:00020770       ??1?$_List_node_emplace_op2@V?$allocator@U?$_List_node@U?$pair@$$CBV?$basic_string_view@_WU?$char_traits@_W@std@@@std@@I@std@@PAX@std@@@std@@@std@@QAE@XZ 00421770 f i task_manager_dlg.obj
 0001:00020790       ??1?$_Hash@V?$_Umap_traits@V?$basic_string_view@_WU?$char_traits@_W@std@@@std@@IV?$_Uhash_compare@V?$basic_string_view@_WU?$char_traits@_W@std@@@std@@U?$hash@V?$basic_string_view@_WU?$char_traits@_W@std@@@std@@@2@U?$equal_to@V?$basic_string_view@_WU?$char_traits@_W@std@@@std@@@2@@2@V?$allocator@U?$pair@$$CBV?$basic_string_view@_WU?$char_traits@_W@std@@@std@@I@std@@@2@$0A@@std@@@std@@QAE@XZ 00421790 f i task_manager_dlg.obj
 0001:000207e0       ??1?$_Hash_vec@V?$allocator@V?$_List_unchecked_iterator@V?$_List_val@U?$_List_simple_types@U?$pair@$$CBV?$basic_string_view@_WU?$char_traits@_W@std@@@std@@I@std@@@std@@@std@@@std@@@std@@@std@@QAE@XZ 004217e0 f i task_manager_dlg.obj
 0001:00020880       ??1?$list@U?$pair@$$CBV?$basic_string_view@_WU?$char_traits@_W@std@@@std@@I@std@@V?$allocator@U?$pair@$$CBV?$basic_string_view@_WU?$char_traits@_W@std@@@std@@I@std@@@2@@std@@QAE@XZ 00421880 f i task_manager_dlg.obj
 0001:000208c0       ??1?$output_adapter@DV?$basic_string@DU?$char_traits@D@std@@V?$allocator@D@2@@std@@@detail@nlohmann@@QAE@XZ 004218c0 f i ui_control.obj
 0001:000208c0       ??1?$shared_ptr@U?$output_adapter_protocol@D@detail@nlohmann@@@std@@QAE@XZ 004218c0 f i ui_control.obj
 0001:000208c0       ??1?$shared_ptr@U_Dir_enum_impl@filesystem@std@@@std@@QAE@XZ 004218c0 f i task_manager_dlg.obj
 0001:000208c0       ??1directory_iterator@filesystem@std@@QAE@XZ 004218c0 f i task_manager_dlg.obj
 0001:000208f0       ??1?$vector@V?$basic_string@_WU?$char_traits@_W@std@@V?$allocator@_W@2@@std@@V?$allocator@V?$basic_string@_WU?$char_traits@_W@std@@V?$allocator@_W@2@@std@@@2@@std@@QAE@XZ 004218f0 f i task_manager_dlg.obj
 0001:00020980       ??1CWaitCursor@WTL@@QAE@XZ 00421980 f i task_manager_dlg.obj
 0001:000209a0       ??1_Creator@_Dir_enum_impl@filesystem@std@@QAE@XZ 004219a0 f i task_manager_dlg.obj
 0001:000209c0       ??1_Find_file_handle@filesystem@std@@QAE@XZ 004219c0 f i task_manager_dlg.obj
 0001:000209d0       ??1directory_entry@filesystem@std@@QAE@XZ 004219d0 f i task_manager_dlg.obj
 0001:000209e0       ??_F?$CBitmapT@$00@WTL@@QAEXXZ 004219e0 f i task_manager_dlg.obj
 0001:000209f0       ??_E?$_Ref_count_obj2@U_Dir_enum_impl@filesystem@std@@@std@@UAEPAXI@Z 004219f0 f i task_manager_dlg.obj
 0001:000209f0       ??_G?$_Ref_count_obj2@U_Dir_enum_impl@filesystem@std@@@std@@UAEPAXI@Z 004219f0 f i task_manager_dlg.obj
 0001:00020a20       ??_ECSortListViewCtrl@WTL@@UAEPAXI@Z 00421a20 f i task_manager_dlg.obj
 0001:00020a20       ??_GCSortListViewCtrl@WTL@@UAEPAXI@Z 00421a20 f i task_manager_dlg.obj
 0001:00020ac0       ??_ECTaskManagerDlg@@UAEPAXI@Z 00421ac0 f i task_manager_dlg.obj
 0001:00020ac0       ??_GCTaskManagerDlg@@UAEPAXI@Z 00421ac0 f i task_manager_dlg.obj
 0001:00020bf0       ?Add@?$CSimpleArray@U_AtlDlgResizeData@?$CDialogResize@VCTaskManagerDlg@@@WTL@@V?$CSimpleArrayEqualHelper@U_AtlDlgResizeData@?$CDialogResize@VCTaskManagerDlg@@@WTL@@@ATL@@@ATL@@QAEHABU_AtlDlgResizeData@?$CDialogResize@VCTaskManagerDlg@@@WTL@@@Z 00421bf0 f i task_manager_dlg.obj
 0001:00020c90       ?AddItemToList@CTaskManagerDlg@@QAEXHPB_W00K0U_FILETIME@@@Z 00421c90 f   task_manager_dlg.obj
 0001:00021450       ?CenterWindow@CWindow@ATL@@QAEHPAUHWND__@@@Z 00422450 f i task_manager_dlg.obj
 0001:000215f0       ?CreateSortBitmaps@?$CSortListViewImpl@VCSortListViewCtrl@WTL@@@WTL@@QAEXXZ 004225f0 f i task_manager_dlg.obj
 0001:00021830       ?DataChanged@CTaskManagerDlg@@QAEXXZ 00422830 f   task_manager_dlg.obj
 0001:00021860       ?DialogProc@?$CDialogImplBaseT@VCWindow@ATL@@@ATL@@SGHPAUHWND__@@IIJ@Z 00422860 f i task_manager_dlg.obj
 0001:00021a70       ?DlgResize_Init@?$CDialogResize@VCTaskManagerDlg@@@WTL@@QAEX_N0K@Z 00422a70 f i task_manager_dlg.obj
 0001:00021e50       ?DlgResize_UpdateLayout@?$CDialogResize@VCTaskManagerDlg@@@WTL@@QAEXHH@Z 00422e50 f i task_manager_dlg.obj
 0001:00022410       ?DoSortItems@?$CSortListViewImpl@VCSortListViewCtrl@WTL@@@WTL@@QAE_NH_N@Z 00423410 f i task_manager_dlg.obj
 0001:00023130       ?GetDialogProc@?$CDialogImplBaseT@VCWindow@ATL@@@ATL@@UAEP6GHPAUHWND__@@IIJ@ZXZ 00424130 f i task_manager_dlg.obj
 0001:00023380       ?InitTaskList@CTaskManagerDlg@@QAEXXZ 00424380 f   task_manager_dlg.obj
 0001:000235a0       ?IsDataSourceEmpty@CTaskManagerDlg@@SA_NW4DataSource@1@@Z 004245a0 f   task_manager_dlg.obj
 0001:00023920       ?LVCompareCustom@?$CSortListViewImpl@VCSortListViewCtrl@WTL@@@WTL@@SGHJJJ@Z 00424920 f i task_manager_dlg.obj
 0001:00023930       ?LVCompareDecimal@?$CSortListViewImpl@VCSortListViewCtrl@WTL@@@WTL@@SGHJJJ@Z 00424930 f i task_manager_dlg.obj
 0001:00023970       ?LVCompareDouble@?$CSortListViewImpl@VCSortListViewCtrl@WTL@@@WTL@@SGHJJJ@Z 00424970 f i task_manager_dlg.obj
 0001:000239c0       ?LVCompareLong@?$CSortListViewImpl@VCSortListViewCtrl@WTL@@@WTL@@SGHJJJ@Z 004249c0 f i task_manager_dlg.obj
 0001:00023a10       ?LVCompareText@?$CSortListViewImpl@VCSortListViewCtrl@WTL@@@WTL@@SGHJJJ@Z 00424a10 f i task_manager_dlg.obj
 0001:00023a40       ?LVCompareTextNoCase@?$CSortListViewImpl@VCSortListViewCtrl@WTL@@@WTL@@SGHJJJ@Z 00424a40 f i task_manager_dlg.obj
 0001:00023a70       ?LoadLanguageStrings@CTaskManagerDlg@@QAEXXZ 00424a70 f   task_manager_dlg.obj
 0001:00023bc0       ?LoadTaskItemFromMetadataFile@CTaskManagerDlg@@QAE_NABVpath@filesystem@std@@H@Z 00424bc0 f   task_manager_dlg.obj
 0001:00023f60       ?LoadTaskList@CTaskManagerDlg@@QAEXXZ 00424f60 f   task_manager_dlg.obj
 0001:00024c50       ?OnFinalMessage@CTaskManagerDlg@@UAEXPAUHWND__@@@Z 00425c50 f   task_manager_dlg.obj
 0001:00024c80       ?OnHeaderItemClick@?$CSortListViewImpl@VCSortListViewCtrl@WTL@@@WTL@@QAEJHPAUtagNMHDR@@AAH@Z 00425c80 f i task_manager_dlg.obj
 0001:00024d20       ?OnInitDialog@CTaskManagerDlg@@QAEHVCWindow@ATL@@J@Z 00425d20 f   task_manager_dlg.obj
 0001:00025160       ?OnInsertColumn@?$CSortListViewImpl@VCSortListViewCtrl@WTL@@@WTL@@QAEJIIJAAH@Z 00426160 f i task_manager_dlg.obj
 0001:00025280       ?ProcessWindowMessage@?$CSortListViewCtrlImpl@VCSortListViewCtrl@WTL@@V?$CListViewCtrlT@VCWindow@ATL@@@2@V?$CWinTraits@$0FGAAAAAJ@$0CAA@@ATL@@@WTL@@UAEHPAUHWND__@@IIJAAJK@Z 00426280 f i task_manager_dlg.obj
 0001:00025460       ?ProcessWindowMessage@CTaskManagerDlg@@UAEHPAUHWND__@@IIJAAJK@Z 00426460 f i task_manager_dlg.obj
 0001:00025490       ?RefreshTaskList@CTaskManagerDlg@@QAEXXZ 00426490 f   task_manager_dlg.obj
 0001:00025550       ?ReloadMainIcon@CTaskManagerDlg@@QAEXXZ 00426550 f   task_manager_dlg.obj
 0001:00025550       ?ReloadMainIcon@CToolkitDlg@@QAEXXZ 00426550 f   toolkit_dlg.obj
 0001:00025650       ?SetItemData@?$CListViewCtrlT@VCWindow@ATL@@@WTL@@QAEHHK@Z 00426650 f i task_manager_dlg.obj
 0001:000256c0       ?SetSortColumn@?$CSortListViewImpl@VCSortListViewCtrl@WTL@@@WTL@@QAEXH@Z 004266c0 f i task_manager_dlg.obj
 0001:00025860       ?SetWindowPos@CWindow@ATL@@QAEHPAUHWND__@@PBUtagRECT@@I@Z 00426860 f i task_manager_dlg.obj
 0001:00025890       ?UpdateDialogAfterListUpdate@CTaskManagerDlg@@QAEXXZ 00426890 f   task_manager_dlg.obj
 0001:00025ac0       ?UpdateTaskListProcessesStatus@CTaskManagerDlg@@QAEXXZ 00426ac0 f   task_manager_dlg.obj
 0001:00025ea0       ?_Assign_grow@?$_Hash_vec@V?$allocator@V?$_List_unchecked_iterator@V?$_List_val@U?$_List_simple_types@U?$pair@$$CBV?$basic_string_view@_WU?$char_traits@_W@std@@@std@@I@std@@@std@@@std@@@std@@@std@@@std@@QAEXIV?$_List_unchecked_iterator@V?$_List_val@U?$_List_simple_types@U?$pair@$$CBV?$basic_string_view@_WU?$char_traits@_W@std@@@std@@I@std@@@std@@@std@@@2@@Z 00426ea0 f i task_manager_dlg.obj
 0001:00025f70       ?_Delete_this@?$_Ref_count_obj2@U_Dir_enum_impl@filesystem@std@@@std@@EAEXXZ 00426f70 f i task_manager_dlg.obj
 0001:00025f70       ?_Delete_this@?$_Ref_count_obj2@V?$output_stream_adapter@D@detail@nlohmann@@@std@@EAEXXZ 00426f70 f i ui_control.obj
 0001:00025f70       ?_Delete_this@?$_Ref_count_obj2@V?$output_string_adapter@DV?$basic_string@DU?$char_traits@D@std@@V?$allocator@D@2@@std@@@detail@nlohmann@@@std@@EAEXXZ 00426f70 f i userprofile.obj
 0001:00025f80       ?_Destroy@?$_Ref_count_obj2@U_Dir_enum_impl@filesystem@std@@@std@@EAEXXZ 00426f80 f i task_manager_dlg.obj
 0001:00025fa0       ?_Find_filename@filesystem@std@@YAPB_WQB_WPB_W@Z 00426fa0 f i task_manager_dlg.obj
 0001:00025ff0       ?_Forced_rehash@?$_Hash@V?$_Umap_traits@V?$basic_string_view@_WU?$char_traits@_W@std@@@std@@IV?$_Uhash_compare@V?$basic_string_view@_WU?$char_traits@_W@std@@@std@@U?$hash@V?$basic_string_view@_WU?$char_traits@_W@std@@@std@@@2@U?$equal_to@V?$basic_string_view@_WU?$char_traits@_W@std@@@std@@@2@@2@V?$allocator@U?$pair@$$CBV?$basic_string_view@_WU?$char_traits@_W@std@@@std@@I@std@@@2@$0A@@std@@@std@@IAEXI@Z 00426ff0 f i task_manager_dlg.obj
 0001:000261a0       ?_Open_dir@_Dir_enum_impl@filesystem@std@@SA?AW4__std_win_error@@AAVpath@23@W4directory_options@23@AAU_Find_file_handle@23@AAU__std_fs_find_data@@@Z 004271a0 f i task_manager_dlg.obj
 0001:00026370       ?_ProcessWindowMessage@CTaskManagerDlg@@QAEHPAUHWND__@@IIJAAJK@Z 00427370 f i task_manager_dlg.obj
 0001:000266f0       ?_Refresh@_Dir_enum_impl@filesystem@std@@QAEXABU__std_fs_find_data@@@Z 004276f0 f i task_manager_dlg.obj
 0001:00026860       ?_Refresh@file_status@filesystem@std@@QAEXW4__std_win_error@@ABU__std_fs_stats@@@Z 00427860 f i task_manager_dlg.obj
 0001:00026910       ?_Throw_fs_error@filesystem@std@@YAXPBDABVerror_code@2@ABVpath@12@@Z 00427910 f i task_manager_dlg.obj
 0001:00026980       ?_Throw_fs_error@filesystem@std@@YAXPBDW4__std_win_error@@@Z 00427980 f i task_manager_dlg.obj
 0001:00026a00       ?compare@path@filesystem@std@@QBEHV?$basic_string_view@_WU?$char_traits@_W@std@@@3@@Z 00427a00 f i task_manager_dlg.obj
 0001:00026bb0       ?deallocate@?$allocator@V?$_List_unchecked_iterator@V?$_List_val@U?$_List_simple_types@U?$pair@$$CBV?$basic_string_view@_WU?$char_traits@_W@std@@@std@@I@std@@@std@@@std@@@std@@@std@@QAEXQAV?$_List_unchecked_iterator@V?$_List_val@U?$_List_simple_types@U?$pair@$$CBV?$basic_string_view@_WU?$char_traits@_W@std@@@std@@I@std@@@std@@@std@@@2@I@Z 00427bb0 f i task_manager_dlg.obj
 0001:00026c00       ?exists@filesystem@std@@YA_NABVpath@12@AAVerror_code@2@@Z 00427c00 f i task_manager_dlg.obj
 0001:00026ca0       ??$_snwprintf_s@$0IA@@@YAHAAY0IA@_WIPB_WZZ 00427ca0 f i tray_icon.obj
 0001:00026ce0       ??0AppTrayIcon@@QAE@PAUHWND__@@I_N@Z 00427ce0 f   tray_icon.obj
 0001:00026dd0       ?Create@AppTrayIcon@@QAEXXZ 00427dd0 f   tray_icon.obj
 0001:00026df0       ?HandleMsg@AppTrayIcon@@QAE?AW4TrayAction@1@IJ@Z 00427df0 f   tray_icon.obj
 0001:00026e70       ?Hide@AppTrayIcon@@QAEX_N@Z 00427e70 f   tray_icon.obj
 0001:00026ea0       ?Modify@AppTrayIcon@@QAEXXZ 00427ea0 f   tray_icon.obj
 0001:00026eb0       ?ReloadIcons@AppTrayIcon@@AAEXPAUHWND__@@@Z 00427eb0 f   tray_icon.obj
 0001:00026fb0       ?Remove@AppTrayIcon@@QAEXXZ 00427fb0 f   tray_icon.obj
 0001:00026fc0       ?SetNotificationIconAndTooltip@AppTrayIcon@@QAEXPB_W@Z 00427fc0 f   tray_icon.obj
 0001:00027030       ?ShowNotificationMessage@AppTrayIcon@@QAEXPB_W@Z 00428030 f   tray_icon.obj
 0001:00027090       ?UpdateIcons@AppTrayIcon@@QAEXPAUHWND__@@@Z 00428090 f   tray_icon.obj
 0001:000270e0       ??$?0AAV?$basic_string@DU?$char_traits@D@std@@V?$allocator@D@2@@std@@V01@$0A@@?$basic_json@Uordered_map@nlohmann@@Vvector@std@@V?$basic_string@DU?$char_traits@D@std@@V?$allocator@D@2@@4@_N_J_KNVallocator@4@Uadl_serializer@2@V?$vector@EV?$allocator@E@std@@@4@@nlohmann@@QAE@AAV?$basic_string@DU?$char_traits@D@std@@V?$allocator@D@2@@std@@@Z 004280e0 f i ui_control.obj
 0001:000270e0       ??$?0AAV?$basic_string@DU?$char_traits@D@std@@V?$allocator@D@2@@std@@V01@$0A@@?$basic_json@Vmap@std@@Vvector@2@V?$basic_string@DU?$char_traits@D@std@@V?$allocator@D@2@@2@_N_J_KNVallocator@2@Uadl_serializer@nlohmann@@V?$vector@EV?$allocator@E@std@@@2@@nlohmann@@QAE@AAV?$basic_string@DU?$char_traits@D@std@@V?$allocator@D@2@@std@@@Z 004280e0 f i userprofile.obj
 0001:00027160       ??$?0AAY03$$CBD$0A@@?$json_ref@V?$basic_json@Uordered_map@nlohmann@@Vvector@std@@V?$basic_string@DU?$char_traits@D@std@@V?$allocator@D@2@@4@_N_J_KNVallocator@4@Uadl_serializer@2@V?$vector@EV?$allocator@E@std@@@4@@nlohmann@@@detail@nlohmann@@QAE@AAY03$$CBD@Z 00428160 f i ui_control.obj
 0001:00027160       ??$?0AAY04$$CBD$0A@@?$json_ref@V?$basic_json@Uordered_map@nlohmann@@Vvector@std@@V?$basic_string@DU?$char_traits@D@std@@V?$allocator@D@2@@4@_N_J_KNVallocator@4@Uadl_serializer@2@V?$vector@EV?$allocator@E@std@@@4@@nlohmann@@@detail@nlohmann@@QAE@AAY04$$CBD@Z 00428160 f i ui_control.obj
 0001:00027160       ??$?0AAY07$$CBD$0A@@?$json_ref@V?$basic_json@Uordered_map@nlohmann@@Vvector@std@@V?$basic_string@DU?$char_traits@D@std@@V?$allocator@D@2@@4@_N_J_KNVallocator@4@Uadl_serializer@2@V?$vector@EV?$allocator@E@std@@@4@@nlohmann@@@detail@nlohmann@@QAE@AAY07$$CBD@Z 00428160 f i ui_control.obj
 0001:00027160       ??$?0AAY0BB@$$CBD$0A@@?$json_ref@V?$basic_json@Uordered_map@nlohmann@@Vvector@std@@V?$basic_string@DU?$char_traits@D@std@@V?$allocator@D@2@@4@_N_J_KNVallocator@4@Uadl_serializer@2@V?$vector@EV?$allocator@E@std@@@4@@nlohmann@@@detail@nlohmann@@QAE@AAY0BB@$$CBD@Z 00428160 f i ui_control.obj
 0001:00027160       ??$?0AAY0BE@$$CBD$0A@@?$json_ref@V?$basic_json@Uordered_map@nlohmann@@Vvector@std@@V?$basic_string@DU?$char_traits@D@std@@V?$allocator@D@2@@4@_N_J_KNVallocator@4@Uadl_serializer@2@V?$vector@EV?$allocator@E@std@@@4@@nlohmann@@@detail@nlohmann@@QAE@AAY0BE@$$CBD@Z 00428160 f i ui_control.obj
 0001:00027160       ??$?0AAY0BH@$$CBD$0A@@?$json_ref@V?$basic_json@Uordered_map@nlohmann@@Vvector@std@@V?$basic_string@DU?$char_traits@D@std@@V?$allocator@D@2@@4@_N_J_KNVallocator@4@Uadl_serializer@2@V?$vector@EV?$allocator@E@std@@@4@@nlohmann@@@detail@nlohmann@@QAE@AAY0BH@$$CBD@Z 00428160 f i ui_control.obj
 0001:00027160       ??$?0AAY0BI@$$CBD$0A@@?$json_ref@V?$basic_json@Uordered_map@nlohmann@@Vvector@std@@V?$basic_string@DU?$char_traits@D@std@@V?$allocator@D@2@@4@_N_J_KNVallocator@4@Uadl_serializer@2@V?$vector@EV?$allocator@E@std@@@4@@nlohmann@@@detail@nlohmann@@QAE@AAY0BI@$$CBD@Z 00428160 f i ui_control.obj
 0001:00027160       ??$?0AAY0BJ@$$CBD$0A@@?$json_ref@V?$basic_json@Uordered_map@nlohmann@@Vvector@std@@V?$basic_string@DU?$char_traits@D@std@@V?$allocator@D@2@@4@_N_J_KNVallocator@4@Uadl_serializer@2@V?$vector@EV?$allocator@E@std@@@4@@nlohmann@@@detail@nlohmann@@QAE@AAY0BJ@$$CBD@Z 00428160 f i ui_control.obj
 0001:00027160       ??$?0AAY0BK@$$CBD$0A@@?$json_ref@V?$basic_json@Uordered_map@nlohmann@@Vvector@std@@V?$basic_string@DU?$char_traits@D@std@@V?$allocator@D@2@@4@_N_J_KNVallocator@4@Uadl_serializer@2@V?$vector@EV?$allocator@E@std@@@4@@nlohmann@@@detail@nlohmann@@QAE@AAY0BK@$$CBD@Z 00428160 f i ui_control.obj
 0001:00027160       ??$?0AAY0BM@$$CBD$0A@@?$json_ref@V?$basic_json@Uordered_map@nlohmann@@Vvector@std@@V?$basic_string@DU?$char_traits@D@std@@V?$allocator@D@2@@4@_N_J_KNVallocator@4@Uadl_serializer@2@V?$vector@EV?$allocator@E@std@@@4@@nlohmann@@@detail@nlohmann@@QAE@AAY0BM@$$CBD@Z 00428160 f i ui_control.obj
 0001:00027160       ??$?0AAY0BO@$$CBD$0A@@?$json_ref@V?$basic_json@Uordered_map@nlohmann@@Vvector@std@@V?$basic_string@DU?$char_traits@D@std@@V?$allocator@D@2@@4@_N_J_KNVallocator@4@Uadl_serializer@2@V?$vector@EV?$allocator@E@std@@@4@@nlohmann@@@detail@nlohmann@@QAE@AAY0BO@$$CBD@Z 00428160 f i ui_control.obj
 0001:00027160       ??$?0AAY0CA@$$CBD$0A@@?$json_ref@V?$basic_json@Uordered_map@nlohmann@@Vvector@std@@V?$basic_string@DU?$char_traits@D@std@@V?$allocator@D@2@@4@_N_J_KNVallocator@4@Uadl_serializer@2@V?$vector@EV?$allocator@E@std@@@4@@nlohmann@@@detail@nlohmann@@QAE@AAY0CA@$$CBD@Z 00428160 f i ui_control.obj
 0001:00027160       ??$?0AAY0CB@$$CBD$0A@@?$json_ref@V?$basic_json@Uordered_map@nlohmann@@Vvector@std@@V?$basic_string@DU?$char_traits@D@std@@V?$allocator@D@2@@4@_N_J_KNVallocator@4@Uadl_serializer@2@V?$vector@EV?$allocator@E@std@@@4@@nlohmann@@@detail@nlohmann@@QAE@AAY0CB@$$CBD@Z 00428160 f i ui_control.obj
 0001:00027160       ??$?0AAY0CN@$$CBD$0A@@?$json_ref@V?$basic_json@Uordered_map@nlohmann@@Vvector@std@@V?$basic_string@DU?$char_traits@D@std@@V?$allocator@D@2@@4@_N_J_KNVallocator@4@Uadl_serializer@2@V?$vector@EV?$allocator@E@std@@@4@@nlohmann@@@detail@nlohmann@@QAE@AAY0CN@$$CBD@Z 00428160 f i ui_control.obj
 0001:00027160       ??$?0AAY0M@$$CBD$0A@@?$json_ref@V?$basic_json@Uordered_map@nlohmann@@Vvector@std@@V?$basic_string@DU?$char_traits@D@std@@V?$allocator@D@2@@4@_N_J_KNVallocator@4@Uadl_serializer@2@V?$vector@EV?$allocator@E@std@@@4@@nlohmann@@@detail@nlohmann@@QAE@AAY0M@$$CBD@Z 00428160 f i ui_control.obj
 0001:00027160       ??$?0AAY0P@$$CBD$0A@@?$json_ref@V?$basic_json@Uordered_map@nlohmann@@Vvector@std@@V?$basic_string@DU?$char_traits@D@std@@V?$allocator@D@2@@4@_N_J_KNVallocator@4@Uadl_serializer@2@V?$vector@EV?$allocator@E@std@@@4@@nlohmann@@@detail@nlohmann@@QAE@AAY0P@$$CBD@Z 00428160 f i ui_control.obj
 0001:00027210       ??$?0H$0A@@?$json_ref@V?$basic_json@Uordered_map@nlohmann@@Vvector@std@@V?$basic_string@DU?$char_traits@D@std@@V?$allocator@D@2@@4@_N_J_KNVallocator@4@Uadl_serializer@2@V?$vector@EV?$allocator@E@std@@@4@@nlohmann@@@detail@nlohmann@@QAE@$$QAH@Z 00428210 f i ui_control.obj
 0001:00027240       ??$?0PAD$0A@@?$basic_string@DU?$char_traits@D@std@@V?$allocator@D@2@@std@@QAE@PAD0ABV?$allocator@D@1@@Z 00428240 f i ui_control.obj
 0001:00027300       ??$?0_N$0A@@?$json_ref@V?$basic_json@Uordered_map@nlohmann@@Vvector@std@@V?$basic_string@DU?$char_traits@D@std@@V?$allocator@D@2@@4@_N_J_KNVallocator@4@Uadl_serializer@2@V?$vector@EV?$allocator@E@std@@@4@@nlohmann@@@detail@nlohmann@@QAE@$$QA_N@Z 00428300 f i ui_control.obj
 0001:00027340       ??$?8DU?$char_traits@D@std@@V?$allocator@D@1@@std@@YA_NABV?$basic_string@DU?$char_traits@D@std@@V?$allocator@D@2@@0@0@Z 00428340 f i ui_control.obj
 0001:000273e0       ??$?HDU?$char_traits@D@std@@V?$allocator@D@1@@std@@YA?AV?$basic_string@DU?$char_traits@D@std@@V?$allocator@D@2@@0@$$QAV10@ABV10@@Z 004283e0 f i ui_control.obj
 0001:00027440       ??$?HDU?$char_traits@D@std@@V?$allocator@D@1@@std@@YA?AV?$basic_string@DU?$char_traits@D@std@@V?$allocator@D@2@@0@$$QAV10@QBD@Z 00428440 f i ui_control.obj
 0001:000274b0       ??$?HDU?$char_traits@D@std@@V?$allocator@D@1@@std@@YA?AV?$basic_string@DU?$char_traits@D@std@@V?$allocator@D@2@@0@QBD$$QAV10@@Z 004284b0 f i ui_control.obj
 0001:000275b0       ??$?HDU?$char_traits@D@std@@V?$allocator@D@1@@std@@YA?AV?$basic_string@DU?$char_traits@D@std@@V?$allocator@D@2@@0@QBDABV10@@Z 004285b0 f i ui_control.obj
 0001:00027690       ??$CoCreateInstance@UITaskService@@Uerr_exception_policy@wil@@@wil@@YA?AV?$com_ptr_t@UITaskService@@Uerr_exception_policy@wil@@@0@ABU_GUID@@K@Z 00428690 f i ui_control.obj
 0001:00027720       ??$TryGetEnvironmentVariableW@V?$basic_string@_WU?$char_traits@_W@std@@V?$allocator@_W@2@@std@@$0IA@@wil@@YA?AV?$basic_string@_WU?$char_traits@_W@std@@V?$allocator@_W@2@@std@@PB_W@Z 00428720 f i ui_control.obj
 0001:00027800       ??$_Allocate_at_least_helper@V?$allocator@PAUHWND__@@@std@@@std@@YAPAPAUHWND__@@AAV?$allocator@PAUHWND__@@@0@AAI@Z 00428800 f i ui_control.obj
 0001:00027800       ??$_Allocate_at_least_helper@V?$allocator@PAV?$basic_json@Uordered_map@nlohmann@@Vvector@std@@V?$basic_string@DU?$char_traits@D@std@@V?$allocator@D@2@@4@_N_J_KNVallocator@4@Uadl_serializer@2@V?$vector@EV?$allocator@E@std@@@4@@nlohmann@@@std@@@std@@YAPAPAV?$basic_json@Uordered_map@nlohmann@@Vvector@std@@V?$basic_string@DU?$char_traits@D@std@@V?$allocator@D@2@@4@_N_J_KNVallocator@4@Uadl_serializer@2@V?$vector@EV?$allocator@E@std@@@4@@nlohmann@@AAV?$allocator@PAV?$basic_json@Uordered_map@nlohmann@@Vvector@std@@V?$basic_string@DU?$char_traits@D@std@@V?$allocator@D@2@@4@_N_J_KNVallocator@4@Uadl_serializer@2@V?$vector@EV?$allocator@E@std@@@4@@nlohmann@@@0@AAI@Z 00428800 f i ui_control.obj
 0001:00027800       ??$_Allocate_at_least_helper@V?$allocator@PAV?$basic_json@Vmap@std@@Vvector@2@V?$basic_string@DU?$char_traits@D@std@@V?$allocator@D@2@@2@_N_J_KNVallocator@2@Uadl_serializer@nlohmann@@V?$vector@EV?$allocator@E@std@@@2@@nlohmann@@@std@@@std@@YAPAPAV?$basic_json@Vmap@std@@Vvector@2@V?$basic_string@DU?$char_traits@D@std@@V?$allocator@D@2@@2@_N_J_KNVallocator@2@Uadl_serializer@nlohmann@@V?$vector@EV?$allocator@E@std@@@2@@nlohmann@@AAV?$allocator@PAV?$basic_json@Vmap@std@@Vvector@2@V?$basic_string@DU?$char_traits@D@std@@V?$allocator@D@2@@2@_N_J_KNVallocator@2@Uadl_serializer@nlohmann@@V?$vector@EV?$allocator@E@std@@@2@@nlohmann@@@0@AAI@Z 00428800 f i userprofile.obj
 0001:00027800       ??$_Allocate_at_least_helper@V?$allocator@PB_W@std@@@std@@YAPAPB_WAAV?$allocator@PB_W@0@AAI@Z 00428800 f i update_checker.obj
 0001:00027860       ??$_Allocate_at_least_helper@V?$allocator@U?$pair@$$CBV?$basic_string@DU?$char_traits@D@std@@V?$allocator@D@2@@std@@V?$basic_json@Uordered_map@nlohmann@@Vvector@std@@V?$basic_string@DU?$char_traits@D@std@@V?$allocator@D@2@@4@_N_J_KNVallocator@4@Uadl_serializer@2@V?$vector@EV?$allocator@E@std@@@4@@nlohmann@@@std@@@std@@@std@@YAPAU?$pair@$$CBV?$basic_string@DU?$char_traits@D@std@@V?$allocator@D@2@@std@@V?$basic_json@Uordered_map@nlohmann@@Vvector@std@@V?$basic_string@DU?$char_traits@D@std@@V?$allocator@D@2@@4@_N_J_KNVallocator@4@Uadl_serializer@2@V?$vector@EV?$allocator@E@std@@@4@@nlohmann@@@0@AAV?$allocator@U?$pair@$$CBV?$basic_string@DU?$char_traits@D@std@@V?$allocator@D@2@@std@@V?$basic_json@Uordered_map@nlohmann@@Vvector@std@@V?$basic_string@DU?$char_traits@D@std@@V?$allocator@D@2@@4@_N_J_KNVallocator@4@Uadl_serializer@2@V?$vector@EV?$allocator@E@std@@@4@@nlohmann@@@std@@@0@AAI@Z 00428860 f i ui_control.obj
 0001:000278d0       ??$_Allocate_at_least_helper@V?$allocator@V?$basic_json@Uordered_map@nlohmann@@Vvector@std@@V?$basic_string@DU?$char_traits@D@std@@V?$allocator@D@2@@4@_N_J_KNVallocator@4@Uadl_serializer@2@V?$vector@EV?$allocator@E@std@@@4@@nlohmann@@@std@@@std@@YAPAV?$basic_json@Uordered_map@nlohmann@@Vvector@std@@V?$basic_string@DU?$char_traits@D@std@@V?$allocator@D@2@@4@_N_J_KNVallocator@4@Uadl_serializer@2@V?$vector@EV?$allocator@E@std@@@4@@nlohmann@@AAV?$allocator@V?$basic_json@Uordered_map@nlohmann@@Vvector@std@@V?$basic_string@DU?$char_traits@D@std@@V?$allocator@D@2@@4@_N_J_KNVallocator@4@Uadl_serializer@2@V?$vector@EV?$allocator@E@std@@@4@@nlohmann@@@0@AAI@Z 004288d0 f i ui_control.obj
 0001:000278d0       ??$_Allocate_at_least_helper@V?$allocator@V?$basic_json@Vmap@std@@Vvector@2@V?$basic_string@DU?$char_traits@D@std@@V?$allocator@D@2@@2@_N_J_KNVallocator@2@Uadl_serializer@nlohmann@@V?$vector@EV?$allocator@E@std@@@2@@nlohmann@@@std@@@std@@YAPAV?$basic_json@Vmap@std@@Vvector@2@V?$basic_string@DU?$char_traits@D@std@@V?$allocator@D@2@@2@_N_J_KNVallocator@2@Uadl_serializer@nlohmann@@V?$vector@EV?$allocator@E@std@@@2@@nlohmann@@AAV?$allocator@V?$basic_json@Vmap@std@@Vvector@2@V?$basic_string@DU?$char_traits@D@std@@V?$allocator@D@2@@2@_N_J_KNVallocator@2@Uadl_serializer@nlohmann@@V?$vector@EV?$allocator@E@std@@@2@@nlohmann@@@0@AAI@Z 004288d0 f i userprofile.obj
 0001:00027930       ??$_Copy_vbool@V?$_Vb_iterator@U?$_Wrap_alloc@V?$allocator@I@std@@@std@@@std@@V12@@std@@YA?AV?$_Vb_iterator@U?$_Wrap_alloc@V?$allocator@I@std@@@std@@@0@V10@00@Z 00428930 f i ui_control.obj
 0001:00027d30       ??$_Emplace_one_at_back@$$T@?$vector@V?$basic_json@Uordered_map@nlohmann@@Vvector@std@@V?$basic_string@DU?$char_traits@D@std@@V?$allocator@D@2@@4@_N_J_KNVallocator@4@Uadl_serializer@2@V?$vector@EV?$allocator@E@std@@@4@@nlohmann@@V?$allocator@V?$basic_json@Uordered_map@nlohmann@@Vvector@std@@V?$basic_string@DU?$char_traits@D@std@@V?$allocator@D@2@@4@_N_J_KNVallocator@4@Uadl_serializer@2@V?$vector@EV?$allocator@E@std@@@4@@nlohmann@@@std@@@std@@AAEAAV?$basic_json@Uordered_map@nlohmann@@Vvector@std@@V?$basic_string@DU?$char_traits@D@std@@V?$allocator@D@2@@4@_N_J_KNVallocator@4@Uadl_serializer@2@V?$vector@EV?$allocator@E@std@@@4@@nlohmann@@$$QA$$T@Z 00428d30 f i ui_control.obj
 0001:00027ea0       ??$_Emplace_one_at_back@AAN@?$vector@V?$basic_json@Uordered_map@nlohmann@@Vvector@std@@V?$basic_string@DU?$char_traits@D@std@@V?$allocator@D@2@@4@_N_J_KNVallocator@4@Uadl_serializer@2@V?$vector@EV?$allocator@E@std@@@4@@nlohmann@@V?$allocator@V?$basic_json@Uordered_map@nlohmann@@Vvector@std@@V?$basic_string@DU?$char_traits@D@std@@V?$allocator@D@2@@4@_N_J_KNVallocator@4@Uadl_serializer@2@V?$vector@EV?$allocator@E@std@@@4@@nlohmann@@@std@@@std@@AAEAAV?$basic_json@Uordered_map@nlohmann@@Vvector@std@@V?$basic_string@DU?$char_traits@D@std@@V?$allocator@D@2@@4@_N_J_KNVallocator@4@Uadl_serializer@2@V?$vector@EV?$allocator@E@std@@@4@@nlohmann@@AAN@Z 00428ea0 f i ui_control.obj
 0001:00027ff0       ??$_Emplace_one_at_back@AA_J@?$vector@V?$basic_json@Uordered_map@nlohmann@@Vvector@std@@V?$basic_string@DU?$char_traits@D@std@@V?$allocator@D@2@@4@_N_J_KNVallocator@4@Uadl_serializer@2@V?$vector@EV?$allocator@E@std@@@4@@nlohmann@@V?$allocator@V?$basic_json@Uordered_map@nlohmann@@Vvector@std@@V?$basic_string@DU?$char_traits@D@std@@V?$allocator@D@2@@4@_N_J_KNVallocator@4@Uadl_serializer@2@V?$vector@EV?$allocator@E@std@@@4@@nlohmann@@@std@@@std@@AAEAAV?$basic_json@Uordered_map@nlohmann@@Vvector@std@@V?$basic_string@DU?$char_traits@D@std@@V?$allocator@D@2@@4@_N_J_KNVallocator@4@Uadl_serializer@2@V?$vector@EV?$allocator@E@std@@@4@@nlohmann@@AA_J@Z 00428ff0 f i ui_control.obj
 0001:00028130       ??$_Emplace_one_at_back@AA_K@?$vector@V?$basic_json@Uordered_map@nlohmann@@Vvector@std@@V?$basic_string@DU?$char_traits@D@std@@V?$allocator@D@2@@4@_N_J_KNVallocator@4@Uadl_serializer@2@V?$vector@EV?$allocator@E@std@@@4@@nlohmann@@V?$allocator@V?$basic_json@Uordered_map@nlohmann@@Vvector@std@@V?$basic_string@DU?$char_traits@D@std@@V?$allocator@D@2@@4@_N_J_KNVallocator@4@Uadl_serializer@2@V?$vector@EV?$allocator@E@std@@@4@@nlohmann@@@std@@@std@@AAEAAV?$basic_json@Uordered_map@nlohmann@@Vvector@std@@V?$basic_string@DU?$char_traits@D@std@@V?$allocator@D@2@@4@_N_J_KNVallocator@4@Uadl_serializer@2@V?$vector@EV?$allocator@E@std@@@4@@nlohmann@@AA_K@Z 00429130 f i ui_control.obj
 0001:00028270       ??$_Emplace_one_at_back@AA_N@?$vector@V?$basic_json@Uordered_map@nlohmann@@Vvector@std@@V?$basic_string@DU?$char_traits@D@std@@V?$allocator@D@2@@4@_N_J_KNVallocator@4@Uadl_serializer@2@V?$vector@EV?$allocator@E@std@@@4@@nlohmann@@V?$allocator@V?$basic_json@Uordered_map@nlohmann@@Vvector@std@@V?$basic_string@DU?$char_traits@D@std@@V?$allocator@D@2@@4@_N_J_KNVallocator@4@Uadl_serializer@2@V?$vector@EV?$allocator@E@std@@@4@@nlohmann@@@std@@@std@@AAEAAV?$basic_json@Uordered_map@nlohmann@@Vvector@std@@V?$basic_string@DU?$char_traits@D@std@@V?$allocator@D@2@@4@_N_J_KNVallocator@4@Uadl_serializer@2@V?$vector@EV?$allocator@E@std@@@4@@nlohmann@@AA_N@Z 00429270 f i ui_control.obj
 0001:000283c0       ??$_Emplace_one_at_back@D@?$vector@DV?$allocator@D@std@@@std@@AAEAAD$$QAD@Z 004293c0 f i ui_control.obj
 0001:000284f0       ??$_Emplace_one_at_back@W4value_t@detail@nlohmann@@@?$vector@V?$basic_json@Uordered_map@nlohmann@@Vvector@std@@V?$basic_string@DU?$char_traits@D@std@@V?$allocator@D@2@@4@_N_J_KNVallocator@4@Uadl_serializer@2@V?$vector@EV?$allocator@E@std@@@4@@nlohmann@@V?$allocator@V?$basic_json@Uordered_map@nlohmann@@Vvector@std@@V?$basic_string@DU?$char_traits@D@std@@V?$allocator@D@2@@4@_N_J_KNVallocator@4@Uadl_serializer@2@V?$vector@EV?$allocator@E@std@@@4@@nlohmann@@@std@@@std@@AAEAAV?$basic_json@Uordered_map@nlohmann@@Vvector@std@@V?$basic_string@DU?$char_traits@D@std@@V?$allocator@D@2@@4@_N_J_KNVallocator@4@Uadl_serializer@2@V?$vector@EV?$allocator@E@std@@@4@@nlohmann@@$$QAW4value_t@detail@3@@Z 004294f0 f i ui_control.obj
 0001:00028660       ??$_Emplace_reallocate@AAV?$basic_string@DU?$char_traits@D@std@@V?$allocator@D@2@@std@@@?$vector@V?$basic_json@Uordered_map@nlohmann@@Vvector@std@@V?$basic_string@DU?$char_traits@D@std@@V?$allocator@D@2@@4@_N_J_KNVallocator@4@Uadl_serializer@2@V?$vector@EV?$allocator@E@std@@@4@@nlohmann@@V?$allocator@V?$basic_json@Uordered_map@nlohmann@@Vvector@std@@V?$basic_string@DU?$char_traits@D@std@@V?$allocator@D@2@@4@_N_J_KNVallocator@4@Uadl_serializer@2@V?$vector@EV?$allocator@E@std@@@4@@nlohmann@@@std@@@std@@AAEPAV?$basic_json@Uordered_map@nlohmann@@Vvector@std@@V?$basic_string@DU?$char_traits@D@std@@V?$allocator@D@2@@4@_N_J_KNVallocator@4@Uadl_serializer@2@V?$vector@EV?$allocator@E@std@@@4@@nlohmann@@QAV23@AAV?$basic_string@DU?$char_traits@D@std@@V?$allocator@D@2@@1@@Z 00429660 f i ui_control.obj
 0001:000287c0       ??$_Emplace_reallocate@ABQAUHWND__@@@?$vector@PAUHWND__@@V?$allocator@PAUHWND__@@@std@@@std@@AAEPAPAUHWND__@@QAPAU2@ABQAU2@@Z 004297c0 f i ui_control.obj
 0001:000288e0       ??$_Emplace_reallocate@ABV?$basic_string@DU?$char_traits@D@std@@V?$allocator@D@2@@std@@AAV?$basic_json@Uordered_map@nlohmann@@Vvector@std@@V?$basic_string@DU?$char_traits@D@std@@V?$allocator@D@2@@4@_N_J_KNVallocator@4@Uadl_serializer@2@V?$vector@EV?$allocator@E@std@@@4@@nlohmann@@@?$vector@U?$pair@$$CBV?$basic_string@DU?$char_traits@D@std@@V?$allocator@D@2@@std@@V?$basic_json@Uordered_map@nlohmann@@Vvector@std@@V?$basic_string@DU?$char_traits@D@std@@V?$allocator@D@2@@4@_N_J_KNVallocator@4@Uadl_serializer@2@V?$vector@EV?$allocator@E@std@@@4@@nlohmann@@@std@@V?$allocator@U?$pair@$$CBV?$basic_string@DU?$char_traits@D@std@@V?$allocator@D@2@@std@@V?$basic_json@Uordered_map@nlohmann@@Vvector@std@@V?$basic_string@DU?$char_traits@D@std@@V?$allocator@D@2@@4@_N_J_KNVallocator@4@Uadl_serializer@2@V?$vector@EV?$allocator@E@std@@@4@@nlohmann@@@std@@@2@@std@@AAEPAU?$pair@$$CBV?$basic_string@DU?$char_traits@D@std@@V?$allocator@D@2@@std@@V?$basic_json@Uordered_map@nlohmann@@Vvector@std@@V?$basic_string@DU?$char_traits@D@std@@V?$allocator@D@2@@4@_N_J_KNVallocator@4@Uadl_serializer@2@V?$vector@EV?$allocator@E@std@@@4@@nlohmann@@@1@QAU21@ABV?$basic_string@DU?$char_traits@D@std@@V?$allocator@D@2@@1@AAV?$basic_json@Uordered_map@nlohmann@@Vvector@std@@V?$basic_string@DU?$char_traits@D@std@@V?$allocator@D@2@@4@_N_J_KNVallocator@4@Uadl_serializer@2@V?$vector@EV?$allocator@E@std@@@4@@nlohmann@@@Z 004298e0 f i ui_control.obj
 0001:00028ae0       ??$_Fputc@D@std@@YA_NDPAU_iobuf@@@Z 00429ae0 f i ui_control.obj
 0001:00028b00       ??$_Reallocate_grow_by@V<lambda_1>@?1??insert@?$basic_string@DU?$char_traits@D@std@@V?$allocator@D@2@@std@@QAEAAV34@IQBDI@Z@IPBDI@?$basic_string@DU?$char_traits@D@std@@V?$allocator@D@2@@std@@AAEAAV01@IV<lambda_1>@?1??insert@01@QAEAAV01@IQBDI@Z@IPBDI@Z 00429b00 f i ui_control.obj
 0001:00028c40       ??$_Resize_reallocate@I@?$vector@IV?$allocator@I@std@@@std@@AAEXIABI@Z 00429c40 f i ui_control.obj
 0001:00028d70       ??$_UIntegral_to_buff@DI@std@@YAPADPADI@Z 00429d70 f i ui_control.obj
 0001:00028db0       ??$_Uninitialized_copy@PAU?$pair@$$CBV?$basic_string@DU?$char_traits@D@std@@V?$allocator@D@2@@std@@V?$basic_json@Uordered_map@nlohmann@@Vvector@std@@V?$basic_string@DU?$char_traits@D@std@@V?$allocator@D@2@@4@_N_J_KNVallocator@4@Uadl_serializer@2@V?$vector@EV?$allocator@E@std@@@4@@nlohmann@@@std@@PAU12@V?$allocator@U?$pair@$$CBV?$basic_string@DU?$char_traits@D@std@@V?$allocator@D@2@@std@@V?$basic_json@Uordered_map@nlohmann@@Vvector@std@@V?$basic_string@DU?$char_traits@D@std@@V?$allocator@D@2@@4@_N_J_KNVallocator@4@Uadl_serializer@2@V?$vector@EV?$allocator@E@std@@@4@@nlohmann@@@std@@@2@@std@@YAPAU?$pair@$$CBV?$basic_string@DU?$char_traits@D@std@@V?$allocator@D@2@@std@@V?$basic_json@Uordered_map@nlohmann@@Vvector@std@@V?$basic_string@DU?$char_traits@D@std@@V?$allocator@D@2@@4@_N_J_KNVallocator@4@Uadl_serializer@2@V?$vector@EV?$allocator@E@std@@@4@@nlohmann@@@0@PAU10@00AAV?$allocator@U?$pair@$$CBV?$basic_string@DU?$char_traits@D@std@@V?$allocator@D@2@@std@@V?$basic_json@Uordered_map@nlohmann@@Vvector@std@@V?$basic_string@DU?$char_traits@D@std@@V?$allocator@D@2@@4@_N_J_KNVallocator@4@Uadl_serializer@2@V?$vector@EV?$allocator@E@std@@@4@@nlohmann@@@std@@@0@@Z 00429db0 f i ui_control.obj
 0001:00028e40       ??$_Uninitialized_fill_n@V?$allocator@I@std@@@std@@YAPAIPAIIABIAAV?$allocator@I@0@@Z 00429e40 f i ui_control.obj
 0001:00028ea0       ??$_Uninitialized_move@PAU?$pair@$$CBV?$basic_string@DU?$char_traits@D@std@@V?$allocator@D@2@@std@@V?$basic_json@Uordered_map@nlohmann@@Vvector@std@@V?$basic_string@DU?$char_traits@D@std@@V?$allocator@D@2@@4@_N_J_KNVallocator@4@Uadl_serializer@2@V?$vector@EV?$allocator@E@std@@@4@@nlohmann@@@std@@V?$allocator@U?$pair@$$CBV?$basic_string@DU?$char_traits@D@std@@V?$allocator@D@2@@std@@V?$basic_json@Uordered_map@nlohmann@@Vvector@std@@V?$basic_string@DU?$char_traits@D@std@@V?$allocator@D@2@@4@_N_J_KNVallocator@4@Uadl_serializer@2@V?$vector@EV?$allocator@E@std@@@4@@nlohmann@@@std@@@2@@std@@YAPAU?$pair@$$CBV?$basic_string@DU?$char_traits@D@std@@V?$allocator@D@2@@std@@V?$basic_json@Uordered_map@nlohmann@@Vvector@std@@V?$basic_string@DU?$char_traits@D@std@@V?$allocator@D@2@@4@_N_J_KNVallocator@4@Uadl_serializer@2@V?$vector@EV?$allocator@E@std@@@4@@nlohmann@@@0@QAU10@0PAU10@AAV?$allocator@U?$pair@$$CBV?$basic_string@DU?$char_traits@D@std@@V?$allocator@D@2@@std@@V?$basic_json@Uordered_map@nlohmann@@Vvector@std@@V?$basic_string@DU?$char_traits@D@std@@V?$allocator@D@2@@4@_N_J_KNVallocator@4@Uadl_serializer@2@V?$vector@EV?$allocator@E@std@@@4@@nlohmann@@@std@@@0@@Z 00429ea0 f i ui_control.obj
 0001:00028f50       ??$_Uninitialized_move@PAV?$basic_json@Uordered_map@nlohmann@@Vvector@std@@V?$basic_string@DU?$char_traits@D@std@@V?$allocator@D@2@@4@_N_J_KNVallocator@4@Uadl_serializer@2@V?$vector@EV?$allocator@E@std@@@4@@nlohmann@@V?$allocator@V?$basic_json@Uordered_map@nlohmann@@Vvector@std@@V?$basic_string@DU?$char_traits@D@std@@V?$allocator@D@2@@4@_N_J_KNVallocator@4@Uadl_serializer@2@V?$vector@EV?$allocator@E@std@@@4@@nlohmann@@@std@@@std@@YAPAV?$basic_json@Uordered_map@nlohmann@@Vvector@std@@V?$basic_string@DU?$char_traits@D@std@@V?$allocator@D@2@@4@_N_J_KNVallocator@4@Uadl_serializer@2@V?$vector@EV?$allocator@E@std@@@4@@nlohmann@@QAV12@0PAV12@AAV?$allocator@V?$basic_json@Uordered_map@nlohmann@@Vvector@std@@V?$basic_string@DU?$char_traits@D@std@@V?$allocator@D@2@@4@_N_J_KNVallocator@4@Uadl_serializer@2@V?$vector@EV?$allocator@E@std@@@4@@nlohmann@@@0@@Z 00429f50 f i ui_control.obj
 0001:00028f50       ??$_Uninitialized_move@PAV?$basic_json@Vmap@std@@Vvector@2@V?$basic_string@DU?$char_traits@D@std@@V?$allocator@D@2@@2@_N_J_KNVallocator@2@Uadl_serializer@nlohmann@@V?$vector@EV?$allocator@E@std@@@2@@nlohmann@@V?$allocator@V?$basic_json@Vmap@std@@Vvector@2@V?$basic_string@DU?$char_traits@D@std@@V?$allocator@D@2@@2@_N_J_KNVallocator@2@Uadl_serializer@nlohmann@@V?$vector@EV?$allocator@E@std@@@2@@nlohmann@@@std@@@std@@YAPAV?$basic_json@Vmap@std@@Vvector@2@V?$basic_string@DU?$char_traits@D@std@@V?$allocator@D@2@@2@_N_J_KNVallocator@2@Uadl_serializer@nlohmann@@V?$vector@EV?$allocator@E@std@@@2@@nlohmann@@QAV12@0PAV12@AAV?$allocator@V?$basic_json@Vmap@std@@Vvector@2@V?$basic_string@DU?$char_traits@D@std@@V?$allocator@D@2@@2@_N_J_KNVallocator@2@Uadl_serializer@nlohmann@@V?$vector@EV?$allocator@E@std@@@2@@nlohmann@@@0@@Z 00429f50 f i userprofile.obj
 0001:00028fa0       ??$construct@V?$basic_json@Uordered_map@nlohmann@@Vvector@std@@V?$basic_string@DU?$char_traits@D@std@@V?$allocator@D@2@@4@_N_J_KNVallocator@4@Uadl_serializer@2@V?$vector@EV?$allocator@E@std@@@4@@nlohmann@@AAV?$basic_string@DU?$char_traits@D@std@@V?$allocator@D@2@@std@@@?$_Default_allocator_traits@V?$allocator@V?$basic_json@Uordered_map@nlohmann@@Vvector@std@@V?$basic_string@DU?$char_traits@D@std@@V?$allocator@D@2@@4@_N_J_KNVallocator@4@Uadl_serializer@2@V?$vector@EV?$allocator@E@std@@@4@@nlohmann@@@std@@@std@@SAXAAV?$allocator@V?$basic_json@Uordered_map@nlohmann@@Vvector@std@@V?$basic_string@DU?$char_traits@D@std@@V?$allocator@D@2@@4@_N_J_KNVallocator@4@Uadl_serializer@2@V?$vector@EV?$allocator@E@std@@@4@@nlohmann@@@1@QAV?$basic_json@Uordered_map@nlohmann@@Vvector@std@@V?$basic_string@DU?$char_traits@D@std@@V?$allocator@D@2@@4@_N_J_KNVallocator@4@Uadl_serializer@2@V?$vector@EV?$allocator@E@std@@@4@@nlohmann@@AAV?$basic_string@DU?$char_traits@D@std@@V?$allocator@D@2@@1@@Z 00429fa0 f i ui_control.obj
 0001:00029020       ??$create@U?$ordered_map@V?$basic_string@DU?$char_traits@D@std@@V?$allocator@D@2@@std@@V?$basic_json@Uordered_map@nlohmann@@Vvector@std@@V?$basic_string@DU?$char_traits@D@std@@V?$allocator@D@2@@4@_N_J_KNVallocator@4@Uadl_serializer@2@V?$vector@EV?$allocator@E@std@@@4@@nlohmann@@U?$less@X@2@V?$allocator@U?$pair@$$CBV?$basic_string@DU?$char_traits@D@std@@V?$allocator@D@2@@std@@V?$basic_json@Uordered_map@nlohmann@@Vvector@std@@V?$basic_string@DU?$char_traits@D@std@@V?$allocator@D@2@@4@_N_J_KNVallocator@4@Uadl_serializer@2@V?$vector@EV?$allocator@E@std@@@4@@nlohmann@@@std@@@2@@nlohmann@@$$V@?$basic_json@Uordered_map@nlohmann@@Vvector@std@@V?$basic_string@DU?$char_traits@D@std@@V?$allocator@D@2@@4@_N_J_KNVallocator@4@Uadl_serializer@2@V?$vector@EV?$allocator@E@std@@@4@@nlohmann@@CAPAU?$ordered_map@V?$basic_string@DU?$char_traits@D@std@@V?$allocator@D@2@@std@@V?$basic_json@Uordered_map@nlohmann@@Vvector@std@@V?$basic_string@DU?$char_traits@D@std@@V?$allocator@D@2@@4@_N_J_KNVallocator@4@Uadl_serializer@2@V?$vector@EV?$allocator@E@std@@@4@@nlohmann@@U?$less@X@2@V?$allocator@U?$pair@$$CBV?$basic_string@DU?$char_traits@D@std@@V?$allocator@D@2@@std@@V?$basic_json@Uordered_map@nlohmann@@Vvector@std@@V?$basic_string@DU?$char_traits@D@std@@V?$allocator@D@2@@4@_N_J_KNVallocator@4@Uadl_serializer@2@V?$vector@EV?$allocator@E@std@@@4@@nlohmann@@@std@@@2@@1@XZ 0042a020 f i ui_control.obj
 0001:00029040       ??$dump_integer@E$0A@@?$serializer@V?$basic_json@Uordered_map@nlohmann@@Vvector@std@@V?$basic_string@DU?$char_traits@D@std@@V?$allocator@D@2@@4@_N_J_KNVallocator@4@Uadl_serializer@2@V?$vector@EV?$allocator@E@std@@@4@@nlohmann@@@detail@nlohmann@@AAEXE@Z 0042a040 f i ui_control.obj
 0001:00029190       ??$erase@V?$iter_impl@V?$basic_json@Uordered_map@nlohmann@@Vvector@std@@V?$basic_string@DU?$char_traits@D@std@@V?$allocator@D@2@@4@_N_J_KNVallocator@4@Uadl_serializer@2@V?$vector@EV?$allocator@E@std@@@4@@nlohmann@@@detail@nlohmann@@$0A@@?$basic_json@Uordered_map@nlohmann@@Vvector@std@@V?$basic_string@DU?$char_traits@D@std@@V?$allocator@D@2@@4@_N_J_KNVallocator@4@Uadl_serializer@2@V?$vector@EV?$allocator@E@std@@@4@@nlohmann@@QAE?AV?$iter_impl@V?$basic_json@Uordered_map@nlohmann@@Vvector@std@@V?$basic_string@DU?$char_traits@D@std@@V?$allocator@D@2@@4@_N_J_KNVallocator@4@Uadl_serializer@2@V?$vector@EV?$allocator@E@std@@@4@@nlohmann@@@detail@1@V231@@Z 0042a190 f i ui_control.obj
 0001:00029470       ??$fill_n@V?$_Vb_iterator@U?$_Wrap_alloc@V?$allocator@I@std@@@std@@@std@@I_N@std@@YA?AV?$_Vb_iterator@U?$_Wrap_alloc@V?$allocator@I@std@@@std@@@0@V10@IAB_N@Z 0042a470 f i ui_control.obj
 0001:00029590       ??$grisu2@N@dtoa_impl@detail@nlohmann@@YAXPADAAH1N@Z 0042a590 f i ui_control.obj
 0001:000297c0       ??$handle_value@$$T@?$json_sax_dom_callback_parser@V?$basic_json@Uordered_map@nlohmann@@Vvector@std@@V?$basic_string@DU?$char_traits@D@std@@V?$allocator@D@2@@4@_N_J_KNVallocator@4@Uadl_serializer@2@V?$vector@EV?$allocator@E@std@@@4@@nlohmann@@@detail@nlohmann@@AAE?AU?$pair@_NPAV?$basic_json@Uordered_map@nlohmann@@Vvector@std@@V?$basic_string@DU?$char_traits@D@std@@V?$allocator@D@2@@4@_N_J_KNVallocator@4@Uadl_serializer@2@V?$vector@EV?$allocator@E@std@@@4@@nlohmann@@@std@@$$QA$$T_N@Z 0042a7c0 f i ui_control.obj
 0001:00029960       ??$handle_value@AAN@?$json_sax_dom_callback_parser@V?$basic_json@Uordered_map@nlohmann@@Vvector@std@@V?$basic_string@DU?$char_traits@D@std@@V?$allocator@D@2@@4@_N_J_KNVallocator@4@Uadl_serializer@2@V?$vector@EV?$allocator@E@std@@@4@@nlohmann@@@detail@nlohmann@@AAE?AU?$pair@_NPAV?$basic_json@Uordered_map@nlohmann@@Vvector@std@@V?$basic_string@DU?$char_traits@D@std@@V?$allocator@D@2@@4@_N_J_KNVallocator@4@Uadl_serializer@2@V?$vector@EV?$allocator@E@std@@@4@@nlohmann@@@std@@AAN_N@Z 0042a960 f i ui_control.obj
 0001:00029b00       ??$handle_value@AAV?$basic_string@DU?$char_traits@D@std@@V?$allocator@D@2@@std@@@?$json_sax_dom_callback_parser@V?$basic_json@Uordered_map@nlohmann@@Vvector@std@@V?$basic_string@DU?$char_traits@D@std@@V?$allocator@D@2@@4@_N_J_KNVallocator@4@Uadl_serializer@2@V?$vector@EV?$allocator@E@std@@@4@@nlohmann@@@detail@nlohmann@@AAE?AU?$pair@_NPAV?$basic_json@Uordered_map@nlohmann@@Vvector@std@@V?$basic_string@DU?$char_traits@D@std@@V?$allocator@D@2@@4@_N_J_KNVallocator@4@Uadl_serializer@2@V?$vector@EV?$allocator@E@std@@@4@@nlohmann@@@std@@AAV?$basic_string@DU?$char_traits@D@std@@V?$allocator@D@2@@4@_N@Z 0042ab00 f i ui_control.obj
 0001:00029cc0       ??$handle_value@AA_J@?$json_sax_dom_callback_parser@V?$basic_json@Uordered_map@nlohmann@@Vvector@std@@V?$basic_string@DU?$char_traits@D@std@@V?$allocator@D@2@@4@_N_J_KNVallocator@4@Uadl_serializer@2@V?$vector@EV?$allocator@E@std@@@4@@nlohmann@@@detail@nlohmann@@AAE?AU?$pair@_NPAV?$basic_json@Uordered_map@nlohmann@@Vvector@std@@V?$basic_string@DU?$char_traits@D@std@@V?$allocator@D@2@@4@_N_J_KNVallocator@4@Uadl_serializer@2@V?$vector@EV?$allocator@E@std@@@4@@nlohmann@@@std@@AA_J_N@Z 0042acc0 f i ui_control.obj
 0001:00029e60       ??$handle_value@AA_K@?$json_sax_dom_callback_parser@V?$basic_json@Uordered_map@nlohmann@@Vvector@std@@V?$basic_string@DU?$char_traits@D@std@@V?$allocator@D@2@@4@_N_J_KNVallocator@4@Uadl_serializer@2@V?$vector@EV?$allocator@E@std@@@4@@nlohmann@@@detail@nlohmann@@AAE?AU?$pair@_NPAV?$basic_json@Uordered_map@nlohmann@@Vvector@std@@V?$basic_string@DU?$char_traits@D@std@@V?$allocator@D@2@@4@_N_J_KNVallocator@4@Uadl_serializer@2@V?$vector@EV?$allocator@E@std@@@4@@nlohmann@@@std@@AA_K_N@Z 0042ae60 f i ui_control.obj
 0001:0002a010       ??$handle_value@AA_N@?$json_sax_dom_callback_parser@V?$basic_json@Uordered_map@nlohmann@@Vvector@std@@V?$basic_string@DU?$char_traits@D@std@@V?$allocator@D@2@@4@_N_J_KNVallocator@4@Uadl_serializer@2@V?$vector@EV?$allocator@E@std@@@4@@nlohmann@@@detail@nlohmann@@AAE?AU?$pair@_NPAV?$basic_json@Uordered_map@nlohmann@@Vvector@std@@V?$basic_string@DU?$char_traits@D@std@@V?$allocator@D@2@@4@_N_J_KNVallocator@4@Uadl_serializer@2@V?$vector@EV?$allocator@E@std@@@4@@nlohmann@@@std@@AA_N_N@Z 0042b010 f i ui_control.obj
 0001:0002a1c0       ??$handle_value@W4value_t@detail@nlohmann@@@?$json_sax_dom_callback_parser@V?$basic_json@Uordered_map@nlohmann@@Vvector@std@@V?$basic_string@DU?$char_traits@D@std@@V?$allocator@D@2@@4@_N_J_KNVallocator@4@Uadl_serializer@2@V?$vector@EV?$allocator@E@std@@@4@@nlohmann@@@detail@nlohmann@@AAE?AU?$pair@_NPAV?$basic_json@Uordered_map@nlohmann@@Vvector@std@@V?$basic_string@DU?$char_traits@D@std@@V?$allocator@D@2@@4@_N_J_KNVallocator@4@Uadl_serializer@2@V?$vector@EV?$allocator@E@std@@@4@@nlohmann@@@std@@$$QAW4value_t@12@_N@Z 0042b1c0 f i ui_control.obj
 0001:0002a360       ??$handle_value@W4value_t@detail@nlohmann@@@?$json_sax_dom_parser@V?$basic_json@Uordered_map@nlohmann@@Vvector@std@@V?$basic_string@DU?$char_traits@D@std@@V?$allocator@D@2@@4@_N_J_KNVallocator@4@Uadl_serializer@2@V?$vector@EV?$allocator@E@std@@@4@@nlohmann@@@detail@nlohmann@@AAEPAV?$basic_json@Uordered_map@nlohmann@@Vvector@std@@V?$basic_string@DU?$char_traits@D@std@@V?$allocator@D@2@@4@_N_J_KNVallocator@4@Uadl_serializer@2@V?$vector@EV?$allocator@E@std@@@4@@2@$$QAW4value_t@12@@Z 0042b360 f i ui_control.obj
 0001:0002a450       ??$parser@Vinput_stream_adapter@detail@nlohmann@@@?$basic_json@Uordered_map@nlohmann@@Vvector@std@@V?$basic_string@DU?$char_traits@D@std@@V?$allocator@D@2@@4@_N_J_KNVallocator@4@Uadl_serializer@2@V?$vector@EV?$allocator@E@std@@@4@@nlohmann@@CA?AV?$parser@V?$basic_json@Uordered_map@nlohmann@@Vvector@std@@V?$basic_string@DU?$char_traits@D@std@@V?$allocator@D@2@@4@_N_J_KNVallocator@4@Uadl_serializer@2@V?$vector@EV?$allocator@E@std@@@4@@nlohmann@@Vinput_stream_adapter@detail@2@@detail@1@Vinput_stream_adapter@31@V?$function@$$A6A_NHW4parse_event_t@detail@nlohmann@@AAV?$basic_json@Uordered_map@nlohmann@@Vvector@std@@V?$basic_string@DU?$char_traits@D@std@@V?$allocator@D@2@@4@_N_J_KNVallocator@4@Uadl_serializer@2@V?$vector@EV?$allocator@E@std@@@4@@3@@Z@std@@_N2@Z 0042b450 f i ui_control.obj
 0001:0002a450       ??$parser@Vinput_stream_adapter@detail@nlohmann@@@?$basic_json@Vmap@std@@Vvector@2@V?$basic_string@DU?$char_traits@D@std@@V?$allocator@D@2@@2@_N_J_KNVallocator@2@Uadl_serializer@nlohmann@@V?$vector@EV?$allocator@E@std@@@2@@nlohmann@@CA?AV?$parser@V?$basic_json@Vmap@std@@Vvector@2@V?$basic_string@DU?$char_traits@D@std@@V?$allocator@D@2@@2@_N_J_KNVallocator@2@Uadl_serializer@nlohmann@@V?$vector@EV?$allocator@E@std@@@2@@nlohmann@@Vinput_stream_adapter@detail@2@@detail@1@Vinput_stream_adapter@31@V?$function@$$A6A_NHW4parse_event_t@detail@nlohmann@@AAV?$basic_json@Vmap@std@@Vvector@2@V?$basic_string@DU?$char_traits@D@std@@V?$allocator@D@2@@2@_N_J_KNVallocator@2@Uadl_serializer@nlohmann@@V?$vector@EV?$allocator@E@std@@@2@@3@@Z@std@@_N2@Z 0042b450 f i userprofile.obj
 0001:0002a690       ??$sax_parse_internal@V?$json_sax_dom_callback_parser@V?$basic_json@Uordered_map@nlohmann@@Vvector@std@@V?$basic_string@DU?$char_traits@D@std@@V?$allocator@D@2@@4@_N_J_KNVallocator@4@Uadl_serializer@2@V?$vector@EV?$allocator@E@std@@@4@@nlohmann@@@detail@nlohmann@@@?$parser@V?$basic_json@Uordered_map@nlohmann@@Vvector@std@@V?$basic_string@DU?$char_traits@D@std@@V?$allocator@D@2@@4@_N_J_KNVallocator@4@Uadl_serializer@2@V?$vector@EV?$allocator@E@std@@@4@@nlohmann@@Vinput_stream_adapter@detail@2@@detail@nlohmann@@AAE_NPAV?$json_sax_dom_callback_parser@V?$basic_json@Uordered_map@nlohmann@@Vvector@std@@V?$basic_string@DU?$char_traits@D@std@@V?$allocator@D@2@@4@_N_J_KNVallocator@4@Uadl_serializer@2@V?$vector@EV?$allocator@E@std@@@4@@nlohmann@@@12@@Z 0042b690 f i ui_control.obj
 0001:0002b800       ??$sax_parse_internal@V?$json_sax_dom_parser@V?$basic_json@Uordered_map@nlohmann@@Vvector@std@@V?$basic_string@DU?$char_traits@D@std@@V?$allocator@D@2@@4@_N_J_KNVallocator@4@Uadl_serializer@2@V?$vector@EV?$allocator@E@std@@@4@@nlohmann@@@detail@nlohmann@@@?$parser@V?$basic_json@Uordered_map@nlohmann@@Vvector@std@@V?$basic_string@DU?$char_traits@D@std@@V?$allocator@D@2@@4@_N_J_KNVallocator@4@Uadl_serializer@2@V?$vector@EV?$allocator@E@std@@@4@@nlohmann@@Vinput_stream_adapter@detail@2@@detail@nlohmann@@AAE_NPAV?$json_sax_dom_parser@V?$basic_json@Uordered_map@nlohmann@@Vvector@std@@V?$basic_string@DU?$char_traits@D@std@@V?$allocator@D@2@@4@_N_J_KNVallocator@4@Uadl_serializer@2@V?$vector@EV?$allocator@E@std@@@4@@nlohmann@@@12@@Z 0042c800 f i ui_control.obj
 0001:0002cad0       ??$use_facet@V?$codecvt@DDU_Mbstatet@@@std@@@std@@YAABV?$codecvt@DDU_Mbstatet@@@0@ABVlocale@0@@Z 0042dad0 f i ui_control.obj
 0001:0002cc40       ??$use_facet@V?$ctype@D@std@@@std@@YAABV?$ctype@D@0@ABVlocale@0@@Z 0042dc40 f i ui_control.obj
 0001:0002cdd0       ??0?$basic_filebuf@DU?$char_traits@D@std@@@std@@QAE@XZ 0042ddd0 f i ui_control.obj
 0001:0002cf20       ??0?$basic_ios@DU?$char_traits@D@std@@@std@@IAE@XZ 0042df20 f i ui_control.obj
 0001:0002cfa0       ??0?$basic_json@Uordered_map@nlohmann@@Vvector@std@@V?$basic_string@DU?$char_traits@D@std@@V?$allocator@D@2@@4@_N_J_KNVallocator@4@Uadl_serializer@2@V?$vector@EV?$allocator@E@std@@@4@@nlohmann@@QAE@$$QAV01@@Z 0042dfa0 f i ui_control.obj
 0001:0002cfa0       ??0?$basic_json@Vmap@std@@Vvector@2@V?$basic_string@DU?$char_traits@D@std@@V?$allocator@D@2@@2@_N_J_KNVallocator@2@Uadl_serializer@nlohmann@@V?$vector@EV?$allocator@E@std@@@2@@nlohmann@@QAE@$$QAV01@@Z 0042dfa0 f i userprofile.obj
 0001:0002cfd0       ??0?$basic_json@Uordered_map@nlohmann@@Vvector@std@@V?$basic_string@DU?$char_traits@D@std@@V?$allocator@D@2@@4@_N_J_KNVallocator@4@Uadl_serializer@2@V?$vector@EV?$allocator@E@std@@@4@@nlohmann@@QAE@ABV01@@Z 0042dfd0 f i ui_control.obj
 0001:0002d300       ??0?$basic_json@Uordered_map@nlohmann@@Vvector@std@@V?$basic_string@DU?$char_traits@D@std@@V?$allocator@D@2@@4@_N_J_KNVallocator@4@Uadl_serializer@2@V?$vector@EV?$allocator@E@std@@@4@@nlohmann@@QAE@V?$initializer_list@V?$json_ref@V?$basic_json@Uordered_map@nlohmann@@Vvector@std@@V?$basic_string@DU?$char_traits@D@std@@V?$allocator@D@2@@4@_N_J_KNVallocator@4@Uadl_serializer@2@V?$vector@EV?$allocator@E@std@@@4@@nlohmann@@@detail@nlohmann@@@std@@_NW4value_t@detail@1@@Z 0042e300 f i ui_control.obj
 0001:0002d5a0       ??0?$basic_string@DU?$char_traits@D@std@@V?$allocator@D@2@@std@@QAE@ID@Z 0042e5a0 f i ui_control.obj
 0001:0002d650       ??0?$basic_string@DU?$char_traits@D@std@@V?$allocator@D@2@@std@@QAE@U_String_constructor_concat_tag@1@AAV01@1@Z 0042e650 f i ui_control.obj
 0001:0002d7e0       ??0?$iter_impl@$$CBV?$basic_json@Uordered_map@nlohmann@@Vvector@std@@V?$basic_string@DU?$char_traits@D@std@@V?$allocator@D@2@@4@_N_J_KNVallocator@4@Uadl_serializer@2@V?$vector@EV?$allocator@E@std@@@4@@nlohmann@@@detail@nlohmann@@QAE@PBV?$basic_json@Uordered_map@nlohmann@@Vvector@std@@V?$basic_string@DU?$char_traits@D@std@@V?$allocator@D@2@@4@_N_J_KNVallocator@4@Uadl_serializer@2@V?$vector@EV?$allocator@E@std@@@4@@2@@Z 0042e7e0 f i ui_control.obj
 0001:0002d820       ??0?$iteration_proxy_value@V?$iter_impl@$$CBV?$basic_json@Uordered_map@nlohmann@@Vvector@std@@V?$basic_string@DU?$char_traits@D@std@@V?$allocator@D@2@@4@_N_J_KNVallocator@4@Uadl_serializer@2@V?$vector@EV?$allocator@E@std@@@4@@nlohmann@@@detail@nlohmann@@@detail@nlohmann@@QAE@V?$iter_impl@$$CBV?$basic_json@Uordered_map@nlohmann@@Vvector@std@@V?$basic_string@DU?$char_traits@D@std@@V?$allocator@D@2@@4@_N_J_KNVallocator@4@Uadl_serializer@2@V?$vector@EV?$allocator@E@std@@@4@@nlohmann@@@12@@Z 0042e820 f i ui_control.obj
 0001:0002d8b0       ??0?$json_ref@V?$basic_json@Uordered_map@nlohmann@@Vvector@std@@V?$basic_string@DU?$char_traits@D@std@@V?$allocator@D@2@@4@_N_J_KNVallocator@4@Uadl_serializer@2@V?$vector@EV?$allocator@E@std@@@4@@nlohmann@@@detail@nlohmann@@QAE@V?$initializer_list@V?$json_ref@V?$basic_json@Uordered_map@nlohmann@@Vvector@std@@V?$basic_string@DU?$char_traits@D@std@@V?$allocator@D@2@@4@_N_J_KNVallocator@4@Uadl_serializer@2@V?$vector@EV?$allocator@E@std@@@4@@nlohmann@@@detail@nlohmann@@@std@@@Z 0042e8b0 f i ui_control.obj
 0001:0002d8e0       ??0?$json_sax_dom_callback_parser@V?$basic_json@Uordered_map@nlohmann@@Vvector@std@@V?$basic_string@DU?$char_traits@D@std@@V?$allocator@D@2@@4@_N_J_KNVallocator@4@Uadl_serializer@2@V?$vector@EV?$allocator@E@std@@@4@@nlohmann@@@detail@nlohmann@@QAE@AAV?$basic_json@Uordered_map@nlohmann@@Vvector@std@@V?$basic_string@DU?$char_traits@D@std@@V?$allocator@D@2@@4@_N_J_KNVallocator@4@Uadl_serializer@2@V?$vector@EV?$allocator@E@std@@@4@@2@V?$function@$$A6A_NHW4parse_event_t@detail@nlohmann@@AAV?$basic_json@Uordered_map@nlohmann@@Vvector@std@@V?$basic_string@DU?$char_traits@D@std@@V?$allocator@D@2@@4@_N_J_KNVallocator@4@Uadl_serializer@2@V?$vector@EV?$allocator@E@std@@@4@@3@@Z@std@@_N@Z 0042e8e0 f i ui_control.obj
 0001:0002dc40       ??0_Locinfo@std@@QAE@PBD@Z 0042ec40 f i ui_control.obj
 0001:0002dcf0       ??0exception@detail@nlohmann@@QAE@ABV012@@Z 0042ecf0 f i ui_control.obj
 0001:0002dd50       ??0failure@ios_base@std@@QAE@ABV012@@Z 0042ed50 f i ui_control.obj
 0001:0002dda0       ??0failure@ios_base@std@@QAE@PBDABVerror_code@2@@Z 0042eda0 f i ui_control.obj
 0001:0002de90       ??0invalid_iterator@detail@nlohmann@@QAE@ABV012@@Z 0042ee90 f i ui_control.obj
 0001:0002df00       ??0json_value@?$basic_json@Uordered_map@nlohmann@@Vvector@std@@V?$basic_string@DU?$char_traits@D@std@@V?$allocator@D@2@@4@_N_J_KNVallocator@4@Uadl_serializer@2@V?$vector@EV?$allocator@E@std@@@4@@nlohmann@@QAE@ABV?$basic_string@DU?$char_traits@D@std@@V?$allocator@D@2@@std@@@Z 0042ef00 f i ui_control.obj
 0001:0002df00       ??0json_value@?$basic_json@Vmap@std@@Vvector@2@V?$basic_string@DU?$char_traits@D@std@@V?$allocator@D@2@@2@_N_J_KNVallocator@2@Uadl_serializer@nlohmann@@V?$vector@EV?$allocator@E@std@@@2@@nlohmann@@QAE@ABV?$basic_string@DU?$char_traits@D@std@@V?$allocator@D@2@@std@@@Z 0042ef00 f i userprofile.obj
 0001:0002df70       ??0json_value@?$basic_json@Uordered_map@nlohmann@@Vvector@std@@V?$basic_string@DU?$char_traits@D@std@@V?$allocator@D@2@@4@_N_J_KNVallocator@4@Uadl_serializer@2@V?$vector@EV?$allocator@E@std@@@4@@nlohmann@@QAE@W4value_t@detail@2@@Z 0042ef70 f i ui_control.obj
 0001:0002e0e0       ??0other_error@detail@nlohmann@@QAE@ABV012@@Z 0042f0e0 f i ui_control.obj
 0001:0002e150       ??0out_of_range@detail@nlohmann@@QAE@ABV012@@Z 0042f150 f i ui_control.obj
 0001:0002e1c0       ??0parse_error@detail@nlohmann@@QAE@ABV012@@Z 0042f1c0 f i ui_control.obj
 0001:0002e230       ??0sentry@?$basic_ostream@DU?$char_traits@D@std@@@std@@QAE@AAV12@@Z 0042f230 f i ui_control.obj
 0001:0002e2d0       ??0type_error@detail@nlohmann@@QAE@ABV012@@Z 0042f2d0 f i ui_control.obj
 0001:0002e340       ??1?$_Func_class@_NHW4parse_event_t@detail@nlohmann@@AAV?$basic_json@Uordered_map@nlohmann@@Vvector@std@@V?$basic_string@DU?$char_traits@D@std@@V?$allocator@D@2@@4@_N_J_KNVallocator@4@Uadl_serializer@2@V?$vector@EV?$allocator@E@std@@@4@@3@@std@@QAE@XZ 0042f340 f i ui_control.obj
 0001:0002e340       ??1?$_Func_class@_NHW4parse_event_t@detail@nlohmann@@AAV?$basic_json@Vmap@std@@Vvector@2@V?$basic_string@DU?$char_traits@D@std@@V?$allocator@D@2@@2@_N_J_KNVallocator@2@Uadl_serializer@nlohmann@@V?$vector@EV?$allocator@E@std@@@2@@3@@std@@QAE@XZ 0042f340 f i userprofile.obj
 0001:0002e340       ??1?$function@$$A6AXXZ@std@@QAE@XZ 0042f340 f i update_checker.obj
 0001:0002e340       ??1?$function@$$A6A_NHW4parse_event_t@detail@nlohmann@@AAV?$basic_json@Uordered_map@nlohmann@@Vvector@std@@V?$basic_string@DU?$char_traits@D@std@@V?$allocator@D@2@@4@_N_J_KNVallocator@4@Uadl_serializer@2@V?$vector@EV?$allocator@E@std@@@4@@3@@Z@std@@QAE@XZ 0042f340 f i ui_control.obj
 0001:0002e340       ??1?$function@$$A6A_NHW4parse_event_t@detail@nlohmann@@AAV?$basic_json@Vmap@std@@Vvector@2@V?$basic_string@DU?$char_traits@D@std@@V?$allocator@D@2@@2@_N_J_KNVallocator@2@Uadl_serializer@nlohmann@@V?$vector@EV?$allocator@E@std@@@2@@3@@Z@std@@QAE@XZ 0042f340 f i userprofile.obj
 0001:0002e370       ??1?$_Tidy_guard@V?$vector@U?$pair@$$CBV?$basic_string@DU?$char_traits@D@std@@V?$allocator@D@2@@std@@V?$basic_json@Uordered_map@nlohmann@@Vvector@std@@V?$basic_string@DU?$char_traits@D@std@@V?$allocator@D@2@@4@_N_J_KNVallocator@4@Uadl_serializer@2@V?$vector@EV?$allocator@E@std@@@4@@nlohmann@@@std@@V?$allocator@U?$pair@$$CBV?$basic_string@DU?$char_traits@D@std@@V?$allocator@D@2@@std@@V?$basic_json@Uordered_map@nlohmann@@Vvector@std@@V?$basic_string@DU?$char_traits@D@std@@V?$allocator@D@2@@4@_N_J_KNVallocator@4@Uadl_serializer@2@V?$vector@EV?$allocator@E@std@@@4@@nlohmann@@@std@@@2@@std@@@std@@QAE@XZ 0042f370 f i ui_control.obj
 0001:0002e380       ??1?$_Tidy_guard@V?$vector@V?$basic_json@Uordered_map@nlohmann@@Vvector@std@@V?$basic_string@DU?$char_traits@D@std@@V?$allocator@D@2@@4@_N_J_KNVallocator@4@Uadl_serializer@2@V?$vector@EV?$allocator@E@std@@@4@@nlohmann@@V?$allocator@V?$basic_json@Uordered_map@nlohmann@@Vvector@std@@V?$basic_string@DU?$char_traits@D@std@@V?$allocator@D@2@@4@_N_J_KNVallocator@4@Uadl_serializer@2@V?$vector@EV?$allocator@E@std@@@4@@nlohmann@@@std@@@std@@@std@@QAE@XZ 0042f380 f i ui_control.obj
 0001:0002e390       ??1?$_Uninitialized_backout_al@V?$allocator@U?$pair@$$CBV?$basic_string@DU?$char_traits@D@std@@V?$allocator@D@2@@std@@V?$basic_json@Uordered_map@nlohmann@@Vvector@std@@V?$basic_string@DU?$char_traits@D@std@@V?$allocator@D@2@@4@_N_J_KNVallocator@4@Uadl_serializer@2@V?$vector@EV?$allocator@E@std@@@4@@nlohmann@@@std@@@std@@@std@@QAE@XZ 0042f390 f i ui_control.obj
 0001:0002e3c0       ??1?$_Uninitialized_backout_al@V?$allocator@V?$basic_json@Uordered_map@nlohmann@@Vvector@std@@V?$basic_string@DU?$char_traits@D@std@@V?$allocator@D@2@@4@_N_J_KNVallocator@4@Uadl_serializer@2@V?$vector@EV?$allocator@E@std@@@4@@nlohmann@@@std@@@std@@QAE@XZ 0042f3c0 f i ui_control.obj
 0001:0002e3f0       ??1?$_Yarn@D@std@@QAE@XZ   0042f3f0 f i ui_control.obj
 0001:0002e3f0       ??1?$_Yarn@_W@std@@QAE@XZ  0042f3f0 f i ui_control.obj
 0001:0002e410       ??1?$basic_filebuf@DU?$char_traits@D@std@@@std@@UAE@XZ 0042f410 f i ui_control.obj
 0001:0002e560       ??1?$basic_ios@DU?$char_traits@D@std@@@std@@UAE@XZ 0042f560 f i ui_control.obj
 0001:0002e5b0       ??1?$basic_istream@DU?$char_traits@D@std@@@std@@UAE@XZ 0042f5b0 f i ui_control.obj
 0001:0002e5d0       ??1?$basic_json@Uordered_map@nlohmann@@Vvector@std@@V?$basic_string@DU?$char_traits@D@std@@V?$allocator@D@2@@4@_N_J_KNVallocator@4@Uadl_serializer@2@V?$vector@EV?$allocator@E@std@@@4@@nlohmann@@QAE@XZ 0042f5d0 f i ui_control.obj
 0001:0002e5d0       ??1?$json_ref@V?$basic_json@Uordered_map@nlohmann@@Vvector@std@@V?$basic_string@DU?$char_traits@D@std@@V?$allocator@D@2@@4@_N_J_KNVallocator@4@Uadl_serializer@2@V?$vector@EV?$allocator@E@std@@@4@@nlohmann@@@detail@nlohmann@@QAE@XZ 0042f5d0 f i ui_control.obj
 0001:0002e5e0       ??1?$basic_ostream@DU?$char_traits@D@std@@@std@@UAE@XZ 0042f5e0 f i ui_control.obj
 0001:0002e600       ??1?$com_ptr_t@UIRegisteredTask@@Uerr_exception_policy@wil@@@wil@@QAE@XZ 0042f600 f i ui_control.obj
 0001:0002e600       ??1?$com_ptr_t@UIRunningTask@@Uerr_exception_policy@wil@@@wil@@QAE@XZ 0042f600 f i ui_control.obj
 0001:0002e600       ??1?$com_ptr_t@UITaskFolder@@Uerr_exception_policy@wil@@@wil@@QAE@XZ 0042f600 f i ui_control.obj
 0001:0002e600       ??1?$com_ptr_t@UITaskService@@Uerr_exception_policy@wil@@@wil@@QAE@XZ 0042f600 f i ui_control.obj
 0001:0002e650       ??1?$iteration_proxy_value@V?$iter_impl@$$CBV?$basic_json@Uordered_map@nlohmann@@Vvector@std@@V?$basic_string@DU?$char_traits@D@std@@V?$allocator@D@2@@4@_N_J_KNVallocator@4@Uadl_serializer@2@V?$vector@EV?$allocator@E@std@@@4@@nlohmann@@@detail@nlohmann@@@detail@nlohmann@@QAE@XZ 0042f650 f i ui_control.obj
 0001:0002e650       ??1?$iteration_proxy_value@V?$iter_impl@$$CBV?$basic_json@Vmap@std@@Vvector@2@V?$basic_string@DU?$char_traits@D@std@@V?$allocator@D@2@@2@_N_J_KNVallocator@2@Uadl_serializer@nlohmann@@V?$vector@EV?$allocator@E@std@@@2@@nlohmann@@@detail@nlohmann@@@detail@nlohmann@@QAE@XZ 0042f650 f i userprofile.obj
 0001:0002e670       ??1?$json_sax_dom_callback_parser@V?$basic_json@Uordered_map@nlohmann@@Vvector@std@@V?$basic_string@DU?$char_traits@D@std@@V?$allocator@D@2@@4@_N_J_KNVallocator@4@Uadl_serializer@2@V?$vector@EV?$allocator@E@std@@@4@@nlohmann@@@detail@nlohmann@@QAE@XZ 0042f670 f i ui_control.obj
 0001:0002e6c0       ??1?$json_sax_dom_parser@V?$basic_json@Uordered_map@nlohmann@@Vvector@std@@V?$basic_string@DU?$char_traits@D@std@@V?$allocator@D@2@@4@_N_J_KNVallocator@4@Uadl_serializer@2@V?$vector@EV?$allocator@E@std@@@4@@nlohmann@@@detail@nlohmann@@QAE@XZ 0042f6c0 f i ui_control.obj
 0001:0002e6c0       ??1?$json_sax_dom_parser@V?$basic_json@Vmap@std@@Vvector@2@V?$basic_string@DU?$char_traits@D@std@@V?$allocator@D@2@@2@_N_J_KNVallocator@2@Uadl_serializer@nlohmann@@V?$vector@EV?$allocator@E@std@@@2@@nlohmann@@@detail@nlohmann@@QAE@XZ 0042f6c0 f i userprofile.obj
 0001:0002e700       ??1?$lexer@V?$basic_json@Uordered_map@nlohmann@@Vvector@std@@V?$basic_string@DU?$char_traits@D@std@@V?$allocator@D@2@@4@_N_J_KNVallocator@4@Uadl_serializer@2@V?$vector@EV?$allocator@E@std@@@4@@nlohmann@@Vinput_stream_adapter@detail@2@@detail@nlohmann@@QAE@XZ 0042f700 f i ui_control.obj
 0001:0002e700       ??1?$lexer@V?$basic_json@Vmap@std@@Vvector@2@V?$basic_string@DU?$char_traits@D@std@@V?$allocator@D@2@@2@_N_J_KNVallocator@2@Uadl_serializer@nlohmann@@V?$vector@EV?$allocator@E@std@@@2@@nlohmann@@Vinput_stream_adapter@detail@2@@detail@nlohmann@@QAE@XZ 0042f700 f i userprofile.obj
 0001:0002e720       ??1?$parser@V?$basic_json@Uordered_map@nlohmann@@Vvector@std@@V?$basic_string@DU?$char_traits@D@std@@V?$allocator@D@2@@4@_N_J_KNVallocator@4@Uadl_serializer@2@V?$vector@EV?$allocator@E@std@@@4@@nlohmann@@Vinput_stream_adapter@detail@2@@detail@nlohmann@@QAE@XZ 0042f720 f i ui_control.obj
 0001:0002e720       ??1?$parser@V?$basic_json@Vmap@std@@Vvector@2@V?$basic_string@DU?$char_traits@D@std@@V?$allocator@D@2@@2@_N_J_KNVallocator@2@Uadl_serializer@nlohmann@@V?$vector@EV?$allocator@E@std@@@2@@nlohmann@@Vinput_stream_adapter@detail@2@@detail@nlohmann@@QAE@XZ 0042f720 f i userprofile.obj
 0001:0002e760       ??1?$serializer@V?$basic_json@Uordered_map@nlohmann@@Vvector@std@@V?$basic_string@DU?$char_traits@D@std@@V?$allocator@D@2@@4@_N_J_KNVallocator@4@Uadl_serializer@2@V?$vector@EV?$allocator@E@std@@@4@@nlohmann@@@detail@nlohmann@@QAE@XZ 0042f760 f i ui_control.obj
 0001:0002e760       ??1?$serializer@V?$basic_json@Vmap@std@@Vvector@2@V?$basic_string@DU?$char_traits@D@std@@V?$allocator@D@2@@2@_N_J_KNVallocator@2@Uadl_serializer@nlohmann@@V?$vector@EV?$allocator@E@std@@@2@@nlohmann@@@detail@nlohmann@@QAE@XZ 0042f760 f i userprofile.obj
 0001:0002e7a0       ??1?$unique_any_t@V?$unique_storage@U?$resource_policy@PA_WP6GXPA_W@Z$1?SysFreeString@@YGX0@ZU?$integral_constant@I$0A@@wistd@@PA_WPA_W$0A@$$T@details@wil@@@details@wil@@@wil@@QAE@XZ 0042f7a0 f i ui_control.obj
 0001:0002e7b0       ??1?$unique_ptr@U?$ordered_map@V?$basic_string@DU?$char_traits@D@std@@V?$allocator@D@2@@std@@V?$basic_json@Uordered_map@nlohmann@@Vvector@std@@V?$basic_string@DU?$char_traits@D@std@@V?$allocator@D@2@@4@_N_J_KNVallocator@4@Uadl_serializer@2@V?$vector@EV?$allocator@E@std@@@4@@nlohmann@@U?$less@X@2@V?$allocator@U?$pair@$$CBV?$basic_string@DU?$char_traits@D@std@@V?$allocator@D@2@@std@@V?$basic_json@Uordered_map@nlohmann@@Vvector@std@@V?$basic_string@DU?$char_traits@D@std@@V?$allocator@D@2@@4@_N_J_KNVallocator@4@Uadl_serializer@2@V?$vector@EV?$allocator@E@std@@@4@@nlohmann@@@std@@@2@@nlohmann@@V<lambda_1>@?1???$create@U?$ordered_map@V?$basic_string@DU?$char_traits@D@std@@V?$allocator@D@2@@std@@V?$basic_json@Uordered_map@nlohmann@@Vvector@std@@V?$basic_string@DU?$char_traits@D@std@@V?$allocator@D@2@@4@_N_J_KNVallocator@4@Uadl_serializer@2@V?$vector@EV?$allocator@E@std@@@4@@nlohmann@@U?$less@X@2@V?$allocator@U?$pair@$$CBV?$basic_string@DU?$char_traits@D@std@@V?$allocator@D@2@@std@@V?$basic_json@Uordered_map@nlohmann@@Vvector@std@@V?$basic_string@DU?$char_traits@D@std@@V?$allocator@D@2@@4@_N_J_KNVallocator@4@Uadl_serializer@2@V?$vector@EV?$allocator@E@std@@@4@@nlohmann@@@std@@@2@@nlohmann@@ABU12@@?$basic_json@Uordered_map@nlohmann@@Vvector@std@@V?$basic_string@DU?$char_traits@D@std@@V?$allocator@D@2@@4@_N_J_KNVallocator@4@Uadl_serializer@2@V?$vector@EV?$allocator@E@std@@@4@@2@CAPAU12@ABU12@@Z@@std@@QAE@XZ 0042f7b0 f i ui_control.obj
 0001:0002e7b0       ??1?$unique_ptr@V?$vector@V?$basic_json@Uordered_map@nlohmann@@Vvector@std@@V?$basic_string@DU?$char_traits@D@std@@V?$allocator@D@2@@4@_N_J_KNVallocator@4@Uadl_serializer@2@V?$vector@EV?$allocator@E@std@@@4@@nlohmann@@V?$allocator@V?$basic_json@Uordered_map@nlohmann@@Vvector@std@@V?$basic_string@DU?$char_traits@D@std@@V?$allocator@D@2@@4@_N_J_KNVallocator@4@Uadl_serializer@2@V?$vector@EV?$allocator@E@std@@@4@@nlohmann@@@std@@@std@@V<lambda_1>@?1???$create@V?$vector@V?$basic_json@Uordered_map@nlohmann@@Vvector@std@@V?$basic_string@DU?$char_traits@D@std@@V?$allocator@D@2@@4@_N_J_KNVallocator@4@Uadl_serializer@2@V?$vector@EV?$allocator@E@std@@@4@@nlohmann@@V?$allocator@V?$basic_json@Uordered_map@nlohmann@@Vvector@std@@V?$basic_string@DU?$char_traits@D@std@@V?$allocator@D@2@@4@_N_J_KNVallocator@4@Uadl_serializer@2@V?$vector@EV?$allocator@E@std@@@4@@nlohmann@@@std@@@std@@ABV12@@?$basic_json@Uordered_map@nlohmann@@Vvector@std@@V?$basic_string@DU?$char_traits@D@std@@V?$allocator@D@2@@4@_N_J_KNVallocator@4@Uadl_serializer@2@V?$vector@EV?$allocator@E@std@@@4@@nlohmann@@CAPAV12@ABV12@@Z@@std@@QAE@XZ 0042f7b0 f i ui_control.obj
 0001:0002e7b0       ??1?$unique_ptr@V?$vector@V?$basic_json@Uordered_map@nlohmann@@Vvector@std@@V?$basic_string@DU?$char_traits@D@std@@V?$allocator@D@2@@4@_N_J_KNVallocator@4@Uadl_serializer@2@V?$vector@EV?$allocator@E@std@@@4@@nlohmann@@V?$allocator@V?$basic_json@Uordered_map@nlohmann@@Vvector@std@@V?$basic_string@DU?$char_traits@D@std@@V?$allocator@D@2@@4@_N_J_KNVallocator@4@Uadl_serializer@2@V?$vector@EV?$allocator@E@std@@@4@@nlohmann@@@std@@@std@@V<lambda_1>@?1???$create@V?$vector@V?$basic_json@Uordered_map@nlohmann@@Vvector@std@@V?$basic_string@DU?$char_traits@D@std@@V?$allocator@D@2@@4@_N_J_KNVallocator@4@Uadl_serializer@2@V?$vector@EV?$allocator@E@std@@@4@@nlohmann@@V?$allocator@V?$basic_json@Uordered_map@nlohmann@@Vvector@std@@V?$basic_string@DU?$char_traits@D@std@@V?$allocator@D@2@@4@_N_J_KNVallocator@4@Uadl_serializer@2@V?$vector@EV?$allocator@E@std@@@4@@nlohmann@@@std@@@std@@PBV?$json_ref@V?$basic_json@Uordered_map@nlohmann@@Vvector@std@@V?$basic_string@DU?$char_traits@D@std@@V?$allocator@D@2@@4@_N_J_KNVallocator@4@Uadl_serializer@2@V?$vector@EV?$allocator@E@std@@@4@@nlohmann@@@detail@nlohmann@@PBV345@@?$basic_json@Uordered_map@nlohmann@@Vvector@std@@V?$basic_string@DU?$char_traits@D@std@@V?$allocator@D@2@@4@_N_J_KNVallocator@4@Uadl_serializer@2@V?$vector@EV?$allocator@E@std@@@4@@nlohmann@@CAPAV12@$$QAPBV?$json_ref@V?$basic_json@Uordered_map@nlohmann@@Vvector@std@@V?$basic_string@DU?$char_traits@D@std@@V?$allocator@D@2@@4@_N_J_KNVallocator@4@Uadl_serializer@2@V?$vector@EV?$allocator@E@std@@@4@@nlohmann@@@detail@5@0@Z@@std@@QAE@XZ 0042f7b0 f i ui_control.obj
 0001:0002e7b0       ??1?$unique_ptr@V?$vector@V?$basic_json@Vmap@std@@Vvector@2@V?$basic_string@DU?$char_traits@D@std@@V?$allocator@D@2@@2@_N_J_KNVallocator@2@Uadl_serializer@nlohmann@@V?$vector@EV?$allocator@E@std@@@2@@nlohmann@@V?$allocator@V?$basic_json@Vmap@std@@Vvector@2@V?$basic_string@DU?$char_traits@D@std@@V?$allocator@D@2@@2@_N_J_KNVallocator@2@Uadl_serializer@nlohmann@@V?$vector@EV?$allocator@E@std@@@2@@nlohmann@@@std@@@std@@V<lambda_1>@?1???$create@V?$vector@V?$basic_json@Vmap@std@@Vvector@2@V?$basic_string@DU?$char_traits@D@std@@V?$allocator@D@2@@2@_N_J_KNVallocator@2@Uadl_serializer@nlohmann@@V?$vector@EV?$allocator@E@std@@@2@@nlohmann@@V?$allocator@V?$basic_json@Vmap@std@@Vvector@2@V?$basic_string@DU?$char_traits@D@std@@V?$allocator@D@2@@2@_N_J_KNVallocator@2@Uadl_serializer@nlohmann@@V?$vector@EV?$allocator@E@std@@@2@@nlohmann@@@std@@@std@@ABV12@@?$basic_json@Vmap@std@@Vvector@2@V?$basic_string@DU?$char_traits@D@std@@V?$allocator@D@2@@2@_N_J_KNVallocator@2@Uadl_serializer@nlohmann@@V?$vector@EV?$allocator@E@std@@@2@@nlohmann@@CAPAV12@ABV12@@Z@@std@@QAE@XZ 0042f7b0 f i userprofile.obj
 0001:0002e7b0       ??1?$unique_ptr@V?$vector@V?$basic_json@Vmap@std@@Vvector@2@V?$basic_string@DU?$char_traits@D@std@@V?$allocator@D@2@@2@_N_J_KNVallocator@2@Uadl_serializer@nlohmann@@V?$vector@EV?$allocator@E@std@@@2@@nlohmann@@V?$allocator@V?$basic_json@Vmap@std@@Vvector@2@V?$basic_string@DU?$char_traits@D@std@@V?$allocator@D@2@@2@_N_J_KNVallocator@2@Uadl_serializer@nlohmann@@V?$vector@EV?$allocator@E@std@@@2@@nlohmann@@@std@@@std@@V<lambda_1>@?1???$create@V?$vector@V?$basic_json@Vmap@std@@Vvector@2@V?$basic_string@DU?$char_traits@D@std@@V?$allocator@D@2@@2@_N_J_KNVallocator@2@Uadl_serializer@nlohmann@@V?$vector@EV?$allocator@E@std@@@2@@nlohmann@@V?$allocator@V?$basic_json@Vmap@std@@Vvector@2@V?$basic_string@DU?$char_traits@D@std@@V?$allocator@D@2@@2@_N_J_KNVallocator@2@Uadl_serializer@nlohmann@@V?$vector@EV?$allocator@E@std@@@2@@nlohmann@@@std@@@std@@PBV?$json_ref@V?$basic_json@Vmap@std@@Vvector@2@V?$basic_string@DU?$char_traits@D@std@@V?$allocator@D@2@@2@_N_J_KNVallocator@2@Uadl_serializer@nlohmann@@V?$vector@EV?$allocator@E@std@@@2@@nlohmann@@@detail@nlohmann@@PBV345@@?$basic_json@Vmap@std@@Vvector@2@V?$basic_string@DU?$char_traits@D@std@@V?$allocator@D@2@@2@_N_J_KNVallocator@2@Uadl_serializer@nlohmann@@V?$vector@EV?$allocator@E@std@@@2@@nlohmann@@CAPAV12@$$QAPBV?$json_ref@V?$basic_json@Vmap@std@@Vvector@2@V?$basic_string@DU?$char_traits@D@std@@V?$allocator@D@2@@2@_N_J_KNVallocator@2@Uadl_serializer@nlohmann@@V?$vector@EV?$allocator@E@std@@@2@@nlohmann@@@detail@5@0@Z@@std@@QAE@XZ 0042f7b0 f i userprofile.obj
 0001:0002e7d0       ??1?$unique_ptr@V?$basic_string@DU?$char_traits@D@std@@V?$allocator@D@2@@std@@V<lambda_1>@?1???$create@V?$basic_string@DU?$char_traits@D@std@@V?$allocator@D@2@@std@@AAY00$$CBD@?$basic_json@Uordered_map@nlohmann@@Vvector@std@@V?$basic_string@DU?$char_traits@D@std@@V?$allocator@D@2@@4@_N_J_KNVallocator@4@Uadl_serializer@2@V?$vector@EV?$allocator@E@std@@@4@@nlohmann@@CAPAV12@AAY00$$CBD@Z@@std@@QAE@XZ 0042f7d0 f i ui_control.obj
 0001:0002e7d0       ??1?$unique_ptr@V?$basic_string@DU?$char_traits@D@std@@V?$allocator@D@2@@std@@V<lambda_1>@?1???$create@V?$basic_string@DU?$char_traits@D@std@@V?$allocator@D@2@@std@@AAY00$$CBD@?$basic_json@Vmap@std@@Vvector@2@V?$basic_string@DU?$char_traits@D@std@@V?$allocator@D@2@@2@_N_J_KNVallocator@2@Uadl_serializer@nlohmann@@V?$vector@EV?$allocator@E@std@@@2@@nlohmann@@CAPAV12@AAY00$$CBD@Z@@std@@QAE@XZ 0042f7d0 f i userprofile.obj
 0001:0002e7d0       ??1?$unique_ptr@V?$basic_string@DU?$char_traits@D@std@@V?$allocator@D@2@@std@@V<lambda_1>@?1???$create@V?$basic_string@DU?$char_traits@D@std@@V?$allocator@D@2@@std@@AAY03$$CBD@?$basic_json@Uordered_map@nlohmann@@Vvector@std@@V?$basic_string@DU?$char_traits@D@std@@V?$allocator@D@2@@4@_N_J_KNVallocator@4@Uadl_serializer@2@V?$vector@EV?$allocator@E@std@@@4@@nlohmann@@CAPAV12@AAY03$$CBD@Z@@std@@QAE@XZ 0042f7d0 f i ui_control.obj
 0001:0002e7d0       ??1?$unique_ptr@V?$basic_string@DU?$char_traits@D@std@@V?$allocator@D@2@@std@@V<lambda_1>@?1???$create@V?$basic_string@DU?$char_traits@D@std@@V?$allocator@D@2@@std@@AAY04$$CBD@?$basic_json@Uordered_map@nlohmann@@Vvector@std@@V?$basic_string@DU?$char_traits@D@std@@V?$allocator@D@2@@4@_N_J_KNVallocator@4@Uadl_serializer@2@V?$vector@EV?$allocator@E@std@@@4@@nlohmann@@CAPAV12@AAY04$$CBD@Z@@std@@QAE@XZ 0042f7d0 f i ui_control.obj
 0001:0002e7d0       ??1?$unique_ptr@V?$basic_string@DU?$char_traits@D@std@@V?$allocator@D@2@@std@@V<lambda_1>@?1???$create@V?$basic_string@DU?$char_traits@D@std@@V?$allocator@D@2@@std@@AAY05$$CBD@?$basic_json@Vmap@std@@Vvector@2@V?$basic_string@DU?$char_traits@D@std@@V?$allocator@D@2@@2@_N_J_KNVallocator@2@Uadl_serializer@nlohmann@@V?$vector@EV?$allocator@E@std@@@2@@nlohmann@@CAPAV12@AAY05$$CBD@Z@@std@@QAE@XZ 0042f7d0 f i userprofile.obj
 0001:0002e7d0       ??1?$unique_ptr@V?$basic_string@DU?$char_traits@D@std@@V?$allocator@D@2@@std@@V<lambda_1>@?1???$create@V?$basic_string@DU?$char_traits@D@std@@V?$allocator@D@2@@std@@AAY07$$CBD@?$basic_json@Uordered_map@nlohmann@@Vvector@std@@V?$basic_string@DU?$char_traits@D@std@@V?$allocator@D@2@@4@_N_J_KNVallocator@4@Uadl_serializer@2@V?$vector@EV?$allocator@E@std@@@4@@nlohmann@@CAPAV12@AAY07$$CBD@Z@@std@@QAE@XZ 0042f7d0 f i ui_control.obj
 0001:0002e7d0       ??1?$unique_ptr@V?$basic_string@DU?$char_traits@D@std@@V?$allocator@D@2@@std@@V<lambda_1>@?1???$create@V?$basic_string@DU?$char_traits@D@std@@V?$allocator@D@2@@std@@AAY0BB@$$CBD@?$basic_json@Uordered_map@nlohmann@@Vvector@std@@V?$basic_string@DU?$char_traits@D@std@@V?$allocator@D@2@@4@_N_J_KNVallocator@4@Uadl_serializer@2@V?$vector@EV?$allocator@E@std@@@4@@nlohmann@@CAPAV12@AAY0BB@$$CBD@Z@@std@@QAE@XZ 0042f7d0 f i ui_control.obj
 0001:0002e7d0       ??1?$unique_ptr@V?$basic_string@DU?$char_traits@D@std@@V?$allocator@D@2@@std@@V<lambda_1>@?1???$create@V?$basic_string@DU?$char_traits@D@std@@V?$allocator@D@2@@std@@AAY0BE@$$CBD@?$basic_json@Uordered_map@nlohmann@@Vvector@std@@V?$basic_string@DU?$char_traits@D@std@@V?$allocator@D@2@@4@_N_J_KNVallocator@4@Uadl_serializer@2@V?$vector@EV?$allocator@E@std@@@4@@nlohmann@@CAPAV12@AAY0BE@$$CBD@Z@@std@@QAE@XZ 0042f7d0 f i ui_control.obj
 0001:0002e7d0       ??1?$unique_ptr@V?$basic_string@DU?$char_traits@D@std@@V?$allocator@D@2@@std@@V<lambda_1>@?1???$create@V?$basic_string@DU?$char_traits@D@std@@V?$allocator@D@2@@std@@AAY0BG@$$CBD@?$basic_json@Uordered_map@nlohmann@@Vvector@std@@V?$basic_string@DU?$char_traits@D@std@@V?$allocator@D@2@@4@_N_J_KNVallocator@4@Uadl_serializer@2@V?$vector@EV?$allocator@E@std@@@4@@nlohmann@@CAPAV12@AAY0BG@$$CBD@Z@@std@@QAE@XZ 0042f7d0 f i ui_control.obj
 0001:0002e7d0       ??1?$unique_ptr@V?$basic_string@DU?$char_traits@D@std@@V?$allocator@D@2@@std@@V<lambda_1>@?1???$create@V?$basic_string@DU?$char_traits@D@std@@V?$allocator@D@2@@std@@AAY0BH@$$CBD@?$basic_json@Uordered_map@nlohmann@@Vvector@std@@V?$basic_string@DU?$char_traits@D@std@@V?$allocator@D@2@@4@_N_J_KNVallocator@4@Uadl_serializer@2@V?$vector@EV?$allocator@E@std@@@4@@nlohmann@@CAPAV12@AAY0BH@$$CBD@Z@@std@@QAE@XZ 0042f7d0 f i ui_control.obj
 0001:0002e7d0       ??1?$unique_ptr@V?$basic_string@DU?$char_traits@D@std@@V?$allocator@D@2@@std@@V<lambda_1>@?1???$create@V?$basic_string@DU?$char_traits@D@std@@V?$allocator@D@2@@std@@AAY0BI@$$CBD@?$basic_json@Uordered_map@nlohmann@@Vvector@std@@V?$basic_string@DU?$char_traits@D@std@@V?$allocator@D@2@@4@_N_J_KNVallocator@4@Uadl_serializer@2@V?$vector@EV?$allocator@E@std@@@4@@nlohmann@@CAPAV12@AAY0BI@$$CBD@Z@@std@@QAE@XZ 0042f7d0 f i ui_control.obj
 0001:0002e7d0       ??1?$unique_ptr@V?$basic_string@DU?$char_traits@D@std@@V?$allocator@D@2@@std@@V<lambda_1>@?1???$create@V?$basic_string@DU?$char_traits@D@std@@V?$allocator@D@2@@std@@AAY0BJ@$$CBD@?$basic_json@Uordered_map@nlohmann@@Vvector@std@@V?$basic_string@DU?$char_traits@D@std@@V?$allocator@D@2@@4@_N_J_KNVallocator@4@Uadl_serializer@2@V?$vector@EV?$allocator@E@std@@@4@@nlohmann@@CAPAV12@AAY0BJ@$$CBD@Z@@std@@QAE@XZ 0042f7d0 f i ui_control.obj
 0001:0002e7d0       ??1?$unique_ptr@V?$basic_string@DU?$char_traits@D@std@@V?$allocator@D@2@@std@@V<lambda_1>@?1???$create@V?$basic_string@DU?$char_traits@D@std@@V?$allocator@D@2@@std@@AAY0BK@$$CBD@?$basic_json@Uordered_map@nlohmann@@Vvector@std@@V?$basic_string@DU?$char_traits@D@std@@V?$allocator@D@2@@4@_N_J_KNVallocator@4@Uadl_serializer@2@V?$vector@EV?$allocator@E@std@@@4@@nlohmann@@CAPAV12@AAY0BK@$$CBD@Z@@std@@QAE@XZ 0042f7d0 f i ui_control.obj
 0001:0002e7d0       ??1?$unique_ptr@V?$basic_string@DU?$char_traits@D@std@@V?$allocator@D@2@@std@@V<lambda_1>@?1???$create@V?$basic_string@DU?$char_traits@D@std@@V?$allocator@D@2@@std@@AAY0BM@$$CBD@?$basic_json@Uordered_map@nlohmann@@Vvector@std@@V?$basic_string@DU?$char_traits@D@std@@V?$allocator@D@2@@4@_N_J_KNVallocator@4@Uadl_serializer@2@V?$vector@EV?$allocator@E@std@@@4@@nlohmann@@CAPAV12@AAY0BM@$$CBD@Z@@std@@QAE@XZ 0042f7d0 f i ui_control.obj
 0001:0002e7d0       ??1?$unique_ptr@V?$basic_string@DU?$char_traits@D@std@@V?$allocator@D@2@@std@@V<lambda_1>@?1???$create@V?$basic_string@DU?$char_traits@D@std@@V?$allocator@D@2@@std@@AAY0BO@$$CBD@?$basic_json@Uordered_map@nlohmann@@Vvector@std@@V?$basic_string@DU?$char_traits@D@std@@V?$allocator@D@2@@4@_N_J_KNVallocator@4@Uadl_serializer@2@V?$vector@EV?$allocator@E@std@@@4@@nlohmann@@CAPAV12@AAY0BO@$$CBD@Z@@std@@QAE@XZ 0042f7d0 f i ui_control.obj
 0001:0002e7d0       ??1?$unique_ptr@V?$basic_string@DU?$char_traits@D@std@@V?$allocator@D@2@@std@@V<lambda_1>@?1???$create@V?$basic_string@DU?$char_traits@D@std@@V?$allocator@D@2@@std@@AAY0CA@$$CBD@?$basic_json@Uordered_map@nlohmann@@Vvector@std@@V?$basic_string@DU?$char_traits@D@std@@V?$allocator@D@2@@4@_N_J_KNVallocator@4@Uadl_serializer@2@V?$vector@EV?$allocator@E@std@@@4@@nlohmann@@CAPAV12@AAY0CA@$$CBD@Z@@std@@QAE@XZ 0042f7d0 f i ui_control.obj
 0001:0002e7d0       ??1?$unique_ptr@V?$basic_string@DU?$char_traits@D@std@@V?$allocator@D@2@@std@@V<lambda_1>@?1???$create@V?$basic_string@DU?$char_traits@D@std@@V?$allocator@D@2@@std@@AAY0CB@$$CBD@?$basic_json@Uordered_map@nlohmann@@Vvector@std@@V?$basic_string@DU?$char_traits@D@std@@V?$allocator@D@2@@4@_N_J_KNVallocator@4@Uadl_serializer@2@V?$vector@EV?$allocator@E@std@@@4@@nlohmann@@CAPAV12@AAY0CB@$$CBD@Z@@std@@QAE@XZ 0042f7d0 f i ui_control.obj
 0001:0002e7d0       ??1?$unique_ptr@V?$basic_string@DU?$char_traits@D@std@@V?$allocator@D@2@@std@@V<lambda_1>@?1???$create@V?$basic_string@DU?$char_traits@D@std@@V?$allocator@D@2@@std@@AAY0CC@$$CBD@?$basic_json@Uordered_map@nlohmann@@Vvector@std@@V?$basic_string@DU?$char_traits@D@std@@V?$allocator@D@2@@4@_N_J_KNVallocator@4@Uadl_serializer@2@V?$vector@EV?$allocator@E@std@@@4@@nlohmann@@CAPAV12@AAY0CC@$$CBD@Z@@std@@QAE@XZ 0042f7d0 f i ui_control.obj
 0001:0002e7d0       ??1?$unique_ptr@V?$basic_string@DU?$char_traits@D@std@@V?$allocator@D@2@@std@@V<lambda_1>@?1???$create@V?$basic_string@DU?$char_traits@D@std@@V?$allocator@D@2@@std@@AAY0CN@$$CBD@?$basic_json@Uordered_map@nlohmann@@Vvector@std@@V?$basic_string@DU?$char_traits@D@std@@V?$allocator@D@2@@4@_N_J_KNVallocator@4@Uadl_serializer@2@V?$vector@EV?$allocator@E@std@@@4@@nlohmann@@CAPAV12@AAY0CN@$$CBD@Z@@std@@QAE@XZ 0042f7d0 f i ui_control.obj
 0001:0002e7d0       ??1?$unique_ptr@V?$basic_string@DU?$char_traits@D@std@@V?$allocator@D@2@@std@@V<lambda_1>@?1???$create@V?$basic_string@DU?$char_traits@D@std@@V?$allocator@D@2@@std@@AAY0CP@$$CBD@?$basic_json@Uordered_map@nlohmann@@Vvector@std@@V?$basic_string@DU?$char_traits@D@std@@V?$allocator@D@2@@4@_N_J_KNVallocator@4@Uadl_serializer@2@V?$vector@EV?$allocator@E@std@@@4@@nlohmann@@CAPAV12@AAY0CP@$$CBD@Z@@std@@QAE@XZ 0042f7d0 f i ui_control.obj
 0001:0002e7d0       ??1?$unique_ptr@V?$basic_string@DU?$char_traits@D@std@@V?$allocator@D@2@@std@@V<lambda_1>@?1???$create@V?$basic_string@DU?$char_traits@D@std@@V?$allocator@D@2@@std@@AAY0DD@$$CBD@?$basic_json@Uordered_map@nlohmann@@Vvector@std@@V?$basic_string@DU?$char_traits@D@std@@V?$allocator@D@2@@4@_N_J_KNVallocator@4@Uadl_serializer@2@V?$vector@EV?$allocator@E@std@@@4@@nlohmann@@CAPAV12@AAY0DD@$$CBD@Z@@std@@QAE@XZ 0042f7d0 f i ui_control.obj
 0001:0002e7d0       ??1?$unique_ptr@V?$basic_string@DU?$char_traits@D@std@@V?$allocator@D@2@@std@@V<lambda_1>@?1???$create@V?$basic_string@DU?$char_traits@D@std@@V?$allocator@D@2@@std@@AAY0EO@$$CBD@?$basic_json@Uordered_map@nlohmann@@Vvector@std@@V?$basic_string@DU?$char_traits@D@std@@V?$allocator@D@2@@4@_N_J_KNVallocator@4@Uadl_serializer@2@V?$vector@EV?$allocator@E@std@@@4@@nlohmann@@CAPAV12@AAY0EO@$$CBD@Z@@std@@QAE@XZ 0042f7d0 f i ui_control.obj
 0001:0002e7d0       ??1?$unique_ptr@V?$basic_string@DU?$char_traits@D@std@@V?$allocator@D@2@@std@@V<lambda_1>@?1???$create@V?$basic_string@DU?$char_traits@D@std@@V?$allocator@D@2@@std@@AAY0L@$$CBD@?$basic_json@Uordered_map@nlohmann@@Vvector@std@@V?$basic_string@DU?$char_traits@D@std@@V?$allocator@D@2@@4@_N_J_KNVallocator@4@Uadl_serializer@2@V?$vector@EV?$allocator@E@std@@@4@@nlohmann@@CAPAV12@AAY0L@$$CBD@Z@@std@@QAE@XZ 0042f7d0 f i ui_control.obj
 0001:0002e7d0       ??1?$unique_ptr@V?$basic_string@DU?$char_traits@D@std@@V?$allocator@D@2@@std@@V<lambda_1>@?1???$create@V?$basic_string@DU?$char_traits@D@std@@V?$allocator@D@2@@std@@AAY0M@$$CBD@?$basic_json@Uordered_map@nlohmann@@Vvector@std@@V?$basic_string@DU?$char_traits@D@std@@V?$allocator@D@2@@4@_N_J_KNVallocator@4@Uadl_serializer@2@V?$vector@EV?$allocator@E@std@@@4@@nlohmann@@CAPAV12@AAY0M@$$CBD@Z@@std@@QAE@XZ 0042f7d0 f i ui_control.obj
 0001:0002e7d0       ??1?$unique_ptr@V?$basic_string@DU?$char_traits@D@std@@V?$allocator@D@2@@std@@V<lambda_1>@?1???$create@V?$basic_string@DU?$char_traits@D@std@@V?$allocator@D@2@@std@@AAY0N@$$CBD@?$basic_json@Uordered_map@nlohmann@@Vvector@std@@V?$basic_string@DU?$char_traits@D@std@@V?$allocator@D@2@@4@_N_J_KNVallocator@4@Uadl_serializer@2@V?$vector@EV?$allocator@E@std@@@4@@nlohmann@@CAPAV12@AAY0N@$$CBD@Z@@std@@QAE@XZ 0042f7d0 f i ui_control.obj
 0001:0002e7d0       ??1?$unique_ptr@V?$basic_string@DU?$char_traits@D@std@@V?$allocator@D@2@@std@@V<lambda_1>@?1???$create@V?$basic_string@DU?$char_traits@D@std@@V?$allocator@D@2@@std@@AAY0P@$$CBD@?$basic_json@Uordered_map@nlohmann@@Vvector@std@@V?$basic_string@DU?$char_traits@D@std@@V?$allocator@D@2@@4@_N_J_KNVallocator@4@Uadl_serializer@2@V?$vector@EV?$allocator@E@std@@@4@@nlohmann@@CAPAV12@AAY0P@$$CBD@Z@@std@@QAE@XZ 0042f7d0 f i ui_control.obj
 0001:0002e7d0       ??1?$unique_ptr@V?$basic_string@DU?$char_traits@D@std@@V?$allocator@D@2@@std@@V<lambda_1>@?1???$create@V?$basic_string@DU?$char_traits@D@std@@V?$allocator@D@2@@std@@ABV12@@?$basic_json@Uordered_map@nlohmann@@Vvector@std@@V?$basic_string@DU?$char_traits@D@std@@V?$allocator@D@2@@4@_N_J_KNVallocator@4@Uadl_serializer@2@V?$vector@EV?$allocator@E@std@@@4@@nlohmann@@CAPAV12@ABV12@@Z@@std@@QAE@XZ 0042f7d0 f i ui_control.obj
 0001:0002e7d0       ??1?$unique_ptr@V?$basic_string@DU?$char_traits@D@std@@V?$allocator@D@2@@std@@V<lambda_1>@?1???$create@V?$basic_string@DU?$char_traits@D@std@@V?$allocator@D@2@@std@@ABV12@@?$basic_json@Vmap@std@@Vvector@2@V?$basic_string@DU?$char_traits@D@std@@V?$allocator@D@2@@2@_N_J_KNVallocator@2@Uadl_serializer@nlohmann@@V?$vector@EV?$allocator@E@std@@@2@@nlohmann@@CAPAV12@ABV12@@Z@@std@@QAE@XZ 0042f7d0 f i userprofile.obj
 0001:0002e7f0       ??1?$unique_ptr@V?$byte_container_with_subtype@V?$vector@EV?$allocator@E@std@@@std@@@nlohmann@@V<lambda_1>@?1???$create@V?$byte_container_with_subtype@V?$vector@EV?$allocator@E@std@@@std@@@nlohmann@@ABV12@@?$basic_json@Uordered_map@nlohmann@@Vvector@std@@V?$basic_string@DU?$char_traits@D@std@@V?$allocator@D@2@@4@_N_J_KNVallocator@4@Uadl_serializer@2@V?$vector@EV?$allocator@E@std@@@4@@2@CAPAV12@ABV12@@Z@@std@@QAE@XZ 0042f7f0 f i ui_control.obj
 0001:0002e7f0       ??1?$unique_ptr@V?$byte_container_with_subtype@V?$vector@EV?$allocator@E@std@@@std@@@nlohmann@@V<lambda_1>@?1???$create@V?$byte_container_with_subtype@V?$vector@EV?$allocator@E@std@@@std@@@nlohmann@@ABV12@@?$basic_json@Vmap@std@@Vvector@2@V?$basic_string@DU?$char_traits@D@std@@V?$allocator@D@2@@2@_N_J_KNVallocator@2@Uadl_serializer@nlohmann@@V?$vector@EV?$allocator@E@std@@@2@@2@CAPAV12@ABV12@@Z@@std@@QAE@XZ 0042f7f0 f i userprofile.obj
 0001:0002e810       ??1?$vector@_NV?$allocator@_N@std@@@std@@QAE@XZ 0042f810 f i ui_control.obj
 0001:0002e840       ??1_Locinfo@std@@QAE@XZ    0042f840 f i ui_control.obj
 0001:0002e920       ??1_Reallocation_guard@?$vector@U?$pair@$$CBV?$basic_string@DU?$char_traits@D@std@@V?$allocator@D@2@@std@@V?$basic_json@Uordered_map@nlohmann@@Vvector@std@@V?$basic_string@DU?$char_traits@D@std@@V?$allocator@D@2@@4@_N_J_KNVallocator@4@Uadl_serializer@2@V?$vector@EV?$allocator@E@std@@@4@@nlohmann@@@std@@V?$allocator@U?$pair@$$CBV?$basic_string@DU?$char_traits@D@std@@V?$allocator@D@2@@std@@V?$basic_json@Uordered_map@nlohmann@@Vvector@std@@V?$basic_string@DU?$char_traits@D@std@@V?$allocator@D@2@@4@_N_J_KNVallocator@4@Uadl_serializer@2@V?$vector@EV?$allocator@E@std@@@4@@nlohmann@@@std@@@2@@std@@QAE@XZ 0042f920 f i ui_control.obj
 0001:0002e9a0       ??1_Reallocation_guard@?$vector@V?$basic_json@Uordered_map@nlohmann@@Vvector@std@@V?$basic_string@DU?$char_traits@D@std@@V?$allocator@D@2@@4@_N_J_KNVallocator@4@Uadl_serializer@2@V?$vector@EV?$allocator@E@std@@@4@@nlohmann@@V?$allocator@V?$basic_json@Uordered_map@nlohmann@@Vvector@std@@V?$basic_string@DU?$char_traits@D@std@@V?$allocator@D@2@@4@_N_J_KNVallocator@4@Uadl_serializer@2@V?$vector@EV?$allocator@E@std@@@4@@nlohmann@@@std@@@std@@QAE@XZ 0042f9a0 f i ui_control.obj
 0001:0002ea10       ??1_Sentry_base@?$basic_ostream@DU?$char_traits@D@std@@@std@@QAE@XZ 0042fa10 f i ui_control.obj
 0001:0002ea60       ??1_bstr_t@@QAE@XZ         0042fa60 f i ui_control.obj
 0001:0002eac0       ??1_variant_t@@QAE@XZ      0042fac0 f i ui_control.obj
 0001:0002ead0       ??1input_stream_adapter@detail@nlohmann@@QAE@XZ 0042fad0 f i ui_control.obj
 0001:0002eb70       ??1invalid_iterator@detail@nlohmann@@UAE@XZ 0042fb70 f i ui_control.obj
 0001:0002eb70       ??1other_error@detail@nlohmann@@UAE@XZ 0042fb70 f i ui_control.obj
 0001:0002eb70       ??1out_of_range@detail@nlohmann@@UAE@XZ 0042fb70 f i ui_control.obj
 0001:0002eb70       ??1parse_error@detail@nlohmann@@UAE@XZ 0042fb70 f i ui_control.obj
 0001:0002eb70       ??1type_error@detail@nlohmann@@UAE@XZ 0042fb70 f i ui_control.obj
 0001:0002eba0       ??1locale@std@@QAE@XZ      0042fba0 f i ui_control.obj
 0001:0002ebc0       ??1sentry@?$basic_ostream@DU?$char_traits@D@std@@@std@@QAE@XZ 0042fbc0 f i ui_control.obj
 0001:0002ec30       ??4?$basic_json@Uordered_map@nlohmann@@Vvector@std@@V?$basic_string@DU?$char_traits@D@std@@V?$allocator@D@2@@4@_N_J_KNVallocator@4@Uadl_serializer@2@V?$vector@EV?$allocator@E@std@@@4@@nlohmann@@QAEAAV01@V01@@Z 0042fc30 f i ui_control.obj
 0001:0002ec80       ??6nlohmann@@YAAAV?$basic_ostream@DU?$char_traits@D@std@@@std@@AAV12@ABV?$basic_json@Uordered_map@nlohmann@@Vvector@std@@V?$basic_string@DU?$char_traits@D@std@@V?$allocator@D@2@@4@_N_J_KNVallocator@4@Uadl_serializer@2@V?$vector@EV?$allocator@E@std@@@4@@0@@Z 0042fc80 f i ui_control.obj
 0001:0002ef70       ??8nlohmann@@YA_NABV?$basic_json@Uordered_map@nlohmann@@Vvector@std@@V?$basic_string@DU?$char_traits@D@std@@V?$allocator@D@2@@4@_N_J_KNVallocator@4@Uadl_serializer@2@V?$vector@EV?$allocator@E@std@@@4@@0@0@Z 0042ff70 f i ui_control.obj
 0001:0002f200       ??9?$iter_impl@$$CBV?$basic_json@Uordered_map@nlohmann@@Vvector@std@@V?$basic_string@DU?$char_traits@D@std@@V?$allocator@D@2@@4@_N_J_KNVallocator@4@Uadl_serializer@2@V?$vector@EV?$allocator@E@std@@@4@@nlohmann@@@detail@nlohmann@@QBE_NABV012@@Z 00430200 f i ui_control.obj
 0001:0002f200       ??9?$iter_impl@$$CBV?$basic_json@Vmap@std@@Vvector@2@V?$basic_string@DU?$char_traits@D@std@@V?$allocator@D@2@@2@_N_J_KNVallocator@2@Uadl_serializer@nlohmann@@V?$vector@EV?$allocator@E@std@@@2@@nlohmann@@@detail@nlohmann@@QBE_NABV012@@Z 00430200 f i userprofile.obj
 0001:0002f2b0       ??A?$basic_string@DU?$char_traits@D@std@@V?$allocator@D@2@@std@@QAEAADI@Z 004302b0 f i ui_control.obj
 0001:0002f2d0       ??A?$ordered_map@V?$basic_string@DU?$char_traits@D@std@@V?$allocator@D@2@@std@@V?$basic_json@Uordered_map@nlohmann@@Vvector@std@@V?$basic_string@DU?$char_traits@D@std@@V?$allocator@D@2@@4@_N_J_KNVallocator@4@Uadl_serializer@2@V?$vector@EV?$allocator@E@std@@@4@@nlohmann@@U?$less@X@2@V?$allocator@U?$pair@$$CBV?$basic_string@DU?$char_traits@D@std@@V?$allocator@D@2@@std@@V?$basic_json@Uordered_map@nlohmann@@Vvector@std@@V?$basic_string@DU?$char_traits@D@std@@V?$allocator@D@2@@4@_N_J_KNVallocator@4@Uadl_serializer@2@V?$vector@EV?$allocator@E@std@@@4@@nlohmann@@@std@@@2@@nlohmann@@QAEAAV?$basic_json@Uordered_map@nlohmann@@Vvector@std@@V?$basic_string@DU?$char_traits@D@std@@V?$allocator@D@2@@4@_N_J_KNVallocator@4@Uadl_serializer@2@V?$vector@EV?$allocator@E@std@@@4@@1@ABV?$basic_string@DU?$char_traits@D@std@@V?$allocator@D@2@@std@@@Z 004302d0 f i ui_control.obj
 0001:0002f350       ??D?$iter_impl@$$CBV?$basic_json@Uordered_map@nlohmann@@Vvector@std@@V?$basic_string@DU?$char_traits@D@std@@V?$allocator@D@2@@4@_N_J_KNVallocator@4@Uadl_serializer@2@V?$vector@EV?$allocator@E@std@@@4@@nlohmann@@@detail@nlohmann@@QBEABV?$basic_json@Uordered_map@nlohmann@@Vvector@std@@V?$basic_string@DU?$char_traits@D@std@@V?$allocator@D@2@@4@_N_J_KNVallocator@4@Uadl_serializer@2@V?$vector@EV?$allocator@E@std@@@4@@2@XZ 00430350 f i ui_control.obj
 0001:0002f700       ??R?$__func@V<lambda_1>@?1???$GetEnvironmentVariableW@V?$basic_string@_WU?$char_traits@_W@std@@V?$allocator@_W@2@@std@@$0IA@@wil@@YAJPB_WAAV?$basic_string@_WU?$char_traits@_W@std@@V?$allocator@_W@2@@std@@@Z@$$A6AJPA_WIPAI@Z@__function@wistd@@UAEJ$$QAPA_W$$QAI$$QAPAI@Z 00430700 f i ui_control.obj
 0001:0002f760       ??Y?$_Vb_const_iterator@U?$_Wrap_alloc@V?$allocator@I@std@@@std@@@std@@QAEAAV01@H@Z 00430760 f i ui_control.obj
 0001:0002f7c0       ??_D?$basic_ifstream@DU?$char_traits@D@std@@@std@@QAEXXZ 004307c0 f i ui_control.obj
 0001:0002f850       ??_D?$basic_ofstream@DU?$char_traits@D@std@@@std@@QAEXXZ 00430850 f i ui_control.obj
 0001:0002f8df       ??_E?$basic_ifstream@DU?$char_traits@D@std@@@std@@$4PPPPPPPM@A@AEPAXI@Z 004308df f i ui_control.obj
 0001:0002f8e7       ??_E?$basic_istream@DU?$char_traits@D@std@@@std@@$4PPPPPPPM@A@AEPAXI@Z 004308e7 f i ui_control.obj
 0001:0002f8ef       ??_E?$basic_ofstream@DU?$char_traits@D@std@@@std@@$4PPPPPPPM@A@AEPAXI@Z 004308ef f i ui_control.obj
 0001:0002f8f7       ??_E?$basic_ostream@DU?$char_traits@D@std@@@std@@$4PPPPPPPM@A@AEPAXI@Z 004308f7 f i ui_control.obj
 0001:0002f900       ??_E?$_Ref_count_obj2@V?$output_stream_adapter@D@detail@nlohmann@@@std@@UAEPAXI@Z 00430900 f i ui_control.obj
 0001:0002f900       ??_G?$_Ref_count_obj2@V?$output_stream_adapter@D@detail@nlohmann@@@std@@UAEPAXI@Z 00430900 f i ui_control.obj
 0001:0002f930       ??_E?$basic_filebuf@DU?$char_traits@D@std@@@std@@UAEPAXI@Z 00430930 f i ui_control.obj
 0001:0002f930       ??_G?$basic_filebuf@DU?$char_traits@D@std@@@std@@UAEPAXI@Z 00430930 f i ui_control.obj
 0001:0002f960       ??_E?$basic_ifstream@DU?$char_traits@D@std@@@std@@UAEPAXI@Z 00430960 f i ui_control.obj
 0001:0002f960       ??_G?$basic_ifstream@DU?$char_traits@D@std@@@std@@UAEPAXI@Z 00430960 f i ui_control.obj
 0001:0002f990       ??_E?$basic_ios@DU?$char_traits@D@std@@@std@@UAEPAXI@Z 00430990 f i ui_control.obj
 0001:0002f990       ??_G?$basic_ios@DU?$char_traits@D@std@@@std@@UAEPAXI@Z 00430990 f i ui_control.obj
 0001:0002fa00       ??_E?$basic_istream@DU?$char_traits@D@std@@@std@@UAEPAXI@Z 00430a00 f i ui_control.obj
 0001:0002fa00       ??_G?$basic_istream@DU?$char_traits@D@std@@@std@@UAEPAXI@Z 00430a00 f i ui_control.obj
 0001:0002fa90       ??_E?$basic_ofstream@DU?$char_traits@D@std@@@std@@UAEPAXI@Z 00430a90 f i ui_control.obj
 0001:0002fa90       ??_G?$basic_ofstream@DU?$char_traits@D@std@@@std@@UAEPAXI@Z 00430a90 f i ui_control.obj
 0001:0002fac0       ??_E?$basic_ostream@DU?$char_traits@D@std@@@std@@UAEPAXI@Z 00430ac0 f i ui_control.obj
 0001:0002fac0       ??_G?$basic_ostream@DU?$char_traits@D@std@@@std@@UAEPAXI@Z 00430ac0 f i ui_control.obj
 0001:0002fb50       ??_E?$basic_streambuf@DU?$char_traits@D@std@@@std@@UAEPAXI@Z 00430b50 f i ui_control.obj
 0001:0002fb50       ??_G?$basic_streambuf@DU?$char_traits@D@std@@@std@@UAEPAXI@Z 00430b50 f i ui_control.obj
 0001:0002fba0       ??_E?$codecvt@DDU_Mbstatet@@@std@@MAEPAXI@Z 00430ba0 f i ui_control.obj
 0001:0002fba0       ??_G?$codecvt@DDU_Mbstatet@@@std@@MAEPAXI@Z 00430ba0 f i ui_control.obj
 0001:0002fbd0       ??_E?$ctype@D@std@@MAEPAXI@Z 00430bd0 f i ui_control.obj
 0001:0002fbd0       ??_G?$ctype@D@std@@MAEPAXI@Z 00430bd0 f i ui_control.obj
 0001:0002fc30       ??_E_Facet_base@std@@UAEPAXI@Z 00430c30 f i ui_control.obj
 0001:0002fc30       ??_G_Facet_base@std@@UAEPAXI@Z 00430c30 f i ui_control.obj
 0001:0002fc60       ??_Eexception@detail@nlohmann@@UAEPAXI@Z 00430c60 f i ui_control.obj
 0001:0002fc60       ??_Einvalid_iterator@detail@nlohmann@@UAEPAXI@Z 00430c60 f i ui_control.obj
 0001:0002fc60       ??_Eother_error@detail@nlohmann@@UAEPAXI@Z 00430c60 f i ui_control.obj
 0001:0002fc60       ??_Eout_of_range@detail@nlohmann@@UAEPAXI@Z 00430c60 f i ui_control.obj
 0001:0002fc60       ??_Etype_error@detail@nlohmann@@UAEPAXI@Z 00430c60 f i ui_control.obj
 0001:0002fc60       ??_Gexception@detail@nlohmann@@UAEPAXI@Z 00430c60 f i ui_control.obj
 0001:0002fc60       ??_Ginvalid_iterator@detail@nlohmann@@UAEPAXI@Z 00430c60 f i ui_control.obj
 0001:0002fc60       ??_Gother_error@detail@nlohmann@@UAEPAXI@Z 00430c60 f i ui_control.obj
 0001:0002fc60       ??_Gout_of_range@detail@nlohmann@@UAEPAXI@Z 00430c60 f i ui_control.obj
 0001:0002fc60       ??_Gtype_error@detail@nlohmann@@UAEPAXI@Z 00430c60 f i ui_control.obj
 0001:0002fca0       ??_Eios_base@std@@UAEPAXI@Z 00430ca0 f i ui_control.obj
 0001:0002fca0       ??_Gios_base@std@@UAEPAXI@Z 00430ca0 f i ui_control.obj
 0001:0002fd10       ??_Eparse_error@detail@nlohmann@@UAEPAXI@Z 00430d10 f i ui_control.obj
 0001:0002fd10       ??_Gparse_error@detail@nlohmann@@UAEPAXI@Z 00430d10 f i ui_control.obj
 0001:0002fd50       ?CloseUI@UIControl@@YA_NXZ 00430d50 f   ui_control.obj
 0001:0002fdb0       ?GetOpenUIWindows@UIControl@@YA?AV?$vector@PAUHWND__@@V?$allocator@PAUHWND__@@@std@@@std@@XZ 00430db0 f   ui_control.obj
 0001:00030f50       ?RunUI@UIControl@@YAXXZ    00431f50 f   ui_control.obj
 0001:000316b0       ?RunUIOrBringToFront@UIControl@@YAXPAUHWND__@@_N@Z 004326b0 f   ui_control.obj
 0001:00031910       ?RunUIViaSchedTask@UIControl@@YA_NXZ 00432910 f   ui_control.obj
 0001:00031be0       ?_Change_array@?$vector@PAV?$basic_json@Uordered_map@nlohmann@@Vvector@std@@V?$basic_string@DU?$char_traits@D@std@@V?$allocator@D@2@@4@_N_J_KNVallocator@4@Uadl_serializer@2@V?$vector@EV?$allocator@E@std@@@4@@nlohmann@@V?$allocator@PAV?$basic_json@Uordered_map@nlohmann@@Vvector@std@@V?$basic_string@DU?$char_traits@D@std@@V?$allocator@D@2@@4@_N_J_KNVallocator@4@Uadl_serializer@2@V?$vector@EV?$allocator@E@std@@@4@@nlohmann@@@std@@@std@@AAEXQAPAV?$basic_json@Uordered_map@nlohmann@@Vvector@std@@V?$basic_string@DU?$char_traits@D@std@@V?$allocator@D@2@@4@_N_J_KNVallocator@4@Uadl_serializer@2@V?$vector@EV?$allocator@E@std@@@4@@nlohmann@@II@Z 00432be0 f i ui_control.obj
 0001:00031be0       ?_Change_array@?$vector@PAV?$basic_json@Vmap@std@@Vvector@2@V?$basic_string@DU?$char_traits@D@std@@V?$allocator@D@2@@2@_N_J_KNVallocator@2@Uadl_serializer@nlohmann@@V?$vector@EV?$allocator@E@std@@@2@@nlohmann@@V?$allocator@PAV?$basic_json@Vmap@std@@Vvector@2@V?$basic_string@DU?$char_traits@D@std@@V?$allocator@D@2@@2@_N_J_KNVallocator@2@Uadl_serializer@nlohmann@@V?$vector@EV?$allocator@E@std@@@2@@nlohmann@@@std@@@std@@AAEXQAPAV?$basic_json@Vmap@std@@Vvector@2@V?$basic_string@DU?$char_traits@D@std@@V?$allocator@D@2@@2@_N_J_KNVallocator@2@Uadl_serializer@nlohmann@@V?$vector@EV?$allocator@E@std@@@2@@nlohmann@@II@Z 00432be0 f i userprofile.obj
 0001:00031be0       ?_Change_array@?$vector@PB_WV?$allocator@PB_W@std@@@std@@AAEXQAPB_WII@Z 00432be0 f i update_checker.obj
 0001:00031c50       ?_Change_array@?$vector@V?$basic_json@Uordered_map@nlohmann@@Vvector@std@@V?$basic_string@DU?$char_traits@D@std@@V?$allocator@D@2@@4@_N_J_KNVallocator@4@Uadl_serializer@2@V?$vector@EV?$allocator@E@std@@@4@@nlohmann@@V?$allocator@V?$basic_json@Uordered_map@nlohmann@@Vvector@std@@V?$basic_string@DU?$char_traits@D@std@@V?$allocator@D@2@@4@_N_J_KNVallocator@4@Uadl_serializer@2@V?$vector@EV?$allocator@E@std@@@4@@nlohmann@@@std@@@std@@AAEXQAV?$basic_json@Uordered_map@nlohmann@@Vvector@std@@V?$basic_string@DU?$char_traits@D@std@@V?$allocator@D@2@@4@_N_J_KNVallocator@4@Uadl_serializer@2@V?$vector@EV?$allocator@E@std@@@4@@nlohmann@@II@Z 00432c50 f i ui_control.obj
 0001:00031ce0       ?_Deallocate_for_capacity@?$basic_string@DU?$char_traits@D@std@@V?$allocator@D@2@@std@@CAXAAV?$allocator@D@2@QADI@Z 00432ce0 f i ui_control.obj
 0001:00031d20       ?_Decref@facet@locale@std@@UAEPAV_Facet_base@3@XZ 00432d20 f i ui_control.obj
 0001:00031d40       ?_Destroy@?$_Ref_count_obj2@V?$output_stream_adapter@D@detail@nlohmann@@@std@@EAEXXZ 00432d40 f i ui_control.obj
 0001:00031d40       ?_Destroy@?$_Ref_count_obj2@V?$output_string_adapter@DV?$basic_string@DU?$char_traits@D@std@@V?$allocator@D@2@@std@@@detail@nlohmann@@@std@@EAEXXZ 00432d40 f i userprofile.obj
 0001:00031d50       ?_Endwrite@?$basic_filebuf@DU?$char_traits@D@std@@@std@@IAE_NXZ 00432d50 f i ui_control.obj
 0001:00031e20       ?_Incref@facet@locale@std@@UAEXXZ 00432e20 f i ui_control.obj
 0001:00031e30       ?_Init@?$basic_filebuf@DU?$char_traits@D@std@@@std@@IAEXPAU_iobuf@@W4_Initfl@12@@Z 00432e30 f i ui_control.obj
 0001:00031f20       ?_Init@?$basic_streambuf@DU?$char_traits@D@std@@@std@@IAEXXZ 00432f20 f i ui_control.obj
 0001:00031f80       ?_Initcvt@?$basic_filebuf@DU?$char_traits@D@std@@@std@@IAEXABV?$codecvt@DDU_Mbstatet@@@2@@Z 00432f80 f i ui_control.obj
 0001:00032010       ?_Insert_x@?$vector@_NV?$allocator@_N@std@@@std@@QAEIV?$_Vb_const_iterator@U?$_Wrap_alloc@V?$allocator@I@std@@@std@@@2@I@Z 00433010 f i ui_control.obj
 0001:000321e0       ?_Lock@?$basic_filebuf@DU?$char_traits@D@std@@@std@@UAEXXZ 004331e0 f i ui_control.obj
 0001:000321f0       ?_Osfx@?$basic_ostream@DU?$char_traits@D@std@@@std@@QAEXXZ 004331f0 f i ui_control.obj
 0001:000322d0       ?_Reset_back@?$basic_filebuf@DU?$char_traits@D@std@@@std@@AAEXXZ 004332d0 f i ui_control.obj
 0001:00032300       ?_Throw_NullAlloc@in1diag3@details@wil@@YAXPAXIPBD@Z 00433300 f i ui_control.obj
 0001:00032330       ?_Tidy@?$vector@U?$pair@$$CBV?$basic_string@DU?$char_traits@D@std@@V?$allocator@D@2@@std@@V?$basic_json@Uordered_map@nlohmann@@Vvector@std@@V?$basic_string@DU?$char_traits@D@std@@V?$allocator@D@2@@4@_N_J_KNVallocator@4@Uadl_serializer@2@V?$vector@EV?$allocator@E@std@@@4@@nlohmann@@@std@@V?$allocator@U?$pair@$$CBV?$basic_string@DU?$char_traits@D@std@@V?$allocator@D@2@@std@@V?$basic_json@Uordered_map@nlohmann@@Vvector@std@@V?$basic_string@DU?$char_traits@D@std@@V?$allocator@D@2@@4@_N_J_KNVallocator@4@Uadl_serializer@2@V?$vector@EV?$allocator@E@std@@@4@@nlohmann@@@std@@@2@@std@@AAEXXZ 00433330 f i ui_control.obj
 0001:000323d0       ?_Tidy@?$vector@V?$basic_json@Uordered_map@nlohmann@@Vvector@std@@V?$basic_string@DU?$char_traits@D@std@@V?$allocator@D@2@@4@_N_J_KNVallocator@4@Uadl_serializer@2@V?$vector@EV?$allocator@E@std@@@4@@nlohmann@@V?$allocator@V?$basic_json@Uordered_map@nlohmann@@Vvector@std@@V?$basic_string@DU?$char_traits@D@std@@V?$allocator@D@2@@4@_N_J_KNVallocator@4@Uadl_serializer@2@V?$vector@EV?$allocator@E@std@@@4@@nlohmann@@@std@@@std@@AAEXXZ 004333d0 f i ui_control.obj
 0001:00032450       ?_Unlock@?$basic_filebuf@DU?$char_traits@D@std@@@std@@UAEXXZ 00433450 f i ui_control.obj
 0001:00032460       ?_Xlen@?$vector@_NV?$allocator@_N@std@@@std@@SAXXZ 00433460 f i ui_control.obj
 0001:00032470       ?__clone@?$__func@V<lambda_1>@?1???$GetEnvironmentVariableW@V?$basic_string@_WU?$char_traits@_W@std@@V?$allocator@_W@2@@std@@$0IA@@wil@@YAJPB_WAAV?$basic_string@_WU?$char_traits@_W@std@@V?$allocator@_W@2@@std@@@Z@$$A6AJPA_WIPAI@Z@__function@wistd@@UBEXPAV?$__base@$$A6AJPA_WIPAI@Z@23@@Z 00433470 f i ui_control.obj
 0001:00032470       ?__move@?$__func@V<lambda_1>@?1???$GetEnvironmentVariableW@V?$basic_string@_WU?$char_traits@_W@std@@V?$allocator@_W@2@@std@@$0IA@@wil@@YAJPB_WAAV?$basic_string@_WU?$char_traits@_W@std@@V?$allocator@_W@2@@std@@@Z@$$A6AJPA_WIPAI@Z@__function@wistd@@UAEXPAV?$__base@$$A6AJPA_WIPAI@Z@23@@Z 00433470 f i ui_control.obj
 0001:00032490       ?back@?$basic_string@DU?$char_traits@D@std@@V?$allocator@D@2@@std@@QBEABDXZ 00433490 f i ui_control.obj
 0001:000324b0       ?back@?$vector@_NV?$allocator@_N@std@@@std@@QAE?AV?$_Vb_reference@U?$_Wrap_alloc@V?$allocator@I@std@@@std@@@2@XZ 004334b0 f i ui_control.obj
 0001:00032530       ?boolean@?$json_sax_dom_parser@V?$basic_json@Uordered_map@nlohmann@@Vvector@std@@V?$basic_string@DU?$char_traits@D@std@@V?$allocator@D@2@@4@_N_J_KNVallocator@4@Uadl_serializer@2@V?$vector@EV?$allocator@E@std@@@4@@nlohmann@@@detail@nlohmann@@QAE_N_N@Z 00433530 f i ui_control.obj
 0001:000325b0       ?cend@?$basic_json@Uordered_map@nlohmann@@Vvector@std@@V?$basic_string@DU?$char_traits@D@std@@V?$allocator@D@2@@4@_N_J_KNVallocator@4@Uadl_serializer@2@V?$vector@EV?$allocator@E@std@@@4@@nlohmann@@QBE?AV?$iter_impl@$$CBV?$basic_json@Uordered_map@nlohmann@@Vvector@std@@V?$basic_string@DU?$char_traits@D@std@@V?$allocator@D@2@@4@_N_J_KNVallocator@4@Uadl_serializer@2@V?$vector@EV?$allocator@E@std@@@4@@nlohmann@@@detail@2@XZ 004335b0 f i ui_control.obj
 0001:000325b0       ?end@?$basic_json@Uordered_map@nlohmann@@Vvector@std@@V?$basic_string@DU?$char_traits@D@std@@V?$allocator@D@2@@4@_N_J_KNVallocator@4@Uadl_serializer@2@V?$vector@EV?$allocator@E@std@@@4@@nlohmann@@QAE?AV?$iter_impl@V?$basic_json@Uordered_map@nlohmann@@Vvector@std@@V?$basic_string@DU?$char_traits@D@std@@V?$allocator@D@2@@4@_N_J_KNVallocator@4@Uadl_serializer@2@V?$vector@EV?$allocator@E@std@@@4@@nlohmann@@@detail@2@XZ 004335b0 f i ui_control.obj
 0001:00032620       ?clear@ios_base@std@@QAEXH_N@Z 00433620 f i ui_control.obj
 0001:000326a0       ?count_digits@?$serializer@V?$basic_json@Uordered_map@nlohmann@@Vvector@std@@V?$basic_string@DU?$char_traits@D@std@@V?$allocator@D@2@@4@_N_J_KNVallocator@4@Uadl_serializer@2@V?$vector@EV?$allocator@E@std@@@4@@nlohmann@@@detail@nlohmann@@AAEI_K@Z 004336a0 f i ui_control.obj
 0001:000326a0       ?count_digits@?$serializer@V?$basic_json@Vmap@std@@Vvector@2@V?$basic_string@DU?$char_traits@D@std@@V?$allocator@D@2@@2@_N_J_KNVallocator@2@Uadl_serializer@nlohmann@@V?$vector@EV?$allocator@E@std@@@2@@nlohmann@@@detail@nlohmann@@AAEI_K@Z 004336a0 f i userprofile.obj
 0001:000327a0       ?create@invalid_iterator@detail@nlohmann@@SA?AV123@HABV?$basic_string@DU?$char_traits@D@std@@V?$allocator@D@2@@std@@@Z 004337a0 f i ui_control.obj
 0001:000329c0       ?create@other_error@detail@nlohmann@@SA?AV123@HABV?$basic_string@DU?$char_traits@D@std@@V?$allocator@D@2@@std@@@Z 004339c0 f i ui_control.obj
 0001:00032bd0       ?create@out_of_range@detail@nlohmann@@SA?AV123@HABV?$basic_string@DU?$char_traits@D@std@@V?$allocator@D@2@@std@@@Z 00433bd0 f i ui_control.obj
 0001:00032de0       ?create@parse_error@detail@nlohmann@@SA?AV123@HABUposition_t@23@ABV?$basic_string@DU?$char_traits@D@std@@V?$allocator@D@2@@std@@@Z 00433de0 f i ui_control.obj
 0001:000331f0       ?create@type_error@detail@nlohmann@@SA?AV123@HABV?$basic_string@DU?$char_traits@D@std@@V?$allocator@D@2@@std@@@Z 004341f0 f i ui_control.obj
 0001:00033400       ?deallocate@?$_Default_allocator_traits@V?$allocator@V?$basic_string@DU?$char_traits@D@std@@V?$allocator@D@2@@std@@@std@@@std@@SAXAAV?$allocator@V?$basic_string@DU?$char_traits@D@std@@V?$allocator@D@2@@std@@@2@QAV?$basic_string@DU?$char_traits@D@std@@V?$allocator@D@2@@2@I@Z 00434400 f i ui_control.obj
 0001:00033450       ?destroy@json_value@?$basic_json@Uordered_map@nlohmann@@Vvector@std@@V?$basic_string@DU?$char_traits@D@std@@V?$allocator@D@2@@4@_N_J_KNVallocator@4@Uadl_serializer@2@V?$vector@EV?$allocator@E@std@@@4@@nlohmann@@QAEXW4value_t@detail@3@@Z 00434450 f i ui_control.obj
 0001:00033930       ?do_always_noconv@?$codecvt@DDU_Mbstatet@@@std@@MBE_NXZ 00434930 f i ui_control.obj
 0001:00033930       ___acrt_uninitialize_command_line 00434930 f i libucrt:argv_data.obj
 0001:00033930       __should_initialize_environment 00434930 f i LIBCMT:env_mode.obj
 0001:00033940       ?do_encoding@codecvt_base@std@@MBEHXZ 00434940 f i ui_control.obj
 0001:00033940       ?do_max_length@codecvt_base@std@@MBEHXZ 00434940 f i ui_control.obj
 0001:00033950       ?do_in@?$codecvt@DDU_Mbstatet@@@std@@MBEHAAU_Mbstatet@@PBD1AAPBDPAD3AAPAD@Z 00434950 f i ui_control.obj
 0001:00033950       ?do_out@?$codecvt@DDU_Mbstatet@@@std@@MBEHAAU_Mbstatet@@PBD1AAPBDPAD3AAPAD@Z 00434950 f i ui_control.obj
 0001:00033970       ?do_length@?$codecvt@DDU_Mbstatet@@@std@@MBEHAAU_Mbstatet@@PBD1I@Z 00434970 f i ui_control.obj
 0001:00033990       ?do_narrow@?$ctype@D@std@@MBEDDD@Z 00434990 f i ui_control.obj
 0001:000339a0       ?do_narrow@?$ctype@D@std@@MBEPBDPBD0DPAD@Z 004349a0 f i ui_control.obj
 0001:000339c0       ?do_tolower@?$ctype@D@std@@MBEDD@Z 004349c0 f i ui_control.obj
 0001:000339e0       ?do_tolower@?$ctype@D@std@@MBEPBDPADPBD@Z 004349e0 f i ui_control.obj
 0001:00033a10       ?do_toupper@?$ctype@D@std@@MBEDD@Z 00434a10 f i ui_control.obj
 0001:00033a30       ?do_toupper@?$ctype@D@std@@MBEPBDPADPBD@Z 00434a30 f i ui_control.obj
 0001:00033a60       ?do_unshift@?$codecvt@DDU_Mbstatet@@@std@@MBEHAAU_Mbstatet@@PAD1AAPAD@Z 00434a60 f i ui_control.obj
 0001:00033a80       ?do_widen@?$ctype@D@std@@MBEDD@Z 00434a80 f i ui_control.obj
 0001:00033a90       ?do_widen@?$ctype@D@std@@MBEPBDPBD0PAD@Z 00434a90 f i ui_control.obj
 0001:00033ab0       ?dump@?$serializer@V?$basic_json@Uordered_map@nlohmann@@Vvector@std@@V?$basic_string@DU?$char_traits@D@std@@V?$allocator@D@2@@4@_N_J_KNVallocator@4@Uadl_serializer@2@V?$vector@EV?$allocator@E@std@@@4@@nlohmann@@@detail@nlohmann@@QAEXABV?$basic_json@Uordered_map@nlohmann@@Vvector@std@@V?$basic_string@DU?$char_traits@D@std@@V?$allocator@D@2@@4@_N_J_KNVallocator@4@Uadl_serializer@2@V?$vector@EV?$allocator@E@std@@@4@@3@_N1II@Z 00434ab0 f i ui_control.obj
 0001:00034580       ?dump_escaped@?$serializer@V?$basic_json@Uordered_map@nlohmann@@Vvector@std@@V?$basic_string@DU?$char_traits@D@std@@V?$allocator@D@2@@4@_N_J_KNVallocator@4@Uadl_serializer@2@V?$vector@EV?$allocator@E@std@@@4@@nlohmann@@@detail@nlohmann@@AAEXABV?$basic_string@DU?$char_traits@D@std@@V?$allocator@D@2@@std@@_N@Z 00435580 f i ui_control.obj
 0001:00034ac0       ?emplace@?$ordered_map@V?$basic_string@DU?$char_traits@D@std@@V?$allocator@D@2@@std@@V?$basic_json@Uordered_map@nlohmann@@Vvector@std@@V?$basic_string@DU?$char_traits@D@std@@V?$allocator@D@2@@4@_N_J_KNVallocator@4@Uadl_serializer@2@V?$vector@EV?$allocator@E@std@@@4@@nlohmann@@U?$less@X@2@V?$allocator@U?$pair@$$CBV?$basic_string@DU?$char_traits@D@std@@V?$allocator@D@2@@std@@V?$basic_json@Uordered_map@nlohmann@@Vvector@std@@V?$basic_string@DU?$char_traits@D@std@@V?$allocator@D@2@@4@_N_J_KNVallocator@4@Uadl_serializer@2@V?$vector@EV?$allocator@E@std@@@4@@nlohmann@@@std@@@2@@nlohmann@@QAE?AU?$pair@V?$_Vector_iterator@V?$_Vector_val@U?$_Simple_types@U?$pair@$$CBV?$basic_string@DU?$char_traits@D@std@@V?$allocator@D@2@@std@@V?$basic_json@Uordered_map@nlohmann@@Vvector@std@@V?$basic_string@DU?$char_traits@D@std@@V?$allocator@D@2@@4@_N_J_KNVallocator@4@Uadl_serializer@2@V?$vector@EV?$allocator@E@std@@@4@@nlohmann@@@std@@@std@@@std@@@std@@_N@std@@ABV?$basic_string@DU?$char_traits@D@std@@V?$allocator@D@2@@4@$$QAV?$basic_json@Uordered_map@nlohmann@@Vvector@std@@V?$basic_string@DU?$char_traits@D@std@@V?$allocator@D@2@@4@_N_J_KNVallocator@4@Uadl_serializer@2@V?$vector@EV?$allocator@E@std@@@4@@2@@Z 00435ac0 f i ui_control.obj
 0001:00034c10       ?end_array@?$json_sax_dom_callback_parser@V?$basic_json@Uordered_map@nlohmann@@Vvector@std@@V?$basic_string@DU?$char_traits@D@std@@V?$allocator@D@2@@4@_N_J_KNVallocator@4@Uadl_serializer@2@V?$vector@EV?$allocator@E@std@@@4@@nlohmann@@@detail@nlohmann@@QAE_NXZ 00435c10 f i ui_control.obj
 0001:00034cf0       ?end_object@?$json_sax_dom_callback_parser@V?$basic_json@Uordered_map@nlohmann@@Vvector@std@@V?$basic_string@DU?$char_traits@D@std@@V?$allocator@D@2@@4@_N_J_KNVallocator@4@Uadl_serializer@2@V?$vector@EV?$allocator@E@std@@@4@@nlohmann@@@detail@nlohmann@@QAE_NXZ 00435cf0 f i ui_control.obj
 0001:00034f90       ?erase@?$vector@_NV?$allocator@_N@std@@@std@@QAE?AV?$_Vb_iterator@U?$_Wrap_alloc@V?$allocator@I@std@@@std@@@2@V?$_Vb_const_iterator@U?$_Wrap_alloc@V?$allocator@I@std@@@std@@@2@@Z 00435f90 f i ui_control.obj
 0001:00035120       ?exception_message@?$parser@V?$basic_json@Uordered_map@nlohmann@@Vvector@std@@V?$basic_string@DU?$char_traits@D@std@@V?$allocator@D@2@@4@_N_J_KNVallocator@4@Uadl_serializer@2@V?$vector@EV?$allocator@E@std@@@4@@nlohmann@@Vinput_stream_adapter@detail@2@@detail@nlohmann@@AAE?AV?$basic_string@DU?$char_traits@D@std@@V?$allocator@D@2@@std@@W4token_type@?$lexer_base@V?$basic_json@Uordered_map@nlohmann@@Vvector@std@@V?$basic_string@DU?$char_traits@D@std@@V?$allocator@D@2@@4@_N_J_KNVallocator@4@Uadl_serializer@2@V?$vector@EV?$allocator@E@std@@@4@@nlohmann@@@23@ABV45@@Z 00436120 f i ui_control.obj
 0001:00035120       ?exception_message@?$parser@V?$basic_json@Vmap@std@@Vvector@2@V?$basic_string@DU?$char_traits@D@std@@V?$allocator@D@2@@2@_N_J_KNVallocator@2@Uadl_serializer@nlohmann@@V?$vector@EV?$allocator@E@std@@@2@@nlohmann@@V?$iterator_input_adapter@PBD@detail@2@@detail@nlohmann@@AAE?AV?$basic_string@DU?$char_traits@D@std@@V?$allocator@D@2@@std@@W4token_type@?$lexer_base@V?$basic_json@Vmap@std@@Vvector@2@V?$basic_string@DU?$char_traits@D@std@@V?$allocator@D@2@@2@_N_J_KNVallocator@2@Uadl_serializer@nlohmann@@V?$vector@EV?$allocator@E@std@@@2@@nlohmann@@@23@ABV45@@Z 00436120 f i userprofile.obj
 0001:00035120       ?exception_message@?$parser@V?$basic_json@Vmap@std@@Vvector@2@V?$basic_string@DU?$char_traits@D@std@@V?$allocator@D@2@@2@_N_J_KNVallocator@2@Uadl_serializer@nlohmann@@V?$vector@EV?$allocator@E@std@@@2@@nlohmann@@Vinput_stream_adapter@detail@2@@detail@nlohmann@@AAE?AV?$basic_string@DU?$char_traits@D@std@@V?$allocator@D@2@@std@@W4token_type@?$lexer_base@V?$basic_json@Vmap@std@@Vvector@2@V?$basic_string@DU?$char_traits@D@std@@V?$allocator@D@2@@2@_N_J_KNVallocator@2@Uadl_serializer@nlohmann@@V?$vector@EV?$allocator@E@std@@@2@@nlohmann@@@23@ABV45@@Z 00436120 f i userprofile.obj
 0001:00035760       ?find@?$ordered_map@V?$basic_string@DU?$char_traits@D@std@@V?$allocator@D@2@@std@@V?$basic_json@Uordered_map@nlohmann@@Vvector@std@@V?$basic_string@DU?$char_traits@D@std@@V?$allocator@D@2@@4@_N_J_KNVallocator@4@Uadl_serializer@2@V?$vector@EV?$allocator@E@std@@@4@@nlohmann@@U?$less@X@2@V?$allocator@U?$pair@$$CBV?$basic_string@DU?$char_traits@D@std@@V?$allocator@D@2@@std@@V?$basic_json@Uordered_map@nlohmann@@Vvector@std@@V?$basic_string@DU?$char_traits@D@std@@V?$allocator@D@2@@4@_N_J_KNVallocator@4@Uadl_serializer@2@V?$vector@EV?$allocator@E@std@@@4@@nlohmann@@@std@@@2@@nlohmann@@QAE?AV?$_Vector_iterator@V?$_Vector_val@U?$_Simple_types@U?$pair@$$CBV?$basic_string@DU?$char_traits@D@std@@V?$allocator@D@2@@std@@V?$basic_json@Uordered_map@nlohmann@@Vvector@std@@V?$basic_string@DU?$char_traits@D@std@@V?$allocator@D@2@@4@_N_J_KNVallocator@4@Uadl_serializer@2@V?$vector@EV?$allocator@E@std@@@4@@nlohmann@@@std@@@std@@@std@@@std@@ABV?$basic_string@DU?$char_traits@D@std@@V?$allocator@D@2@@4@@Z 00436760 f i ui_control.obj
 0001:00035840       ?flush@?$basic_ostream@DU?$char_traits@D@std@@@std@@QAEAAV12@XZ 00436840 f i ui_control.obj
 0001:00035990       ?format_buffer@dtoa_impl@detail@nlohmann@@YAPADPADHHHH@Z 00436990 f i ui_control.obj
 0001:00035b20       ?get@?$lexer@V?$basic_json@Uordered_map@nlohmann@@Vvector@std@@V?$basic_string@DU?$char_traits@D@std@@V?$allocator@D@2@@4@_N_J_KNVallocator@4@Uadl_serializer@2@V?$vector@EV?$allocator@E@std@@@4@@nlohmann@@Vinput_stream_adapter@detail@2@@detail@nlohmann@@AAEHXZ 00436b20 f i ui_control.obj
 0001:00035b20       ?get@?$lexer@V?$basic_json@Vmap@std@@Vvector@2@V?$basic_string@DU?$char_traits@D@std@@V?$allocator@D@2@@2@_N_J_KNVallocator@2@Uadl_serializer@nlohmann@@V?$vector@EV?$allocator@E@std@@@2@@nlohmann@@Vinput_stream_adapter@detail@2@@detail@nlohmann@@AAEHXZ 00436b20 f i userprofile.obj
 0001:00035c10       ?get_codepoint@?$lexer@V?$basic_json@Uordered_map@nlohmann@@Vvector@std@@V?$basic_string@DU?$char_traits@D@std@@V?$allocator@D@2@@4@_N_J_KNVallocator@4@Uadl_serializer@2@V?$vector@EV?$allocator@E@std@@@4@@nlohmann@@Vinput_stream_adapter@detail@2@@detail@nlohmann@@AAEHXZ 00436c10 f i ui_control.obj
 0001:00035c10       ?get_codepoint@?$lexer@V?$basic_json@Vmap@std@@Vvector@2@V?$basic_string@DU?$char_traits@D@std@@V?$allocator@D@2@@2@_N_J_KNVallocator@2@Uadl_serializer@nlohmann@@V?$vector@EV?$allocator@E@std@@@2@@nlohmann@@Vinput_stream_adapter@detail@2@@detail@nlohmann@@AAEHXZ 00436c10 f i userprofile.obj
 0001:00035da0       ?get_token_string@?$lexer@V?$basic_json@Uordered_map@nlohmann@@Vvector@std@@V?$basic_string@DU?$char_traits@D@std@@V?$allocator@D@2@@4@_N_J_KNVallocator@4@Uadl_serializer@2@V?$vector@EV?$allocator@E@std@@@4@@nlohmann@@Vinput_stream_adapter@detail@2@@detail@nlohmann@@QBE?AV?$basic_string@DU?$char_traits@D@std@@V?$allocator@D@2@@std@@XZ 00436da0 f i ui_control.obj
 0001:00035da0       ?get_token_string@?$lexer@V?$basic_json@Vmap@std@@Vvector@2@V?$basic_string@DU?$char_traits@D@std@@V?$allocator@D@2@@2@_N_J_KNVallocator@2@Uadl_serializer@nlohmann@@V?$vector@EV?$allocator@E@std@@@2@@nlohmann@@V?$iterator_input_adapter@PBD@detail@2@@detail@nlohmann@@QBE?AV?$basic_string@DU?$char_traits@D@std@@V?$allocator@D@2@@std@@XZ 00436da0 f i userprofile.obj
 0001:00035da0       ?get_token_string@?$lexer@V?$basic_json@Vmap@std@@Vvector@2@V?$basic_string@DU?$char_traits@D@std@@V?$allocator@D@2@@2@_N_J_KNVallocator@2@Uadl_serializer@nlohmann@@V?$vector@EV?$allocator@E@std@@@2@@nlohmann@@Vinput_stream_adapter@detail@2@@detail@nlohmann@@QBE?AV?$basic_string@DU?$char_traits@D@std@@V?$allocator@D@2@@std@@XZ 00436da0 f i userprofile.obj
 0001:00035fa0       ?grisu2_digit_gen@dtoa_impl@detail@nlohmann@@YAXPADAAH1Udiyfp@123@22@Z 00436fa0 f i ui_control.obj
 0001:00036300       ?grisu2_round@dtoa_impl@detail@nlohmann@@YAXPADH_K111@Z 00437300 f i ui_control.obj
 0001:000363b0       ?imbue@?$basic_filebuf@DU?$char_traits@D@std@@@std@@MAEXABVlocale@2@@Z 004373b0 f i ui_control.obj
 0001:000363d0       ?init@?$basic_ios@DU?$char_traits@D@std@@@std@@IAEXPAV?$basic_streambuf@DU?$char_traits@D@std@@@2@_N@Z 004373d0 f i ui_control.obj
 0001:00036550       ?key@?$json_sax_dom_callback_parser@V?$basic_json@Uordered_map@nlohmann@@Vvector@std@@V?$basic_string@DU?$char_traits@D@std@@V?$allocator@D@2@@4@_N_J_KNVallocator@4@Uadl_serializer@2@V?$vector@EV?$allocator@E@std@@@4@@nlohmann@@@detail@nlohmann@@QAE_NAAV?$basic_string@DU?$char_traits@D@std@@V?$allocator@D@2@@std@@@Z 00437550 f i ui_control.obj
 0001:00036690       ?key@?$json_sax_dom_parser@V?$basic_json@Uordered_map@nlohmann@@Vvector@std@@V?$basic_string@DU?$char_traits@D@std@@V?$allocator@D@2@@4@_N_J_KNVallocator@4@Uadl_serializer@2@V?$vector@EV?$allocator@E@std@@@4@@nlohmann@@@detail@nlohmann@@QAE_NAAV?$basic_string@DU?$char_traits@D@std@@V?$allocator@D@2@@std@@@Z 00437690 f i ui_control.obj
 0001:00036720       ?make_bstr@wil@@YA?AV?$unique_any_t@V?$unique_storage@U?$resource_policy@PA_WP6GXPA_W@Z$1?SysFreeString@@YGX0@ZU?$integral_constant@I$0A@@wistd@@PA_WPA_W$0A@$$T@details@wil@@@details@wil@@@1@PB_W@Z 00437720 f i ui_control.obj
 0001:00036790       ?make_error_code@std@@YA?AVerror_code@1@W4io_errc@1@@Z 00437790 f i ui_control.obj
 0001:000367b0       ?message@_Iostream_error_category2@std@@UBE?AV?$basic_string@DU?$char_traits@D@std@@V?$allocator@D@2@@2@H@Z 004377b0 f i ui_control.obj
 0001:00036870       ?mul@diyfp@dtoa_impl@detail@nlohmann@@SA?AU1234@ABU1234@0@Z 00437870 f i ui_control.obj
 0001:00036910       ?name@_Iostream_error_category2@std@@UBEPBDXZ 00437910 f i ui_control.obj
 0001:00036920       ?name@exception@detail@nlohmann@@KA?AV?$basic_string@DU?$char_traits@D@std@@V?$allocator@D@2@@std@@ABV45@H@Z 00437920 f i ui_control.obj
 0001:00036b60       ?next_byte_in_range@?$lexer@V?$basic_json@Uordered_map@nlohmann@@Vvector@std@@V?$basic_string@DU?$char_traits@D@std@@V?$allocator@D@2@@4@_N_J_KNVallocator@4@Uadl_serializer@2@V?$vector@EV?$allocator@E@std@@@4@@nlohmann@@Vinput_stream_adapter@detail@2@@detail@nlohmann@@AAE_NV?$initializer_list@H@std@@@Z 00437b60 f i ui_control.obj
 0001:00036b60       ?next_byte_in_range@?$lexer@V?$basic_json@Vmap@std@@Vvector@2@V?$basic_string@DU?$char_traits@D@std@@V?$allocator@D@2@@2@_N_J_KNVallocator@2@Uadl_serializer@nlohmann@@V?$vector@EV?$allocator@E@std@@@2@@nlohmann@@Vinput_stream_adapter@detail@2@@detail@nlohmann@@AAE_NV?$initializer_list@H@std@@@Z 00437b60 f i userprofile.obj
 0001:00036cb0       ?normalize@diyfp@dtoa_impl@detail@nlohmann@@SA?AU1234@U1234@@Z 00437cb0 f i ui_control.obj
 0001:00036d00       ?open@?$basic_filebuf@DU?$char_traits@D@std@@@std@@QAEPAV12@PB_WHH@Z 00437d00 f i ui_control.obj
 0001:00036dc0       ?overflow@?$basic_filebuf@DU?$char_traits@D@std@@@std@@MAEHH@Z 00437dc0 f i ui_control.obj
 0001:00036f40       ?overflow@?$basic_streambuf@DU?$char_traits@D@std@@@std@@MAEHH@Z 00437f40 f i ui_control.obj
 0001:00036f40       ?pbackfail@?$basic_streambuf@DU?$char_traits@D@std@@@std@@MAEHH@Z 00437f40 f i ui_control.obj
 0001:00036f50       ?parse@?$parser@V?$basic_json@Uordered_map@nlohmann@@Vvector@std@@V?$basic_string@DU?$char_traits@D@std@@V?$allocator@D@2@@4@_N_J_KNVallocator@4@Uadl_serializer@2@V?$vector@EV?$allocator@E@std@@@4@@nlohmann@@Vinput_stream_adapter@detail@2@@detail@nlohmann@@QAEX_NAAV?$basic_json@Uordered_map@nlohmann@@Vvector@std@@V?$basic_string@DU?$char_traits@D@std@@V?$allocator@D@2@@4@_N_J_KNVallocator@4@Uadl_serializer@2@V?$vector@EV?$allocator@E@std@@@4@@3@@Z 00437f50 f i ui_control.obj
 0001:000375b0       ?pbackfail@?$basic_filebuf@DU?$char_traits@D@std@@@std@@MAEHH@Z 004385b0 f i ui_control.obj
 0001:00037660       ?pop_back@?$vector@_NV?$allocator@_N@std@@@std@@QAEXXZ 00438660 f i ui_control.obj
 0001:000376e0       ?position_string@parse_error@detail@nlohmann@@CA?AV?$basic_string@DU?$char_traits@D@std@@V?$allocator@D@2@@std@@ABUposition_t@23@@Z 004386e0 f i ui_control.obj
 0001:000378f0       ?push_back@?$basic_string@DU?$char_traits@D@std@@V?$allocator@D@2@@std@@QAEXD@Z 004388f0 f i ui_control.obj
 0001:00037a20       ?push_back@?$vector@PAV?$basic_json@Uordered_map@nlohmann@@Vvector@std@@V?$basic_string@DU?$char_traits@D@std@@V?$allocator@D@2@@4@_N_J_KNVallocator@4@Uadl_serializer@2@V?$vector@EV?$allocator@E@std@@@4@@nlohmann@@V?$allocator@PAV?$basic_json@Uordered_map@nlohmann@@Vvector@std@@V?$basic_string@DU?$char_traits@D@std@@V?$allocator@D@2@@4@_N_J_KNVallocator@4@Uadl_serializer@2@V?$vector@EV?$allocator@E@std@@@4@@nlohmann@@@std@@@std@@QAEX$$QAPAV?$basic_json@Uordered_map@nlohmann@@Vvector@std@@V?$basic_string@DU?$char_traits@D@std@@V?$allocator@D@2@@4@_N_J_KNVallocator@4@Uadl_serializer@2@V?$vector@EV?$allocator@E@std@@@4@@nlohmann@@@Z 00438a20 f i ui_control.obj
 0001:00037a20       ?push_back@?$vector@PAV?$basic_json@Uordered_map@nlohmann@@Vvector@std@@V?$basic_string@DU?$char_traits@D@std@@V?$allocator@D@2@@4@_N_J_KNVallocator@4@Uadl_serializer@2@V?$vector@EV?$allocator@E@std@@@4@@nlohmann@@V?$allocator@PAV?$basic_json@Uordered_map@nlohmann@@Vvector@std@@V?$basic_string@DU?$char_traits@D@std@@V?$allocator@D@2@@4@_N_J_KNVallocator@4@Uadl_serializer@2@V?$vector@EV?$allocator@E@std@@@4@@nlohmann@@@std@@@std@@QAEXABQAV?$basic_json@Uordered_map@nlohmann@@Vvector@std@@V?$basic_string@DU?$char_traits@D@std@@V?$allocator@D@2@@4@_N_J_KNVallocator@4@Uadl_serializer@2@V?$vector@EV?$allocator@E@std@@@4@@nlohmann@@@Z 00438a20 f i ui_control.obj
 0001:00037a20       ?push_back@?$vector@PAV?$basic_json@Vmap@std@@Vvector@2@V?$basic_string@DU?$char_traits@D@std@@V?$allocator@D@2@@2@_N_J_KNVallocator@2@Uadl_serializer@nlohmann@@V?$vector@EV?$allocator@E@std@@@2@@nlohmann@@V?$allocator@PAV?$basic_json@Vmap@std@@Vvector@2@V?$basic_string@DU?$char_traits@D@std@@V?$allocator@D@2@@2@_N_J_KNVallocator@2@Uadl_serializer@nlohmann@@V?$vector@EV?$allocator@E@std@@@2@@nlohmann@@@std@@@std@@QAEX$$QAPAV?$basic_json@Vmap@std@@Vvector@2@V?$basic_string@DU?$char_traits@D@std@@V?$allocator@D@2@@2@_N_J_KNVallocator@2@Uadl_serializer@nlohmann@@V?$vector@EV?$allocator@E@std@@@2@@nlohmann@@@Z 00438a20 f i userprofile.obj
 0001:00037a20       ?push_back@?$vector@PAV?$basic_json@Vmap@std@@Vvector@2@V?$basic_string@DU?$char_traits@D@std@@V?$allocator@D@2@@2@_N_J_KNVallocator@2@Uadl_serializer@nlohmann@@V?$vector@EV?$allocator@E@std@@@2@@nlohmann@@V?$allocator@PAV?$basic_json@Vmap@std@@Vvector@2@V?$basic_string@DU?$char_traits@D@std@@V?$allocator@D@2@@2@_N_J_KNVallocator@2@Uadl_serializer@nlohmann@@V?$vector@EV?$allocator@E@std@@@2@@nlohmann@@@std@@@std@@QAEXABQAV?$basic_json@Vmap@std@@Vvector@2@V?$basic_string@DU?$char_traits@D@std@@V?$allocator@D@2@@2@_N_J_KNVallocator@2@Uadl_serializer@nlohmann@@V?$vector@EV?$allocator@E@std@@@2@@nlohmann@@@Z 00438a20 f i userprofile.obj
 0001:00037a20       ?push_back@?$vector@PB_WV?$allocator@PB_W@std@@@std@@QAEX$$QAPB_W@Z 00438a20 f i update_checker.obj
 0001:00037b10       ?push_back@?$vector@V?$basic_json@Uordered_map@nlohmann@@Vvector@std@@V?$basic_string@DU?$char_traits@D@std@@V?$allocator@D@2@@4@_N_J_KNVallocator@4@Uadl_serializer@2@V?$vector@EV?$allocator@E@std@@@4@@nlohmann@@V?$allocator@V?$basic_json@Uordered_map@nlohmann@@Vvector@std@@V?$basic_string@DU?$char_traits@D@std@@V?$allocator@D@2@@4@_N_J_KNVallocator@4@Uadl_serializer@2@V?$vector@EV?$allocator@E@std@@@4@@nlohmann@@@std@@@std@@QAEX$$QAV?$basic_json@Uordered_map@nlohmann@@Vvector@std@@V?$basic_string@DU?$char_traits@D@std@@V?$allocator@D@2@@4@_N_J_KNVallocator@4@Uadl_serializer@2@V?$vector@EV?$allocator@E@std@@@4@@nlohmann@@@Z 00438b10 f i ui_control.obj
 0001:00037c50       ?push_back@?$vector@_NV?$allocator@_N@std@@@std@@QAEXAB_N@Z 00438c50 f i ui_control.obj
 0001:00037cf0       ?put@?$basic_ostream@DU?$char_traits@D@std@@@std@@QAEAAV12@D@Z 00438cf0 f i ui_control.obj
 0001:00037e80       ?release@?$unique_ptr@V?$basic_string@DU?$char_traits@D@std@@V?$allocator@D@2@@std@@V<lambda_1>@?1???$create@V?$basic_string@DU?$char_traits@D@std@@V?$allocator@D@2@@std@@AAY0CC@$$CBD@?$basic_json@Uordered_map@nlohmann@@Vvector@std@@V?$basic_string@DU?$char_traits@D@std@@V?$allocator@D@2@@4@_N_J_KNVallocator@4@Uadl_serializer@2@V?$vector@EV?$allocator@E@std@@@4@@nlohmann@@CAPAV12@AAY0CC@$$CBD@Z@@std@@QAEPAV?$basic_string@DU?$char_traits@D@std@@V?$allocator@D@2@@2@XZ 00438e80 f i ui_control.obj
 0001:00037e90       ?reserve@?$vector@V?$basic_json@Uordered_map@nlohmann@@Vvector@std@@V?$basic_string@DU?$char_traits@D@std@@V?$allocator@D@2@@4@_N_J_KNVallocator@4@Uadl_serializer@2@V?$vector@EV?$allocator@E@std@@@4@@nlohmann@@V?$allocator@V?$basic_json@Uordered_map@nlohmann@@Vvector@std@@V?$basic_string@DU?$char_traits@D@std@@V?$allocator@D@2@@4@_N_J_KNVallocator@4@Uadl_serializer@2@V?$vector@EV?$allocator@E@std@@@4@@nlohmann@@@std@@@std@@QAEXI@Z 00438e90 f i ui_control.obj
 0001:00037ef0       ?resize@?$basic_string@DU?$char_traits@D@std@@V?$allocator@D@2@@std@@QAEXID@Z 00438ef0 f i ui_control.obj
 0001:00037f20       ?scan@?$lexer@V?$basic_json@Uordered_map@nlohmann@@Vvector@std@@V?$basic_string@DU?$char_traits@D@std@@V?$allocator@D@2@@4@_N_J_KNVallocator@4@Uadl_serializer@2@V?$vector@EV?$allocator@E@std@@@4@@nlohmann@@Vinput_stream_adapter@detail@2@@detail@nlohmann@@QAE?AW4token_type@?$lexer_base@V?$basic_json@Uordered_map@nlohmann@@Vvector@std@@V?$basic_string@DU?$char_traits@D@std@@V?$allocator@D@2@@4@_N_J_KNVallocator@4@Uadl_serializer@2@V?$vector@EV?$allocator@E@std@@@4@@nlohmann@@@23@XZ 00438f20 f i ui_control.obj
 0001:00037f20       ?scan@?$lexer@V?$basic_json@Vmap@std@@Vvector@2@V?$basic_string@DU?$char_traits@D@std@@V?$allocator@D@2@@2@_N_J_KNVallocator@2@Uadl_serializer@nlohmann@@V?$vector@EV?$allocator@E@std@@@2@@nlohmann@@Vinput_stream_adapter@detail@2@@detail@nlohmann@@QAE?AW4token_type@?$lexer_base@V?$basic_json@Vmap@std@@Vvector@2@V?$basic_string@DU?$char_traits@D@std@@V?$allocator@D@2@@2@_N_J_KNVallocator@2@Uadl_serializer@nlohmann@@V?$vector@EV?$allocator@E@std@@@2@@nlohmann@@@23@XZ 00438f20 f i userprofile.obj
 0001:00038280       ?scan_comment@?$lexer@V?$basic_json@Uordered_map@nlohmann@@Vvector@std@@V?$basic_string@DU?$char_traits@D@std@@V?$allocator@D@2@@4@_N_J_KNVallocator@4@Uadl_serializer@2@V?$vector@EV?$allocator@E@std@@@4@@nlohmann@@Vinput_stream_adapter@detail@2@@detail@nlohmann@@AAE_NXZ 00439280 f i ui_control.obj
 0001:00038280       ?scan_comment@?$lexer@V?$basic_json@Vmap@std@@Vvector@2@V?$basic_string@DU?$char_traits@D@std@@V?$allocator@D@2@@2@_N_J_KNVallocator@2@Uadl_serializer@nlohmann@@V?$vector@EV?$allocator@E@std@@@2@@nlohmann@@Vinput_stream_adapter@detail@2@@detail@nlohmann@@AAE_NXZ 00439280 f i userprofile.obj
 0001:00038430       ?scan_literal@?$lexer@V?$basic_json@Uordered_map@nlohmann@@Vvector@std@@V?$basic_string@DU?$char_traits@D@std@@V?$allocator@D@2@@4@_N_J_KNVallocator@4@Uadl_serializer@2@V?$vector@EV?$allocator@E@std@@@4@@nlohmann@@Vinput_stream_adapter@detail@2@@detail@nlohmann@@AAE?AW4token_type@?$lexer_base@V?$basic_json@Uordered_map@nlohmann@@Vvector@std@@V?$basic_string@DU?$char_traits@D@std@@V?$allocator@D@2@@4@_N_J_KNVallocator@4@Uadl_serializer@2@V?$vector@EV?$allocator@E@std@@@4@@nlohmann@@@23@PBDIW44523@@Z 00439430 f i ui_control.obj
 0001:00038430       ?scan_literal@?$lexer@V?$basic_json@Vmap@std@@Vvector@2@V?$basic_string@DU?$char_traits@D@std@@V?$allocator@D@2@@2@_N_J_KNVallocator@2@Uadl_serializer@nlohmann@@V?$vector@EV?$allocator@E@std@@@2@@nlohmann@@Vinput_stream_adapter@detail@2@@detail@nlohmann@@AAE?AW4token_type@?$lexer_base@V?$basic_json@Vmap@std@@Vvector@2@V?$basic_string@DU?$char_traits@D@std@@V?$allocator@D@2@@2@_N_J_KNVallocator@2@Uadl_serializer@nlohmann@@V?$vector@EV?$allocator@E@std@@@2@@nlohmann@@@23@PBDIW44523@@Z 00439430 f i userprofile.obj
 0001:00038570       ?scan_number@?$lexer@V?$basic_json@Uordered_map@nlohmann@@Vvector@std@@V?$basic_string@DU?$char_traits@D@std@@V?$allocator@D@2@@4@_N_J_KNVallocator@4@Uadl_serializer@2@V?$vector@EV?$allocator@E@std@@@4@@nlohmann@@Vinput_stream_adapter@detail@2@@detail@nlohmann@@AAE?AW4token_type@?$lexer_base@V?$basic_json@Uordered_map@nlohmann@@Vvector@std@@V?$basic_string@DU?$char_traits@D@std@@V?$allocator@D@2@@4@_N_J_KNVallocator@4@Uadl_serializer@2@V?$vector@EV?$allocator@E@std@@@4@@nlohmann@@@23@XZ 00439570 f i ui_control.obj
 0001:00038570       ?scan_number@?$lexer@V?$basic_json@Vmap@std@@Vvector@2@V?$basic_string@DU?$char_traits@D@std@@V?$allocator@D@2@@2@_N_J_KNVallocator@2@Uadl_serializer@nlohmann@@V?$vector@EV?$allocator@E@std@@@2@@nlohmann@@Vinput_stream_adapter@detail@2@@detail@nlohmann@@AAE?AW4token_type@?$lexer_base@V?$basic_json@Vmap@std@@Vvector@2@V?$basic_string@DU?$char_traits@D@std@@V?$allocator@D@2@@2@_N_J_KNVallocator@2@Uadl_serializer@nlohmann@@V?$vector@EV?$allocator@E@std@@@2@@nlohmann@@@23@XZ 00439570 f i userprofile.obj
 0001:00038c40       ?scan_string@?$lexer@V?$basic_json@Uordered_map@nlohmann@@Vvector@std@@V?$basic_string@DU?$char_traits@D@std@@V?$allocator@D@2@@4@_N_J_KNVallocator@4@Uadl_serializer@2@V?$vector@EV?$allocator@E@std@@@4@@nlohmann@@Vinput_stream_adapter@detail@2@@detail@nlohmann@@AAE?AW4token_type@?$lexer_base@V?$basic_json@Uordered_map@nlohmann@@Vvector@std@@V?$basic_string@DU?$char_traits@D@std@@V?$allocator@D@2@@4@_N_J_KNVallocator@4@Uadl_serializer@2@V?$vector@EV?$allocator@E@std@@@4@@nlohmann@@@23@XZ 00439c40 f i ui_control.obj
 0001:00038c40       ?scan_string@?$lexer@V?$basic_json@Vmap@std@@Vvector@2@V?$basic_string@DU?$char_traits@D@std@@V?$allocator@D@2@@2@_N_J_KNVallocator@2@Uadl_serializer@nlohmann@@V?$vector@EV?$allocator@E@std@@@2@@nlohmann@@Vinput_stream_adapter@detail@2@@detail@nlohmann@@AAE?AW4token_type@?$lexer_base@V?$basic_json@Vmap@std@@Vvector@2@V?$basic_string@DU?$char_traits@D@std@@V?$allocator@D@2@@2@_N_J_KNVallocator@2@Uadl_serializer@nlohmann@@V?$vector@EV?$allocator@E@std@@@2@@nlohmann@@@23@XZ 00439c40 f i userprofile.obj
 0001:00039480       ?seekoff@?$basic_filebuf@DU?$char_traits@D@std@@@std@@MAE?AV?$fpos@U_Mbstatet@@@2@_JHH@Z 0043a480 f i ui_control.obj
 0001:00039560       ?seekoff@?$basic_streambuf@DU?$char_traits@D@std@@@std@@MAE?AV?$fpos@U_Mbstatet@@@2@_JHH@Z 0043a560 f i ui_control.obj
 0001:00039590       ?seekpos@?$basic_filebuf@DU?$char_traits@D@std@@@std@@MAE?AV?$fpos@U_Mbstatet@@@2@V32@H@Z 0043a590 f i ui_control.obj
 0001:00039660       ?seekpos@?$basic_streambuf@DU?$char_traits@D@std@@@std@@MAE?AV?$fpos@U_Mbstatet@@@2@V32@H@Z 0043a660 f i ui_control.obj
 0001:00039690       ?setbuf@?$basic_filebuf@DU?$char_traits@D@std@@@std@@MAEPAV?$basic_streambuf@DU?$char_traits@D@std@@@2@PAD_J@Z 0043a690 f i ui_control.obj
 0001:000396f0       ?setbuf@?$basic_streambuf@DU?$char_traits@D@std@@@std@@MAEPAV12@PAD_J@Z 0043a6f0 f i ui_control.obj
 0001:00039700       ?setstate@?$basic_ios@DU?$char_traits@D@std@@@std@@QAEXH_N@Z 0043a700 f i ui_control.obj
 0001:00039730       ?showmanyc@?$basic_streambuf@DU?$char_traits@D@std@@@std@@MAE_JXZ 0043a730 f i ui_control.obj
 0001:00039740       ?size@?$basic_string@DU?$char_traits@D@std@@V?$allocator@D@2@@std@@QBEIXZ 0043a740 f i ui_control.obj
 0001:00039750       ?skip_whitespace@?$lexer@V?$basic_json@Uordered_map@nlohmann@@Vvector@std@@V?$basic_string@DU?$char_traits@D@std@@V?$allocator@D@2@@4@_N_J_KNVallocator@4@Uadl_serializer@2@V?$vector@EV?$allocator@E@std@@@4@@nlohmann@@Vinput_stream_adapter@detail@2@@detail@nlohmann@@QAEXXZ 0043a750 f i ui_control.obj
 0001:00039750       ?skip_whitespace@?$lexer@V?$basic_json@Vmap@std@@Vvector@2@V?$basic_string@DU?$char_traits@D@std@@V?$allocator@D@2@@2@_N_J_KNVallocator@2@Uadl_serializer@nlohmann@@V?$vector@EV?$allocator@E@std@@@2@@nlohmann@@Vinput_stream_adapter@detail@2@@detail@nlohmann@@QAEXXZ 0043a750 f i userprofile.obj
 0001:00039870       ?sync@?$basic_filebuf@DU?$char_traits@D@std@@@std@@MAEHXZ 0043a870 f i ui_control.obj
 0001:000398a0       ?sync@?$basic_streambuf@DU?$char_traits@D@std@@@std@@MAEHXZ 0043a8a0 f i ui_control.obj
 0001:000398a0       ___scrt_exe_initialize_mta 0043a8a0 f i LIBCMT:utility_desktop.obj
 0001:000398a0       ___scrt_initialize_winrt   0043a8a0 f i LIBCMT:utility_desktop.obj
 0001:000398a0       ___scrt_stub_for_initialize_mta 0043a8a0 f i LIBCMT:utility_desktop.obj
 0001:000398a0       __get_startup_commit_mode  0043a8a0 f i LIBCMT:commit_mode.obj
 0001:000398a0       __get_startup_new_mode     0043a8a0 f i LIBCMT:new_mode.obj
 0001:000398a0       __get_startup_thread_locale_mode 0043a8a0 f i LIBCMT:thread_locale.obj
 0001:000398a0       __matherr                  0043a8a0 f i LIBCMT:matherr.obj
 0001:000398b0       ?to_string@std@@YA?AV?$basic_string@DU?$char_traits@D@std@@V?$allocator@D@2@@1@I@Z 0043a8b0 f i ui_control.obj
 0001:00039900       ?token_type_name@?$lexer_base@V?$basic_json@Uordered_map@nlohmann@@Vvector@std@@V?$basic_string@DU?$char_traits@D@std@@V?$allocator@D@2@@4@_N_J_KNVallocator@4@Uadl_serializer@2@V?$vector@EV?$allocator@E@std@@@4@@nlohmann@@@detail@nlohmann@@SAPBDW4token_type@123@@Z 0043a900 f i ui_control.obj
 0001:00039900       ?token_type_name@?$lexer_base@V?$basic_json@Vmap@std@@Vvector@2@V?$basic_string@DU?$char_traits@D@std@@V?$allocator@D@2@@2@_N_J_KNVallocator@2@Uadl_serializer@nlohmann@@V?$vector@EV?$allocator@E@std@@@2@@nlohmann@@@detail@nlohmann@@SAPBDW4token_type@123@@Z 0043a900 f i userprofile.obj
 0001:000399d0       ?type_name@?$basic_json@Uordered_map@nlohmann@@Vvector@std@@V?$basic_string@DU?$char_traits@D@std@@V?$allocator@D@2@@4@_N_J_KNVallocator@4@Uadl_serializer@2@V?$vector@EV?$allocator@E@std@@@4@@nlohmann@@QBEPBDXZ 0043a9d0 f i ui_control.obj
 0001:000399d0       ?type_name@?$basic_json@Vmap@std@@Vvector@2@V?$basic_string@DU?$char_traits@D@std@@V?$allocator@D@2@@2@_N_J_KNVallocator@2@Uadl_serializer@nlohmann@@V?$vector@EV?$allocator@E@std@@@2@@nlohmann@@QBEPBDXZ 0043a9d0 f i userprofile.obj
 0001:00039a40       ?uflow@?$basic_filebuf@DU?$char_traits@D@std@@@std@@MAEHXZ 0043aa40 f i ui_control.obj
 0001:00039da0       ?uflow@?$basic_streambuf@DU?$char_traits@D@std@@@std@@MAEHXZ 0043ada0 f i ui_control.obj
 0001:00039dd0       ?underflow@?$basic_filebuf@DU?$char_traits@D@std@@@std@@MAEHXZ 0043add0 f i ui_control.obj
 0001:00039e10       ?underflow@?$basic_streambuf@DU?$char_traits@D@std@@@std@@MAEHXZ 0043ae10 f i ui_control.obj
 0001:00039e20       ?what@exception@detail@nlohmann@@UBEPBDXZ 0043ae20 f i ui_control.obj
 0001:00039e60       ?write@?$basic_ostream@DU?$char_traits@D@std@@@std@@QAEAAV12@PBD_J@Z 0043ae60 f i ui_control.obj
 0001:00039fc0       ?write_character@?$output_stream_adapter@D@detail@nlohmann@@UAEXD@Z 0043afc0 f i ui_control.obj
 0001:00039fd0       ?write_characters@?$output_stream_adapter@D@detail@nlohmann@@UAEXPBDI@Z 0043afd0 f i ui_control.obj
 0001:00039ff0       ?xsgetn@?$basic_filebuf@DU?$char_traits@D@std@@@std@@MAE_JPAD_J@Z 0043aff0 f i ui_control.obj
 0001:0003a1c0       ?xsgetn@?$basic_streambuf@DU?$char_traits@D@std@@@std@@MAE_JPAD_J@Z 0043b1c0 f i ui_control.obj
 0001:0003a290       ?xsputn@?$basic_filebuf@DU?$char_traits@D@std@@@std@@MAE_JPBD_J@Z 0043b290 f i ui_control.obj
 0001:0003a440       ?xsputn@?$basic_streambuf@DU?$char_traits@D@std@@@std@@MAE_JPBD_J@Z 0043b440 f i ui_control.obj
 0001:0003a520       _snprintf                  0043b520 f i ui_control.obj
 0001:0003a560       ??$make_unique@VCWinHTTPSimple@@UCWinHTTPSimpleOptions@@_N$0A@@std@@YA?AV?$unique_ptr@VCWinHTTPSimple@@U?$default_delete@VCWinHTTPSimple@@@std@@@0@$$QAUCWinHTTPSimpleOptions@@$$QA_N@Z 0043b560 f i update_checker.obj
 0001:0003a5f0       ??0?$basic_string@_WU?$char_traits@_W@std@@V?$allocator@_W@2@@std@@QAE@U_String_constructor_concat_tag@1@AAV01@1@Z 0043b5f0 f i update_checker.obj
 0001:0003a7a0       ??0?$function@$$A6AXXZ@std@@QAE@$$QAV01@@Z 0043b7a0 f i update_checker.obj
 0001:0003a800       ??0CAsyncDownloader@WinHTTPWrappers@@QAE@XZ 0043b800 f i update_checker.obj
 0001:0003a990       ??0CWinHTTPSimple@@QAE@UCWinHTTPSimpleOptions@@_N@Z 0043b990 f i update_checker.obj
 0001:0003b380       ??0CWinHTTPSimpleOptions@@QAE@$$QAU0@@Z 0043c380 f i update_checker.obj
 0001:0003b730       ??0CWinHTTPSimpleOptions@@QAE@XZ 0043c730 f i update_checker.obj
 0001:0003b8b0       ??0UpdateChecker@@QAE@KV?$function@$$A6AXXZ@std@@@Z 0043c8b0 f   update_checker.obj
 0001:0003bb90       ??1?$lock_guard@Vmutex@std@@@std@@QAE@XZ 0043cb90 f i update_checker.obj
 0001:0003bba0       ??1?$unique_ptr@VCWinHTTPSimple@@U?$default_delete@VCWinHTTPSimple@@@std@@@std@@QAE@XZ 0043cba0 f i update_checker.obj
 0001:0003bbc0       ??1CConnection@WinHTTPWrappers@@UAE@XZ 0043cbc0 f i update_checker.obj
 0001:0003bbc0       ??1CSession@WinHTTPWrappers@@UAE@XZ 0043cbc0 f i update_checker.obj
 0001:0003bbe0       ??1CHandle@ATL@@QAE@XZ     0043cbe0 f i update_checker.obj
 0001:0003bc00       ??1CSyncDownloader@WinHTTPWrappers@@UAE@XZ 0043cc00 f i update_checker.obj
 0001:0003bc10       ??1CWinHTTPSimpleOptions@@QAE@XZ 0043cc10 f i update_checker.obj
 0001:0003bc90       ??4?$basic_string@_WU?$char_traits@_W@std@@V?$allocator@_W@2@@std@@QAEAAV01@QB_W@Z 0043cc90 f i update_checker.obj
 0001:0003bd90       ?Abort@UpdateChecker@@QAEXXZ 0043cd90 f   update_checker.obj
 0001:0003be10       ?AtlThrowLastWin32@ATL@@YGXXZ 0043ce10 f i update_checker.obj
 0001:0003be30       ?Create@CAtlFile@ATL@@QAEJPB_WKKKKPAU_SECURITY_ATTRIBUTES@@PAX@Z 0043ce30 f i update_checker.obj
 0001:0003c220       ?HandleResponse@UpdateChecker@@QAE?AUResult@1@XZ 0043d220 f   update_checker.obj
 0001:0003c340       ?Initialize@CAsyncDownloader@WinHTTPWrappers@@QAEJABVCConnection@2@PB_W111PAPB_WKKK@Z 0043d340 f i update_checker.obj
 0001:0003c5e0       ?OnRequestDone@UpdateChecker@@AAEXXZ 0043d5e0 f   update_checker.obj
 0001:0003c850       ?Seek@CAtlFile@ATL@@QAEJ_JK@Z 0043d850 f i update_checker.obj
 0001:0003c890       ?SendRequest@CWinHTTPSimple@@QAEJV?$function@$$A6AXXZ@std@@@Z 0043d890 f i update_checker.obj
 0001:0003ca00       ?_Callback@CHandle@WinHTTPWrappers@@KGXPAXKK0K@Z 0043da00 f i update_checker.obj
 0001:0003cad0       ?reset@?$unique_ptr@VCWinHTTPSimple@@U?$default_delete@VCWinHTTPSimple@@@std@@@std@@QAEXPAVCWinHTTPSimple@@@Z 0043dad0 f i update_checker.obj
 0001:0003cb00       ?resize@?$vector@EV?$allocator@E@std@@@std@@QAEXI@Z 0043db00 f i update_checker.obj
 0001:0003cbe0       ??$?0Vpath@filesystem@std@@$0A@@?$basic_ofstream@DU?$char_traits@D@std@@@std@@QAE@ABVpath@filesystem@1@HH@Z 0043dbe0 f i userprofile.obj
 0001:0003cd50       ??$?9PBD$0A@@nlohmann@@YA_NABV?$basic_json@Vmap@std@@Vvector@2@V?$basic_string@DU?$char_traits@D@std@@V?$allocator@D@2@@2@_N_J_KNVallocator@2@Uadl_serializer@nlohmann@@V?$vector@EV?$allocator@E@std@@@2@@0@QBD@Z 0043dd50 f i userprofile.obj
 0001:0003ce00       ??$?A$$CBD@?$basic_json@Vmap@std@@Vvector@2@V?$basic_string@DU?$char_traits@D@std@@V?$allocator@D@2@@2@_N_J_KNVallocator@2@Uadl_serializer@nlohmann@@V?$vector@EV?$allocator@E@std@@@2@@nlohmann@@QAEAAV01@PBD@Z 0043de00 f i userprofile.obj
 0001:0003d030       ??$_Copy_nodes@$0A@@?$_Tree@V?$_Tmap_traits@V?$basic_string@DU?$char_traits@D@std@@V?$allocator@D@2@@std@@V?$basic_json@Vmap@std@@Vvector@2@V?$basic_string@DU?$char_traits@D@std@@V?$allocator@D@2@@2@_N_J_KNVallocator@2@Uadl_serializer@nlohmann@@V?$vector@EV?$allocator@E@std@@@2@@nlohmann@@U?$less@X@2@V?$allocator@U?$pair@$$CBV?$basic_string@DU?$char_traits@D@std@@V?$allocator@D@2@@std@@V?$basic_json@Vmap@std@@Vvector@2@V?$basic_string@DU?$char_traits@D@std@@V?$allocator@D@2@@2@_N_J_KNVallocator@2@Uadl_serializer@nlohmann@@V?$vector@EV?$allocator@E@std@@@2@@nlohmann@@@std@@@2@$0A@@std@@@std@@IAEPAU?$_Tree_node@U?$pair@$$CBV?$basic_string@DU?$char_traits@D@std@@V?$allocator@D@2@@std@@V?$basic_json@Vmap@std@@Vvector@2@V?$basic_string@DU?$char_traits@D@std@@V?$allocator@D@2@@2@_N_J_KNVallocator@2@Uadl_serializer@nlohmann@@V?$vector@EV?$allocator@E@std@@@2@@nlohmann@@@std@@PAX@1@PAU21@0@Z 0043e030 f i userprofile.obj
 0001:0003d130       ??$_Emplace_one_at_back@$$T@?$vector@V?$basic_json@Vmap@std@@Vvector@2@V?$basic_string@DU?$char_traits@D@std@@V?$allocator@D@2@@2@_N_J_KNVallocator@2@Uadl_serializer@nlohmann@@V?$vector@EV?$allocator@E@std@@@2@@nlohmann@@V?$allocator@V?$basic_json@Vmap@std@@Vvector@2@V?$basic_string@DU?$char_traits@D@std@@V?$allocator@D@2@@2@_N_J_KNVallocator@2@Uadl_serializer@nlohmann@@V?$vector@EV?$allocator@E@std@@@2@@nlohmann@@@std@@@std@@AAEAAV?$basic_json@Vmap@std@@Vvector@2@V?$basic_string@DU?$char_traits@D@std@@V?$allocator@D@2@@2@_N_J_KNVallocator@2@Uadl_serializer@nlohmann@@V?$vector@EV?$allocator@E@std@@@2@@nlohmann@@$$QA$$T@Z 0043e130 f i userprofile.obj
 0001:0003d2a0       ??$_Emplace_one_at_back@AAN@?$vector@V?$basic_json@Vmap@std@@Vvector@2@V?$basic_string@DU?$char_traits@D@std@@V?$allocator@D@2@@2@_N_J_KNVallocator@2@Uadl_serializer@nlohmann@@V?$vector@EV?$allocator@E@std@@@2@@nlohmann@@V?$allocator@V?$basic_json@Vmap@std@@Vvector@2@V?$basic_string@DU?$char_traits@D@std@@V?$allocator@D@2@@2@_N_J_KNVallocator@2@Uadl_serializer@nlohmann@@V?$vector@EV?$allocator@E@std@@@2@@nlohmann@@@std@@@std@@AAEAAV?$basic_json@Vmap@std@@Vvector@2@V?$basic_string@DU?$char_traits@D@std@@V?$allocator@D@2@@2@_N_J_KNVallocator@2@Uadl_serializer@nlohmann@@V?$vector@EV?$allocator@E@std@@@2@@nlohmann@@AAN@Z 0043e2a0 f i userprofile.obj
 0001:0003d3f0       ??$_Emplace_one_at_back@AA_J@?$vector@V?$basic_json@Vmap@std@@Vvector@2@V?$basic_string@DU?$char_traits@D@std@@V?$allocator@D@2@@2@_N_J_KNVallocator@2@Uadl_serializer@nlohmann@@V?$vector@EV?$allocator@E@std@@@2@@nlohmann@@V?$allocator@V?$basic_json@Vmap@std@@Vvector@2@V?$basic_string@DU?$char_traits@D@std@@V?$allocator@D@2@@2@_N_J_KNVallocator@2@Uadl_serializer@nlohmann@@V?$vector@EV?$allocator@E@std@@@2@@nlohmann@@@std@@@std@@AAEAAV?$basic_json@Vmap@std@@Vvector@2@V?$basic_string@DU?$char_traits@D@std@@V?$allocator@D@2@@2@_N_J_KNVallocator@2@Uadl_serializer@nlohmann@@V?$vector@EV?$allocator@E@std@@@2@@nlohmann@@AA_J@Z 0043e3f0 f i userprofile.obj
 0001:0003d530       ??$_Emplace_one_at_back@AA_K@?$vector@V?$basic_json@Vmap@std@@Vvector@2@V?$basic_string@DU?$char_traits@D@std@@V?$allocator@D@2@@2@_N_J_KNVallocator@2@Uadl_serializer@nlohmann@@V?$vector@EV?$allocator@E@std@@@2@@nlohmann@@V?$allocator@V?$basic_json@Vmap@std@@Vvector@2@V?$basic_string@DU?$char_traits@D@std@@V?$allocator@D@2@@2@_N_J_KNVallocator@2@Uadl_serializer@nlohmann@@V?$vector@EV?$allocator@E@std@@@2@@nlohmann@@@std@@@std@@AAEAAV?$basic_json@Vmap@std@@Vvector@2@V?$basic_string@DU?$char_traits@D@std@@V?$allocator@D@2@@2@_N_J_KNVallocator@2@Uadl_serializer@nlohmann@@V?$vector@EV?$allocator@E@std@@@2@@nlohmann@@AA_K@Z 0043e530 f i userprofile.obj
 0001:0003d670       ??$_Emplace_one_at_back@AA_N@?$vector@V?$basic_json@Vmap@std@@Vvector@2@V?$basic_string@DU?$char_traits@D@std@@V?$allocator@D@2@@2@_N_J_KNVallocator@2@Uadl_serializer@nlohmann@@V?$vector@EV?$allocator@E@std@@@2@@nlohmann@@V?$allocator@V?$basic_json@Vmap@std@@Vvector@2@V?$basic_string@DU?$char_traits@D@std@@V?$allocator@D@2@@2@_N_J_KNVallocator@2@Uadl_serializer@nlohmann@@V?$vector@EV?$allocator@E@std@@@2@@nlohmann@@@std@@@std@@AAEAAV?$basic_json@Vmap@std@@Vvector@2@V?$basic_string@DU?$char_traits@D@std@@V?$allocator@D@2@@2@_N_J_KNVallocator@2@Uadl_serializer@nlohmann@@V?$vector@EV?$allocator@E@std@@@2@@nlohmann@@AA_N@Z 0043e670 f i userprofile.obj
 0001:0003d7c0       ??$_Emplace_one_at_back@W4value_t@detail@nlohmann@@@?$vector@V?$basic_json@Vmap@std@@Vvector@2@V?$basic_string@DU?$char_traits@D@std@@V?$allocator@D@2@@2@_N_J_KNVallocator@2@Uadl_serializer@nlohmann@@V?$vector@EV?$allocator@E@std@@@2@@nlohmann@@V?$allocator@V?$basic_json@Vmap@std@@Vvector@2@V?$basic_string@DU?$char_traits@D@std@@V?$allocator@D@2@@2@_N_J_KNVallocator@2@Uadl_serializer@nlohmann@@V?$vector@EV?$allocator@E@std@@@2@@nlohmann@@@std@@@std@@AAEAAV?$basic_json@Vmap@std@@Vvector@2@V?$basic_string@DU?$char_traits@D@std@@V?$allocator@D@2@@2@_N_J_KNVallocator@2@Uadl_serializer@nlohmann@@V?$vector@EV?$allocator@E@std@@@2@@nlohmann@@$$QAW4value_t@detail@3@@Z 0043e7c0 f i userprofile.obj
 0001:0003d930       ??$_Emplace_reallocate@AAV?$basic_string@DU?$char_traits@D@std@@V?$allocator@D@2@@std@@@?$vector@V?$basic_json@Vmap@std@@Vvector@2@V?$basic_string@DU?$char_traits@D@std@@V?$allocator@D@2@@2@_N_J_KNVallocator@2@Uadl_serializer@nlohmann@@V?$vector@EV?$allocator@E@std@@@2@@nlohmann@@V?$allocator@V?$basic_json@Vmap@std@@Vvector@2@V?$basic_string@DU?$char_traits@D@std@@V?$allocator@D@2@@2@_N_J_KNVallocator@2@Uadl_serializer@nlohmann@@V?$vector@EV?$allocator@E@std@@@2@@nlohmann@@@std@@@std@@AAEPAV?$basic_json@Vmap@std@@Vvector@2@V?$basic_string@DU?$char_traits@D@std@@V?$allocator@D@2@@2@_N_J_KNVallocator@2@Uadl_serializer@nlohmann@@V?$vector@EV?$allocator@E@std@@@2@@nlohmann@@QAV23@AAV?$basic_string@DU?$char_traits@D@std@@V?$allocator@D@2@@1@@Z 0043e930 f i userprofile.obj
 0001:0003da90       ??$_Erase_tree@V?$allocator@U?$_Tree_node@U?$pair@$$CBV?$basic_string@DU?$char_traits@D@std@@V?$allocator@D@2@@std@@V?$basic_json@Vmap@std@@Vvector@2@V?$basic_string@DU?$char_traits@D@std@@V?$allocator@D@2@@2@_N_J_KNVallocator@2@Uadl_serializer@nlohmann@@V?$vector@EV?$allocator@E@std@@@2@@nlohmann@@@std@@PAX@std@@@std@@@?$_Tree_val@U?$_Tree_simple_types@U?$pair@$$CBV?$basic_string@DU?$char_traits@D@std@@V?$allocator@D@2@@std@@V?$basic_json@Vmap@std@@Vvector@2@V?$basic_string@DU?$char_traits@D@std@@V?$allocator@D@2@@2@_N_J_KNVallocator@2@Uadl_serializer@nlohmann@@V?$vector@EV?$allocator@E@std@@@2@@nlohmann@@@std@@@std@@@std@@QAEXAAV?$allocator@U?$_Tree_node@U?$pair@$$CBV?$basic_string@DU?$char_traits@D@std@@V?$allocator@D@2@@std@@V?$basic_json@Vmap@std@@Vvector@2@V?$basic_string@DU?$char_traits@D@std@@V?$allocator@D@2@@2@_N_J_KNVallocator@2@Uadl_serializer@nlohmann@@V?$vector@EV?$allocator@E@std@@@2@@nlohmann@@@std@@PAX@std@@@1@PAU?$_Tree_node@U?$pair@$$CBV?$basic_string@DU?$char_traits@D@std@@V?$allocator@D@2@@std@@V?$basic_json@Vmap@std@@Vvector@2@V?$basic_string@DU?$char_traits@D@std@@V?$allocator@D@2@@2@_N_J_KNVallocator@2@Uadl_serializer@nlohmann@@V?$vector@EV?$allocator@E@std@@@2@@nlohmann@@@std@@PAX@1@@Z 0043ea90 f i userprofile.obj
 0001:0003da90       ??$_Erase_tree_and_orphan@V?$allocator@U?$_Tree_node@U?$pair@$$CBV?$basic_string@DU?$char_traits@D@std@@V?$allocator@D@2@@std@@V?$basic_json@Vmap@std@@Vvector@2@V?$basic_string@DU?$char_traits@D@std@@V?$allocator@D@2@@2@_N_J_KNVallocator@2@Uadl_serializer@nlohmann@@V?$vector@EV?$allocator@E@std@@@2@@nlohmann@@@std@@PAX@std@@@std@@@?$_Tree_val@U?$_Tree_simple_types@U?$pair@$$CBV?$basic_string@DU?$char_traits@D@std@@V?$allocator@D@2@@std@@V?$basic_json@Vmap@std@@Vvector@2@V?$basic_string@DU?$char_traits@D@std@@V?$allocator@D@2@@2@_N_J_KNVallocator@2@Uadl_serializer@nlohmann@@V?$vector@EV?$allocator@E@std@@@2@@nlohmann@@@std@@@std@@@std@@QAEXAAV?$allocator@U?$_Tree_node@U?$pair@$$CBV?$basic_string@DU?$char_traits@D@std@@V?$allocator@D@2@@std@@V?$basic_json@Vmap@std@@Vvector@2@V?$basic_string@DU?$char_traits@D@std@@V?$allocator@D@2@@2@_N_J_KNVallocator@2@Uadl_serializer@nlohmann@@V?$vector@EV?$allocator@E@std@@@2@@nlohmann@@@std@@PAX@std@@@1@PAU?$_Tree_node@U?$pair@$$CBV?$basic_string@DU?$char_traits@D@std@@V?$allocator@D@2@@std@@V?$basic_json@Vmap@std@@Vvector@2@V?$basic_string@DU?$char_traits@D@std@@V?$allocator@D@2@@2@_N_J_KNVallocator@2@Uadl_serializer@nlohmann@@V?$vector@EV?$allocator@E@std@@@2@@nlohmann@@@std@@PAX@1@@Z 0043ea90 f i userprofile.obj
 0001:0003daf0       ??$_Find_lower_bound@V?$basic_string@DU?$char_traits@D@std@@V?$allocator@D@2@@std@@@?$_Tree@V?$_Tmap_traits@V?$basic_string@DU?$char_traits@D@std@@V?$allocator@D@2@@std@@V?$basic_json@Vmap@std@@Vvector@2@V?$basic_string@DU?$char_traits@D@std@@V?$allocator@D@2@@2@_N_J_KNVallocator@2@Uadl_serializer@nlohmann@@V?$vector@EV?$allocator@E@std@@@2@@nlohmann@@U?$less@X@2@V?$allocator@U?$pair@$$CBV?$basic_string@DU?$char_traits@D@std@@V?$allocator@D@2@@std@@V?$basic_json@Vmap@std@@Vvector@2@V?$basic_string@DU?$char_traits@D@std@@V?$allocator@D@2@@2@_N_J_KNVallocator@2@Uadl_serializer@nlohmann@@V?$vector@EV?$allocator@E@std@@@2@@nlohmann@@@std@@@2@$0A@@std@@@std@@IBE?AU?$_Tree_find_result@PAU?$_Tree_node@U?$pair@$$CBV?$basic_string@DU?$char_traits@D@std@@V?$allocator@D@2@@std@@V?$basic_json@Vmap@std@@Vvector@2@V?$basic_string@DU?$char_traits@D@std@@V?$allocator@D@2@@2@_N_J_KNVallocator@2@Uadl_serializer@nlohmann@@V?$vector@EV?$allocator@E@std@@@2@@nlohmann@@@std@@PAX@std@@@1@ABV?$basic_string@DU?$char_traits@D@std@@V?$allocator@D@2@@1@@Z 0043eaf0 f i userprofile.obj
 0001:0003db90       ??$_Traits_compare@U?$char_traits@D@std@@@std@@YAHQBDI0I@Z 0043eb90 f i userprofile.obj
 0001:0003dc20       ??$dump_integer@E$0A@@?$serializer@V?$basic_json@Vmap@std@@Vvector@2@V?$basic_string@DU?$char_traits@D@std@@V?$allocator@D@2@@2@_N_J_KNVallocator@2@Uadl_serializer@nlohmann@@V?$vector@EV?$allocator@E@std@@@2@@nlohmann@@@detail@nlohmann@@AAEXE@Z 0043ec20 f i userprofile.obj
 0001:0003dd70       ??$erase@V?$iter_impl@V?$basic_json@Vmap@std@@Vvector@2@V?$basic_string@DU?$char_traits@D@std@@V?$allocator@D@2@@2@_N_J_KNVallocator@2@Uadl_serializer@nlohmann@@V?$vector@EV?$allocator@E@std@@@2@@nlohmann@@@detail@nlohmann@@$0A@@?$basic_json@Vmap@std@@Vvector@2@V?$basic_string@DU?$char_traits@D@std@@V?$allocator@D@2@@2@_N_J_KNVallocator@2@Uadl_serializer@nlohmann@@V?$vector@EV?$allocator@E@std@@@2@@nlohmann@@QAE?AV?$iter_impl@V?$basic_json@Vmap@std@@Vvector@2@V?$basic_string@DU?$char_traits@D@std@@V?$allocator@D@2@@2@_N_J_KNVallocator@2@Uadl_serializer@nlohmann@@V?$vector@EV?$allocator@E@std@@@2@@nlohmann@@@detail@1@V231@@Z 0043ed70 f i userprofile.obj
 0001:0003e010       ??$find@$$BY07DU?$less@X@std@@$0A@@?$_Tree@V?$_Tmap_traits@V?$basic_string@DU?$char_traits@D@std@@V?$allocator@D@2@@std@@V?$basic_json@Vmap@std@@Vvector@2@V?$basic_string@DU?$char_traits@D@std@@V?$allocator@D@2@@2@_N_J_KNVallocator@2@Uadl_serializer@nlohmann@@V?$vector@EV?$allocator@E@std@@@2@@nlohmann@@U?$less@X@2@V?$allocator@U?$pair@$$CBV?$basic_string@DU?$char_traits@D@std@@V?$allocator@D@2@@std@@V?$basic_json@Vmap@std@@Vvector@2@V?$basic_string@DU?$char_traits@D@std@@V?$allocator@D@2@@2@_N_J_KNVallocator@2@Uadl_serializer@nlohmann@@V?$vector@EV?$allocator@E@std@@@2@@nlohmann@@@std@@@2@$0A@@std@@@std@@QAE?AV?$_Tree_iterator@V?$_Tree_val@U?$_Tree_simple_types@U?$pair@$$CBV?$basic_string@DU?$char_traits@D@std@@V?$allocator@D@2@@std@@V?$basic_json@Vmap@std@@Vvector@2@V?$basic_string@DU?$char_traits@D@std@@V?$allocator@D@2@@2@_N_J_KNVallocator@2@Uadl_serializer@nlohmann@@V?$vector@EV?$allocator@E@std@@@2@@nlohmann@@@std@@@std@@@std@@@1@AAY07$$CBD@Z 0043f010 f i userprofile.obj
 0001:0003e0f0       ??$find@AAY0O@$$CBD@?$basic_json@Vmap@std@@Vvector@2@V?$basic_string@DU?$char_traits@D@std@@V?$allocator@D@2@@2@_N_J_KNVallocator@2@Uadl_serializer@nlohmann@@V?$vector@EV?$allocator@E@std@@@2@@nlohmann@@QBE?AV?$iter_impl@$$CBV?$basic_json@Vmap@std@@Vvector@2@V?$basic_string@DU?$char_traits@D@std@@V?$allocator@D@2@@2@_N_J_KNVallocator@2@Uadl_serializer@nlohmann@@V?$vector@EV?$allocator@E@std@@@2@@nlohmann@@@detail@1@AAY0O@$$CBD@Z 0043f0f0 f i userprofile.obj
 0001:0003e1e0       ??$for_each@PBV?$json_ref@V?$basic_json@Vmap@std@@Vvector@2@V?$basic_string@DU?$char_traits@D@std@@V?$allocator@D@2@@2@_N_J_KNVallocator@2@Uadl_serializer@nlohmann@@V?$vector@EV?$allocator@E@std@@@2@@nlohmann@@@detail@nlohmann@@V<lambda_2>@?O@???0?$basic_json@Vmap@std@@Vvector@2@V?$basic_string@DU?$char_traits@D@std@@V?$allocator@D@2@@2@_N_J_KNVallocator@2@Uadl_serializer@nlohmann@@V?$vector@EV?$allocator@E@std@@@2@@3@QAE@V?$initializer_list@V?$json_ref@V?$basic_json@Vmap@std@@Vvector@2@V?$basic_string@DU?$char_traits@D@std@@V?$allocator@D@2@@2@_N_J_KNVallocator@2@Uadl_serializer@nlohmann@@V?$vector@EV?$allocator@E@std@@@2@@nlohmann@@@detail@nlohmann@@@std@@_NW4value_t@23@@Z@@std@@YA?AV<lambda_2>@?O@???0?$basic_json@Vmap@std@@Vvector@2@V?$basic_string@DU?$char_traits@D@std@@V?$allocator@D@2@@2@_N_J_KNVallocator@2@Uadl_serializer@nlohmann@@V?$vector@EV?$allocator@E@std@@@2@@nlohmann@@QAE@V?$initializer_list@V?$json_ref@V?$basic_json@Vmap@std@@Vvector@2@V?$basic_string@DU?$char_traits@D@std@@V?$allocator@D@2@@2@_N_J_KNVallocator@2@Uadl_serializer@nlohmann@@V?$vector@EV?$allocator@E@std@@@2@@nlohmann@@@detail@nlohmann@@@0@_NW4value_t@detail@3@@Z@PBV?$json_ref@V?$basic_json@Vmap@std@@Vvector@2@V?$basic_string@DU?$char_traits@D@std@@V?$allocator@D@2@@2@_N_J_KNVallocator@2@Uadl_serializer@nlohmann@@V?$vector@EV?$allocator@E@std@@@2@@nlohmann@@@63@3V1?O@???023@QAE@012@Z@@Z 0043f1e0 f i userprofile.obj
 0001:0003e3b0       ??$from_json@V?$basic_json@Vmap@std@@Vvector@2@V?$basic_string@DU?$char_traits@D@std@@V?$allocator@D@2@@2@_N_J_KNVallocator@2@Uadl_serializer@nlohmann@@V?$vector@EV?$allocator@E@std@@@2@@nlohmann@@@detail@nlohmann@@YAXABV?$basic_json@Vmap@std@@Vvector@2@V?$basic_string@DU?$char_traits@D@std@@V?$allocator@D@2@@2@_N_J_KNVallocator@2@Uadl_serializer@nlohmann@@V?$vector@EV?$allocator@E@std@@@2@@1@AAV?$basic_string@DU?$char_traits@D@std@@V?$allocator@D@2@@std@@@Z 0043f3b0 f i userprofile.obj
 0001:0003e550       ??$get@$0A@V?$iter_impl@$$CBV?$basic_json@Vmap@std@@Vvector@2@V?$basic_string@DU?$char_traits@D@std@@V?$allocator@D@2@@2@_N_J_KNVallocator@2@Uadl_serializer@nlohmann@@V?$vector@EV?$allocator@E@std@@@2@@nlohmann@@@detail@nlohmann@@$0A@@detail@nlohmann@@YAABV?$basic_string@DU?$char_traits@D@std@@V?$allocator@D@2@@std@@ABV?$iteration_proxy_value@V?$iter_impl@$$CBV?$basic_json@Vmap@std@@Vvector@2@V?$basic_string@DU?$char_traits@D@std@@V?$allocator@D@2@@2@_N_J_KNVallocator@2@Uadl_serializer@nlohmann@@V?$vector@EV?$allocator@E@std@@@2@@nlohmann@@@detail@nlohmann@@@01@@Z 0043f550 f i userprofile.obj
 0001:0003e6a0       ??$get@V?$basic_string@DU?$char_traits@D@std@@V?$allocator@D@2@@std@@V12@$0A@@?$basic_json@Vmap@std@@Vvector@2@V?$basic_string@DU?$char_traits@D@std@@V?$allocator@D@2@@2@_N_J_KNVallocator@2@Uadl_serializer@nlohmann@@V?$vector@EV?$allocator@E@std@@@2@@nlohmann@@QBE?AV?$basic_string@DU?$char_traits@D@std@@V?$allocator@D@2@@std@@XZ 0043f6a0 f i userprofile.obj
 0001:0003e720       ??$handle_value@$$T@?$json_sax_dom_callback_parser@V?$basic_json@Vmap@std@@Vvector@2@V?$basic_string@DU?$char_traits@D@std@@V?$allocator@D@2@@2@_N_J_KNVallocator@2@Uadl_serializer@nlohmann@@V?$vector@EV?$allocator@E@std@@@2@@nlohmann@@@detail@nlohmann@@AAE?AU?$pair@_NPAV?$basic_json@Vmap@std@@Vvector@2@V?$basic_string@DU?$char_traits@D@std@@V?$allocator@D@2@@2@_N_J_KNVallocator@2@Uadl_serializer@nlohmann@@V?$vector@EV?$allocator@E@std@@@2@@nlohmann@@@std@@$$QA$$T_N@Z 0043f720 f i userprofile.obj
 0001:0003e8c0       ??$handle_value@AAN@?$json_sax_dom_callback_parser@V?$basic_json@Vmap@std@@Vvector@2@V?$basic_string@DU?$char_traits@D@std@@V?$allocator@D@2@@2@_N_J_KNVallocator@2@Uadl_serializer@nlohmann@@V?$vector@EV?$allocator@E@std@@@2@@nlohmann@@@detail@nlohmann@@AAE?AU?$pair@_NPAV?$basic_json@Vmap@std@@Vvector@2@V?$basic_string@DU?$char_traits@D@std@@V?$allocator@D@2@@2@_N_J_KNVallocator@2@Uadl_serializer@nlohmann@@V?$vector@EV?$allocator@E@std@@@2@@nlohmann@@@std@@AAN_N@Z 0043f8c0 f i userprofile.obj
 0001:0003ea60       ??$handle_value@AAV?$basic_string@DU?$char_traits@D@std@@V?$allocator@D@2@@std@@@?$json_sax_dom_callback_parser@V?$basic_json@Vmap@std@@Vvector@2@V?$basic_string@DU?$char_traits@D@std@@V?$allocator@D@2@@2@_N_J_KNVallocator@2@Uadl_serializer@nlohmann@@V?$vector@EV?$allocator@E@std@@@2@@nlohmann@@@detail@nlohmann@@AAE?AU?$pair@_NPAV?$basic_json@Vmap@std@@Vvector@2@V?$basic_string@DU?$char_traits@D@std@@V?$allocator@D@2@@2@_N_J_KNVallocator@2@Uadl_serializer@nlohmann@@V?$vector@EV?$allocator@E@std@@@2@@nlohmann@@@std@@AAV?$basic_string@DU?$char_traits@D@std@@V?$allocator@D@2@@4@_N@Z 0043fa60 f i userprofile.obj
 0001:0003ec20       ??$handle_value@AA_J@?$json_sax_dom_callback_parser@V?$basic_json@Vmap@std@@Vvector@2@V?$basic_string@DU?$char_traits@D@std@@V?$allocator@D@2@@2@_N_J_KNVallocator@2@Uadl_serializer@nlohmann@@V?$vector@EV?$allocator@E@std@@@2@@nlohmann@@@detail@nlohmann@@AAE?AU?$pair@_NPAV?$basic_json@Vmap@std@@Vvector@2@V?$basic_string@DU?$char_traits@D@std@@V?$allocator@D@2@@2@_N_J_KNVallocator@2@Uadl_serializer@nlohmann@@V?$vector@EV?$allocator@E@std@@@2@@nlohmann@@@std@@AA_J_N@Z 0043fc20 f i userprofile.obj
 0001:0003edc0       ??$handle_value@AA_K@?$json_sax_dom_callback_parser@V?$basic_json@Vmap@std@@Vvector@2@V?$basic_string@DU?$char_traits@D@std@@V?$allocator@D@2@@2@_N_J_KNVallocator@2@Uadl_serializer@nlohmann@@V?$vector@EV?$allocator@E@std@@@2@@nlohmann@@@detail@nlohmann@@AAE?AU?$pair@_NPAV?$basic_json@Vmap@std@@Vvector@2@V?$basic_string@DU?$char_traits@D@std@@V?$allocator@D@2@@2@_N_J_KNVallocator@2@Uadl_serializer@nlohmann@@V?$vector@EV?$allocator@E@std@@@2@@nlohmann@@@std@@AA_K_N@Z 0043fdc0 f i userprofile.obj
 0001:0003ef70       ??$handle_value@AA_N@?$json_sax_dom_callback_parser@V?$basic_json@Vmap@std@@Vvector@2@V?$basic_string@DU?$char_traits@D@std@@V?$allocator@D@2@@2@_N_J_KNVallocator@2@Uadl_serializer@nlohmann@@V?$vector@EV?$allocator@E@std@@@2@@nlohmann@@@detail@nlohmann@@AAE?AU?$pair@_NPAV?$basic_json@Vmap@std@@Vvector@2@V?$basic_string@DU?$char_traits@D@std@@V?$allocator@D@2@@2@_N_J_KNVallocator@2@Uadl_serializer@nlohmann@@V?$vector@EV?$allocator@E@std@@@2@@nlohmann@@@std@@AA_N_N@Z 0043ff70 f i userprofile.obj
 0001:0003f120       ??$handle_value@W4value_t@detail@nlohmann@@@?$json_sax_dom_callback_parser@V?$basic_json@Vmap@std@@Vvector@2@V?$basic_string@DU?$char_traits@D@std@@V?$allocator@D@2@@2@_N_J_KNVallocator@2@Uadl_serializer@nlohmann@@V?$vector@EV?$allocator@E@std@@@2@@nlohmann@@@detail@nlohmann@@AAE?AU?$pair@_NPAV?$basic_json@Vmap@std@@Vvector@2@V?$basic_string@DU?$char_traits@D@std@@V?$allocator@D@2@@2@_N_J_KNVallocator@2@Uadl_serializer@nlohmann@@V?$vector@EV?$allocator@E@std@@@2@@nlohmann@@@std@@$$QAW4value_t@12@_N@Z 00440120 f i userprofile.obj
 0001:0003f2c0       ??$handle_value@W4value_t@detail@nlohmann@@@?$json_sax_dom_parser@V?$basic_json@Vmap@std@@Vvector@2@V?$basic_string@DU?$char_traits@D@std@@V?$allocator@D@2@@2@_N_J_KNVallocator@2@Uadl_serializer@nlohmann@@V?$vector@EV?$allocator@E@std@@@2@@nlohmann@@@detail@nlohmann@@AAEPAV?$basic_json@Vmap@std@@Vvector@2@V?$basic_string@DU?$char_traits@D@std@@V?$allocator@D@2@@2@_N_J_KNVallocator@2@Uadl_serializer@nlohmann@@V?$vector@EV?$allocator@E@std@@@2@@2@$$QAW4value_t@12@@Z 004402c0 f i userprofile.obj
 0001:0003f3b0       ??$parse@PBD@?$basic_json@Vmap@std@@Vvector@2@V?$basic_string@DU?$char_traits@D@std@@V?$allocator@D@2@@2@_N_J_KNVallocator@2@Uadl_serializer@nlohmann@@V?$vector@EV?$allocator@E@std@@@2@@nlohmann@@SA?AV01@PBD0V?$function@$$A6A_NHW4parse_event_t@detail@nlohmann@@AAV?$basic_json@Vmap@std@@Vvector@2@V?$basic_string@DU?$char_traits@D@std@@V?$allocator@D@2@@2@_N_J_KNVallocator@2@Uadl_serializer@nlohmann@@V?$vector@EV?$allocator@E@std@@@2@@3@@Z@std@@_N2@Z 004403b0 f i userprofile.obj
 0001:0003f4e0       ??$parser@V?$iterator_input_adapter@PBD@detail@nlohmann@@@?$basic_json@Vmap@std@@Vvector@2@V?$basic_string@DU?$char_traits@D@std@@V?$allocator@D@2@@2@_N_J_KNVallocator@2@Uadl_serializer@nlohmann@@V?$vector@EV?$allocator@E@std@@@2@@nlohmann@@CA?AV?$parser@V?$basic_json@Vmap@std@@Vvector@2@V?$basic_string@DU?$char_traits@D@std@@V?$allocator@D@2@@2@_N_J_KNVallocator@2@Uadl_serializer@nlohmann@@V?$vector@EV?$allocator@E@std@@@2@@nlohmann@@V?$iterator_input_adapter@PBD@detail@2@@detail@1@V?$iterator_input_adapter@PBD@31@V?$function@$$A6A_NHW4parse_event_t@detail@nlohmann@@AAV?$basic_json@Vmap@std@@Vvector@2@V?$basic_string@DU?$char_traits@D@std@@V?$allocator@D@2@@2@_N_J_KNVallocator@2@Uadl_serializer@nlohmann@@V?$vector@EV?$allocator@E@std@@@2@@3@@Z@std@@_N2@Z 004404e0 f i userprofile.obj
 0001:0003f6a0       ??$sax_parse_internal@V?$json_sax_dom_callback_parser@V?$basic_json@Vmap@std@@Vvector@2@V?$basic_string@DU?$char_traits@D@std@@V?$allocator@D@2@@2@_N_J_KNVallocator@2@Uadl_serializer@nlohmann@@V?$vector@EV?$allocator@E@std@@@2@@nlohmann@@@detail@nlohmann@@@?$parser@V?$basic_json@Vmap@std@@Vvector@2@V?$basic_string@DU?$char_traits@D@std@@V?$allocator@D@2@@2@_N_J_KNVallocator@2@Uadl_serializer@nlohmann@@V?$vector@EV?$allocator@E@std@@@2@@nlohmann@@V?$iterator_input_adapter@PBD@detail@2@@detail@nlohmann@@AAE_NPAV?$json_sax_dom_callback_parser@V?$basic_json@Vmap@std@@Vvector@2@V?$basic_string@DU?$char_traits@D@std@@V?$allocator@D@2@@2@_N_J_KNVallocator@2@Uadl_serializer@nlohmann@@V?$vector@EV?$allocator@E@std@@@2@@nlohmann@@@12@@Z 004406a0 f i userprofile.obj
 0001:00040810       ??$sax_parse_internal@V?$json_sax_dom_callback_parser@V?$basic_json@Vmap@std@@Vvector@2@V?$basic_string@DU?$char_traits@D@std@@V?$allocator@D@2@@2@_N_J_KNVallocator@2@Uadl_serializer@nlohmann@@V?$vector@EV?$allocator@E@std@@@2@@nlohmann@@@detail@nlohmann@@@?$parser@V?$basic_json@Vmap@std@@Vvector@2@V?$basic_string@DU?$char_traits@D@std@@V?$allocator@D@2@@2@_N_J_KNVallocator@2@Uadl_serializer@nlohmann@@V?$vector@EV?$allocator@E@std@@@2@@nlohmann@@Vinput_stream_adapter@detail@2@@detail@nlohmann@@AAE_NPAV?$json_sax_dom_callback_parser@V?$basic_json@Vmap@std@@Vvector@2@V?$basic_string@DU?$char_traits@D@std@@V?$allocator@D@2@@2@_N_J_KNVallocator@2@Uadl_serializer@nlohmann@@V?$vector@EV?$allocator@E@std@@@2@@nlohmann@@@12@@Z 00441810 f i userprofile.obj
 0001:00041980       ??$sax_parse_internal@V?$json_sax_dom_parser@V?$basic_json@Vmap@std@@Vvector@2@V?$basic_string@DU?$char_traits@D@std@@V?$allocator@D@2@@2@_N_J_KNVallocator@2@Uadl_serializer@nlohmann@@V?$vector@EV?$allocator@E@std@@@2@@nlohmann@@@detail@nlohmann@@@?$parser@V?$basic_json@Vmap@std@@Vvector@2@V?$basic_string@DU?$char_traits@D@std@@V?$allocator@D@2@@2@_N_J_KNVallocator@2@Uadl_serializer@nlohmann@@V?$vector@EV?$allocator@E@std@@@2@@nlohmann@@V?$iterator_input_adapter@PBD@detail@2@@detail@nlohmann@@AAE_NPAV?$json_sax_dom_parser@V?$basic_json@Vmap@std@@Vvector@2@V?$basic_string@DU?$char_traits@D@std@@V?$allocator@D@2@@2@_N_J_KNVallocator@2@Uadl_serializer@nlohmann@@V?$vector@EV?$allocator@E@std@@@2@@nlohmann@@@12@@Z 00442980 f i userprofile.obj
 0001:00042a00       ??$sax_parse_internal@V?$json_sax_dom_parser@V?$basic_json@Vmap@std@@Vvector@2@V?$basic_string@DU?$char_traits@D@std@@V?$allocator@D@2@@2@_N_J_KNVallocator@2@Uadl_serializer@nlohmann@@V?$vector@EV?$allocator@E@std@@@2@@nlohmann@@@detail@nlohmann@@@?$parser@V?$basic_json@Vmap@std@@Vvector@2@V?$basic_string@DU?$char_traits@D@std@@V?$allocator@D@2@@2@_N_J_KNVallocator@2@Uadl_serializer@nlohmann@@V?$vector@EV?$allocator@E@std@@@2@@nlohmann@@Vinput_stream_adapter@detail@2@@detail@nlohmann@@AAE_NPAV?$json_sax_dom_parser@V?$basic_json@Vmap@std@@Vvector@2@V?$basic_string@DU?$char_traits@D@std@@V?$allocator@D@2@@2@_N_J_KNVallocator@2@Uadl_serializer@nlohmann@@V?$vector@EV?$allocator@E@std@@@2@@nlohmann@@@12@@Z 00443a00 f i userprofile.obj
 0001:00043a80       ??0?$basic_json@Vmap@std@@Vvector@2@V?$basic_string@DU?$char_traits@D@std@@V?$allocator@D@2@@2@_N_J_KNVallocator@2@Uadl_serializer@nlohmann@@V?$vector@EV?$allocator@E@std@@@2@@nlohmann@@QAE@ABV01@@Z 00444a80 f i userprofile.obj
 0001:00043dc0       ??0?$basic_json@Vmap@std@@Vvector@2@V?$basic_string@DU?$char_traits@D@std@@V?$allocator@D@2@@2@_N_J_KNVallocator@2@Uadl_serializer@nlohmann@@V?$vector@EV?$allocator@E@std@@@2@@nlohmann@@QAE@V?$initializer_list@V?$json_ref@V?$basic_json@Vmap@std@@Vvector@2@V?$basic_string@DU?$char_traits@D@std@@V?$allocator@D@2@@2@_N_J_KNVallocator@2@Uadl_serializer@nlohmann@@V?$vector@EV?$allocator@E@std@@@2@@nlohmann@@@detail@nlohmann@@@std@@_NW4value_t@detail@1@@Z 00444dc0 f i userprofile.obj
 0001:00043ff0       ??0?$basic_string@DU?$char_traits@D@std@@V?$allocator@D@2@@std@@QAE@$$QAV01@@Z 00444ff0 f i userprofile.obj
 0001:00044040       ??0?$json_sax_dom_callback_parser@V?$basic_json@Vmap@std@@Vvector@2@V?$basic_string@DU?$char_traits@D@std@@V?$allocator@D@2@@2@_N_J_KNVallocator@2@Uadl_serializer@nlohmann@@V?$vector@EV?$allocator@E@std@@@2@@nlohmann@@@detail@nlohmann@@QAE@AAV?$basic_json@Vmap@std@@Vvector@2@V?$basic_string@DU?$char_traits@D@std@@V?$allocator@D@2@@2@_N_J_KNVallocator@2@Uadl_serializer@nlohmann@@V?$vector@EV?$allocator@E@std@@@2@@2@V?$function@$$A6A_NHW4parse_event_t@detail@nlohmann@@AAV?$basic_json@Vmap@std@@Vvector@2@V?$basic_string@DU?$char_traits@D@std@@V?$allocator@D@2@@2@_N_J_KNVallocator@2@Uadl_serializer@nlohmann@@V?$vector@EV?$allocator@E@std@@@2@@3@@Z@std@@_N@Z 00445040 f i userprofile.obj
 0001:000443a0       ??0?$serializer@V?$basic_json@Vmap@std@@Vvector@2@V?$basic_string@DU?$char_traits@D@std@@V?$allocator@D@2@@2@_N_J_KNVallocator@2@Uadl_serializer@nlohmann@@V?$vector@EV?$allocator@E@std@@@2@@nlohmann@@@detail@nlohmann@@QAE@V?$shared_ptr@U?$output_adapter_protocol@D@detail@nlohmann@@@std@@DW4error_handler_t@12@@Z 004453a0 f i userprofile.obj
 0001:000444e0       ??0json_value@?$basic_json@Vmap@std@@Vvector@2@V?$basic_string@DU?$char_traits@D@std@@V?$allocator@D@2@@2@_N_J_KNVallocator@2@Uadl_serializer@nlohmann@@V?$vector@EV?$allocator@E@std@@@2@@nlohmann@@QAE@W4value_t@detail@2@@Z 004454e0 f i userprofile.obj
 0001:00044690       ??1?$_Alloc_construct_ptr@V?$allocator@U?$_Tree_node@U?$pair@$$CBV?$basic_string@DU?$char_traits@D@std@@V?$allocator@D@2@@std@@V?$basic_json@Vmap@std@@Vvector@2@V?$basic_string@DU?$char_traits@D@std@@V?$allocator@D@2@@2@_N_J_KNVallocator@2@Uadl_serializer@nlohmann@@V?$vector@EV?$allocator@E@std@@@2@@nlohmann@@@std@@PAX@std@@@std@@@std@@QAE@XZ 00445690 f i userprofile.obj
 0001:00044690       ??1?$_Tree_temp_node_alloc@V?$allocator@U?$_Tree_node@U?$pair@$$CBV?$basic_string@DU?$char_traits@D@std@@V?$allocator@D@2@@std@@V?$basic_json@Vmap@std@@Vvector@2@V?$basic_string@DU?$char_traits@D@std@@V?$allocator@D@2@@2@_N_J_KNVallocator@2@Uadl_serializer@nlohmann@@V?$vector@EV?$allocator@E@std@@@2@@nlohmann@@@std@@PAX@std@@@std@@@std@@QAE@XZ 00445690 f i userprofile.obj
 0001:000446b0       ??1?$_Erase_tree_and_orphan_guard@V?$allocator@U?$_Tree_node@U?$pair@$$CBV?$basic_string@DU?$char_traits@D@std@@V?$allocator@D@2@@std@@V?$basic_json@Vmap@std@@Vvector@2@V?$basic_string@DU?$char_traits@D@std@@V?$allocator@D@2@@2@_N_J_KNVallocator@2@Uadl_serializer@nlohmann@@V?$vector@EV?$allocator@E@std@@@2@@nlohmann@@@std@@PAX@std@@@std@@@?$_Tree_val@U?$_Tree_simple_types@U?$pair@$$CBV?$basic_string@DU?$char_traits@D@std@@V?$allocator@D@2@@std@@V?$basic_json@Vmap@std@@Vvector@2@V?$basic_string@DU?$char_traits@D@std@@V?$allocator@D@2@@2@_N_J_KNVallocator@2@Uadl_serializer@nlohmann@@V?$vector@EV?$allocator@E@std@@@2@@nlohmann@@@std@@@std@@@std@@QAE@XZ 004456b0 f i userprofile.obj
 0001:000446d0       ??1?$_Tidy_guard@V?$vector@V?$basic_json@Vmap@std@@Vvector@2@V?$basic_string@DU?$char_traits@D@std@@V?$allocator@D@2@@2@_N_J_KNVallocator@2@Uadl_serializer@nlohmann@@V?$vector@EV?$allocator@E@std@@@2@@nlohmann@@V?$allocator@V?$basic_json@Vmap@std@@Vvector@2@V?$basic_string@DU?$char_traits@D@std@@V?$allocator@D@2@@2@_N_J_KNVallocator@2@Uadl_serializer@nlohmann@@V?$vector@EV?$allocator@E@std@@@2@@nlohmann@@@std@@@std@@@std@@QAE@XZ 004456d0 f i userprofile.obj
 0001:000446e0       ??1?$_Tree_head_scoped_ptr@V?$allocator@U?$_Tree_node@U?$pair@$$CBV?$basic_string@DU?$char_traits@D@std@@V?$allocator@D@2@@std@@V?$basic_json@Vmap@std@@Vvector@2@V?$basic_string@DU?$char_traits@D@std@@V?$allocator@D@2@@2@_N_J_KNVallocator@2@Uadl_serializer@nlohmann@@V?$vector@EV?$allocator@E@std@@@2@@nlohmann@@@std@@PAX@std@@@std@@V?$_Tree_val@U?$_Tree_simple_types@U?$pair@$$CBV?$basic_string@DU?$char_traits@D@std@@V?$allocator@D@2@@std@@V?$basic_json@Vmap@std@@Vvector@2@V?$basic_string@DU?$char_traits@D@std@@V?$allocator@D@2@@2@_N_J_KNVallocator@2@Uadl_serializer@nlohmann@@V?$vector@EV?$allocator@E@std@@@2@@nlohmann@@@std@@@std@@@2@@std@@QAE@XZ 004456e0 f i userprofile.obj
 0001:00044710       ??1?$_Uninitialized_backout_al@V?$allocator@V?$basic_json@Vmap@std@@Vvector@2@V?$basic_string@DU?$char_traits@D@std@@V?$allocator@D@2@@2@_N_J_KNVallocator@2@Uadl_serializer@nlohmann@@V?$vector@EV?$allocator@E@std@@@2@@nlohmann@@@std@@@std@@QAE@XZ 00445710 f i userprofile.obj
 0001:00044740       ??1?$basic_json@Vmap@std@@Vvector@2@V?$basic_string@DU?$char_traits@D@std@@V?$allocator@D@2@@2@_N_J_KNVallocator@2@Uadl_serializer@nlohmann@@V?$vector@EV?$allocator@E@std@@@2@@nlohmann@@QAE@XZ 00445740 f i userprofile.obj
 0001:00044750       ??1?$json_sax_dom_callback_parser@V?$basic_json@Vmap@std@@Vvector@2@V?$basic_string@DU?$char_traits@D@std@@V?$allocator@D@2@@2@_N_J_KNVallocator@2@Uadl_serializer@nlohmann@@V?$vector@EV?$allocator@E@std@@@2@@nlohmann@@@detail@nlohmann@@QAE@XZ 00445750 f i userprofile.obj
 0001:000447a0       ??1?$lexer@V?$basic_json@Vmap@std@@Vvector@2@V?$basic_string@DU?$char_traits@D@std@@V?$allocator@D@2@@2@_N_J_KNVallocator@2@Uadl_serializer@nlohmann@@V?$vector@EV?$allocator@E@std@@@2@@nlohmann@@V?$iterator_input_adapter@PBD@detail@2@@detail@nlohmann@@QAE@XZ 004457a0 f i userprofile.obj
 0001:000447c0       ??1?$parser@V?$basic_json@Vmap@std@@Vvector@2@V?$basic_string@DU?$char_traits@D@std@@V?$allocator@D@2@@2@_N_J_KNVallocator@2@Uadl_serializer@nlohmann@@V?$vector@EV?$allocator@E@std@@@2@@nlohmann@@V?$iterator_input_adapter@PBD@detail@2@@detail@nlohmann@@QAE@XZ 004457c0 f i userprofile.obj
 0001:00044800       ??1?$unique_ptr@V?$map@V?$basic_string@DU?$char_traits@D@std@@V?$allocator@D@2@@std@@V?$basic_json@Vmap@std@@Vvector@2@V?$basic_string@DU?$char_traits@D@std@@V?$allocator@D@2@@2@_N_J_KNVallocator@2@Uadl_serializer@nlohmann@@V?$vector@EV?$allocator@E@std@@@2@@nlohmann@@U?$less@X@2@V?$allocator@U?$pair@$$CBV?$basic_string@DU?$char_traits@D@std@@V?$allocator@D@2@@std@@V?$basic_json@Vmap@std@@Vvector@2@V?$basic_string@DU?$char_traits@D@std@@V?$allocator@D@2@@2@_N_J_KNVallocator@2@Uadl_serializer@nlohmann@@V?$vector@EV?$allocator@E@std@@@2@@nlohmann@@@std@@@2@@std@@V<lambda_1>@?1???$create@V?$map@V?$basic_string@DU?$char_traits@D@std@@V?$allocator@D@2@@std@@V?$basic_json@Vmap@std@@Vvector@2@V?$basic_string@DU?$char_traits@D@std@@V?$allocator@D@2@@2@_N_J_KNVallocator@2@Uadl_serializer@nlohmann@@V?$vector@EV?$allocator@E@std@@@2@@nlohmann@@U?$less@X@2@V?$allocator@U?$pair@$$CBV?$basic_string@DU?$char_traits@D@std@@V?$allocator@D@2@@std@@V?$basic_json@Vmap@std@@Vvector@2@V?$basic_string@DU?$char_traits@D@std@@V?$allocator@D@2@@2@_N_J_KNVallocator@2@Uadl_serializer@nlohmann@@V?$vector@EV?$allocator@E@std@@@2@@nlohmann@@@std@@@2@@std@@$$V@?$basic_json@Vmap@std@@Vvector@2@V?$basic_string@DU?$char_traits@D@std@@V?$allocator@D@2@@2@_N_J_KNVallocator@2@Uadl_serializer@nlohmann@@V?$vector@EV?$allocator@E@std@@@2@@nlohmann@@CAPAV12@XZ@@std@@QAE@XZ 00445800 f i userprofile.obj
 0001:00044800       ??1?$unique_ptr@V?$map@V?$basic_string@DU?$char_traits@D@std@@V?$allocator@D@2@@std@@V?$basic_json@Vmap@std@@Vvector@2@V?$basic_string@DU?$char_traits@D@std@@V?$allocator@D@2@@2@_N_J_KNVallocator@2@Uadl_serializer@nlohmann@@V?$vector@EV?$allocator@E@std@@@2@@nlohmann@@U?$less@X@2@V?$allocator@U?$pair@$$CBV?$basic_string@DU?$char_traits@D@std@@V?$allocator@D@2@@std@@V?$basic_json@Vmap@std@@Vvector@2@V?$basic_string@DU?$char_traits@D@std@@V?$allocator@D@2@@2@_N_J_KNVallocator@2@Uadl_serializer@nlohmann@@V?$vector@EV?$allocator@E@std@@@2@@nlohmann@@@std@@@2@@std@@V<lambda_1>@?1???$create@V?$map@V?$basic_string@DU?$char_traits@D@std@@V?$allocator@D@2@@std@@V?$basic_json@Vmap@std@@Vvector@2@V?$basic_string@DU?$char_traits@D@std@@V?$allocator@D@2@@2@_N_J_KNVallocator@2@Uadl_serializer@nlohmann@@V?$vector@EV?$allocator@E@std@@@2@@nlohmann@@U?$less@X@2@V?$allocator@U?$pair@$$CBV?$basic_string@DU?$char_traits@D@std@@V?$allocator@D@2@@std@@V?$basic_json@Vmap@std@@Vvector@2@V?$basic_string@DU?$char_traits@D@std@@V?$allocator@D@2@@2@_N_J_KNVallocator@2@Uadl_serializer@nlohmann@@V?$vector@EV?$allocator@E@std@@@2@@nlohmann@@@std@@@2@@std@@ABV12@@?$basic_json@Vmap@std@@Vvector@2@V?$basic_string@DU?$char_traits@D@std@@V?$allocator@D@2@@2@_N_J_KNVallocator@2@Uadl_serializer@nlohmann@@V?$vector@EV?$allocator@E@std@@@2@@nlohmann@@CAPAV12@ABV12@@Z@@std@@QAE@XZ 00445800 f i userprofile.obj
 0001:00044820       ??1CComBSTR@ATL@@QAE@XZ    00445820 f i userprofile.obj
 0001:00044830       ??1_Reallocation_guard@?$vector@V?$basic_json@Vmap@std@@Vvector@2@V?$basic_string@DU?$char_traits@D@std@@V?$allocator@D@2@@2@_N_J_KNVallocator@2@Uadl_serializer@nlohmann@@V?$vector@EV?$allocator@E@std@@@2@@nlohmann@@V?$allocator@V?$basic_json@Vmap@std@@Vvector@2@V?$basic_string@DU?$char_traits@D@std@@V?$allocator@D@2@@2@_N_J_KNVallocator@2@Uadl_serializer@nlohmann@@V?$vector@EV?$allocator@E@std@@@2@@nlohmann@@@std@@@std@@QAE@XZ 00445830 f i userprofile.obj
 0001:000448a0       ??4?$basic_json@Vmap@std@@Vvector@2@V?$basic_string@DU?$char_traits@D@std@@V?$allocator@D@2@@2@_N_J_KNVallocator@2@Uadl_serializer@nlohmann@@V?$vector@EV?$allocator@E@std@@@2@@nlohmann@@QAEAAV01@V01@@Z 004458a0 f i userprofile.obj
 0001:000448f0       ??4?$basic_string@DU?$char_traits@D@std@@V?$allocator@D@2@@std@@QAEAAV01@$$QAV01@@Z 004458f0 f i userprofile.obj
 0001:00044930       ??6nlohmann@@YAAAV?$basic_ostream@DU?$char_traits@D@std@@@std@@AAV12@ABV?$basic_json@Vmap@std@@Vvector@2@V?$basic_string@DU?$char_traits@D@std@@V?$allocator@D@2@@2@_N_J_KNVallocator@2@Uadl_serializer@nlohmann@@V?$vector@EV?$allocator@E@std@@@2@@0@@Z 00445930 f i userprofile.obj
 0001:00044b10       ??8?$iter_impl@V?$basic_json@Vmap@std@@Vvector@2@V?$basic_string@DU?$char_traits@D@std@@V?$allocator@D@2@@2@_N_J_KNVallocator@2@Uadl_serializer@nlohmann@@V?$vector@EV?$allocator@E@std@@@2@@nlohmann@@@detail@nlohmann@@QBE_NABV012@@Z 00445b10 f i userprofile.obj
 0001:00044bc0       ??8nlohmann@@YA_NABV?$basic_json@Vmap@std@@Vvector@2@V?$basic_string@DU?$char_traits@D@std@@V?$allocator@D@2@@2@_N_J_KNVallocator@2@Uadl_serializer@nlohmann@@V?$vector@EV?$allocator@E@std@@@2@@0@0@Z 00445bc0 f i userprofile.obj
 0001:00044eb0       ??A?$map@V?$basic_string@DU?$char_traits@D@std@@V?$allocator@D@2@@std@@V?$basic_json@Vmap@std@@Vvector@2@V?$basic_string@DU?$char_traits@D@std@@V?$allocator@D@2@@2@_N_J_KNVallocator@2@Uadl_serializer@nlohmann@@V?$vector@EV?$allocator@E@std@@@2@@nlohmann@@U?$less@X@2@V?$allocator@U?$pair@$$CBV?$basic_string@DU?$char_traits@D@std@@V?$allocator@D@2@@std@@V?$basic_json@Vmap@std@@Vvector@2@V?$basic_string@DU?$char_traits@D@std@@V?$allocator@D@2@@2@_N_J_KNVallocator@2@Uadl_serializer@nlohmann@@V?$vector@EV?$allocator@E@std@@@2@@nlohmann@@@std@@@2@@std@@QAEAAV?$basic_json@Vmap@std@@Vvector@2@V?$basic_string@DU?$char_traits@D@std@@V?$allocator@D@2@@2@_N_J_KNVallocator@2@Uadl_serializer@nlohmann@@V?$vector@EV?$allocator@E@std@@@2@@nlohmann@@ABV?$basic_string@DU?$char_traits@D@std@@V?$allocator@D@2@@1@@Z 00445eb0 f i userprofile.obj
 0001:00044fb0       ??C?$iter_impl@$$CBV?$basic_json@Vmap@std@@Vvector@2@V?$basic_string@DU?$char_traits@D@std@@V?$allocator@D@2@@2@_N_J_KNVallocator@2@Uadl_serializer@nlohmann@@V?$vector@EV?$allocator@E@std@@@2@@nlohmann@@@detail@nlohmann@@QBEPBV?$basic_json@Vmap@std@@Vvector@2@V?$basic_string@DU?$char_traits@D@std@@V?$allocator@D@2@@2@_N_J_KNVallocator@2@Uadl_serializer@nlohmann@@V?$vector@EV?$allocator@E@std@@@2@@2@XZ 00445fb0 f i userprofile.obj
 0001:00044fb0       ??C?$iter_impl@V?$basic_json@Vmap@std@@Vvector@2@V?$basic_string@DU?$char_traits@D@std@@V?$allocator@D@2@@2@_N_J_KNVallocator@2@Uadl_serializer@nlohmann@@V?$vector@EV?$allocator@E@std@@@2@@nlohmann@@@detail@nlohmann@@QBEPAV?$basic_json@Vmap@std@@Vvector@2@V?$basic_string@DU?$char_traits@D@std@@V?$allocator@D@2@@2@_N_J_KNVallocator@2@Uadl_serializer@nlohmann@@V?$vector@EV?$allocator@E@std@@@2@@2@XZ 00445fb0 f i userprofile.obj
 0001:00045050       ??D?$iter_impl@$$CBV?$basic_json@Vmap@std@@Vvector@2@V?$basic_string@DU?$char_traits@D@std@@V?$allocator@D@2@@2@_N_J_KNVallocator@2@Uadl_serializer@nlohmann@@V?$vector@EV?$allocator@E@std@@@2@@nlohmann@@@detail@nlohmann@@QBEABV?$basic_json@Vmap@std@@Vvector@2@V?$basic_string@DU?$char_traits@D@std@@V?$allocator@D@2@@2@_N_J_KNVallocator@2@Uadl_serializer@nlohmann@@V?$vector@EV?$allocator@E@std@@@2@@2@XZ 00446050 f i userprofile.obj
 0001:00045050       ??D?$iter_impl@V?$basic_json@Vmap@std@@Vvector@2@V?$basic_string@DU?$char_traits@D@std@@V?$allocator@D@2@@2@_N_J_KNVallocator@2@Uadl_serializer@nlohmann@@V?$vector@EV?$allocator@E@std@@@2@@nlohmann@@@detail@nlohmann@@QBEAAV?$basic_json@Vmap@std@@Vvector@2@V?$basic_string@DU?$char_traits@D@std@@V?$allocator@D@2@@2@_N_J_KNVallocator@2@Uadl_serializer@nlohmann@@V?$vector@EV?$allocator@E@std@@@2@@2@XZ 00446050 f i userprofile.obj
 0001:00045130       ??E?$_Tree_unchecked_const_iterator@V?$_Tree_val@U?$_Tree_simple_types@U?$pair@$$CBV?$basic_string@DU?$char_traits@D@std@@V?$allocator@D@2@@std@@V?$basic_json@Vmap@std@@Vvector@2@V?$basic_string@DU?$char_traits@D@std@@V?$allocator@D@2@@2@_N_J_KNVallocator@2@Uadl_serializer@nlohmann@@V?$vector@EV?$allocator@E@std@@@2@@nlohmann@@@std@@@std@@@std@@U_Iterator_base0@2@@std@@QAEAAV01@XZ 00446130 f i userprofile.obj
 0001:00045190       ??_E?$_Ref_count_obj2@V?$output_string_adapter@DV?$basic_string@DU?$char_traits@D@std@@V?$allocator@D@2@@std@@@detail@nlohmann@@@std@@UAEPAXI@Z 00446190 f i userprofile.obj
 0001:00045190       ??_G?$_Ref_count_obj2@V?$output_string_adapter@DV?$basic_string@DU?$char_traits@D@std@@V?$allocator@D@2@@std@@@detail@nlohmann@@@std@@UAEPAXI@Z 00446190 f i userprofile.obj
 0001:00045c70       ?GetLocalUpdatedContentAsString@UserProfile@@YA?AV?$basic_string@DU?$char_traits@D@std@@V?$allocator@D@2@@std@@XZ 00446c70 f   userprofile.obj
 0001:00045ce0       ?GetUpdateStatus@UserProfile@@YA?AUUpdateStatus@1@XZ 00446ce0 f   userprofile.obj
 0001:000466d0       ?UpdateContentWithOnlineData@UserProfile@@YA?AUUpdateStatus@1@PBDI@Z 004476d0 f   userprofile.obj
 0001:00047770       ?_Change_array@?$vector@V?$basic_json@Vmap@std@@Vvector@2@V?$basic_string@DU?$char_traits@D@std@@V?$allocator@D@2@@2@_N_J_KNVallocator@2@Uadl_serializer@nlohmann@@V?$vector@EV?$allocator@E@std@@@2@@nlohmann@@V?$allocator@V?$basic_json@Vmap@std@@Vvector@2@V?$basic_string@DU?$char_traits@D@std@@V?$allocator@D@2@@2@_N_J_KNVallocator@2@Uadl_serializer@nlohmann@@V?$vector@EV?$allocator@E@std@@@2@@nlohmann@@@std@@@std@@AAEXQAV?$basic_json@Vmap@std@@Vvector@2@V?$basic_string@DU?$char_traits@D@std@@V?$allocator@D@2@@2@_N_J_KNVallocator@2@Uadl_serializer@nlohmann@@V?$vector@EV?$allocator@E@std@@@2@@nlohmann@@II@Z 00448770 f i userprofile.obj
 0001:00047800       ?_Extract@?$_Tree_val@U?$_Tree_simple_types@U?$pair@$$CBV?$basic_string@DU?$char_traits@D@std@@V?$allocator@D@2@@std@@V?$basic_json@Vmap@std@@Vvector@2@V?$basic_string@DU?$char_traits@D@std@@V?$allocator@D@2@@2@_N_J_KNVallocator@2@Uadl_serializer@nlohmann@@V?$vector@EV?$allocator@E@std@@@2@@nlohmann@@@std@@@std@@@std@@QAEPAU?$_Tree_node@U?$pair@$$CBV?$basic_string@DU?$char_traits@D@std@@V?$allocator@D@2@@std@@V?$basic_json@Vmap@std@@Vvector@2@V?$basic_string@DU?$char_traits@D@std@@V?$allocator@D@2@@2@_N_J_KNVallocator@2@Uadl_serializer@nlohmann@@V?$vector@EV?$allocator@E@std@@@2@@nlohmann@@@std@@PAX@2@V?$_Tree_unchecked_const_iterator@V?$_Tree_val@U?$_Tree_simple_types@U?$pair@$$CBV?$basic_string@DU?$char_traits@D@std@@V?$allocator@D@2@@std@@V?$basic_json@Vmap@std@@Vvector@2@V?$basic_string@DU?$char_traits@D@std@@V?$allocator@D@2@@2@_N_J_KNVallocator@2@Uadl_serializer@nlohmann@@V?$vector@EV?$allocator@E@std@@@2@@nlohmann@@@std@@@std@@@std@@U_Iterator_base0@2@@2@@Z 00448800 f i userprofile.obj
 0001:00047b20       ?_Insert_node@?$_Tree_val@U?$_Tree_simple_types@U?$pair@$$CBV?$basic_string@DU?$char_traits@D@std@@V?$allocator@D@2@@std@@V?$basic_json@Vmap@std@@Vvector@2@V?$basic_string@DU?$char_traits@D@std@@V?$allocator@D@2@@2@_N_J_KNVallocator@2@Uadl_serializer@nlohmann@@V?$vector@EV?$allocator@E@std@@@2@@nlohmann@@@std@@@std@@@std@@QAEPAU?$_Tree_node@U?$pair@$$CBV?$basic_string@DU?$char_traits@D@std@@V?$allocator@D@2@@std@@V?$basic_json@Vmap@std@@Vvector@2@V?$basic_string@DU?$char_traits@D@std@@V?$allocator@D@2@@2@_N_J_KNVallocator@2@Uadl_serializer@nlohmann@@V?$vector@EV?$allocator@E@std@@@2@@nlohmann@@@std@@PAX@2@U?$_Tree_id@PAU?$_Tree_node@U?$pair@$$CBV?$basic_string@DU?$char_traits@D@std@@V?$allocator@D@2@@std@@V?$basic_json@Vmap@std@@Vvector@2@V?$basic_string@DU?$char_traits@D@std@@V?$allocator@D@2@@2@_N_J_KNVallocator@2@Uadl_serializer@nlohmann@@V?$vector@EV?$allocator@E@std@@@2@@nlohmann@@@std@@PAX@std@@@2@QAU32@@Z 00448b20 f i userprofile.obj
 0001:00047d10       ?_Lrotate@?$_Tree_val@U?$_Tree_simple_types@U?$pair@$$CBV?$basic_string@DU?$char_traits@D@std@@V?$allocator@D@2@@std@@V?$basic_json@Vmap@std@@Vvector@2@V?$basic_string@DU?$char_traits@D@std@@V?$allocator@D@2@@2@_N_J_KNVallocator@2@Uadl_serializer@nlohmann@@V?$vector@EV?$allocator@E@std@@@2@@nlohmann@@@std@@@std@@@std@@QAEXPAU?$_Tree_node@U?$pair@$$CBV?$basic_string@DU?$char_traits@D@std@@V?$allocator@D@2@@std@@V?$basic_json@Vmap@std@@Vvector@2@V?$basic_string@DU?$char_traits@D@std@@V?$allocator@D@2@@2@_N_J_KNVallocator@2@Uadl_serializer@nlohmann@@V?$vector@EV?$allocator@E@std@@@2@@nlohmann@@@std@@PAX@2@@Z 00448d10 f i userprofile.obj
 0001:00047d70       ?_Rrotate@?$_Tree_val@U?$_Tree_simple_types@U?$pair@$$CBV?$basic_string@DU?$char_traits@D@std@@V?$allocator@D@2@@std@@V?$basic_json@Vmap@std@@Vvector@2@V?$basic_string@DU?$char_traits@D@std@@V?$allocator@D@2@@2@_N_J_KNVallocator@2@Uadl_serializer@nlohmann@@V?$vector@EV?$allocator@E@std@@@2@@nlohmann@@@std@@@std@@@std@@QAEXPAU?$_Tree_node@U?$pair@$$CBV?$basic_string@DU?$char_traits@D@std@@V?$allocator@D@2@@std@@V?$basic_json@Vmap@std@@Vvector@2@V?$basic_string@DU?$char_traits@D@std@@V?$allocator@D@2@@2@_N_J_KNVallocator@2@Uadl_serializer@nlohmann@@V?$vector@EV?$allocator@E@std@@@2@@nlohmann@@@std@@PAX@2@@Z 00448d70 f i userprofile.obj
 0001:00047dd0       ?_Throw_tree_length_error@std@@YAXXZ 00448dd0 f i userprofile.obj
 0001:00047de0       ?_Tidy@?$vector@V?$basic_json@Vmap@std@@Vvector@2@V?$basic_string@DU?$char_traits@D@std@@V?$allocator@D@2@@2@_N_J_KNVallocator@2@Uadl_serializer@nlohmann@@V?$vector@EV?$allocator@E@std@@@2@@nlohmann@@V?$allocator@V?$basic_json@Vmap@std@@Vvector@2@V?$basic_string@DU?$char_traits@D@std@@V?$allocator@D@2@@2@_N_J_KNVallocator@2@Uadl_serializer@nlohmann@@V?$vector@EV?$allocator@E@std@@@2@@nlohmann@@@std@@@std@@AAEXXZ 00448de0 f i userprofile.obj
 0001:00047e60       ?at@?$basic_json@Vmap@std@@Vvector@2@V?$basic_string@DU?$char_traits@D@std@@V?$allocator@D@2@@2@_N_J_KNVallocator@2@Uadl_serializer@nlohmann@@V?$vector@EV?$allocator@E@std@@@2@@nlohmann@@QBEABV12@ABV?$basic_string@DU?$char_traits@D@std@@V?$allocator@D@2@@std@@@Z 00448e60 f i userprofile.obj
 0001:00047fb0       ?begin@?$iteration_proxy@V?$iter_impl@$$CBV?$basic_json@Vmap@std@@Vvector@2@V?$basic_string@DU?$char_traits@D@std@@V?$allocator@D@2@@2@_N_J_KNVallocator@2@Uadl_serializer@nlohmann@@V?$vector@EV?$allocator@E@std@@@2@@nlohmann@@@detail@nlohmann@@@detail@nlohmann@@QAE?AV?$iteration_proxy_value@V?$iter_impl@$$CBV?$basic_json@Vmap@std@@Vvector@2@V?$basic_string@DU?$char_traits@D@std@@V?$allocator@D@2@@2@_N_J_KNVallocator@2@Uadl_serializer@nlohmann@@V?$vector@EV?$allocator@E@std@@@2@@nlohmann@@@detail@nlohmann@@@23@XZ 00448fb0 f i userprofile.obj
 0001:000480b0       ?boolean@?$json_sax_dom_parser@V?$basic_json@Vmap@std@@Vvector@2@V?$basic_string@DU?$char_traits@D@std@@V?$allocator@D@2@@2@_N_J_KNVallocator@2@Uadl_serializer@nlohmann@@V?$vector@EV?$allocator@E@std@@@2@@nlohmann@@@detail@nlohmann@@QAE_N_N@Z 004490b0 f i userprofile.obj
 0001:00048130       ?cend@?$basic_json@Vmap@std@@Vvector@2@V?$basic_string@DU?$char_traits@D@std@@V?$allocator@D@2@@2@_N_J_KNVallocator@2@Uadl_serializer@nlohmann@@V?$vector@EV?$allocator@E@std@@@2@@nlohmann@@QBE?AV?$iter_impl@$$CBV?$basic_json@Vmap@std@@Vvector@2@V?$basic_string@DU?$char_traits@D@std@@V?$allocator@D@2@@2@_N_J_KNVallocator@2@Uadl_serializer@nlohmann@@V?$vector@EV?$allocator@E@std@@@2@@nlohmann@@@detail@2@XZ 00449130 f i userprofile.obj
 0001:00048130       ?end@?$basic_json@Vmap@std@@Vvector@2@V?$basic_string@DU?$char_traits@D@std@@V?$allocator@D@2@@2@_N_J_KNVallocator@2@Uadl_serializer@nlohmann@@V?$vector@EV?$allocator@E@std@@@2@@nlohmann@@QAE?AV?$iter_impl@V?$basic_json@Vmap@std@@Vvector@2@V?$basic_string@DU?$char_traits@D@std@@V?$allocator@D@2@@2@_N_J_KNVallocator@2@Uadl_serializer@nlohmann@@V?$vector@EV?$allocator@E@std@@@2@@nlohmann@@@detail@2@XZ 00449130 f i userprofile.obj
 0001:000481a0       ?destroy@json_value@?$basic_json@Vmap@std@@Vvector@2@V?$basic_string@DU?$char_traits@D@std@@V?$allocator@D@2@@2@_N_J_KNVallocator@2@Uadl_serializer@nlohmann@@V?$vector@EV?$allocator@E@std@@@2@@nlohmann@@QAEXW4value_t@detail@3@@Z 004491a0 f i userprofile.obj
 0001:00048670       ?dump@?$basic_json@Vmap@std@@Vvector@2@V?$basic_string@DU?$char_traits@D@std@@V?$allocator@D@2@@2@_N_J_KNVallocator@2@Uadl_serializer@nlohmann@@V?$vector@EV?$allocator@E@std@@@2@@nlohmann@@QBE?AV?$basic_string@DU?$char_traits@D@std@@V?$allocator@D@2@@std@@HD_NW4error_handler_t@detail@2@@Z 00449670 f i userprofile.obj
 0001:00048850       ?dump@?$serializer@V?$basic_json@Vmap@std@@Vvector@2@V?$basic_string@DU?$char_traits@D@std@@V?$allocator@D@2@@2@_N_J_KNVallocator@2@Uadl_serializer@nlohmann@@V?$vector@EV?$allocator@E@std@@@2@@nlohmann@@@detail@nlohmann@@QAEXABV?$basic_json@Vmap@std@@Vvector@2@V?$basic_string@DU?$char_traits@D@std@@V?$allocator@D@2@@2@_N_J_KNVallocator@2@Uadl_serializer@nlohmann@@V?$vector@EV?$allocator@E@std@@@2@@3@_N1II@Z 00449850 f i userprofile.obj
 0001:00049310       ?dump_escaped@?$serializer@V?$basic_json@Vmap@std@@Vvector@2@V?$basic_string@DU?$char_traits@D@std@@V?$allocator@D@2@@2@_N_J_KNVallocator@2@Uadl_serializer@nlohmann@@V?$vector@EV?$allocator@E@std@@@2@@nlohmann@@@detail@nlohmann@@AAEXABV?$basic_string@DU?$char_traits@D@std@@V?$allocator@D@2@@std@@_N@Z 0044a310 f i userprofile.obj
 0001:00049850       ?end@?$iteration_proxy@V?$iter_impl@$$CBV?$basic_json@Vmap@std@@Vvector@2@V?$basic_string@DU?$char_traits@D@std@@V?$allocator@D@2@@2@_N_J_KNVallocator@2@Uadl_serializer@nlohmann@@V?$vector@EV?$allocator@E@std@@@2@@nlohmann@@@detail@nlohmann@@@detail@nlohmann@@QAE?AV?$iteration_proxy_value@V?$iter_impl@$$CBV?$basic_json@Vmap@std@@Vvector@2@V?$basic_string@DU?$char_traits@D@std@@V?$allocator@D@2@@2@_N_J_KNVallocator@2@Uadl_serializer@nlohmann@@V?$vector@EV?$allocator@E@std@@@2@@nlohmann@@@detail@nlohmann@@@23@XZ 0044a850 f i userprofile.obj
 0001:000498f0       ?end_array@?$json_sax_dom_callback_parser@V?$basic_json@Vmap@std@@Vvector@2@V?$basic_string@DU?$char_traits@D@std@@V?$allocator@D@2@@2@_N_J_KNVallocator@2@Uadl_serializer@nlohmann@@V?$vector@EV?$allocator@E@std@@@2@@nlohmann@@@detail@nlohmann@@QAE_NXZ 0044a8f0 f i userprofile.obj
 0001:000499d0       ?end_object@?$json_sax_dom_callback_parser@V?$basic_json@Vmap@std@@Vvector@2@V?$basic_string@DU?$char_traits@D@std@@V?$allocator@D@2@@2@_N_J_KNVallocator@2@Uadl_serializer@nlohmann@@V?$vector@EV?$allocator@E@std@@@2@@nlohmann@@@detail@nlohmann@@QAE_NXZ 0044a9d0 f i userprofile.obj
 0001:00049bb0       ?get@?$lexer@V?$basic_json@Vmap@std@@Vvector@2@V?$basic_string@DU?$char_traits@D@std@@V?$allocator@D@2@@2@_N_J_KNVallocator@2@Uadl_serializer@nlohmann@@V?$vector@EV?$allocator@E@std@@@2@@nlohmann@@V?$iterator_input_adapter@PBD@detail@2@@detail@nlohmann@@AAEHXZ 0044abb0 f i userprofile.obj
 0001:00049c10       ?get_codepoint@?$lexer@V?$basic_json@Vmap@std@@Vvector@2@V?$basic_string@DU?$char_traits@D@std@@V?$allocator@D@2@@2@_N_J_KNVallocator@2@Uadl_serializer@nlohmann@@V?$vector@EV?$allocator@E@std@@@2@@nlohmann@@V?$iterator_input_adapter@PBD@detail@2@@detail@nlohmann@@AAEHXZ 0044ac10 f i userprofile.obj
 0001:00049cf0       ?key@?$json_sax_dom_callback_parser@V?$basic_json@Vmap@std@@Vvector@2@V?$basic_string@DU?$char_traits@D@std@@V?$allocator@D@2@@2@_N_J_KNVallocator@2@Uadl_serializer@nlohmann@@V?$vector@EV?$allocator@E@std@@@2@@nlohmann@@@detail@nlohmann@@QAE_NAAV?$basic_string@DU?$char_traits@D@std@@V?$allocator@D@2@@std@@@Z 0044acf0 f i userprofile.obj
 0001:00049e30       ?max_size@?$basic_json@Vmap@std@@Vvector@2@V?$basic_string@DU?$char_traits@D@std@@V?$allocator@D@2@@2@_N_J_KNVallocator@2@Uadl_serializer@nlohmann@@V?$vector@EV?$allocator@E@std@@@2@@nlohmann@@QBEIXZ 0044ae30 f i userprofile.obj
 0001:00049e80       ?next_byte_in_range@?$lexer@V?$basic_json@Vmap@std@@Vvector@2@V?$basic_string@DU?$char_traits@D@std@@V?$allocator@D@2@@2@_N_J_KNVallocator@2@Uadl_serializer@nlohmann@@V?$vector@EV?$allocator@E@std@@@2@@nlohmann@@V?$iterator_input_adapter@PBD@detail@2@@detail@nlohmann@@AAE_NV?$initializer_list@H@std@@@Z 0044ae80 f i userprofile.obj
 0001:00049f30       ?null@?$json_sax_dom_parser@V?$basic_json@Vmap@std@@Vvector@2@V?$basic_string@DU?$char_traits@D@std@@V?$allocator@D@2@@2@_N_J_KNVallocator@2@Uadl_serializer@nlohmann@@V?$vector@EV?$allocator@E@std@@@2@@nlohmann@@@detail@nlohmann@@QAE_NXZ 0044af30 f i userprofile.obj
 0001:0004a010       ?number_float@?$json_sax_dom_parser@V?$basic_json@Vmap@std@@Vvector@2@V?$basic_string@DU?$char_traits@D@std@@V?$allocator@D@2@@2@_N_J_KNVallocator@2@Uadl_serializer@nlohmann@@V?$vector@EV?$allocator@E@std@@@2@@nlohmann@@@detail@nlohmann@@QAE_NNABV?$basic_string@DU?$char_traits@D@std@@V?$allocator@D@2@@std@@@Z 0044b010 f i userprofile.obj
 0001:0004a0a0       ?number_integer@?$json_sax_dom_parser@V?$basic_json@Vmap@std@@Vvector@2@V?$basic_string@DU?$char_traits@D@std@@V?$allocator@D@2@@2@_N_J_KNVallocator@2@Uadl_serializer@nlohmann@@V?$vector@EV?$allocator@E@std@@@2@@nlohmann@@@detail@nlohmann@@QAE_N_J@Z 0044b0a0 f i userprofile.obj
 0001:0004a120       ?number_unsigned@?$json_sax_dom_parser@V?$basic_json@Vmap@std@@Vvector@2@V?$basic_string@DU?$char_traits@D@std@@V?$allocator@D@2@@2@_N_J_KNVallocator@2@Uadl_serializer@nlohmann@@V?$vector@EV?$allocator@E@std@@@2@@nlohmann@@@detail@nlohmann@@QAE_N_K@Z 0044b120 f i userprofile.obj
 0001:0004a1a0       ?parse@?$parser@V?$basic_json@Vmap@std@@Vvector@2@V?$basic_string@DU?$char_traits@D@std@@V?$allocator@D@2@@2@_N_J_KNVallocator@2@Uadl_serializer@nlohmann@@V?$vector@EV?$allocator@E@std@@@2@@nlohmann@@V?$iterator_input_adapter@PBD@detail@2@@detail@nlohmann@@QAEX_NAAV?$basic_json@Vmap@std@@Vvector@2@V?$basic_string@DU?$char_traits@D@std@@V?$allocator@D@2@@2@_N_J_KNVallocator@2@Uadl_serializer@nlohmann@@V?$vector@EV?$allocator@E@std@@@2@@3@@Z 0044b1a0 f i userprofile.obj
 0001:0004a7c0       ?parse@?$parser@V?$basic_json@Vmap@std@@Vvector@2@V?$basic_string@DU?$char_traits@D@std@@V?$allocator@D@2@@2@_N_J_KNVallocator@2@Uadl_serializer@nlohmann@@V?$vector@EV?$allocator@E@std@@@2@@nlohmann@@Vinput_stream_adapter@detail@2@@detail@nlohmann@@QAEX_NAAV?$basic_json@Vmap@std@@Vvector@2@V?$basic_string@DU?$char_traits@D@std@@V?$allocator@D@2@@2@_N_J_KNVallocator@2@Uadl_serializer@nlohmann@@V?$vector@EV?$allocator@E@std@@@2@@3@@Z 0044b7c0 f i userprofile.obj
 0001:0004ade0       ?push_back@?$vector@V?$basic_json@Vmap@std@@Vvector@2@V?$basic_string@DU?$char_traits@D@std@@V?$allocator@D@2@@2@_N_J_KNVallocator@2@Uadl_serializer@nlohmann@@V?$vector@EV?$allocator@E@std@@@2@@nlohmann@@V?$allocator@V?$basic_json@Vmap@std@@Vvector@2@V?$basic_string@DU?$char_traits@D@std@@V?$allocator@D@2@@2@_N_J_KNVallocator@2@Uadl_serializer@nlohmann@@V?$vector@EV?$allocator@E@std@@@2@@nlohmann@@@std@@@std@@QAEX$$QAV?$basic_json@Vmap@std@@Vvector@2@V?$basic_string@DU?$char_traits@D@std@@V?$allocator@D@2@@2@_N_J_KNVallocator@2@Uadl_serializer@nlohmann@@V?$vector@EV?$allocator@E@std@@@2@@nlohmann@@@Z 0044bde0 f i userprofile.obj
 0001:0004af20       ?reserve@?$vector@V?$basic_json@Vmap@std@@Vvector@2@V?$basic_string@DU?$char_traits@D@std@@V?$allocator@D@2@@2@_N_J_KNVallocator@2@Uadl_serializer@nlohmann@@V?$vector@EV?$allocator@E@std@@@2@@nlohmann@@V?$allocator@V?$basic_json@Vmap@std@@Vvector@2@V?$basic_string@DU?$char_traits@D@std@@V?$allocator@D@2@@2@_N_J_KNVallocator@2@Uadl_serializer@nlohmann@@V?$vector@EV?$allocator@E@std@@@2@@nlohmann@@@std@@@std@@QAEXI@Z 0044bf20 f i userprofile.obj
 0001:0004af80       ?scan@?$lexer@V?$basic_json@Vmap@std@@Vvector@2@V?$basic_string@DU?$char_traits@D@std@@V?$allocator@D@2@@2@_N_J_KNVallocator@2@Uadl_serializer@nlohmann@@V?$vector@EV?$allocator@E@std@@@2@@nlohmann@@V?$iterator_input_adapter@PBD@detail@2@@detail@nlohmann@@QAE?AW4token_type@?$lexer_base@V?$basic_json@Vmap@std@@Vvector@2@V?$basic_string@DU?$char_traits@D@std@@V?$allocator@D@2@@2@_N_J_KNVallocator@2@Uadl_serializer@nlohmann@@V?$vector@EV?$allocator@E@std@@@2@@nlohmann@@@23@XZ 0044bf80 f i userprofile.obj
 0001:0004b340       ?scan_comment@?$lexer@V?$basic_json@Vmap@std@@Vvector@2@V?$basic_string@DU?$char_traits@D@std@@V?$allocator@D@2@@2@_N_J_KNVallocator@2@Uadl_serializer@nlohmann@@V?$vector@EV?$allocator@E@std@@@2@@nlohmann@@V?$iterator_input_adapter@PBD@detail@2@@detail@nlohmann@@AAE_NXZ 0044c340 f i userprofile.obj
 0001:0004b4f0       ?scan_literal@?$lexer@V?$basic_json@Vmap@std@@Vvector@2@V?$basic_string@DU?$char_traits@D@std@@V?$allocator@D@2@@2@_N_J_KNVallocator@2@Uadl_serializer@nlohmann@@V?$vector@EV?$allocator@E@std@@@2@@nlohmann@@V?$iterator_input_adapter@PBD@detail@2@@detail@nlohmann@@AAE?AW4token_type@?$lexer_base@V?$basic_json@Vmap@std@@Vvector@2@V?$basic_string@DU?$char_traits@D@std@@V?$allocator@D@2@@2@_N_J_KNVallocator@2@Uadl_serializer@nlohmann@@V?$vector@EV?$allocator@E@std@@@2@@nlohmann@@@23@PBDIW44523@@Z 0044c4f0 f i userprofile.obj
 0001:0004b590       ?scan_number@?$lexer@V?$basic_json@Vmap@std@@Vvector@2@V?$basic_string@DU?$char_traits@D@std@@V?$allocator@D@2@@2@_N_J_KNVallocator@2@Uadl_serializer@nlohmann@@V?$vector@EV?$allocator@E@std@@@2@@nlohmann@@V?$iterator_input_adapter@PBD@detail@2@@detail@nlohmann@@AAE?AW4token_type@?$lexer_base@V?$basic_json@Vmap@std@@Vvector@2@V?$basic_string@DU?$char_traits@D@std@@V?$allocator@D@2@@2@_N_J_KNVallocator@2@Uadl_serializer@nlohmann@@V?$vector@EV?$allocator@E@std@@@2@@nlohmann@@@23@XZ 0044c590 f i userprofile.obj
 0001:0004bc90       ?scan_string@?$lexer@V?$basic_json@Vmap@std@@Vvector@2@V?$basic_string@DU?$char_traits@D@std@@V?$allocator@D@2@@2@_N_J_KNVallocator@2@Uadl_serializer@nlohmann@@V?$vector@EV?$allocator@E@std@@@2@@nlohmann@@V?$iterator_input_adapter@PBD@detail@2@@detail@nlohmann@@AAE?AW4token_type@?$lexer_base@V?$basic_json@Vmap@std@@Vvector@2@V?$basic_string@DU?$char_traits@D@std@@V?$allocator@D@2@@2@_N_J_KNVallocator@2@Uadl_serializer@nlohmann@@V?$vector@EV?$allocator@E@std@@@2@@nlohmann@@@23@XZ 0044cc90 f i userprofile.obj
 0001:0004c530       ?skip_whitespace@?$lexer@V?$basic_json@Vmap@std@@Vvector@2@V?$basic_string@DU?$char_traits@D@std@@V?$allocator@D@2@@2@_N_J_KNVallocator@2@Uadl_serializer@nlohmann@@V?$vector@EV?$allocator@E@std@@@2@@nlohmann@@V?$iterator_input_adapter@PBD@detail@2@@detail@nlohmann@@QAEXXZ 0044d530 f i userprofile.obj
 0001:0004c5b0       ?start_array@?$json_sax_dom_callback_parser@V?$basic_json@Vmap@std@@Vvector@2@V?$basic_string@DU?$char_traits@D@std@@V?$allocator@D@2@@2@_N_J_KNVallocator@2@Uadl_serializer@nlohmann@@V?$vector@EV?$allocator@E@std@@@2@@nlohmann@@@detail@nlohmann@@QAE_NI@Z 0044d5b0 f i userprofile.obj
 0001:0004c6c0       ?start_array@?$json_sax_dom_parser@V?$basic_json@Vmap@std@@Vvector@2@V?$basic_string@DU?$char_traits@D@std@@V?$allocator@D@2@@2@_N_J_KNVallocator@2@Uadl_serializer@nlohmann@@V?$vector@EV?$allocator@E@std@@@2@@nlohmann@@@detail@nlohmann@@QAE_NI@Z 0044d6c0 f i userprofile.obj
 0001:0004c790       ?start_object@?$json_sax_dom_callback_parser@V?$basic_json@Vmap@std@@Vvector@2@V?$basic_string@DU?$char_traits@D@std@@V?$allocator@D@2@@2@_N_J_KNVallocator@2@Uadl_serializer@nlohmann@@V?$vector@EV?$allocator@E@std@@@2@@nlohmann@@@detail@nlohmann@@QAE_NI@Z 0044d790 f i userprofile.obj
 0001:0004c8a0       ?start_object@?$json_sax_dom_parser@V?$basic_json@Vmap@std@@Vvector@2@V?$basic_string@DU?$char_traits@D@std@@V?$allocator@D@2@@2@_N_J_KNVallocator@2@Uadl_serializer@nlohmann@@V?$vector@EV?$allocator@E@std@@@2@@nlohmann@@@detail@nlohmann@@QAE_NI@Z 0044d8a0 f i userprofile.obj
 0001:0004c970       ?string@?$json_sax_dom_parser@V?$basic_json@Vmap@std@@Vvector@2@V?$basic_string@DU?$char_traits@D@std@@V?$allocator@D@2@@2@_N_J_KNVallocator@2@Uadl_serializer@nlohmann@@V?$vector@EV?$allocator@E@std@@@2@@nlohmann@@@detail@nlohmann@@QAE_NAAV?$basic_string@DU?$char_traits@D@std@@V?$allocator@D@2@@std@@@Z 0044d970 f i userprofile.obj
 0001:0004cab0       ?to_string@std@@YA?AV?$basic_string@DU?$char_traits@D@std@@V?$allocator@D@2@@1@K@Z 0044dab0 f i userprofile.obj
 0001:0004cc80       ?write_character@?$output_string_adapter@DV?$basic_string@DU?$char_traits@D@std@@V?$allocator@D@2@@std@@@detail@nlohmann@@UAEXD@Z 0044dc80 f i userprofile.obj
 0001:0004cc90       ?write_characters@?$output_string_adapter@DV?$basic_string@DU?$char_traits@D@std@@V?$allocator@D@2@@std@@@detail@nlohmann@@UAEXPBDI@Z 0044dc90 f i userprofile.obj
 0001:0004cca0       ??0CToolkitDlg@@QAE@UDialogOptions@0@@Z 0044dca0 f   toolkit_dlg.obj
 0001:0004cd00       ??_ECToolkitDlg@@UAEPAXI@Z 0044dd00 f i toolkit_dlg.obj
 0001:0004cd00       ??_GCToolkitDlg@@UAEPAXI@Z 0044dd00 f i toolkit_dlg.obj
 0001:0004cef0       ?LoadLanguageStrings@CToolkitDlg@@QAEXXZ 0044def0 f   toolkit_dlg.obj
 0001:0004d150       ?OnFinalMessage@CToolkitDlg@@UAEXPAUHWND__@@@Z 0044e150 f   toolkit_dlg.obj
 0001:0004d180       ?ProcessWindowMessage@CToolkitDlg@@UAEHPAUHWND__@@IIJAAJK@Z 0044e180 f i toolkit_dlg.obj
 0001:0004d1b0       ?_ProcessWindowMessage@CToolkitDlg@@QAEHPAUHWND__@@IIJAAJK@Z 0044e1b0 f i toolkit_dlg.obj
 0001:0004d4a6       _CreateEnvironmentBlock@12 0044e4a6 f   userenv:USERENV.dll
 0001:0004d4ac       _DestroyEnvironmentBlock@4 0044e4ac f   userenv:USERENV.dll
 0001:0004d4b2       _EvtClose@4                0044e4b2 f   wevtapi:wevtapi.dll
 0001:0004d4b8       _EvtNext@24                0044e4b8 f   wevtapi:wevtapi.dll
 0001:0004d4be       _EvtSubscribe@32           0044e4be f   wevtapi:wevtapi.dll
 0001:0004d4c4       _EvtCreateRenderContext@12 0044e4c4 f   wevtapi:wevtapi.dll
 0001:0004d4ca       _EvtRender@28              0044e4ca f   wevtapi:wevtapi.dll
 0001:0004d4d0       _WTSEnumerateSessionsW@20  0044e4d0 f   wtsapi32:WTSAPI32.dll
 0001:0004d4d6       _WTSQuerySessionInformationW@20 0044e4d6 f   wtsapi32:WTSAPI32.dll
 0001:0004d4dc       _WTSFreeMemory@4           0044e4dc f   wtsapi32:WTSAPI32.dll
 0001:0004d4e2       _WTSQueryUserToken@8       0044e4e2 f   wtsapi32:WTSAPI32.dll
 0001:0004d4e8       _CreateToolhelp32Snapshot@8 0044e4e8 f   kernel32:KERNEL32.dll
 0001:0004d4ee       _Process32FirstW@8         0044e4ee f   kernel32:KERNEL32.dll
 0001:0004d4f4       _Process32NextW@8          0044e4f4 f   kernel32:KERNEL32.dll
 0001:0004d4fa       _K32GetModuleFileNameExW@16 0044e4fa f   kernel32:KERNEL32.dll
 0001:0004d500       _ConvertStringSecurityDescriptorToSecurityDescriptorW@16 0044e500 f   advapi32:ADVAPI32.dll
 0001:0004d506       _VarDecCmp@8               0044e506 f   oleaut32:OLEAUT32.dll
 0001:0004d50c       ??0CAtlBaseModule@ATL@@QAE@XZ 0044e50c f   atls:atlbase.obj
 0001:0004d55f       ??0_ATL_BASE_MODULE70@ATL@@QAE@XZ 0044e55f f i atls:atlbase.obj
 0001:0004d582       ??1CAtlBaseModule@ATL@@QAE@XZ 0044e582 f   atls:atlbase.obj
 0001:0004d598       ??A?$CSimpleArray@PAUHINSTANCE__@@V?$CSimpleArrayEqualHelper@PAUHINSTANCE__@@@ATL@@@ATL@@QAEAAPAUHINSTANCE__@@H@Z 0044e598 f i atls:atlbase.obj
 0001:0004d5bb       ?GetHInstanceAt@CAtlBaseModule@ATL@@QAEPAUHINSTANCE__@@H@Z 0044e5bb f   atls:atlbase.obj
 0001:0004d600       ?Init@CComCriticalSection@ATL@@QAEJXZ 0044e600 f i atls:atlbase.obj
 0001:0004d62a       ?RemoveAll@?$CSimpleArray@PAUHINSTANCE__@@V?$CSimpleArrayEqualHelper@PAUHINSTANCE__@@@ATL@@@ATL@@QAEXXZ 0044e62a f i atls:atlbase.obj
 0001:0004d727       ?Init@_stdcallthunk@ATL@@QAEHKPAX@Z 0044e727 f i atls:atlthunk.obj
 0001:0004d75c       ?__AllocStdCallThunk_cmn@@YAPAXXZ 0044e75c f   atls:atlthunk.obj
 0001:0004d822       ?__FreeStdCallThunk_cmn@@YAXPAX@Z 0044e822 f   atls:atlthunk.obj
 0001:0004d8be       _AtlThunk_AllocateData@0   0044e8be f   atls:atlthunk.obj
 0001:0004d923       _AtlThunk_DataToCode@4     0044e923 f   atls:atlthunk.obj
 0001:0004d96a       _AtlThunk_FreeData@4       0044e96a f   atls:atlthunk.obj
 0001:0004d9c0       _AtlThunk_InitData@12      0044e9c0 f   atls:atlthunk.obj
 0001:0004da0f       ??0bad_alloc@std@@QAE@XZ   0044ea0f f i libcpmt:xthrow.obj
 0001:0004da2d       ??0bad_function_call@std@@QAE@ABV01@@Z 0044ea2d f i libcpmt:xthrow.obj
 0001:0004da48       ??0bad_function_call@std@@QAE@XZ 0044ea48 f i libcpmt:xthrow.obj
 0001:0004da5f       ??0exception@std@@QAE@QBD@Z 0044ea5f f i libcpmt:xthrow.obj
 0001:0004da9a       ??0length_error@std@@QAE@ABV01@@Z 0044ea9a f i libcpmt:xthrow.obj
 0001:0004dab5       ??0length_error@std@@QAE@PBD@Z 0044eab5 f i libcpmt:xthrow.obj
 0001:0004dad4       ??0out_of_range@std@@QAE@ABV01@@Z 0044ead4 f i libcpmt:xthrow.obj
 0001:0004daef       ??0out_of_range@std@@QAE@PBD@Z 0044eaef f i libcpmt:xthrow.obj
 0001:0004db0e       ??_Ebad_exception@std@@UAEPAXI@Z 0044eb0e f i libvcruntime:frame.obj
 0001:0004db0e       ??_Ebad_function_call@std@@UAEPAXI@Z 0044eb0e f i libcpmt:xthrow.obj
 0001:0004db0e       ??_Elength_error@std@@UAEPAXI@Z 0044eb0e f i libcpmt:xthrow.obj
 0001:0004db0e       ??_Eout_of_range@std@@UAEPAXI@Z 0044eb0e f i libcpmt:xthrow.obj
 0001:0004db0e       ??_Gbad_exception@std@@UAEPAXI@Z 0044eb0e f i libvcruntime:frame.obj
 0001:0004db0e       ??_Gbad_function_call@std@@UAEPAXI@Z 0044eb0e f i libcpmt:xthrow.obj
 0001:0004db0e       ??_Glength_error@std@@UAEPAXI@Z 0044eb0e f i libcpmt:xthrow.obj
 0001:0004db0e       ??_Gout_of_range@std@@UAEPAXI@Z 0044eb0e f i libcpmt:xthrow.obj
 0001:0004db3b       ?_Xbad_alloc@std@@YAXXZ    0044eb3b f   libcpmt:xthrow.obj
 0001:0004db3b       ?__scrt_throw_std_bad_alloc@@YAXXZ 0044eb3b f   LIBCMT:throw_bad_alloc.obj
 0001:0004db58       ?_Xbad_function_call@std@@YAXXZ 0044eb58 f   libcpmt:xthrow.obj
 0001:0004db75       ?_Xinvalid_argument@std@@YAXPBD@Z 0044eb75 f   libcpmt:xthrow.obj
 0001:0004db95       ?_Xlength_error@std@@YAXPBD@Z 0044eb95 f   libcpmt:xthrow.obj
 0001:0004dbb5       ?_Xout_of_range@std@@YAXPBD@Z 0044ebb5 f   libcpmt:xthrow.obj
 0001:0004dbd5       ?_Xruntime_error@std@@YAXPBD@Z 0044ebd5 f   libcpmt:xthrow.obj
 0001:0004dbf5       ?what@bad_function_call@std@@UBEPBDXZ 0044ebf5 f i libcpmt:xthrow.obj
 0001:0004ed00       ___std_find_end_2@16       0044fd00 f   libcpmt:vector_algorithms.obj
 0001:0004ed10       ___std_find_first_of_trivial_pos_2@16 0044fd10 f   libcpmt:vector_algorithms.obj
 0001:0004ed30       ___std_find_trivial_2@12   0044fd30 f   libcpmt:vector_algorithms.obj
 0001:0004ed40       ___std_search_2@16         0044fd40 f   libcpmt:vector_algorithms.obj
 0001:0004ed49       ___std_get_string_size_without_trailing_whitespace@8 0044fd49 f   libcpmt:syserror_import_lib.obj
 0001:0004ed6d       ___std_system_error_allocate_message@8 0044fd6d f   libcpmt:syserror_import_lib.obj
 0001:0004ede7       ___std_system_error_deallocate_message@4 0044fde7 f   libcpmt:syserror_import_lib.obj
 0001:0004eded       ?_Syserror_map@std@@YAPBDH@Z 0044fded f   libcpmt:syserror.obj
 0001:0004ee12       ?_Winerror_map@std@@YAHH@Z 0044fe12 f   libcpmt:syserror.obj
 0001:0004ef17       ___std_fs_close_handle@4   0044ff17 f   libcpmt:filesystem.obj
 0001:0004ef37       ___std_fs_code_page@0      0044ff37 f   libcpmt:filesystem.obj
 0001:0004ef54       ___std_fs_convert_narrow_to_wide@20 0044ff54 f   libcpmt:filesystem.obj
 0001:0004ef88       ___std_fs_convert_wide_to_narrow_replace_chars@20 0044ff88 f   libcpmt:filesystem.obj
 0001:0004eff7       ___std_fs_create_directory@4 0044fff7 f   libcpmt:filesystem.obj
 0001:0004f055       ___std_fs_directory_iterator_advance@8 00450055 f   libcpmt:filesystem.obj
 0001:0004f076       ___std_fs_directory_iterator_close@4 00450076 f   libcpmt:filesystem.obj
 0001:0004f096       ___std_fs_directory_iterator_open@12 00450096 f   libcpmt:filesystem.obj
 0001:0004f0cd       ___std_fs_equivalent@8     004500cd f   libcpmt:filesystem.obj
 0001:0004f1a6       ___std_fs_get_stats@16     004501a6 f   libcpmt:filesystem.obj
 0001:0004f430       ___std_fs_open_handle@16   00450430 f   libcpmt:filesystem.obj
 0001:0004f464       ___std_fs_remove@4         00450464 f   libcpmt:filesystem.obj
 0001:0004f610       ??0_Init_locks@std@@QAE@XZ 00450610 f   libcpmt:xlock.obj
 0001:0004f63d       ??0_Lockit@std@@QAE@H@Z    0045063d f   libcpmt:xlock.obj
 0001:0004f66e       ??1_Init_locks@std@@QAE@XZ 0045066e f   libcpmt:xlock.obj
 0001:0004f695       ??1_Lockit@std@@QAE@XZ     00450695 f   libcpmt:xlock.obj
 0001:0004f6b4       ?uncaught_exceptions@std@@YAHXZ 004506b4 f   libcpmt:uncaught_exceptions.obj
 0001:0004f6b9       ??0_Locimp@locale@std@@AAE@_N@Z 004506b9 f i libcpmt:locale0.obj
 0001:0004f6fa       ??1_Fac_node@std@@QAE@XZ   004506fa f i libcpmt:locale0.obj
 0001:0004f72b       ??1_Fac_tidy_reg_t@std@@QAE@XZ 0045072b f i libcpmt:locale0.obj
 0001:0004f74f       ??1_Locimp@locale@std@@MAE@XZ 0045074f f i libcpmt:locale0.obj
 0001:0004f76f       ??4?$_Yarn@D@std@@QAEAAV01@PBD@Z 0045076f f i libcpmt:locale0.obj
 0001:0004f7b8       ??_E_Locimp@locale@std@@MAEPAXI@Z 004507b8 f i libcpmt:locale0.obj
 0001:0004f7b8       ??_G_Locimp@locale@std@@MAEPAXI@Z 004507b8 f i libcpmt:locale0.obj
 0001:0004f7da       ?_Facet_Register@std@@YAXPAV_Facet_base@1@@Z 004507da f   libcpmt:locale0.obj
 0001:0004f807       ?_Getgloballocale@locale@std@@CAPAV_Locimp@12@XZ 00450807 f   libcpmt:locale0.obj
 0001:0004f80d       ?_Init@locale@std@@CAPAV_Locimp@12@_N@Z 0045080d f   libcpmt:locale0.obj
 0001:0004f89a       ?_Locimp_dtor@_Locimp@locale@std@@CAXPAV123@@Z 0045089a f   libcpmt:locale0.obj
 0001:0004f90b       ?_Locinfo_ctor@_Locinfo@std@@SAXPAV12@PBD@Z 0045090b f   libcpmt:locale0.obj
 0001:0004f957       ?_Locinfo_dtor@_Locinfo@std@@SAXPAV12@@Z 00450957 f   libcpmt:locale0.obj
 0001:0004f971       ?_New_Locimp@_Locimp@locale@std@@CAPAV123@_N@Z 00450971 f   libcpmt:locale0.obj
 0001:0004f994       ?_Setgloballocale@locale@std@@CAXPAX@Z 00450994 f   libcpmt:locale0.obj
 0001:0004f9bc       ?_Tidy@?$_Yarn@D@std@@AAEXXZ 004509bc f i libcpmt:locale0.obj
 0001:0004f9d4       __Deletegloballocale       004509d4 f   libcpmt:locale0.obj
 0001:0004fa3c       __Getctype                 00450a3c f   libcpmt:_tolower.obj
 0001:0004faaa       __Tolower                  00450aaa f   libcpmt:_tolower.obj
 0001:0004fb96       __Toupper                  00450b96 f   libcpmt:_toupper.obj
 0001:0004fc82       ?_Addstd@ios_base@std@@SAXPAV12@@Z 00450c82 f   libcpmt:ios.obj
 0001:0004fcce       ?_Callfns@ios_base@std@@AAEXW4event@12@@Z 00450cce f i libcpmt:ios.obj
 0001:0004fd01       ?_Ios_base_dtor@ios_base@std@@CAXPAV12@@Z 00450d01 f   libcpmt:ios.obj
 0001:0004fd41       ?_Tidy@ios_base@std@@AAEXXZ 00450d41 f i libcpmt:ios.obj
 0001:0004fdc2       ?setw@std@@YA?AU?$_Smanip@_J@1@_J@Z 00450dc2 f   libcpmt:iomanip.obj
 0001:0004fe75       ?_Fiopen@std@@YAPAU_iobuf@@PB_WHH@Z 00450e75 f   libcpmt:fiopen.obj
 0001:0004fe7e       __Mtx_lock                 00450e7e f   libcpmt:mutex.obj
 0001:0004fe8f       __Mtx_unlock               00450e8f f   libcpmt:mutex.obj
 0001:0004ffdd       ??0system_error@std@@QAE@HABVerror_category@1@PBD@Z 00450fdd f i libcpmt:thread0.obj
 0001:0005002d       ?_Throw_Cpp_error@std@@YAXH@Z 0045102d f   libcpmt:thread0.obj
 0001:00050062       ?generic_category@std@@YAABVerror_category@1@XZ 00451062 f i libcpmt:thread0.obj
 0001:00050068       __Mtxdst                   00451068 f   libcpmt:xmtx.obj
 0001:00050076       __Mtxinit                  00451076 f   libcpmt:xmtx.obj
 0001:0005008b       __Mtxlock                  0045108b f   libcpmt:xmtx.obj
 0001:00050099       __Mtxunlock                00451099 f   libcpmt:xmtx.obj
 0001:000500a7       ??1_Init_atexit@@QAE@XZ    004510a7 f i libcpmt:iosptrs.obj
 0001:0005010f       ?_Atexit@@YAXP6AXXZ@Z      0045110f f   libcpmt:iosptrs.obj
 0001:0005013e       ??1?$__crt_scoped_stack_ptr@_W@@QAE@XZ 0045113e f i libcpmt:StlLCMapStringA.obj
 0001:00050157       ___crtLCMapStringA         00451157 f   libcpmt:StlLCMapStringA.obj
 0001:00050327       __freea_crt                00451327 f i libcpmt:StlLCMapStringA.obj
 0001:00050345       __Timespec64_get_sys       00451345 f   libcpmt:xtime.obj
 0001:00050383       __Xtime_get_ticks          00451383 f   libcpmt:xtime.obj
 0001:000503de       ___crtGetSystemTimePreciseAsFileTime 004513de f   libcpmt:winapisupp.obj
 0001:00050433       ___raise_securityfailure   00451433 f   LIBCMT:gs_report.obj
 0001:0005045b       ___report_gsfailure        0045145b f   LIBCMT:gs_report.obj
 0001:00050556       ___report_rangecheckfailure 00451556 f   LIBCMT:gs_report.obj
 0001:00050563       ___report_securityfailure  00451563 f   LIBCMT:gs_report.obj
 0001:00050633       @__security_check_cookie@4 00451633 f   LIBCMT:secchk.obj
 0001:00050641       ??3@YAXPAX@Z               00451641 f   LIBCMT:delete_scalar.obj
 0001:00050646       ??2@YAPAXI@Z               00451646 f   LIBCMT:new_scalar.obj
 0001:00050676       ??3@YAXPAXI@Z              00451676 f   LIBCMT:delete_scalar_size.obj
 0001:00050690       __alloca_probe             00451690 f   LIBCMT:chkstk.obj
 0001:00050690       __chkstk                   00451690 f   LIBCMT:chkstk.obj
 0001:000506bb       ??_Etype_info@@UAEPAXI@Z   004516bb f i LIBCMT:std_type_info_static.obj
 0001:000506bb       ??_Gtype_info@@UAEPAXI@Z   004516bb f i LIBCMT:std_type_info_static.obj
 0001:000506de       __Init_thread_abort        004516de f   LIBCMT:thread_safe_statics.obj
 0001:0005070c       __Init_thread_footer       0045170c f   LIBCMT:thread_safe_statics.obj
 0001:0005075d       __Init_thread_header       0045175d f   LIBCMT:thread_safe_statics.obj
 0001:000507af       __Init_thread_wait_v2      004517af f   LIBCMT:thread_safe_statics.obj
 0001:000507c4       ??_L@YGXPAXIIP6EX0@Z1@Z    004517c4 f   LIBCMT:ehvecctr.obj
 0001:00050838       ??_M@YGXPAXIIP6EX0@Z@Z     00451838 f   LIBCMT:ehvecdtr.obj
 0001:000508c0       ?__ArrayUnwind@@YGXPAXIIP6EX0@Z@Z 004518c0 f   LIBCMT:ehvecdtr.obj
 0001:00050950       ??_V@YAXPAX@Z              00451950 f   LIBCMT:delete_array.obj
 0001:00050997       ___scrt_acquire_startup_lock 00451997 f   LIBCMT:utility.obj
 0001:000509c9       ___scrt_initialize_crt     004519c9 f   LIBCMT:utility.obj
 0001:00050a02       ___scrt_initialize_onexit_tables 00451a02 f   LIBCMT:utility.obj
 0001:00050a89       ___scrt_is_nonwritable_in_current_image 00451a89 f   LIBCMT:utility.obj
 0001:00050b20       ___scrt_release_startup_lock 00451b20 f   LIBCMT:utility.obj
 0001:00050b3d       ___scrt_uninitialize_crt   00451b3d f   LIBCMT:utility.obj
 0001:00050b65       __onexit                   00451b65 f   LIBCMT:utility.obj
 0001:00050b93       _atexit                    00451b93 f   LIBCMT:utility.obj
 0001:00050ba8       ??_U@YAPAXIABUnothrow_t@std@@@Z 00451ba8 f   LIBCMT:new_array_nothrow.obj
 0001:00050c00       __ftol3                    00451c00 f   LIBCMT:ftol3.obj
 0001:00050c70       __dtol3                    00451c70 f   LIBCMT:ftol3.obj
 0001:00050d20       __ultod3                   00451d20 f   LIBCMT:ftol3.obj
 0001:00050d70       __ltod3                    00451d70 f   LIBCMT:ftol3.obj
 0001:00050db2       ??_U@YAPAXI@Z              00451db2 f   LIBCMT:new_array.obj
 0001:00050dc0       __allrem                   00451dc0 f   LIBCMT:llrem.obj
 0001:00050e80       __allmul                   00451e80 f   LIBCMT:llmul.obj
 0001:00050ec0       __allshl                   00451ec0 f   LIBCMT:llshl.obj
 0001:00050ee0       __aullshr                  00451ee0 f   LIBCMT:ullshr.obj
 0001:00051143       _wWinMainCRTStartup        00452143 f   LIBCMT:exe_wwinmain.obj
 0001:0005114d       ___isa_available_init      0045214d f   LIBCMT:cpu_disp.obj
 0001:00051467       __EH_epilog3               00452467 f   LIBCMT:ehprolg3.obj
 0001:0005147b       __EH_epilog3_GS            0045247b f   LIBCMT:ehprolg3.obj
 0001:0005148a       __EH_prolog3               0045248a f   LIBCMT:ehprolg3.obj
 0001:000514bd       __EH_prolog3_GS            004524bd f   LIBCMT:ehprolg3.obj
 0001:000514f3       __EH_prolog3_catch         004524f3 f   LIBCMT:ehprolg3.obj
 0001:00051530       __alloca_probe_16          00452530 f   LIBCMT:alloca16.obj
 0001:00051546       __alloca_probe_8           00452546     LIBCMT:alloca16.obj
 0001:00051560       __aulldiv                  00452560 f   LIBCMT:ulldiv.obj
 0001:000515d0       __aullrem                  004525d0 f   LIBCMT:ullrem.obj
 0001:00051650       __SEH_prolog4              00452650 f   LIBCMT:sehprolg4.obj
 0001:00051695       __get_startup_argv_mode    00452695 f   LIBCMT:argv_mode.obj
 0001:00051699       ___scrt_is_ucrt_dll_in_use 00452699 f   LIBCMT:ucrt_detection.obj
 0001:000516a5       ___scrt_fastfail           004526a5 f   LIBCMT:utility_desktop.obj
 0001:000517ba       ___scrt_get_show_window_mode 004527ba f   LIBCMT:utility_desktop.obj
 0001:000517ea       ___scrt_initialize_mta     004527ea f   LIBCMT:utility_desktop.obj
 0001:000517ef       ___scrt_is_managed_app     004527ef f   LIBCMT:utility_desktop.obj
 0001:00051831       ___scrt_set_unhandled_exception_filter 00452831 f   LIBCMT:utility_desktop.obj
 0001:0005183d       ___scrt_unhandled_exception_filter@4 0045283d f   LIBCMT:utility_desktop.obj
 0001:00051893       __crt_debugger_hook        00452893 f   LIBCMT:utility_desktop.obj
 0001:000518eb       ___security_init_cookie    004528eb f   LIBCMT:gs_support.obj
 0001:00051936       __get_startup_file_mode    00452936 f   LIBCMT:file_mode.obj
 0001:0005193c       ?__scrt_initialize_type_info@@YAXXZ 0045293c f   LIBCMT:tncleanup.obj
 0001:00051948       __initialize_default_precision 00452948 f   LIBCMT:default_precision.obj
 0001:00051969       ___local_stdio_scanf_options 00452969 f i LIBCMT:default_local_stdio_options.obj
 0001:0005196f       ___scrt_initialize_default_local_stdio_options 0045296f f   LIBCMT:default_local_stdio_options.obj
 0001:0005198c       ___scrt_is_user_matherr_present 0045298c f   LIBCMT:matherr_detection.obj
 0001:00051998       ___scrt_get_dyn_tls_init_callback 00452998 f   LIBCMT:dyn_tls_init.obj
 0001:0005199e       ___scrt_get_dyn_tls_dtor_callback 0045299e f   LIBCMT:dyn_tls_dtor.obj
 0001:000519a4       __RTC_Initialize           004529a4 f   LIBCMT:initsect.obj
 0001:000519d0       __RTC_Terminate            004529d0 f   LIBCMT:initsect.obj
 0001:000519fc       __get_purecall_handler     004529fc f   libvcruntime:purevirt.obj
 0001:00051a03       __purecall                 00452a03 f   libvcruntime:purevirt.obj
 0001:00051a1f       ___DestructExceptionObject 00452a1f f   libvcruntime:ehhelpers.obj
 0001:00051ac7       ?_CallMemberFunction0@@YGXQAX0@Z 00452ac7 f i libvcruntime:ehhelpers.obj
 0001:00051b2c       __IsExceptionObjectToBeDestroyed 00452b2c f   libvcruntime:ehhelpers.obj
 0001:00051b52       ___AdjustPointer           00452b52 f   libvcruntime:ehhelpers.obj
 0001:00051b77       ___FrameUnwindFilter       00452b77 f   libvcruntime:ehhelpers.obj
 0001:00051bcd       ___current_exception       00452bcd f   libvcruntime:ehhelpers.obj
 0001:00051bd6       ___current_exception_context 00452bd6 f   libvcruntime:ehhelpers.obj
 0001:00051bdf       ___std_terminate           00452bdf f   libvcruntime:ehhelpers.obj
 0001:00051be4       ___std_exception_copy      00452be4 f   libvcruntime:std_exception.obj
 0001:00051c47       ___std_exception_destroy   00452c47 f   libvcruntime:std_exception.obj
 0001:00051c69       __CxxThrowException@8      00452c69 f   libvcruntime:throw.obj
 0001:00051cd6       ?GetRangeOfTrysToCheck@__FrameHandler3@@SA?AU?$pair@Viterator@TryBlockMap@__FrameHandler3@@V123@@std@@AAVTryBlockMap@1@HPAXPBU_s_FuncInfo@@H@Z 00452cd6 f   libvcruntime:trnsctrl.obj
 0001:00051d45       ?_CallCatchBlock2@@YAPAXPAUEHRegistrationNode@@PBU_s_FuncInfo@@PAXHK@Z 00452d45 f   libvcruntime:trnsctrl.obj
 0001:00051da5       ?_CallSETranslator@@YAHPAUEHExceptionRecord@@PAUEHRegistrationNode@@PAX2PBU_s_FuncInfo@@H1@Z 00452da5 f   libvcruntime:trnsctrl.obj
 0001:00051ea4       ?_JumpToContinuation@@YGXPAXPAUEHRegistrationNode@@@Z 00452ea4 f   libvcruntime:trnsctrl.obj
 0001:00051ed4       ?_UnwindNestedFrames@@YGXPAUEHRegistrationNode@@PAUEHExceptionRecord@@@Z 00452ed4 f   libvcruntime:trnsctrl.obj
 0001:00051f28       __CatchGuardHandler        00452f28 f   libvcruntime:trnsctrl.obj
 0001:00051f59       __CreateFrameInfo          00452f59 f   libvcruntime:trnsctrl.obj
 0001:00051f7d       __FindAndUnlinkFrame       00452f7d f   libvcruntime:trnsctrl.obj
 0001:00051fc5       __TranslatorGuardHandler   00452fc5 f   libvcruntime:trnsctrl.obj
 0001:00052064       ___CxxFrameHandler3        00453064 f   libvcruntime:trnsctrl.obj
 0001:000520a0       _memcpy                    004530a0 f   libvcruntime:memcpy.obj
 0001:000520a0       _memmove                   004530a0 f   libvcruntime:memmove.obj
 0001:00052620       _memset                    00453620 f   libvcruntime:memset.obj
 0001:0005277a       _wcsstr                    0045377a f   libvcruntime:wcsstr.obj
 0001:00052a10       ___uncaught_exceptions     00453a10 f   libvcruntime:uncaught_exceptions.obj
 0001:00052a20       _memcmp                    00453a20 f   libvcruntime:memcmp.obj
 0001:00053e30       __except_handler4          00454e30 f   libvcruntime:chandler4.obj
 0001:00053f8e       ___vcrt_initialize         00454f8e f   libvcruntime:initialization.obj
 0001:00053fad       ___vcrt_uninitialize       00454fad f   libvcruntime:initialization.obj
 0001:00053fc4       ___std_type_info_compare   00454fc4 f   libvcruntime:std_type_info.obj
 0001:00054000       ___vcrt_freefls@4          00455000 f   libvcruntime:per_thread_data.obj
 0001:0005401c       ___vcrt_getptd             0045501c f   libvcruntime:per_thread_data.obj
 0001:0005402a       ___vcrt_getptd_noexit      0045502a f   libvcruntime:per_thread_data.obj
 0001:000540bc       ___vcrt_getptd_noinit      004550bc f   libvcruntime:per_thread_data.obj
 0001:000540f4       ___vcrt_initialize_ptd     004550f4 f   libvcruntime:per_thread_data.obj
 0001:00054127       ___vcrt_uninitialize_ptd   00455127 f   libvcruntime:per_thread_data.obj
 0001:00054879       ??$TypeMatchHelper@V__FrameHandler3@@@@YAHPBU_s_HandlerType@@PBU_s_CatchableType@@PBU_s_ThrowInfo@@@Z 00455879 f i libvcruntime:frame.obj
 0001:00054907       ??$__InternalCxxFrameHandler@V__FrameHandler3@@@@YA?AW4_EXCEPTION_DISPOSITION@@PAUEHExceptionRecord@@PAUEHRegistrationNode@@PAU_CONTEXT@@PAXPBU_s_FuncInfo@@H1E@Z 00455907 f i libvcruntime:frame.obj
 0001:00054a09       ??$__InternalCxxFrameHandlerWrapper@V__FrameHandler3@@@@YA?AW4_EXCEPTION_DISPOSITION@@PAUEHExceptionRecord@@PAUEHRegistrationNode@@PAU_CONTEXT@@PAXPBU_s_FuncInfo@@H1E@Z 00455a09 f i libvcruntime:frame.obj
 0001:00054a12       ??0bad_exception@std@@QAE@ABV01@@Z 00455a12 f i libvcruntime:frame.obj
 0001:00054a2d       ??0bad_exception@std@@QAE@XZ 00455a2d f i libvcruntime:frame.obj
 0001:00054a4b       ??8type_info@@QBE_NABV0@@Z 00455a4b f i libvcruntime:frame.obj
 0001:00054cc5       ?FrameUnwindToEmptyState@__FrameHandler3@@SAXPAUEHRegistrationNode@@PAXPBU_s_FuncInfo@@@Z 00455cc5 f   libvcruntime:frame.obj
 0001:00054cdd       ?FrameUnwindToState@__FrameHandler3@@SAXPAUEHRegistrationNode@@PAXPBU_s_FuncInfo@@H@Z 00455cdd f   libvcruntime:frame.obj
 0001:00054e65       ?_CallMemberFunction1@@YGXQAX00@Z 00455e65 f i libvcruntime:frame.obj
 0001:00054e75       ?_CallMemberFunction2@@YGXQAX00H@Z 00455e75 f i libvcruntime:frame.obj
 0001:00054e88       ?getESTypes@__FrameHandler3@@SAPBU_s_ESTypeList@@PBU_s_FuncInfo@@@Z 00455e88 f i libvcruntime:frame.obj
 0001:00054ea0       __CallSettingFrame@12      00455ea0 f   libvcruntime:lowhelpr.obj
 0001:00054ec7       __NLG_Return               00455ec7     libvcruntime:lowhelpr.obj
 0001:00054eec       ___except_validate_context_record 00455eec f   libvcruntime:jbcxrval.obj
 0001:00054f20       __local_unwind4            00455f20 f   libvcruntime:exsup4.obj
 0001:00055010       @_EH4_CallFilterFunc@8     00456010 f   libvcruntime:exsup4.obj
 0001:00055030       @_EH4_TransferToHandler@8  00456030 f   libvcruntime:exsup4.obj
 0001:00055050       @_EH4_GlobalUnwind2@8      00456050 f   libvcruntime:exsup4.obj
 0001:00055070       @_EH4_LocalUnwind@16       00456070 f   libvcruntime:exsup4.obj
 0001:00055087       ___vcrt_initialize_locks   00456087 f   libvcruntime:locks.obj
 0001:000550c3       ___vcrt_uninitialize_locks 004560c3 f   libvcruntime:locks.obj
 0001:000551dd       ___vcrt_FlsAlloc           004561dd f   libvcruntime:winapi_downlevel.obj
 0001:00055218       ___vcrt_FlsFree            00456218 f   libvcruntime:winapi_downlevel.obj
 0001:00055253       ___vcrt_FlsGetValue        00456253 f   libvcruntime:winapi_downlevel.obj
 0001:0005528e       ___vcrt_FlsSetValue        0045628e f   libvcruntime:winapi_downlevel.obj
 0001:000552cc       ___vcrt_InitializeCriticalSectionEx 004562cc f   libvcruntime:winapi_downlevel.obj
 0001:00055313       _unexpected                00456313 f   libvcruntime:unexpected.obj
 0001:00055330       ?GetCurrentState@__FrameHandler3@@SAHPAUEHRegistrationNode@@PAXPBU_s_FuncInfo@@@Z 00456330 f   libvcruntime:ehstate.obj
 0001:0005534d       ?SetState@__FrameHandler3@@SAXPAUEHRegistrationNode@@PBU_s_FuncInfo@@H@Z 0045634d f   libvcruntime:ehstate.obj
 0001:00055360       __NLG_Notify1              00456360 f   libvcruntime:exsup.obj
 0001:00055370       __NLG_Notify               00456370 f   libvcruntime:exsup.obj
 0001:00055387       __NLG_Dispatch             00456387     libvcruntime:exsup.obj
 0001:00055387       __NLG_Dispatch2            00456387     libvcruntime:exsup.obj
 0001:00055390       __NLG_Call                 00456390 f   libvcruntime:exsup.obj
 0001:00055392       __NLG_Return2              00456392     libvcruntime:exsup.obj
 0001:000559b9       ??$count@D@formatting_buffer@__crt_stdio_output@@QBEIXZ 004569b9 f i libucrt:output.obj
 0001:000559d1       ??$count@_W@formatting_buffer@__crt_stdio_output@@QBEIXZ 004569d1 f i libucrt:output.obj
 0001:000559ea       ??$ensure_buffer_is_big_enough@D@formatting_buffer@__crt_stdio_output@@QAE_NIAAV__crt_cached_ptd_host@@@Z 004569ea f i libucrt:output.obj
 0001:00055a6a       ??$ensure_buffer_is_big_enough@_W@formatting_buffer@__crt_stdio_output@@QAE_NIAAV__crt_cached_ptd_host@@@Z 00456a6a f i libucrt:output.obj
 0001:00055aeb       ??$is_overflow_condition@K@__crt_strtox@@YA_NIK@Z 00456aeb f i libucrt:output.obj
 0001:00055b1f       ??$is_wide_character_specifier@D@__crt_stdio_output@@YA_N_KDW4length_modifier@0@@Z 00456b1f f i libucrt:output.obj
 0001:00055b50       ??$is_wide_character_specifier@_W@__crt_stdio_output@@YA_N_K_WW4length_modifier@0@@Z 00456b50 f i libucrt:output.obj
 0001:00055b9e       ??$make_c_string_character_source@DPAPAD@__crt_strtox@@YA?AV?$c_string_character_source@D@0@QBDQAPAD@Z 00456b9e f i libucrt:output.obj
 0001:00055b9e       ??$make_c_string_character_source@_WPAPA_W@__crt_strtox@@YA?AV?$c_string_character_source@_W@0@QB_WQAPA_W@Z 00456b9e f i libucrt:output.obj
 0001:00055bb9       ??$parse_integer@KV?$c_string_character_source@D@__crt_strtox@@$0A@@__crt_strtox@@YAKAAV__crt_cached_ptd_host@@V?$c_string_character_source@D@0@H_N@Z 00456bb9 f i libucrt:output.obj
 0001:00055dcc       ??$parse_integer@KV?$c_string_character_source@_W@__crt_strtox@@$0A@@__crt_strtox@@YAKAAV__crt_cached_ptd_host@@V?$c_string_character_source@_W@0@H_N@Z 00456dcc f i libucrt:output.obj
 0001:000563b0       ??$scratch_data@D@formatting_buffer@__crt_stdio_output@@QAEPADXZ 004573b0 f i libucrt:output.obj
 0001:000563ce       ??$type_case_integer@$07@?$output_processor@DV?$string_output_adapter@D@__crt_stdio_output@@V?$standard_base@DV?$string_output_adapter@D@__crt_stdio_output@@@2@@__crt_stdio_output@@AAE_N_N@Z 004573ce f i libucrt:output.obj
 0001:0005655b       ??$type_case_integer@$07@?$output_processor@_WV?$string_output_adapter@_W@__crt_stdio_output@@V?$format_validation_base@_WV?$string_output_adapter@_W@__crt_stdio_output@@@2@@__crt_stdio_output@@AAE_N_N@Z 0045755b f i libucrt:output.obj
 0001:0005655b       ??$type_case_integer@$07@?$output_processor@_WV?$string_output_adapter@_W@__crt_stdio_output@@V?$standard_base@_WV?$string_output_adapter@_W@__crt_stdio_output@@@2@@__crt_stdio_output@@AAE_N_N@Z 0045755b f i libucrt:output.obj
 0001:000566ed       ??$type_case_integer@$09@?$output_processor@DV?$string_output_adapter@D@__crt_stdio_output@@V?$standard_base@DV?$string_output_adapter@D@__crt_stdio_output@@@2@@__crt_stdio_output@@AAE_N_N@Z 004576ed f i libucrt:output.obj
 0001:0005687a       ??$type_case_integer@$09@?$output_processor@_WV?$string_output_adapter@_W@__crt_stdio_output@@V?$format_validation_base@_WV?$string_output_adapter@_W@__crt_stdio_output@@@2@@__crt_stdio_output@@AAE_N_N@Z 0045787a f i libucrt:output.obj
 0001:0005687a       ??$type_case_integer@$09@?$output_processor@_WV?$string_output_adapter@_W@__crt_stdio_output@@V?$standard_base@_WV?$string_output_adapter@_W@__crt_stdio_output@@@2@@__crt_stdio_output@@AAE_N_N@Z 0045787a f i libucrt:output.obj
 0001:00056a0c       ??$type_case_integer@$0BA@@?$output_processor@DV?$string_output_adapter@D@__crt_stdio_output@@V?$standard_base@DV?$string_output_adapter@D@__crt_stdio_output@@@2@@__crt_stdio_output@@AAE_N_N@Z 00457a0c f i libucrt:output.obj
 0001:00056b99       ??$type_case_integer@$0BA@@?$output_processor@_WV?$string_output_adapter@_W@__crt_stdio_output@@V?$format_validation_base@_WV?$string_output_adapter@_W@__crt_stdio_output@@@2@@__crt_stdio_output@@AAE_N_N@Z 00457b99 f i libucrt:output.obj
 0001:00056b99       ??$type_case_integer@$0BA@@?$output_processor@_WV?$string_output_adapter@_W@__crt_stdio_output@@V?$standard_base@_WV?$string_output_adapter@_W@__crt_stdio_output@@@2@@__crt_stdio_output@@AAE_N_N@Z 00457b99 f i libucrt:output.obj
 0001:00056d2b       ??$type_case_integer_parse_into_buffer@I$07@?$output_processor@DV?$string_output_adapter@D@__crt_stdio_output@@V?$standard_base@DV?$string_output_adapter@D@__crt_stdio_output@@@2@@__crt_stdio_output@@AAEXI_N@Z 00457d2b f i libucrt:output.obj
 0001:00056d8d       ??$type_case_integer_parse_into_buffer@I$07@?$output_processor@_WV?$string_output_adapter@_W@__crt_stdio_output@@V?$format_validation_base@_WV?$string_output_adapter@_W@__crt_stdio_output@@@2@@__crt_stdio_output@@AAEXI_N@Z 00457d8d f i libucrt:output.obj
 0001:00056d8d       ??$type_case_integer_parse_into_buffer@I$07@?$output_processor@_WV?$string_output_adapter@_W@__crt_stdio_output@@V?$standard_base@_WV?$string_output_adapter@_W@__crt_stdio_output@@@2@@__crt_stdio_output@@AAEXI_N@Z 00457d8d f i libucrt:output.obj
 0001:00056dfe       ??$type_case_integer_parse_into_buffer@I$09@?$output_processor@DV?$string_output_adapter@D@__crt_stdio_output@@V?$standard_base@DV?$string_output_adapter@D@__crt_stdio_output@@@2@@__crt_stdio_output@@AAEXI_N@Z 00457dfe f i libucrt:output.obj
 0001:00056e7d       ??$type_case_integer_parse_into_buffer@I$09@?$output_processor@_WV?$string_output_adapter@_W@__crt_stdio_output@@V?$format_validation_base@_WV?$string_output_adapter@_W@__crt_stdio_output@@@2@@__crt_stdio_output@@AAEXI_N@Z 00457e7d f i libucrt:output.obj
 0001:00056e7d       ??$type_case_integer_parse_into_buffer@I$09@?$output_processor@_WV?$string_output_adapter@_W@__crt_stdio_output@@V?$standard_base@_WV?$string_output_adapter@_W@__crt_stdio_output@@@2@@__crt_stdio_output@@AAEXI_N@Z 00457e7d f i libucrt:output.obj
 0001:00056f12       ??$type_case_integer_parse_into_buffer@I$0BA@@?$output_processor@DV?$string_output_adapter@D@__crt_stdio_output@@V?$standard_base@DV?$string_output_adapter@D@__crt_stdio_output@@@2@@__crt_stdio_output@@AAEXI_N@Z 00457f12 f i libucrt:output.obj
 0001:00056f8e       ??$type_case_integer_parse_into_buffer@I$0BA@@?$output_processor@_WV?$string_output_adapter@_W@__crt_stdio_output@@V?$format_validation_base@_WV?$string_output_adapter@_W@__crt_stdio_output@@@2@@__crt_stdio_output@@AAEXI_N@Z 00457f8e f i libucrt:output.obj
 0001:00056f8e       ??$type_case_integer_parse_into_buffer@I$0BA@@?$output_processor@_WV?$string_output_adapter@_W@__crt_stdio_output@@V?$standard_base@_WV?$string_output_adapter@_W@__crt_stdio_output@@@2@@__crt_stdio_output@@AAEXI_N@Z 00457f8e f i libucrt:output.obj
 0001:00057019       ??$type_case_integer_parse_into_buffer@_K$07@?$output_processor@DV?$string_output_adapter@D@__crt_stdio_output@@V?$standard_base@DV?$string_output_adapter@D@__crt_stdio_output@@@2@@__crt_stdio_output@@AAEX_K_N@Z 00458019 f i libucrt:output.obj
 0001:0005708d       ??$type_case_integer_parse_into_buffer@_K$07@?$output_processor@_WV?$string_output_adapter@_W@__crt_stdio_output@@V?$format_validation_base@_WV?$string_output_adapter@_W@__crt_stdio_output@@@2@@__crt_stdio_output@@AAEX_K_N@Z 0045808d f i libucrt:output.obj
 0001:0005708d       ??$type_case_integer_parse_into_buffer@_K$07@?$output_processor@_WV?$string_output_adapter@_W@__crt_stdio_output@@V?$standard_base@_WV?$string_output_adapter@_W@__crt_stdio_output@@@2@@__crt_stdio_output@@AAEX_K_N@Z 0045808d f i libucrt:output.obj
 0001:0005710d       ??$type_case_integer_parse_into_buffer@_K$09@?$output_processor@DV?$string_output_adapter@D@__crt_stdio_output@@V?$standard_base@DV?$string_output_adapter@D@__crt_stdio_output@@@2@@__crt_stdio_output@@AAEX_K_N@Z 0045810d f i libucrt:output.obj
 0001:0005719f       ??$type_case_integer_parse_into_buffer@_K$09@?$output_processor@_WV?$string_output_adapter@_W@__crt_stdio_output@@V?$format_validation_base@_WV?$string_output_adapter@_W@__crt_stdio_output@@@2@@__crt_stdio_output@@AAEX_K_N@Z 0045819f f i libucrt:output.obj
 0001:0005719f       ??$type_case_integer_parse_into_buffer@_K$09@?$output_processor@_WV?$string_output_adapter@_W@__crt_stdio_output@@V?$standard_base@_WV?$string_output_adapter@_W@__crt_stdio_output@@@2@@__crt_stdio_output@@AAEX_K_N@Z 0045819f f i libucrt:output.obj
 0001:00057244       ??$type_case_integer_parse_into_buffer@_K$0BA@@?$output_processor@DV?$string_output_adapter@D@__crt_stdio_output@@V?$standard_base@DV?$string_output_adapter@D@__crt_stdio_output@@@2@@__crt_stdio_output@@AAEX_K_N@Z 00458244 f i libucrt:output.obj
 0001:000572ca       ??$type_case_integer_parse_into_buffer@_K$0BA@@?$output_processor@_WV?$string_output_adapter@_W@__crt_stdio_output@@V?$format_validation_base@_WV?$string_output_adapter@_W@__crt_stdio_output@@@2@@__crt_stdio_output@@AAEX_K_N@Z 004582ca f i libucrt:output.obj
 0001:000572ca       ??$type_case_integer_parse_into_buffer@_K$0BA@@?$output_processor@_WV?$string_output_adapter@_W@__crt_stdio_output@@V?$standard_base@_WV?$string_output_adapter@_W@__crt_stdio_output@@@2@@__crt_stdio_output@@AAEX_K_N@Z 004582ca f i libucrt:output.obj
 0001:0005735c       ??0?$output_adapter_data@DV?$string_output_adapter@D@__crt_stdio_output@@@__crt_stdio_output@@IAE@ABV?$string_output_adapter@D@1@_KQBDAAV__crt_cached_ptd_host@@QAD@Z 0045835c f i libucrt:output.obj
 0001:000573c3       ??0?$output_adapter_data@_WV?$string_output_adapter@_W@__crt_stdio_output@@@__crt_stdio_output@@IAE@ABV?$string_output_adapter@_W@1@_KQB_WAAV__crt_cached_ptd_host@@QAD@Z 004583c3 f i libucrt:output.obj
 0001:00057430       ??0__crt_cached_ptd_host@@QAE@QAU__crt_locale_pointers@@@Z 00458430 f i libucrt:output.obj
 0001:00057490       ??1__crt_cached_ptd_host@@QAE@XZ 00458490 f i libucrt:output.obj
 0001:000574cc       ??1formatting_buffer@__crt_stdio_output@@QAE@XZ 004584cc f i libucrt:output.obj
 0001:000574e6       ??4?$__crt_unique_heap_ptr@DU__crt_internal_free_policy@@@@QAEAAV0@$$QAV0@@Z 004584e6 f i libucrt:output.obj
 0001:0005750a       ?crop_zeroes@__crt_stdio_output@@YAXPADQAU__crt_locale_pointers@@@Z 0045850a f i libucrt:output.obj
 0001:00057574       ?find_next_state@?$output_processor@DV?$string_output_adapter@D@__crt_stdio_output@@V?$standard_base@DV?$string_output_adapter@D@__crt_stdio_output@@@2@@__crt_stdio_output@@ABE?AW4state@2@DW432@@Z 00458574 f i libucrt:output.obj
 0001:000575af       ?find_next_state@?$output_processor@_WV?$string_output_adapter@_W@__crt_stdio_output@@V?$format_validation_base@_WV?$string_output_adapter@_W@__crt_stdio_output@@@2@@__crt_stdio_output@@ABE?AW4state@2@_WW432@@Z 004585af f i libucrt:output.obj
 0001:000575eb       ?find_next_state@?$output_processor@_WV?$string_output_adapter@_W@__crt_stdio_output@@V?$standard_base@_WV?$string_output_adapter@_W@__crt_stdio_output@@@2@@__crt_stdio_output@@ABE?AW4state@2@_WW432@@Z 004585eb f i libucrt:output.obj
 0001:00057625       ?force_decimal_point@__crt_stdio_output@@YAXPADQAU__crt_locale_pointers@@@Z 00458625 f i libucrt:output.obj
 0001:00057690       ?force_synchronize_per_thread_data@__crt_cached_ptd_host@@AAEPAU__acrt_ptd@@XZ 00458690 f i libucrt:output.obj
 0001:000576e0       ?get_raw_ptd@__crt_cached_ptd_host@@QAEPAU__acrt_ptd@@XZ 004586e0 f i libucrt:output.obj
 0001:0005773c       ?parse_int_from_format_string@?$output_processor@DV?$string_output_adapter@D@__crt_stdio_output@@V?$standard_base@DV?$string_output_adapter@D@__crt_stdio_output@@@2@@__crt_stdio_output@@AAE_NQAH@Z 0045873c f i libucrt:output.obj
 0001:000577b4       ?parse_int_from_format_string@?$output_processor@_WV?$string_output_adapter@_W@__crt_stdio_output@@V?$format_validation_base@_WV?$string_output_adapter@_W@__crt_stdio_output@@@2@@__crt_stdio_output@@AAE_NQAH@Z 004587b4 f i libucrt:output.obj
 0001:000577b4       ?parse_int_from_format_string@?$output_processor@_WV?$string_output_adapter@_W@__crt_stdio_output@@V?$standard_base@_WV?$string_output_adapter@_W@__crt_stdio_output@@@2@@__crt_stdio_output@@AAE_NQAH@Z 004587b4 f i libucrt:output.obj
 0001:0005782e       ?process@?$output_processor@DV?$string_output_adapter@D@__crt_stdio_output@@V?$standard_base@DV?$string_output_adapter@D@__crt_stdio_output@@@2@@__crt_stdio_output@@QAEHXZ 0045882e f i libucrt:output.obj
 0001:00057b02       ?process@?$output_processor@_WV?$string_output_adapter@_W@__crt_stdio_output@@V?$format_validation_base@_WV?$string_output_adapter@_W@__crt_stdio_output@@@2@@__crt_stdio_output@@QAEHXZ 00458b02 f i libucrt:output.obj
 0001:00057d5a       ?process@?$output_processor@_WV?$string_output_adapter@_W@__crt_stdio_output@@V?$standard_base@_WV?$string_output_adapter@_W@__crt_stdio_output@@@2@@__crt_stdio_output@@QAEHXZ 00458d5a f i libucrt:output.obj
 0001:00057f96       ?state_case_size@?$output_processor@DV?$string_output_adapter@D@__crt_stdio_output@@V?$standard_base@DV?$string_output_adapter@D@__crt_stdio_output@@@2@@__crt_stdio_output@@AAE_NXZ 00458f96 f i libucrt:output.obj
 0001:000580ef       ?state_case_size@?$output_processor@_WV?$string_output_adapter@_W@__crt_stdio_output@@V?$format_validation_base@_WV?$string_output_adapter@_W@__crt_stdio_output@@@2@@__crt_stdio_output@@AAE_NXZ 004590ef f i libucrt:output.obj
 0001:000580ef       ?state_case_size@?$output_processor@_WV?$string_output_adapter@_W@__crt_stdio_output@@V?$standard_base@_WV?$string_output_adapter@_W@__crt_stdio_output@@@2@@__crt_stdio_output@@AAE_NXZ 004590ef f i libucrt:output.obj
 0001:00058279       ?state_case_type@?$output_processor@DV?$string_output_adapter@D@__crt_stdio_output@@V?$standard_base@DV?$string_output_adapter@D@__crt_stdio_output@@@2@@__crt_stdio_output@@AAE_NXZ 00459279 f i libucrt:output.obj
 0001:000586b8       ?state_case_type@?$output_processor@_WV?$string_output_adapter@_W@__crt_stdio_output@@V?$format_validation_base@_WV?$string_output_adapter@_W@__crt_stdio_output@@@2@@__crt_stdio_output@@AAE_NXZ 004596b8 f i libucrt:output.obj
 0001:000586b8       ?state_case_type@?$output_processor@_WV?$string_output_adapter@_W@__crt_stdio_output@@V?$standard_base@_WV?$string_output_adapter@_W@__crt_stdio_output@@@2@@__crt_stdio_output@@AAE_NXZ 004596b8 f i libucrt:output.obj
 0001:00058bce       ?to_integer_size@__crt_stdio_output@@YAIW4length_modifier@1@@Z 00459bce f i libucrt:output.obj
 0001:00058c22       ?type_case_Z@?$output_processor@DV?$string_output_adapter@D@__crt_stdio_output@@V?$standard_base@DV?$string_output_adapter@D@__crt_stdio_output@@@2@@__crt_stdio_output@@AAE_NXZ 00459c22 f i libucrt:output.obj
 0001:00058c95       ?type_case_Z@?$output_processor@_WV?$string_output_adapter@_W@__crt_stdio_output@@V?$format_validation_base@_WV?$string_output_adapter@_W@__crt_stdio_output@@@2@@__crt_stdio_output@@AAE_NXZ 00459c95 f i libucrt:output.obj
 0001:00058c95       ?type_case_Z@?$output_processor@_WV?$string_output_adapter@_W@__crt_stdio_output@@V?$standard_base@_WV?$string_output_adapter@_W@__crt_stdio_output@@@2@@__crt_stdio_output@@AAE_NXZ 00459c95 f i libucrt:output.obj
 0001:00058d09       ?type_case_a@?$output_processor@DV?$string_output_adapter@D@__crt_stdio_output@@V?$standard_base@DV?$string_output_adapter@D@__crt_stdio_output@@@2@@__crt_stdio_output@@AAE_NXZ 00459d09 f i libucrt:output.obj
 0001:00058ec0       ?type_case_a@?$output_processor@_WV?$string_output_adapter@_W@__crt_stdio_output@@V?$format_validation_base@_WV?$string_output_adapter@_W@__crt_stdio_output@@@2@@__crt_stdio_output@@AAE_NXZ 00459ec0 f i libucrt:output.obj
 0001:00058ec0       ?type_case_a@?$output_processor@_WV?$string_output_adapter@_W@__crt_stdio_output@@V?$standard_base@_WV?$string_output_adapter@_W@__crt_stdio_output@@@2@@__crt_stdio_output@@AAE_NXZ 00459ec0 f i libucrt:output.obj
 0001:0005908d       ?type_case_c_tchar@?$output_processor@DV?$string_output_adapter@D@__crt_stdio_output@@V?$standard_base@DV?$string_output_adapter@D@__crt_stdio_output@@@2@@__crt_stdio_output@@AAE_ND@Z 0045a08d f i libucrt:output.obj
 0001:00059119       ?type_case_c_tchar@?$output_processor@_WV?$string_output_adapter@_W@__crt_stdio_output@@V?$format_validation_base@_WV?$string_output_adapter@_W@__crt_stdio_output@@@2@@__crt_stdio_output@@AAE_N_W@Z 0045a119 f i libucrt:output.obj
 0001:00059119       ?type_case_c_tchar@?$output_processor@_WV?$string_output_adapter@_W@__crt_stdio_output@@V?$standard_base@_WV?$string_output_adapter@_W@__crt_stdio_output@@@2@@__crt_stdio_output@@AAE_N_W@Z 0045a119 f i libucrt:output.obj
 0001:000591be       ?type_case_n@?$output_processor@DV?$string_output_adapter@D@__crt_stdio_output@@V?$standard_base@DV?$string_output_adapter@D@__crt_stdio_output@@@2@@__crt_stdio_output@@AAE_NXZ 0045a1be f i libucrt:output.obj
 0001:000591be       ?type_case_n@?$output_processor@_WV?$string_output_adapter@_W@__crt_stdio_output@@V?$format_validation_base@_WV?$string_output_adapter@_W@__crt_stdio_output@@@2@@__crt_stdio_output@@AAE_NXZ 0045a1be f i libucrt:output.obj
 0001:000591be       ?type_case_n@?$output_processor@_WV?$string_output_adapter@_W@__crt_stdio_output@@V?$standard_base@_WV?$string_output_adapter@_W@__crt_stdio_output@@@2@@__crt_stdio_output@@AAE_NXZ 0045a1be f i libucrt:output.obj
 0001:00059243       ?type_case_o@?$output_processor@DV?$string_output_adapter@D@__crt_stdio_output@@V?$standard_base@DV?$string_output_adapter@D@__crt_stdio_output@@@2@@__crt_stdio_output@@AAE_NXZ 0045a243 f i libucrt:output.obj
 0001:00059260       ?type_case_o@?$output_processor@_WV?$string_output_adapter@_W@__crt_stdio_output@@V?$format_validation_base@_WV?$string_output_adapter@_W@__crt_stdio_output@@@2@@__crt_stdio_output@@AAE_NXZ 0045a260 f i libucrt:output.obj
 0001:00059260       ?type_case_o@?$output_processor@_WV?$string_output_adapter@_W@__crt_stdio_output@@V?$standard_base@_WV?$string_output_adapter@_W@__crt_stdio_output@@@2@@__crt_stdio_output@@AAE_NXZ 0045a260 f i libucrt:output.obj
 0001:0005927d       ?type_case_p@?$output_processor@DV?$string_output_adapter@D@__crt_stdio_output@@V?$standard_base@DV?$string_output_adapter@D@__crt_stdio_output@@@2@@__crt_stdio_output@@AAE_NXZ 0045a27d f i libucrt:output.obj
 0001:00059293       ?type_case_p@?$output_processor@_WV?$string_output_adapter@_W@__crt_stdio_output@@V?$format_validation_base@_WV?$string_output_adapter@_W@__crt_stdio_output@@@2@@__crt_stdio_output@@AAE_NXZ 0045a293 f i libucrt:output.obj
 0001:00059293       ?type_case_p@?$output_processor@_WV?$string_output_adapter@_W@__crt_stdio_output@@V?$standard_base@_WV?$string_output_adapter@_W@__crt_stdio_output@@@2@@__crt_stdio_output@@AAE_NXZ 0045a293 f i libucrt:output.obj
 0001:000592a9       ?type_case_s@?$output_processor@DV?$string_output_adapter@D@__crt_stdio_output@@V?$standard_base@DV?$string_output_adapter@D@__crt_stdio_output@@@2@@__crt_stdio_output@@AAE_NXZ 0045a2a9 f i libucrt:output.obj
 0001:0005931c       ?type_case_s@?$output_processor@_WV?$string_output_adapter@_W@__crt_stdio_output@@V?$format_validation_base@_WV?$string_output_adapter@_W@__crt_stdio_output@@@2@@__crt_stdio_output@@AAE_NXZ 0045a31c f i libucrt:output.obj
 0001:0005931c       ?type_case_s@?$output_processor@_WV?$string_output_adapter@_W@__crt_stdio_output@@V?$standard_base@_WV?$string_output_adapter@_W@__crt_stdio_output@@@2@@__crt_stdio_output@@AAE_NXZ 0045a31c f i libucrt:output.obj
 0001:00059391       ?type_case_s_compute_narrow_string_length@?$output_processor@_WV?$string_output_adapter@_W@__crt_stdio_output@@V?$format_validation_base@_WV?$string_output_adapter@_W@__crt_stdio_output@@@2@@__crt_stdio_output@@AAEHH_W@Z 0045a391 f i libucrt:output.obj
 0001:00059391       ?type_case_s_compute_narrow_string_length@?$output_processor@_WV?$string_output_adapter@_W@__crt_stdio_output@@V?$standard_base@_WV?$string_output_adapter@_W@__crt_stdio_output@@@2@@__crt_stdio_output@@AAEHH_W@Z 0045a391 f i libucrt:output.obj
 0001:00059457       ?unget@?$c_string_character_source@D@__crt_strtox@@QAEXD@Z 0045a457 f i libucrt:output.obj
 0001:00059480       ?unget@?$c_string_character_source@_W@__crt_strtox@@QAEX_W@Z 0045a480 f i libucrt:output.obj
 0001:000594b0       ?update_locale_slow@__crt_cached_ptd_host@@AAEXXZ 0045a4b0 f i libucrt:output.obj
 0001:0005950b       ?validate@?$c_string_character_source@D@__crt_strtox@@QBE_NXZ 0045a50b f i libucrt:output.obj
 0001:0005950b       ?validate@?$c_string_character_source@_W@__crt_strtox@@QBE_NXZ 0045a50b f i libucrt:output.obj
 0001:00059526       ?validate@?$string_output_adapter@D@__crt_stdio_output@@QBE_NAAV__crt_cached_ptd_host@@@Z 0045a526 f i libucrt:output.obj
 0001:00059526       ?validate@?$string_output_adapter@_W@__crt_stdio_output@@QBE_NAAV__crt_cached_ptd_host@@@Z 0045a526 f i libucrt:output.obj
 0001:00059557       ?write_string@?$string_output_adapter@D@__crt_stdio_output@@QBEXQBDHQAHAAV__crt_cached_ptd_host@@@Z 0045a557 f i libucrt:output.obj
 0001:000595c6       ?write_string@?$string_output_adapter@_W@__crt_stdio_output@@QBEXQB_WHQAHAAV__crt_cached_ptd_host@@@Z 0045a5c6 f i libucrt:output.obj
 0001:0005963f       ___acrt_locale_get_ctype_array_value 0045a63f f i libucrt:output.obj
 0001:00059661       ___stdio_common_vsnwprintf_s 0045a661 f   libucrt:output.obj
 0001:000596a5       ___stdio_common_vsprintf   0045a6a5 f   libucrt:output.obj
 0001:000596e6       ___stdio_common_vswprintf  0045a6e6 f   libucrt:output.obj
 0001:00059727       ___stdio_common_vswprintf_s 0045a727 f   libucrt:output.obj
 0001:00059768       ?check_synchronize_global_state_index@__crt_cached_ptd_host@@AAEIXZ 0045a768 f i libucrt:invalid_parameter.obj
 0001:00059791       ___acrt_call_reportfault   0045a791 f   libucrt:invalid_parameter.obj
 0001:000598ca       ___acrt_initialize_invalid_parameter_handler 0045a8ca f   libucrt:invalid_parameter.obj
 0001:000598d9       __invalid_parameter        0045a8d9 f   libucrt:invalid_parameter.obj
 0001:00059910       __invalid_parameter_internal 0045a910 f   libucrt:invalid_parameter.obj
 0001:0005998d       __invalid_parameter_noinfo 0045a98d f   libucrt:invalid_parameter.obj
 0001:0005999d       __invoke_watson            0045a99d f   libucrt:invalid_parameter.obj
 0001:00059a50       ___acrt_errno_from_os_error 0045aa50 f   libucrt:errno.obj
 0001:00059aaf       ___acrt_errno_map_os_error 0045aaaf f   libucrt:errno.obj
 0001:00059ad2       ___acrt_errno_map_os_error_ptd 0045aad2 f   libucrt:errno.obj
 0001:00059af6       ___doserrno                0045aaf6 f   libucrt:errno.obj
 0001:00059b0b       __errno                    0045ab0b f   libucrt:errno.obj
 0001:00059b20       ??$is_overflow_condition@_K@__crt_strtox@@YA_NI_K@Z 0045ab20 f i libucrt:strtox.obj
 0001:00059b61       ??$parse_integer@KV?$c_string_character_source@_W@__crt_strtox@@$00@__crt_strtox@@YAKAAV__crt_cached_ptd_host@@V?$c_string_character_source@_W@0@H_N@Z 0045ab61 f i libucrt:strtox.obj
 0001:0005a184       ??$parse_integer@_KV?$c_string_character_source@D@__crt_strtox@@$00@__crt_strtox@@YA_KAAV__crt_cached_ptd_host@@V?$c_string_character_source@D@0@H_N@Z 0045b184 f i libucrt:strtox.obj
 0001:0005a434       ??$parse_integer@_KV?$c_string_character_source@_W@__crt_strtox@@$00@__crt_strtox@@YA_KAAV__crt_cached_ptd_host@@V?$c_string_character_source@_W@0@H_N@Z 0045b434 f i libucrt:strtox.obj
 0001:0005aa03       __ischartype_l             0045ba03 f i libucrt:strtox.obj
 0001:0005aa5a       _strtoll                   0045ba5a f   libucrt:strtox.obj
 0001:0005aaa6       _strtoull                  0045baa6 f   libucrt:strtox.obj
 0001:0005aaf2       _wcstol                    0045baf2 f   libucrt:strtox.obj
 0001:0005ab38       _wcstoul                   0045bb38 f   libucrt:strtox.obj
 0001:0005ab7e       _wcstoull                  0045bb7e f   libucrt:strtox.obj
 0001:0005abd0       _free                      0045bbd0 f   libucrt:free.obj
 0001:0005abe0       _malloc                    0045bbe0 f   libucrt:malloc.obj
 0001:0005abf0       __recalloc_base            0045bbf0 f   libucrt:recalloc.obj
 0001:0005ac70       __recalloc                 0045bc70 f   libucrt:recalloc.obj
 0001:0005ac7b       __wtoi                     0045bc7b f   libucrt:atox.obj
 0001:0005ac7b       __wtol                     0045bc7b f   libucrt:atox.obj
 0001:0005acba       __wtoi64                   0045bcba f   libucrt:atox.obj
 0001:0005acff       ___acrt_initialize_command_line 0045bcff f   libucrt:argv_data.obj
 0001:0005ad18       ___p___argc                0045bd18 f   libucrt:argv_data.obj
 0001:0005ad1e       ___p___wargv               0045bd1e f   libucrt:argv_data.obj
 0001:0005ad30       _wcsncpy_s                 0045bd30 f   libucrt:wcsncpy_s.obj
 0001:0005ae40       _strnlen                   0045be40 f   libucrt:strnlen.obj
 0001:0005afa0       _wcsnlen                   0045bfa0 f   libucrt:strnlen.obj
 0001:0005b180       ??0_LocaleUpdate@@QAE@QAU__crt_locale_pointers@@@Z 0045c180 f i libucrt:wcsicmp.obj
 0001:0005b250       ___ascii_wcsicmp           0045c250 f   libucrt:wcsicmp.obj
 0001:0005b2a0       __wcsicmp                  0045c2a0 f   libucrt:wcsicmp.obj
 0001:0005b2f0       __wcsicmp_l                0045c2f0 f   libucrt:wcsicmp.obj
 0001:0005b4a0       _wmemcpy_s                 0045c4a0 f   libucrt:wmemcpy_s.obj
 0001:0005b540       __ceil_no_sse41            0045c540 f   libucrt:ceil_pentium4.obj
 0001:0005b580       _ceil                      0045c580 f   libucrt:ceil_pentium4.obj
 0001:0005b5a0       __ceil_pentium4            0045c5a0 f   libucrt:ceil_pentium4.obj
 0001:0005b680       _wcscpy_s                  0045c680 f   libucrt:wcscpy_s.obj
 0001:0005b715       ??$assemble_floating_point_snan@N@__crt_strtox@@YAX_NAAN@Z 0045c715 f i libucrt:strtod.obj
 0001:0005b736       ??$assemble_floating_point_value_t@M@__crt_strtox@@YA?AW4SLD_STATUS@@_NH_KAAM@Z 0045c736 f i libucrt:strtod.obj
 0001:0005b775       ??$assemble_floating_point_value_t@N@__crt_strtox@@YA?AW4SLD_STATUS@@_NH_KAAN@Z 0045c775 f i libucrt:strtod.obj
 0001:0005b84d       ??$convert_decimal_string_to_floating_type@N@__crt_strtox@@YA?AW4SLD_STATUS@@ABUfloating_point_string@0@AAN@Z 0045c84d f i libucrt:strtod.obj
 0001:0005b86e       ??$convert_hexadecimal_string_to_floating_type@N@__crt_strtox@@YA?AW4SLD_STATUS@@ABUfloating_point_string@0@AAN@Z 0045c86e f i libucrt:strtod.obj
 0001:0005b88f       ??$parse_floating_point@V?$c_string_character_source@D@__crt_strtox@@N@__crt_strtox@@YA?AW4SLD_STATUS@@QAU__crt_locale_pointers@@V?$c_string_character_source@D@0@QAN@Z 0045c88f f i libucrt:strtod.obj
 0001:0005b90f       ??$parse_floating_point_from_source@V?$c_string_character_source@D@__crt_strtox@@@__crt_strtox@@YA?AW4floating_point_parse_result@0@QAU__crt_locale_pointers@@AAV?$c_string_character_source@D@0@AAUfloating_point_string@0@@Z 0045c90f f i libucrt:strtod.obj
 0001:0005bd37       ??$parse_floating_point_possible_infinity@DV?$c_string_character_source@D@__crt_strtox@@PBD@__crt_strtox@@YA?AW4floating_point_parse_result@0@AADAAV?$c_string_character_source@D@0@PBD@Z 0045cd37 f i libucrt:strtod.obj
 0001:0005bde9       ??$parse_floating_point_possible_nan@DV?$c_string_character_source@D@__crt_strtox@@PBD@__crt_strtox@@YA?AW4floating_point_parse_result@0@AADAAV?$c_string_character_source@D@0@PBD@Z 0045cde9 f i libucrt:strtod.obj
 0001:0005beed       ??$parse_floating_point_possible_nan_is_ind@DV?$c_string_character_source@D@__crt_strtox@@@__crt_strtox@@YA_NAADAAV?$c_string_character_source@D@0@@Z 0045ceed f i libucrt:strtod.obj
 0001:0005bf29       ??$parse_floating_point_possible_nan_is_snan@DV?$c_string_character_source@D@__crt_strtox@@@__crt_strtox@@YA_NAADAAV?$c_string_character_source@D@0@@Z 0045cf29 f i libucrt:strtod.obj
 0001:0005bf65       ??$parse_floating_point_write_result@N@__crt_strtox@@YA?AW4SLD_STATUS@@W4floating_point_parse_result@0@ABUfloating_point_string@0@QAN@Z 0045cf65 f i libucrt:strtod.obj
 0001:0005c089       ??R<lambda_32aa245da1b5b882fa96db788295c8b2>@@QBE@XZ 0045d089 f i libucrt:strtod.obj
 0001:0005c089       ??R<lambda_690cf26ff5d754c94c32cf642e9f01bc>@@QBE@XZ 0045d089 f i libucrt:strtod.obj
 0001:0005c089       ??R<lambda_e51f7abad2595a5950d3223319845217>@@QBE@XZ 0045d089 f i libucrt:strtod.obj
 0001:0005c0af       ?as_double@floating_point_value@__crt_strtox@@QBEAANXZ 0045d0af f i libucrt:strtod.obj
 0001:0005c0d4       ?as_float@floating_point_value@__crt_strtox@@QBEAAMXZ 0045d0d4 f i libucrt:strtod.obj
 0001:0005c0f9       ?assemble_floating_point_infinity@__crt_strtox@@YAX_NABVfloating_point_value@1@@Z 0045d0f9 f i libucrt:strtod.obj
 0001:0005c139       ?assemble_floating_point_value@__crt_strtox@@YA?AW4SLD_STATUS@@_KH_N1ABVfloating_point_value@1@@Z 0045d139 f i libucrt:strtod.obj
 0001:0005c4d2       ?assemble_floating_point_value_from_big_integer@__crt_strtox@@YA?AW4SLD_STATUS@@ABUbig_integer@1@I_N1ABVfloating_point_value@1@@Z 0045d4d2 f i libucrt:strtod.obj
 0001:0005c66f       ?assemble_floating_point_zero@__crt_strtox@@YAX_NABVfloating_point_value@1@@Z 0045d66f f i libucrt:strtod.obj
 0001:0005c6a4       ?convert_decimal_string_to_floating_type_common@__crt_strtox@@YA?AW4SLD_STATUS@@ABUfloating_point_string@1@ABVfloating_point_value@1@@Z 0045d6a4 f i libucrt:strtod.obj
 0001:0005e3a3       ?convert_hexadecimal_string_to_floating_type_common@__crt_strtox@@YA?AW4SLD_STATUS@@ABUfloating_point_string@1@ABVfloating_point_value@1@@Z 0045f3a3 f i libucrt:strtod.obj
 0001:0005e454       ?denormal_mantissa_mask@floating_point_value@__crt_strtox@@QBE_KXZ 0045f454 f i libucrt:strtod.obj
 0001:0005e470       ?divide@__crt_strtox@@YA_KAAUbig_integer@1@ABU21@@Z 0045f470 f i libucrt:strtod.obj
 0001:0005e947       ?normal_mantissa_mask@floating_point_value@__crt_strtox@@QBE_KXZ 0045f947 f i libucrt:strtod.obj
 0001:0005e9df       _strtod                    0045f9df f   libucrt:strtod.obj
 0001:0005e9f6       ___acrt_initialize_stdio   0045f9f6 f   libucrt:_file.obj
 0001:0005eabe       ___acrt_iob_func           0045fabe f   libucrt:_file.obj
 0001:0005eace       ___acrt_uninitialize_stdio 0045face f   libucrt:_file.obj
 0001:0005eb1a       __get_stream_buffer_pointers 0045fb1a f   libucrt:_file.obj
 0001:0005eb60       __lock_file                0045fb60 f   libucrt:_file.obj
 0001:0005eb74       __unlock_file              0045fb74 f   libucrt:_file.obj
 0001:0005ecad       _fclose                    0045fcad f   libucrt:fclose.obj
 0001:0005ef15       ___acrt_stdio_flush_nolock 0045ff15 f   libucrt:fflush.obj
 0001:0005ef7e       __fflush_nolock            0045ff7e f   libucrt:fflush.obj
 0001:0005efe3       __flushall                 0045ffe3 f   libucrt:fflush.obj
 0001:0005efec       _fflush                    0045ffec f   libucrt:fflush.obj
 0001:0005f03f       __fgetc_nolock             0046003f f   libucrt:fgetc.obj
 0001:0005f07b       _fgetc                     0046007b f   libucrt:fgetc.obj
 0001:0005f194       _fgetpos                   00460194 f   libucrt:fgetpos.obj
 0001:0005f321       __fputc_nolock_internal    00460321 f   libucrt:fputc.obj
 0001:0005f34e       _fputc                     0046034e f   libucrt:fputc.obj
 0001:0005f382       __fread_nolock_s           00460382 f   libucrt:fread.obj
 0001:0005f556       _fread                     00460556 f   libucrt:fread.obj
 0001:0005f573       _fread_s                   00460573 f   libucrt:fread.obj
 0001:0005f610       _fsetpos                   00460610 f   libucrt:fsetpos.obj
 0001:0005f64b       ?LongLongSub@@YAJ_J0PA_J@Z 0046064b f i libucrt:fseek.obj
 0001:0005f93c       __fseeki64                 0046093c f   libucrt:fseek.obj
 0001:0005f976       _fseek                     00460976 f   libucrt:fseek.obj
 0001:0005fa57       __fwrite_internal          00460a57 f   libucrt:fwrite.obj
 0001:0005face       __fwrite_nolock_internal   00460ace f   libucrt:fwrite.obj
 0001:0005fc62       _fwrite                    00460c62 f   libucrt:fwrite.obj
 0001:0005fe60       _setvbuf                   00460e60 f   libucrt:setvbuf.obj
 0001:0005fe9a       __ungetc_nolock            00460e9a f   libucrt:ungetc.obj
 0001:0005ff8e       _ungetc                    00460f8e f   libucrt:ungetc.obj
 0001:00060010       __dclass                   00461010 f i libucrt:nan.obj
 0001:00060030       __dsign                    00461030 f i libucrt:nan.obj
 0001:0006003d       _localeconv                0046103d f   libucrt:localeconv.obj
 0001:00060065       ____lc_codepage_func       00461065 f   libucrt:initctype.obj
 0001:0006008a       ____lc_locale_name_func    0046108a f   libucrt:initctype.obj
 0001:000600b1       ___acrt_locale_initialize_ctype 004610b1 f   libucrt:initctype.obj
 0001:00060515       _abort                     00461515 f   libucrt:abort.obj
 0001:00060559       ___acrt_initialize_locks   00461559 f   libucrt:locks.obj
 0001:0006059a       ___acrt_lock               0046159a f   libucrt:locks.obj
 0001:000605b1       ___acrt_uninitialize_locks 004615b1 f   libucrt:locks.obj
 0001:000605e2       ___acrt_unlock             004615e2 f   libucrt:locks.obj
 0001:000605f9       __lock_locales             004615f9 f   libucrt:locks.obj
 0001:00060607       __unlock_locales           00461607 f   libucrt:locks.obj
 0001:00060865       _setlocale                 00461865 f   libucrt:setlocale.obj
 0001:0006089d       ___pctype_func             0046189d f   libucrt:ctype.obj
 0001:000608d0       _islower                   004618d0 f   libucrt:_ctype.obj
 0001:00060960       _isupper                   00461960 f   libucrt:_ctype.obj
 0001:000609f0       _calloc                    004619f0 f   libucrt:calloc.obj
 0001:00060a00       __wcsdup                   00461a00 f   libucrt:wcsdup.obj
 0001:00060b1b       __wfsopen                  00461b1b f   libucrt:fopen.obj
 0001:00060b30       __decomp                   00461b30 f i libucrt:frexp.obj
 0001:00060c40       __sptype                   00461c40 f i libucrt:frexp.obj
 0001:00060cc0       _realloc                   00461cc0 f   libucrt:realloc.obj
 0001:00060cd0       _strcspn                   00461cd0 f   libucrt:strcspn.obj
 0001:00060d20       ___strncnt                 00461d20 f   libucrt:strncnt.obj
 0001:00060d40       __callnewh                 00461d40 f   libucrt:new_handler.obj
 0001:00060d80       ___acrt_initialize_new_handler 00461d80 f   libucrt:new_handler.obj
 0001:00060da0       __query_new_handler        00461da0 f   libucrt:new_handler.obj
 0001:00060e00       __set_new_handler          00461e00 f   libucrt:new_handler.obj
 0001:00060e70       ?_set_new_handler@@YAP6AHI@ZH@Z 00461e70 f   libucrt:new_handler.obj
 0001:00060e7d       ??$__crt_fast_decode_pointer@P6AHI@Z@@YAP6AHI@ZQ6AHI@Z@Z 00461e7d f i libucrt:new_handler.obj
 0001:00060e7d       ??$__crt_fast_decode_pointer@P6AXH@Z@@YAP6AXH@ZQ6AXH@Z@Z 00461e7d f i libucrt:signal.obj
 0001:00060e7d       ??$__crt_fast_decode_pointer@P6GXPAXK0@Z@@YAP6GXPAXK0@ZQ6GX0K0@Z@Z 00461e7d f i libucrt:exit.obj
 0001:00060e98       ??$__crt_fast_encode_pointer@P6AHI@Z@@YAP6AHI@ZQ6AHI@Z@Z 00461e98 f i libucrt:new_handler.obj
 0001:00060e98       ??$__crt_fast_encode_pointer@P6AHXZ@@YAP6AHXZQ6AHXZ@Z 00461e98 f i libucrt:onexit.obj
 0001:00060e98       ??$__crt_fast_encode_pointer@P6GXPAXK0@Z@@YAP6GXPAXK0@ZQ6GX0K0@Z@Z 00461e98 f i libucrt:exit.obj
 0001:00060e98       ??$__crt_fast_encode_pointer@PAP6AXXZ@@YAPAP6AXXZQAP6AXXZ@Z 00461e98 f i libucrt:onexit.obj
 0001:00060eb7       _terminate                 00461eb7 f   libucrt:terminate.obj
 0001:00060ef3       __seh_filter_exe           00461ef3 f   libucrt:exception_filter.obj
 0001:000612dc       ___acrt_initialize_thread_local_exit_callback 004622dc f   libucrt:exit.obj
 0001:000612eb       __c_exit                   004622eb f   libucrt:exit.obj
 0001:000612fa       __cexit                    004622fa f   libucrt:exit.obj
 0001:00061309       __exit                     00462309 f   libucrt:exit.obj
 0001:0006131f       __register_thread_local_exe_atexit_callback 0046231f f   libucrt:exit.obj
 0001:00061345       _exit                      00462345 f   libucrt:exit.obj
 0001:00061632       ___acrt_allocate_buffer_for_argv 00462632 f   libucrt:argv_parsing.obj
 0001:00061681       __configure_wide_argv      00462681 f   libucrt:argv_parsing.obj
 0001:00061869       ___dcrt_uninitialize_environments_nolock 00462869 f   libucrt:environment_initialization.obj
 0001:000618ba       __initialize_wide_environment 004628ba f   libucrt:environment_initialization.obj
 0001:00061b62       __crt_atexit               00462b62 f   libucrt:onexit.obj
 0001:00061b78       __execute_onexit_table     00462b78 f   libucrt:onexit.obj
 0001:00061bb6       __initialize_onexit_table  00462bb6 f   libucrt:onexit.obj
 0001:00061bdf       __register_onexit_function 00462bdf f   libucrt:onexit.obj
 0001:00061d0d       ___acrt_initialize         00462d0d f   libucrt:initialization.obj
 0001:00061d1f       ___acrt_uninitialize       00462d1f f   libucrt:initialization.obj
 0001:00061d50       __except1                  00462d50 f   libucrt:fpexcept.obj
 0001:00061e90       __handle_exc               00462e90 f   libucrt:fpexcept.obj
 0001:000621c0       __raise_exc                004631c0 f   libucrt:fpexcept.obj
 0001:000621f0       __raise_exc_ex             004631f0 f   libucrt:fpexcept.obj
 0001:00062520       __set_errno_from_matherr   00463520 f   libucrt:fpexcept.obj
 0001:00062560       __umatherr                 00463560 f   libucrt:fpexcept.obj
 0001:0006265f       __query_app_type           0046365f f   libucrt:report_runtime_error.obj
 0001:00062665       __set_app_type             00463665 f   libucrt:report_runtime_error.obj
 0001:00062680       ___acrt_has_user_matherr   00463680 f   libucrt:matherr.obj
 0001:000626a0       ___acrt_initialize_user_matherr 004636a0 f   libucrt:matherr.obj
 0001:000626b0       ___acrt_invoke_user_matherr 004636b0 f   libucrt:matherr.obj
 0001:000626f0       ___setusermatherr          004636f0 f   libucrt:matherr.obj
 0001:00062716       __get_wide_winmain_command_line 00463716 f   libucrt:argv_winmain.obj
 0001:00062761       __initterm                 00463761 f   libucrt:initterm.obj
 0001:0006278c       __initterm_e               0046378c f   libucrt:initterm.obj
 0001:000627ba       __get_fmode                004637ba f   libucrt:setmode.obj
 0001:000627e7       __set_fmode                004637e7 f   libucrt:setmode.obj
 0001:00062824       __setmode_nolock           00463824 f   libucrt:setmode.obj
 0001:000629f5       ??0_expandlocale_locale_name_cache@@QAE@QA_WIQAU__crt_qualified_locale_data@@@Z 004639f5 f i libucrt:wsetlocale.obj
 0001:00062a3f       ??1_expandlocale_locale_name_cache@@QAE@XZ 00463a3f f i libucrt:wsetlocale.obj
 0001:00062bd7       ?commit_locale_name@_expandlocale_locale_name_cache@@QAEXQB_WI@Z 00463bd7 f i libucrt:wsetlocale.obj
 0001:00062c1b       ?commit_locale_name_cache_already_updated@_expandlocale_locale_name_cache@@QAEXQB_WI@Z 00463c1b f i libucrt:wsetlocale.obj
 0001:00062c50       ___acrt_copy_locale_name   00463c50 f   libucrt:wsetlocale.obj
 0001:00062cb0       ___acrt_set_locale_changed 00463cb0 f   libucrt:wsetlocale.obj
 0001:00062cbb       ___acrt_uninitialize_locale 00463cbb f   libucrt:wsetlocale.obj
 0001:00062ce2       ___lc_lctowcs              00463ce2 f   libucrt:wsetlocale.obj
 0001:00062d52       ___lc_wcstolc              00463d52 f   libucrt:wsetlocale.obj
 0001:00062e8f       __configthreadlocale       00463e8f f   libucrt:wsetlocale.obj
 0001:000632f6       __wcscats                  004642f6 f   libucrt:wsetlocale.obj
 0001:00063337       __wsetlocale               00464337 f   libucrt:wsetlocale.obj
 0001:00064020       __query_new_mode           00465020 f   libucrt:new_mode.obj
 0001:00064030       __set_new_mode             00465030 f   libucrt:new_mode.obj
 0001:0006405f       ___p__commode              0046505f f   libucrt:ncommode.obj
 0001:00064070       __controlfp_s              00465070 f   libucrt:contrlfp.obj
 0001:000640e0       _strcpy_s                  004650e0 f   libucrt:strcpy_s.obj
 0001:00064170       @_guard_check_icall@4      00465170 f i libucrt:checkcfg.obj
 0001:00064180       _strncmp                   00465180 f   libucrt:strncmp.obj
 0001:00064200       _wcsncmp                   00465200 f   libucrt:wcsncmp.obj
 0001:00064250       __free_base                00465250 f   libucrt:free_base.obj
 0001:000642a0       __malloc_base              004652a0 f   libucrt:malloc_base.obj
 0001:000642f1       ___acrt_update_locale_info 004652f1 f   libucrt:locale_update.obj
 0001:0006431e       ___acrt_update_locale_info_explicit 0046531e f   libucrt:locale_update.obj
 0001:0006434f       ___acrt_update_multibyte_info 0046534f f   libucrt:locale_update.obj
 0001:0006437c       ___acrt_update_multibyte_info_explicit 0046537c f   libucrt:locale_update.obj
 0001:000643ad       ?__acrt_fp_classify@@YA?AW4__acrt_fp_class@@ABN@Z 004653ad f i libucrt:cvt.obj
 0001:00064d5c       ___acrt_fp_format          00465d5c f   libucrt:cvt.obj
 0001:00064ede       __wctomb_internal          00465ede f   libucrt:wctomb.obj
 0001:00065042       __mbtowc_internal          00466042 f   libucrt:mbtowc.obj
 0001:00065172       ?__mblen_utf8@__crt_mbstring@@YAHPBD@Z 00466172 f   libucrt:mbrtoc32.obj
 0001:000651b3       ?__mbrtoc32_utf8@__crt_mbstring@@YAIPA_UPBDIPAU_Mbstatet@@AAV__crt_cached_ptd_host@@@Z 004661b3 f   libucrt:mbrtoc32.obj
 0001:0006536c       ?__c16rtomb_utf8@__crt_mbstring@@YAIPAD_SPAU_Mbstatet@@AAV__crt_cached_ptd_host@@@Z 0046636c f   libucrt:c16rtomb.obj
 0001:00065443       ?__mbrtowc_utf8@__crt_mbstring@@YAIPA_WPBDIPAU_Mbstatet@@AAV__crt_cached_ptd_host@@@Z 00466443 f   libucrt:mbrtowc.obj
 0001:00065486       ?__mbsrtowcs_utf8@__crt_mbstring@@YAIPA_WPAPBDIPAU_Mbstatet@@AAV__crt_cached_ptd_host@@@Z 00466486 f   libucrt:mbrtowc.obj
 0001:00065599       __fileno                   00466599 f   libucrt:fileno.obj
 0001:000655c0       __get_printf_count_output  004665c0 f   libucrt:printf_count_output.obj
 0001:000655d5       ___acrt_should_use_temporary_buffer 004665d5 f   libucrt:_sftbuf.obj
 0001:00065613       ___acrt_stdio_begin_temporary_buffering_nolock 00466613 f   libucrt:_sftbuf.obj
 0001:000656be       ___acrt_stdio_end_temporary_buffering_nolock 004666be f   libucrt:_sftbuf.obj
 0001:000659ef       ?internal_get_ptd_head_slow@@YAPAU__acrt_ptd@@XZ 004669ef f   libucrt:per_thread_data.obj
 0001:00065ae2       ___acrt_getptd             00466ae2 f   libucrt:per_thread_data.obj
 0001:00065af0       ___acrt_getptd_head        00466af0 f   libucrt:per_thread_data.obj
 0001:00065b33       ___acrt_getptd_noexit      00466b33 f   libucrt:per_thread_data.obj
 0001:00065bbf       ___acrt_getptd_noexit_explicit 00466bbf f   libucrt:per_thread_data.obj
 0001:00065c08       ___acrt_initialize_ptd     00466c08 f   libucrt:per_thread_data.obj
 0001:00065c3e       ___acrt_uninitialize_ptd   00466c3e f   libucrt:per_thread_data.obj
 0001:00065db8       ___acrt_initialize_lowio   00466db8 f   libucrt:ioinit.obj
 0001:00065e18       ___acrt_uninitialize_lowio 00466e18 f   libucrt:ioinit.obj
 0001:00065e44       _iswctype                  00466e44 f   libucrt:iswctype.obj
 0001:00065ead       __isctype_l                00466ead f   libucrt:isctype.obj
 0001:00065f80       __msize_base               00466f80 f   libucrt:msize.obj
 0001:00065fc0       __msize                    00466fc0 f   libucrt:msize.obj
 0001:00065fd0       __realloc_base             00466fd0 f   libucrt:realloc_base.obj
 0001:00066039       __towlower_l               00467039 f   libucrt:towlower.obj
 0001:00066110       ___libm_error_support      00467110 f   libucrt:libm_error.obj
 0001:000663b0       ___acrt_initialize_sse2    004673b0 f   libucrt:mathfcns.obj
 0001:000663c0       __ceil_default             004673c0 f   libucrt:ceil.obj
 0001:000664c0       _fegetround                004674c0 f   libucrt:fegetround.obj
 0001:000664d0       __calloc_base              004674d0 f   libucrt:calloc_base.obj
 0001:000668cd       ___acrt_AppPolicyGetProcessTerminationMethodInternal@4 004678cd f   libucrt:winapi_thunks.obj
 0001:0006691c       ___acrt_EnumSystemLocalesEx@16 0046791c f   libucrt:winapi_thunks.obj
 0001:00066970       ___acrt_FlsAlloc@4         00467970 f   libucrt:winapi_thunks.obj
 0001:0006697c       ___acrt_FlsFree@4          0046797c f   libucrt:winapi_thunks.obj
 0001:00066988       ___acrt_FlsGetValue2@4     00467988 f   libucrt:winapi_thunks.obj
 0001:00066995       ___acrt_FlsGetValue@4      00467995 f   libucrt:winapi_thunks.obj
 0001:000669a1       ___acrt_FlsSetValue@8      004679a1 f   libucrt:winapi_thunks.obj
 0001:000669ad       ___acrt_GetLocaleInfoEx@16 004679ad f   libucrt:winapi_thunks.obj
 0001:000669ec       ___acrt_GetUserDefaultLocaleName@8 004679ec f   libucrt:winapi_thunks.obj
 0001:00066a28       ___acrt_InitializeCriticalSectionEx@12 00467a28 f   libucrt:winapi_thunks.obj
 0001:00066a34       ___acrt_IsValidLocaleName@4 00467a34 f   libucrt:winapi_thunks.obj
 0001:00066a6c       ___acrt_LCIDToLocaleName@16 00467a6c f   libucrt:winapi_thunks.obj
 0001:00066aab       ___acrt_LCMapStringEx@36   00467aab f   libucrt:winapi_thunks.obj
 0001:00066b08       ___acrt_LocaleNameToLCID@8 00467b08 f   libucrt:winapi_thunks.obj
 0001:00066b39       ___acrt_can_use_vista_locale_apis 00467b39 f   libucrt:winapi_thunks.obj
 0001:00066b44       ___acrt_eagerly_load_locale_apis 00467b44 f   libucrt:winapi_thunks.obj
 0001:00066b7b       ___acrt_initialize_winapi_thunks 00467b7b f   libucrt:winapi_thunks.obj
 0001:00066b9e       ___acrt_tls2_supported     00467b9e f   libucrt:winapi_thunks.obj
 0001:00066bcf       ___acrt_uninitialize_winapi_thunks 00467bcf f   libucrt:winapi_thunks.obj
 0001:00066c05       __fcloseall                00467c05 f   libucrt:closeall.obj
 0001:00066cb0       ___acrt_stdio_free_buffer_nolock 00467cb0 f   libucrt:_freebuf.obj
 0001:00066d81       __close_internal           00467d81 f   libucrt:close.obj
 0001:00066e24       __close_nolock             00467e24 f   libucrt:close.obj
 0001:00066e54       __close_nolock_internal    00467e54 f   libucrt:close.obj
 0001:00066ef4       ?__acrt_stdio_allocate_stream@@YA?AV__crt_stdio_stream@@XZ 00467ef4 f   libucrt:stream.obj
 0001:00066f5d       ?__acrt_stdio_free_stream@@YAXV__crt_stdio_stream@@@Z 00467f5d f   libucrt:stream.obj
 0001:000670fc       __commit                   004680fc f   libucrt:commit.obj
 0001:0006791f       __write                    0046891f f   libucrt:write.obj
 0001:00067956       __write_internal           00468956 f   libucrt:write.obj
 0001:00067a67       __write_nolock             00468a67 f   libucrt:write.obj
 0001:00067e0e       ___acrt_stdio_refill_and_read_narrow_nolock 00468e0e f   libucrt:_filbuf.obj
 0001:00068447       __ftelli64                 00469447 f   libucrt:ftell.obj
 0001:0006847d       __ftelli64_nolock_internal 0046947d f   libucrt:ftell.obj
 0001:000686df       ___acrt_stdio_flush_and_write_narrow_nolock 004696df f   libucrt:_flsbuf.obj
 0001:00068bd1       __read                     00469bd1 f   libucrt:read.obj
 0001:00068cea       __read_nolock              00469cea f   libucrt:read.obj
 0001:0006921e       __lseeki64                 0046a21e f   libucrt:lseek.obj
 0001:0006925e       __lseeki64_internal        0046a25e f   libucrt:lseek.obj
 0001:0006927c       __lseeki64_nolock          0046a27c f   libucrt:lseek.obj
 0001:000692bc       __lseeki64_nolock_internal 0046a2bc f   libucrt:lseek.obj
 0001:000692da       ___acrt_stdio_allocate_buffer_nolock 0046a2da f   libucrt:_getbuf.obj
 0001:00069340       __dtest_inline             0046a340 f i libucrt:_test.obj
 0001:0006948a       ___acrt_GetLocaleInfoA     0046a48a f   libucrt:getlocaleinfoa.obj
 0001:0006963a       ___acrt_GetStringTypeA     0046a63a f   libucrt:getstringtypea.obj
 0001:00069925       ___acrt_LCMapStringA       0046a925 f   libucrt:lcmapstringa.obj
 0001:00069a40       ___acrt_get_sigabrt_handler 0046aa40 f   libucrt:signal.obj
 0001:00069a67       ___acrt_initialize_signal_handlers 0046aa67 f   libucrt:signal.obj
 0001:00069a85       _raise                     0046aa85 f   libucrt:signal.obj
 0001:00069f1d       _mbstowcs_s                0046af1d f   libucrt:mbstowcs.obj
 0001:0006a2d1       __wcstombs_s_l             0046b2d1 f   libucrt:wcstombs.obj
 0001:0006a30f       ??$__acrt_stdio_parse_mode@_W@@YA?AU__acrt_stdio_stream_mode@@QB_W@Z 0046b30f f i libucrt:openfile.obj
 0001:0006a624       ?__acrt_stdio_parse_mode_D@@YA_NAAU__acrt_stdio_stream_mode@@@Z 0046b624 f i libucrt:openfile.obj
 0001:0006a63f       ?__acrt_stdio_parse_mode_T@@YA_NAAU__acrt_stdio_stream_mode@@@Z 0046b63f f i libucrt:openfile.obj
 0001:0006a65e       ?__acrt_stdio_parse_mode_b@@YA_NAAU__acrt_stdio_stream_mode@@@Z 0046b65e f i libucrt:openfile.obj
 0001:0006a67e       ?__acrt_stdio_parse_mode_c@@YA_NAAU__acrt_stdio_stream_mode@@AA_N@Z 0046b67e f i libucrt:openfile.obj
 0001:0006a6a0       ?__acrt_stdio_parse_mode_n@@YA_NAAU__acrt_stdio_stream_mode@@AA_N@Z 0046b6a0 f i libucrt:openfile.obj
 0001:0006a6c2       ?__acrt_stdio_parse_mode_plus@@YA_NAAU__acrt_stdio_stream_mode@@AA_N@Z 0046b6c2 f i libucrt:openfile.obj
 0001:0006a6f8       ?__acrt_stdio_parse_mode_t@@YA_NAAU__acrt_stdio_stream_mode@@@Z 0046b6f8 f i libucrt:openfile.obj
 0001:0006a718       ?__acrt_stdio_parse_mode_x@@YA_NAAU__acrt_stdio_stream_mode@@@Z 0046b718 f i libucrt:openfile.obj
 0001:0006a738       __wopenfile                0046b738 f   libucrt:openfile.obj
 0001:0006a750       ___set_fpsr_sse2           0046b750 f   libucrt:fpctrl.obj
 0001:0006a830       __clrfp                    0046b830 f   libucrt:fpctrl.obj
 0001:0006a850       __ctrlfp                   0046b850 f   libucrt:fpctrl.obj
 0001:0006a880       __set_statfp               0046b880 f   libucrt:fpctrl.obj
 0001:0006a8e0       __statfp                   0046b8e0 f   libucrt:fpctrl.obj
 0001:0006a98a       ___acrt_MultiByteToWideChar 0046b98a f   libucrt:multibytetowidechar.obj
 0001:0006aa44       ___acrt_WideCharToMultiByte 0046ba44 f   libucrt:widechartomultibyte.obj
 0001:0006aaae       ___acrt_initialize_timeset 0046baae f   libucrt:timeset.obj
 0001:0006aae3       ___acrt_app_verifier_enabled 0046bae3 f   libucrt:peb_access.obj
 0001:0006aaf5       ___acrt_is_secure_process  0046baf5 f   libucrt:peb_access.obj
 0001:0006ab08       ___acrt_get_process_end_policy 0046bb08 f   libucrt:win_policies.obj
 0001:0006aff7       ___acrt_expand_wide_argv_wildcards 0046bff7 f   libucrt:argv_wildcards.obj
 0001:0006b57e       ___acrt_initialize_multibyte 0046c57e f   libucrt:mbctype.obj
 0001:0006b5c6       ___acrt_update_thread_multibyte_data 0046c5c6 f   libucrt:mbctype.obj
 0001:0006b5d9       __setmbcp_nolock           0046c5d9 f   libucrt:mbctype.obj
 0001:0006b815       ___dcrt_get_wide_environment_from_os 0046c815 f   libucrt:get_environment_from_os.obj
 0001:0006b870       __get_heap_handle          0046c870 f   libucrt:heap_handle.obj
 0001:0006b880       ___acrt_initialize_heap    0046c880 f   libucrt:heap_handle.obj
 0001:0006b8a0       ___acrt_uninitialize_heap  0046c8a0 f   libucrt:heap_handle.obj
 0001:0006b8b0       ___acrt_getheap            0046c8b0 f   libucrt:heap_handle.obj
 0001:0006b8b6       ___acrt_execute_initializers 0046c8b6 f   libucrt:shared_initialization.obj
 0001:0006b91e       ___acrt_execute_uninitializers 0046c91e f   libucrt:shared_initialization.obj
 0001:0006b950       ___acrt_fenv_get_common_round_control 0046c950 f   libucrt:_fenvutils.obj
 0001:0006b980       ___acrt_fenv_get_control   0046c980 f   libucrt:_fenvutils.obj
 0001:0006bb60       ___acrt_fenv_get_status    0046cb60 f   libucrt:_fenvutils.obj
 0001:0006bc10       ___acrt_fenv_set_control   0046cc10 f   libucrt:_fenvutils.obj
 0001:0006be60       ___acrt_fenv_set_status    0046ce60 f   libucrt:_fenvutils.obj
 0001:0006bf70       _wcscat_s                  0046cf70 f   libucrt:wcscat_s.obj
 0001:0006c011       ___acrt_lowio_create_handle_array 0046d011 f   libucrt:osfinfo.obj
 0001:0006c08c       ___acrt_lowio_destroy_handle_array 0046d08c f   libucrt:osfinfo.obj
 0001:0006c0c1       ___acrt_lowio_ensure_fh_exists 0046d0c1 f   libucrt:osfinfo.obj
 0001:0006c15f       ___acrt_lowio_lock_fh      0046d15f f   libucrt:osfinfo.obj
 0001:0006c182       ___acrt_lowio_set_os_handle 0046d182 f   libucrt:osfinfo.obj
 0001:0006c214       ___acrt_lowio_unlock_fh    0046d214 f   libucrt:osfinfo.obj
 0001:0006c237       __alloc_osfhnd             0046d237 f   libucrt:osfinfo.obj
 0001:0006c34a       __free_osfhnd              0046d34a f   libucrt:osfinfo.obj
 0001:0006c3db       __get_osfhandle            0046d3db f   libucrt:osfinfo.obj
 0001:0006c445       ___acrt_initialize_fmode   0046d445 f   libucrt:txtmode.obj
 0001:0006c45b       ___acrt_locale_free_monetary 0046d45b f   libucrt:initmon.obj
 0001:0006c559       ___acrt_locale_initialize_monetary 0046d559 f   libucrt:initmon.obj
 0001:0006c8ba       ___acrt_locale_free_numeric 0046d8ba f   libucrt:initnum.obj
 0001:0006c923       ___acrt_locale_initialize_numeric 0046d923 f   libucrt:initnum.obj
 0001:0006cde1       ___acrt_locale_free_time   0046dde1 f   libucrt:inittime.obj
 0001:0006cec5       ___acrt_locale_initialize_time 0046dec5 f   libucrt:inittime.obj
 0001:0006cf40       _wcsncat_s                 0046df40 f   libucrt:wcsncat_s.obj
 0001:0006d070       _wcscspn                   0046e070 f   libucrt:wcscspn.obj
 0001:0006d0c0       _wcspbrk                   0046e0c0 f   libucrt:wcspbrk.obj
 0001:0006d0ff       ___acrt_add_locale_ref     0046e0ff f   libucrt:locale_refcounting.obj
 0001:0006d17c       ___acrt_free_locale        0046e17c f   libucrt:locale_refcounting.obj
 0001:0006d2c4       ___acrt_locale_add_lc_time_reference 0046e2c4 f   libucrt:locale_refcounting.obj
 0001:0006d2ed       ___acrt_locale_free_lc_time_if_unreferenced 0046e2ed f   libucrt:locale_refcounting.obj
 0001:0006d31e       ___acrt_locale_release_lc_time_reference 0046e31e f   libucrt:locale_refcounting.obj
 0001:0006d347       ___acrt_release_locale_ref 0046e347 f   libucrt:locale_refcounting.obj
 0001:0006d3c8       ___acrt_update_thread_locale_data 0046e3c8 f   libucrt:locale_refcounting.obj
 0001:0006d449       __updatetlocinfoEx_nolock  0046e449 f   libucrt:locale_refcounting.obj
 0001:0006db8a       ___acrt_get_qualified_locale 0046eb8a f   libucrt:get_qualified_locale.obj
 0001:0006e508       ___acrt_get_qualified_locale_downlevel 0046f508 f   libucrt:getqloc_downlevel.obj
 0001:0006e7d0       __clearfp                  0046f7d0 f   libucrt:ieee87.obj
 0001:0006e8f0       __control87                0046f8f0 f   libucrt:ieee87.obj
 0001:0006ee23       ___acrt_fp_strflt_to_string 0046fe23 f   libucrt:_fptostr.obj
 0001:0006ef1c       ___acrt_fltout             0046ff1c f   libucrt:cfout.obj
 0001:000703ea       ?__c32rtomb_utf8@__crt_mbstring@@YAIPAD_UPAU_Mbstatet@@AAV__crt_cached_ptd_host@@@Z 004713ea f   libucrt:c32rtomb.obj
 0001:00070498       ?reset_and_return@__crt_mbstring@@YAIIPAU_Mbstatet@@@Z 00471498 f   libucrt:common_utf8.obj
 0001:000704ac       ?return_illegal_sequence@__crt_mbstring@@YAIPAU_Mbstatet@@AAV__crt_cached_ptd_host@@@Z 004714ac f   libucrt:common_utf8.obj
 0001:000704ce       __isatty                   004714ce f   libucrt:isatty.obj
 0001:00070524       ___acrt_GetStringTypeW     00471524 f   libucrt:getstringtypew.obj
 0001:0007053d       ___acrt_LCMapStringW       0047153d f   libucrt:lcmapstringw.obj
 0001:00070580       __frnd                     00471580 f   libucrt:frnd.obj
 0001:0007062e       ___acrt_DownlevelLCIDToLocaleName 0047162e f   libucrt:lcidtoname_downlevel.obj
 0001:000706ac       ___acrt_DownlevelLocaleNameToLCID 004716ac f   libucrt:lcidtoname_downlevel.obj
 0001:000706d8       __putwch_nolock            004716d8 f   libucrt:putwch.obj
 0001:00070710       _strncpy_s                 00471710 f   libucrt:strncpy_s.obj
 0001:00070802       ?__wcsrtombs_utf8@__crt_mbstring@@YAIPADPAPB_WIPAU_Mbstatet@@AAV__crt_cached_ptd_host@@@Z 00471802 f   libucrt:wcrtomb.obj
 0001:00070910       ___ascii_wcsnicmp          00471910 f   libucrt:wcsnicmp.obj
 0001:00070980       __wcsnicmp                 00471980 f   libucrt:wcsnicmp.obj
 0001:000709d0       __wcsnicmp_l               004719d0 f   libucrt:wcsnicmp.obj
 0001:0007116e       __wsopen_nolock            0047216e f   libucrt:open.obj
 0001:00071499       __wsopen_s                 00472499 f   libucrt:open.obj
 0001:000714c0       _qsort                     004724c0 f   libucrt:qsort.obj
 0001:00071900       _strpbrk                   00472900 f   libucrt:strpbrk.obj
 0001:00071a70       __itow_s                   00472a70 f   libucrt:xtoa.obj
 0001:00071ab0       _fegetenv                  00472ab0 f   libucrt:fegetenv.obj
 0001:00071ad0       _fesetenv                  00472ad0 f   libucrt:fesetenv.obj
 0001:00071b30       _feholdexcept              00472b30 f   libucrt:feholdexcept.obj
 0001:00071b90       __libm_sse2_log10_precise  00472b90 f   libucrt:log10_sse2_precise.obj
 0001:00071e5f       ___dcrt_lowio_ensure_console_output_initialized 00472e5f f   libucrt:initcon.obj
 0001:00071e7e       ___dcrt_terminate_console_output 00472e7e f   libucrt:initcon.obj
 0001:00071e95       ___dcrt_write_console      00472e95 f   libucrt:initcon.obj
 0001:00071ef0       ___ascii_strnicmp          00472ef0 f   libucrt:_strnicm.obj
 0001:00071f51       ??0__crt_seek_guard@@QAE@H_J@Z 00472f51 f i libucrt:chsize.obj
 0001:00071f9e       __chsize_nolock            00472f9e f   libucrt:chsize.obj
 0001:00071fd5       __chsize_nolock_internal   00472fd5 f   libucrt:chsize.obj
 0001:00072170       __CIlog10                  00473170 f   libucrt:log10_impl.obj
 0001:000721ab       __CIlog10_default          004731ab f   libucrt:log10_impl.obj
 0001:000721bf       __log10_default            004731bf     libucrt:log10_impl.obj
 0001:00072280       __CIlog10_pentium4         00473280 f   libucrt:log10_pentium4.obj
 0001:00072298       __log10_pentium4           00473298     libucrt:log10_pentium4.obj
 0001:00072530       __fFEXP                    00473530 f   libucrt:87tran.obj
 0001:00072587       __rtinfpopse               00473587     libucrt:87tran.obj
 0001:00072589       __rtinfnpopse              00473589     libucrt:87tran.obj
 0001:00072599       __fFLN                     00473599     libucrt:87tran.obj
 0001:0007264e       __rtinfpop                 0047364e     libucrt:87tran.obj
 0001:00072650       __rtinfnpop                00473650     libucrt:87tran.obj
 0001:00072660       __rtforexpinf              00473660 f   libucrt:87tran.obj
 0001:0007266d       __ffexpm1                  0047366d     libucrt:87tran.obj
 0001:00072720       __trandisp1                00473720 f   libucrt:87disp.obj
 0001:00072795       __trandisp2                00473795 f   libucrt:87disp.obj
 0001:0007282f       __rttospopde               0047382f     libucrt:87disp.obj
 0001:00072834       __rttospop                 00473834     libucrt:87disp.obj
 0001:00072840       __rtnospop                 00473840 f   libucrt:87disp.obj
 0001:00072850       __rttosnpop                00473850 f   libucrt:87disp.obj
 0001:00072851       __rtnospopde               00473851     libucrt:87disp.obj
 0001:00072858       __rtzeropop                00473858     libucrt:87disp.obj
 0001:0007285a       __rtzeronpop               0047385a     libucrt:87disp.obj
 0001:00072860       __rtzerospop               00473860 f   libucrt:87disp.obj
 0001:0007286d       __rtonepop                 0047386d     libucrt:87disp.obj
 0001:00072870       __rtonenpop                00473870 f   libucrt:87disp.obj
 0001:00072880       __tosnan1                  00473880 f   libucrt:87disp.obj
 0001:000728b0       __nosnan2                  004738b0 f   libucrt:87disp.obj
 0001:000728c0       __tosnan2                  004738c0 f   libucrt:87disp.obj
 0001:000728f0       __nan2                     004738f0 f   libucrt:87disp.obj
 0001:00072930       __rtindfpop                00473930 f   libucrt:87disp.obj
 0001:00072932       __rtindfnpop               00473932     libucrt:87disp.obj
 0001:00072943       __rttosnpopde              00473943     libucrt:87disp.obj
 0001:00072950       __rtatan2inf               00473950 f   libucrt:87disp.obj
 0001:0007296d       __rtchsifneg               0047396d     libucrt:87disp.obj
 0001:00072980       __twoToTOS                 00473980 f   libucrt:common.obj
 0001:00072995       __load_CW                  00473995 f   libucrt:common.obj
 0001:000729ac       __convertTOStoQNaN         004739ac f   libucrt:common.obj
 0001:000729c5       __fload_withFB             004739c5 f   libucrt:common.obj
 0001:00072a08       __checkTOS_withFB          00473a08 f   libucrt:common.obj
 0001:00072a1e       __fast_exit                00473a1e f   libucrt:common.obj
 0001:00072a2b       __math_exit                00473a2b f   libucrt:common.obj
 0001:00072a55       __check_overflow_exit      00473a55 f   libucrt:common.obj
 0001:00072a69       __check_range_exit         00473a69 f   libucrt:common.obj
 0001:00072b10       __startTwoArgErrorHandling 00473b10 f   libucrt:genexcep.obj
 0001:00072b27       __startOneArgErrorHandling 00473b27 f   libucrt:genexcep.obj
 0001:00072b70       __powhlp                   00473b70 f   libucrt:powhlp.obj
 0001:00072d70       __87except                 00473d70 f   libucrt:87except.obj
 0001:00072eb0       __fpclass                  00473eb0 f   libucrt:ieeemisc.obj
 0001:00072f80       __FindPESection            00473f80 f   LIBCMT:pesect.obj
 0001:00072fd0       __IsNonwritableInCurrentImage 00473fd0 f   LIBCMT:pesect.obj
 0001:00073090       __ValidateImageBase        00474090 f   LIBCMT:pesect.obj
 0001:000730d0       __aulldvrm                 004740d0 f   LIBCMT:ulldvrm.obj
 0001:00073170       __alldiv                   00474170 f   LIBCMT:lldiv.obj
 0001:00073220       __alldvrm                  00474220 f   LIBCMT:lldvrm.obj
 0001:00073300       _strrchr                   00474300 f   libvcruntime:strrchr.obj
 0001:00073440       _wcschr                    00474440 f   libvcruntime:wcschr.obj
 0001:000734da       __filter_x86_sse2_floating_point_exception 004744da f   LIBCMT:x86_exception_filter.obj
 0001:000734da       __filter_x86_sse2_floating_point_exception_default 004744da f   LIBCMT:x86_exception_filter.obj
 0001:00078eb0       ??__FstrHeap@?1??GetInstance@CAtlStringMgr@ATL@@SAPAUIAtlStringMgr@2@XZ@YAXXZ 00479eb0 f i app.obj
 0001:00078ee0       ??__FstrMgr@?1??GetInstance@CAtlStringMgr@ATL@@SAPAUIAtlStringMgr@2@XZ@YAXXZ 00479ee0 f i app.obj
 0002:00000000       __imp__FreeSid@4           0047b000     advapi32:ADVAPI32.dll
 0002:00000004       __imp__RegFlushKey@4       0047b004     advapi32:ADVAPI32.dll
 0002:00000008       __imp__StartServiceW@12    0047b008     advapi32:ADVAPI32.dll
 0002:0000000c       __imp__StartServiceCtrlDispatcherW@4 0047b00c     advapi32:ADVAPI32.dll
 0002:00000010       __imp__SetServiceStatus@8  0047b010     advapi32:ADVAPI32.dll
 0002:00000014       __imp__RegisterServiceCtrlHandlerExW@12 0047b014     advapi32:ADVAPI32.dll
 0002:00000018       __imp__QueryServiceStatusEx@20 0047b018     advapi32:ADVAPI32.dll
 0002:0000001c       __imp__OpenServiceW@12     0047b01c     advapi32:ADVAPI32.dll
 0002:00000020       __imp__OpenSCManagerW@12   0047b020     advapi32:ADVAPI32.dll
 0002:00000024       __imp__ControlService@12   0047b024     advapi32:ADVAPI32.dll
 0002:00000028       __imp__CloseServiceHandle@4 0047b028     advapi32:ADVAPI32.dll
 0002:0000002c       __imp__ChangeServiceConfigW@44 0047b02c     advapi32:ADVAPI32.dll
 0002:00000030       __imp__CreateProcessAsUserW@44 0047b030     advapi32:ADVAPI32.dll
 0002:00000034       __imp__ConvertStringSecurityDescriptorToSecurityDescriptorW@16 0047b034     advapi32:ADVAPI32.dll
 0002:00000038       __imp__LookupPrivilegeValueW@12 0047b038     advapi32:ADVAPI32.dll
 0002:0000003c       __imp__RegCloseKey@4       0047b03c     advapi32:ADVAPI32.dll
 0002:00000040       __imp__CheckTokenMembership@12 0047b040     advapi32:ADVAPI32.dll
 0002:00000044       __imp__AllocateAndInitializeSid@44 0047b044     advapi32:ADVAPI32.dll
 0002:00000048       __imp__AdjustTokenPrivileges@24 0047b048     advapi32:ADVAPI32.dll
 0002:0000004c       __imp__OpenProcessToken@12 0047b04c     advapi32:ADVAPI32.dll
 0002:00000050       __imp__RegOpenKeyExW@20    0047b050     advapi32:ADVAPI32.dll
 0002:00000054       __imp__RegEnumKeyExW@32    0047b054     advapi32:ADVAPI32.dll
 0002:00000058       __imp__RegDeleteKeyW@8     0047b058     advapi32:ADVAPI32.dll
 0002:0000005c       __imp__RegSetValueExW@24   0047b05c     advapi32:ADVAPI32.dll
 0002:00000060       __imp__RegQueryValueExW@24 0047b060     advapi32:ADVAPI32.dll
 0002:00000064       __imp__RegQueryInfoKeyW@48 0047b064     advapi32:ADVAPI32.dll
 0002:00000068       __imp__RegEnumValueW@32    0047b068     advapi32:ADVAPI32.dll
 0002:0000006c       __imp__RegDeleteValueW@8   0047b06c     advapi32:ADVAPI32.dll
 0002:00000070       __imp__RegCreateKeyExW@36  0047b070     advapi32:ADVAPI32.dll
 0002:00000074       \177ADVAPI32_NULL_THUNK_DATA 0047b074     advapi32:ADVAPI32.dll
 0002:00000078       __imp__LoadIconWithScaleDown@20 0047b078     comctl32:COMCTL32.dll
 0002:0000007c       __imp__TaskDialogIndirect@16 0047b07c     comctl32:COMCTL32.dll
 0002:00000080       \177COMCTL32_NULL_THUNK_DATA 0047b080     comctl32:COMCTL32.dll
 0002:00000084       __imp__SelectObject@8      0047b084     gdi32:GDI32.dll
 0002:00000088       __imp__DeleteObject@4      0047b088     gdi32:GDI32.dll
 0002:0000008c       __imp__CreatePen@12        0047b08c     gdi32:GDI32.dll
 0002:00000090       __imp__CreateCompatibleDC@4 0047b090     gdi32:GDI32.dll
 0002:00000094       __imp__CreateCompatibleBitmap@12 0047b094     gdi32:GDI32.dll
 0002:00000098       __imp__GetDeviceCaps@8     0047b098     gdi32:GDI32.dll
 0002:0000009c       __imp__DeleteDC@4          0047b09c     gdi32:GDI32.dll
 0002:000000a0       __imp__Polygon@12          0047b0a0     gdi32:GDI32.dll
 0002:000000a4       \177GDI32_NULL_THUNK_DATA  0047b0a4     gdi32:GDI32.dll
 0002:000000a8       __imp__CreateMutexW@12     0047b0a8     kernel32:KERNEL32.dll
 0002:000000ac       __imp__OpenEventW@12       0047b0ac     kernel32:KERNEL32.dll
 0002:000000b0       __imp__Sleep@4             0047b0b0     kernel32:KERNEL32.dll
 0002:000000b4       __imp__WaitForMultipleObjects@16 0047b0b4     kernel32:KERNEL32.dll
 0002:000000b8       __imp__GetCurrentProcess@0 0047b0b8     kernel32:KERNEL32.dll
 0002:000000bc       __imp__GetCurrentProcessId@0 0047b0bc     kernel32:KERNEL32.dll
 0002:000000c0       __imp__CreateProcessW@40   0047b0c0     kernel32:KERNEL32.dll
 0002:000000c4       __imp__OpenProcess@12      0047b0c4     kernel32:KERNEL32.dll
 0002:000000c8       __imp__GetTickCount@0      0047b0c8     kernel32:KERNEL32.dll
 0002:000000cc       __imp__GetTickCount64@0    0047b0cc     kernel32:KERNEL32.dll
 0002:000000d0       __imp__FindResourceExW@16  0047b0d0     kernel32:KERNEL32.dll
 0002:000000d4       __imp__FreeLibrary@4       0047b0d4     kernel32:KERNEL32.dll
 0002:000000d8       __imp__GetModuleFileNameW@12 0047b0d8     kernel32:KERNEL32.dll
 0002:000000dc       __imp__GetModuleHandleW@4  0047b0dc     kernel32:KERNEL32.dll
 0002:000000e0       __imp__GetProcAddress@8    0047b0e0     kernel32:KERNEL32.dll
 0002:000000e4       __imp__LoadLibraryExW@12   0047b0e4     kernel32:KERNEL32.dll
 0002:000000e8       __imp__LoadResource@8      0047b0e8     kernel32:KERNEL32.dll
 0002:000000ec       __imp__LockResource@4      0047b0ec     kernel32:KERNEL32.dll
 0002:000000f0       __imp__SizeofResource@8    0047b0f0     kernel32:KERNEL32.dll
 0002:000000f4       __imp__FindResourceW@12    0047b0f4     kernel32:KERNEL32.dll
 0002:000000f8       __imp__lstrcmpiW@8         0047b0f8     kernel32:KERNEL32.dll
 0002:000000fc       __imp__QueryFullProcessImageNameW@16 0047b0fc     kernel32:KERNEL32.dll
 0002:00000100       __imp__MultiByteToWideChar@24 0047b100     kernel32:KERNEL32.dll
 0002:00000104       __imp__CreateToolhelp32Snapshot@8 0047b104     kernel32:KERNEL32.dll
 0002:00000108       __imp__Process32FirstW@8   0047b108     kernel32:KERNEL32.dll
 0002:0000010c       __imp__Process32NextW@8    0047b10c     kernel32:KERNEL32.dll
 0002:00000110       __imp__K32GetModuleFileNameExW@16 0047b110     kernel32:KERNEL32.dll
 0002:00000114       __imp__LoadLibraryW@4      0047b114     kernel32:KERNEL32.dll
 0002:00000118       __imp__ResetEvent@4        0047b118     kernel32:KERNEL32.dll
 0002:0000011c       __imp__CreateEventW@16     0047b11c     kernel32:KERNEL32.dll
 0002:00000120       __imp__LCMapStringEx@36    0047b120     kernel32:KERNEL32.dll
 0002:00000124       __imp__GetVersionExW@4     0047b124     kernel32:KERNEL32.dll
 0002:00000128       __imp__IsWow64Process@8    0047b128     kernel32:KERNEL32.dll
 0002:0000012c       __imp__LocalFree@4         0047b12c     kernel32:KERNEL32.dll
 0002:00000130       __imp__OpenMutexW@12       0047b130     kernel32:KERNEL32.dll
 0002:00000134       __imp__GetProcessTimes@20  0047b134     kernel32:KERNEL32.dll
 0002:00000138       __imp__ProcessIdToSessionId@8 0047b138     kernel32:KERNEL32.dll
 0002:0000013c       __imp__GetSystemTimeAsFileTime@4 0047b13c     kernel32:KERNEL32.dll
 0002:00000140       __imp__GetWindowsDirectoryW@8 0047b140     kernel32:KERNEL32.dll
 0002:00000144       __imp__OpenFileMappingW@12 0047b144     kernel32:KERNEL32.dll
 0002:00000148       __imp__MapViewOfFile@20    0047b148     kernel32:KERNEL32.dll
 0002:0000014c       __imp__UnmapViewOfFile@4   0047b14c     kernel32:KERNEL32.dll
 0002:00000150       __imp__LocaleNameToLCID@8  0047b150     kernel32:KERNEL32.dll
 0002:00000154       __imp__SetThreadUILanguage@4 0047b154     kernel32:KERNEL32.dll
 0002:00000158       __imp__GetThreadUILanguage@0 0047b158     kernel32:KERNEL32.dll
 0002:0000015c       __imp__WaitForMultipleObjectsEx@20 0047b15c     kernel32:KERNEL32.dll
 0002:00000160       __imp__CreateFileMappingW@24 0047b160     kernel32:KERNEL32.dll
 0002:00000164       __imp__DebugBreak@0        0047b164     kernel32:KERNEL32.dll
 0002:00000168       __imp__ReleaseSemaphore@12 0047b168     kernel32:KERNEL32.dll
 0002:0000016c       __imp__WaitForSingleObjectEx@12 0047b16c     kernel32:KERNEL32.dll
 0002:00000170       __imp__OpenSemaphoreW@12   0047b170     kernel32:KERNEL32.dll
 0002:00000174       __imp__CreateMutexExW@16   0047b174     kernel32:KERNEL32.dll
 0002:00000178       __imp__CreateSemaphoreExW@24 0047b178     kernel32:KERNEL32.dll
 0002:0000017c       __imp__GetModuleFileNameA@12 0047b17c     kernel32:KERNEL32.dll
 0002:00000180       __imp__GetModuleHandleExW@12 0047b180     kernel32:KERNEL32.dll
 0002:00000184       __imp__WideCharToMultiByte@32 0047b184     kernel32:KERNEL32.dll
 0002:00000188       __imp__ExpandEnvironmentStringsW@12 0047b188     kernel32:KERNEL32.dll
 0002:0000018c       __imp__FindFirstChangeNotificationW@12 0047b18c     kernel32:KERNEL32.dll
 0002:00000190       __imp__FindNextChangeNotification@4 0047b190     kernel32:KERNEL32.dll
 0002:00000194       __imp__GetFileSizeEx@8     0047b194     kernel32:KERNEL32.dll
 0002:00000198       __imp__GetFileTime@16      0047b198     kernel32:KERNEL32.dll
 0002:0000019c       __imp__MulDiv@12           0047b19c     kernel32:KERNEL32.dll
 0002:000001a0       __imp__lstrcmpW@8          0047b1a0     kernel32:KERNEL32.dll
 0002:000001a4       __imp__GetEnvironmentVariableW@12 0047b1a4     kernel32:KERNEL32.dll
 0002:000001a8       __imp__SetEnvironmentVariableW@8 0047b1a8     kernel32:KERNEL32.dll
 0002:000001ac       __imp__GetFileAttributesW@4 0047b1ac     kernel32:KERNEL32.dll
 0002:000001b0       __imp__GetFileSize@8       0047b1b0     kernel32:KERNEL32.dll
 0002:000001b4       __imp__SetEndOfFile@4      0047b1b4     kernel32:KERNEL32.dll
 0002:000001b8       __imp__SetFilePointer@16   0047b1b8     kernel32:KERNEL32.dll
 0002:000001bc       __imp__TerminateProcess@8  0047b1bc     kernel32:KERNEL32.dll
 0002:000001c0       __imp__SetUnhandledExceptionFilter@4 0047b1c0     kernel32:KERNEL32.dll
 0002:000001c4       __imp__UnhandledExceptionFilter@4 0047b1c4     kernel32:KERNEL32.dll
 0002:000001c8       __imp__GetCPInfo@8         0047b1c8     kernel32:KERNEL32.dll
 0002:000001cc       __imp__WaitForSingleObject@8 0047b1cc     kernel32:KERNEL32.dll
 0002:000001d0       __imp__GetStringTypeW@16   0047b1d0     kernel32:KERNEL32.dll
 0002:000001d4       __imp__QueryPerformanceCounter@4 0047b1d4     kernel32:KERNEL32.dll
 0002:000001d8       __imp__TryAcquireSRWLockExclusive@4 0047b1d8     kernel32:KERNEL32.dll
 0002:000001dc       __imp__AcquireSRWLockExclusive@4 0047b1dc     kernel32:KERNEL32.dll
 0002:000001e0       __imp__ReleaseSRWLockExclusive@4 0047b1e0     kernel32:KERNEL32.dll
 0002:000001e4       __imp__GetFileInformationByHandleEx@16 0047b1e4     kernel32:KERNEL32.dll
 0002:000001e8       __imp__AreFileApisANSI@0   0047b1e8     kernel32:KERNEL32.dll
 0002:000001ec       __imp__SetFileInformationByHandle@16 0047b1ec     kernel32:KERNEL32.dll
 0002:000001f0       __imp__GetFileInformationByHandle@8 0047b1f0     kernel32:KERNEL32.dll
 0002:000001f4       __imp__GetFileAttributesExW@12 0047b1f4     kernel32:KERNEL32.dll
 0002:000001f8       __imp__FindNextFileW@8     0047b1f8     kernel32:KERNEL32.dll
 0002:000001fc       __imp__FindFirstFileExW@24 0047b1fc     kernel32:KERNEL32.dll
 0002:00000200       __imp__FindFirstFileW@8    0047b200     kernel32:KERNEL32.dll
 0002:00000204       __imp__FindClose@4         0047b204     kernel32:KERNEL32.dll
 0002:00000208       __imp__CreateDirectoryW@8  0047b208     kernel32:KERNEL32.dll
 0002:0000020c       __imp__GetLocaleInfoEx@16  0047b20c     kernel32:KERNEL32.dll
 0002:00000210       __imp__FormatMessageA@28   0047b210     kernel32:KERNEL32.dll
 0002:00000214       __imp__LoadLibraryExA@12   0047b214     kernel32:KERNEL32.dll
 0002:00000218       __imp__VirtualFree@12      0047b218     kernel32:KERNEL32.dll
 0002:0000021c       __imp__VirtualAlloc@16     0047b21c     kernel32:KERNEL32.dll
 0002:00000220       __imp__IsProcessorFeaturePresent@4 0047b220     kernel32:KERNEL32.dll
 0002:00000224       __imp__FlushInstructionCache@12 0047b224     kernel32:KERNEL32.dll
 0002:00000228       __imp__InterlockedPushEntrySList@8 0047b228     kernel32:KERNEL32.dll
 0002:0000022c       __imp__InterlockedPopEntrySList@4 0047b22c     kernel32:KERNEL32.dll
 0002:00000230       __imp__InitializeSListHead@4 0047b230     kernel32:KERNEL32.dll
 0002:00000234       __imp__WakeAllConditionVariable@4 0047b234     kernel32:KERNEL32.dll
 0002:00000238       __imp__EncodePointer@4     0047b238     kernel32:KERNEL32.dll
 0002:0000023c       __imp__SleepConditionVariableSRW@16 0047b23c     kernel32:KERNEL32.dll
 0002:00000240       __imp__GetStartupInfoW@4   0047b240     kernel32:KERNEL32.dll
 0002:00000244       __imp__RtlUnwind@16        0047b244     kernel32:KERNEL32.dll
 0002:00000248       __imp__InitializeCriticalSectionAndSpinCount@8 0047b248     kernel32:KERNEL32.dll
 0002:0000024c       __imp__TlsAlloc@0          0047b24c     kernel32:KERNEL32.dll
 0002:00000250       __imp__TlsGetValue@4       0047b250     kernel32:KERNEL32.dll
 0002:00000254       __imp__TlsSetValue@8       0047b254     kernel32:KERNEL32.dll
 0002:00000258       __imp__TlsFree@4           0047b258     kernel32:KERNEL32.dll
 0002:0000025c       __imp__GetCommandLineA@0   0047b25c     kernel32:KERNEL32.dll
 0002:00000260       __imp__GetCommandLineW@0   0047b260     kernel32:KERNEL32.dll
 0002:00000264       __imp__ExitProcess@4       0047b264     kernel32:KERNEL32.dll
 0002:00000268       __imp__GetStdHandle@4      0047b268     kernel32:KERNEL32.dll
 0002:0000026c       __imp__GetFileType@4       0047b26c     kernel32:KERNEL32.dll
 0002:00000270       __imp__FlsAlloc@4          0047b270     kernel32:KERNEL32.dll
 0002:00000274       __imp__FlsGetValue@4       0047b274     kernel32:KERNEL32.dll
 0002:00000278       __imp__FlsSetValue@8       0047b278     kernel32:KERNEL32.dll
 0002:0000027c       __imp__ReleaseMutex@4      0047b27c     kernel32:KERNEL32.dll
 0002:00000280       __imp__HeapAlloc@12        0047b280     kernel32:KERNEL32.dll
 0002:00000284       __imp__EnumSystemLocalesW@8 0047b284     kernel32:KERNEL32.dll
 0002:00000288       __imp__SetEvent@4          0047b288     kernel32:KERNEL32.dll
 0002:0000028c       __imp__DeleteCriticalSection@4 0047b28c     kernel32:KERNEL32.dll
 0002:00000290       __imp__InitializeCriticalSectionEx@12 0047b290     kernel32:KERNEL32.dll
 0002:00000294       __imp__LeaveCriticalSection@4 0047b294     kernel32:KERNEL32.dll
 0002:00000298       __imp__EnterCriticalSection@4 0047b298     kernel32:KERNEL32.dll
 0002:0000029c       __imp__GetProcessHeap@0    0047b29c     kernel32:KERNEL32.dll
 0002:000002a0       __imp__HeapSize@12         0047b2a0     kernel32:KERNEL32.dll
 0002:000002a4       __imp__HeapReAlloc@16      0047b2a4     kernel32:KERNEL32.dll
 0002:000002a8       __imp__HeapFree@12         0047b2a8     kernel32:KERNEL32.dll
 0002:000002ac       __imp__HeapDestroy@4       0047b2ac     kernel32:KERNEL32.dll
 0002:000002b0       __imp__RaiseException@16   0047b2b0     kernel32:KERNEL32.dll
 0002:000002b4       __imp__DecodePointer@4     0047b2b4     kernel32:KERNEL32.dll
 0002:000002b8       __imp__ReadFile@20         0047b2b8     kernel32:KERNEL32.dll
 0002:000002bc       __imp__FindCloseChangeNotification@4 0047b2bc     kernel32:KERNEL32.dll
 0002:000002c0       __imp__DeleteFileW@4       0047b2c0     kernel32:KERNEL32.dll
 0002:000002c4       __imp__WritePrivateProfileStringW@16 0047b2c4     kernel32:KERNEL32.dll
 0002:000002c8       __imp__GetPrivateProfileStringW@24 0047b2c8     kernel32:KERNEL32.dll
 0002:000002cc       __imp__FormatMessageW@28   0047b2cc     kernel32:KERNEL32.dll
 0002:000002d0       __imp__GetCurrentThreadId@0 0047b2d0     kernel32:KERNEL32.dll
 0002:000002d4       __imp__SetLastError@4      0047b2d4     kernel32:KERNEL32.dll
 0002:000002d8       __imp__GetLastError@0      0047b2d8     kernel32:KERNEL32.dll
 0002:000002dc       __imp__CloseHandle@4       0047b2dc     kernel32:KERNEL32.dll
 0002:000002e0       __imp__IsDebuggerPresent@0 0047b2e0     kernel32:KERNEL32.dll
 0002:000002e4       __imp__WriteFile@20        0047b2e4     kernel32:KERNEL32.dll
 0002:000002e8       __imp__CreateFileW@28      0047b2e8     kernel32:KERNEL32.dll
 0002:000002ec       __imp__OutputDebugStringW@4 0047b2ec     kernel32:KERNEL32.dll
 0002:000002f0       __imp__FlushFileBuffers@4  0047b2f0     kernel32:KERNEL32.dll
 0002:000002f4       __imp__GetConsoleOutputCP@0 0047b2f4     kernel32:KERNEL32.dll
 0002:000002f8       __imp__GetConsoleMode@8    0047b2f8     kernel32:KERNEL32.dll
 0002:000002fc       __imp__SetFilePointerEx@20 0047b2fc     kernel32:KERNEL32.dll
 0002:00000300       __imp__ReadConsoleW@20     0047b300     kernel32:KERNEL32.dll
 0002:00000304       __imp__IsValidCodePage@4   0047b304     kernel32:KERNEL32.dll
 0002:00000308       __imp__GetACP@0            0047b308     kernel32:KERNEL32.dll
 0002:0000030c       __imp__GetOEMCP@0          0047b30c     kernel32:KERNEL32.dll
 0002:00000310       __imp__GetEnvironmentStringsW@0 0047b310     kernel32:KERNEL32.dll
 0002:00000314       __imp__FreeEnvironmentStringsW@4 0047b314     kernel32:KERNEL32.dll
 0002:00000318       __imp__SetStdHandle@8      0047b318     kernel32:KERNEL32.dll
 0002:0000031c       __imp__WriteConsoleW@20    0047b31c     kernel32:KERNEL32.dll
 0002:00000320       __imp__FlsFree@4           0047b320     kernel32:KERNEL32.dll
 0002:00000324       __imp__VirtualProtect@16   0047b324     kernel32:KERNEL32.dll
 0002:00000328       __imp__GetUserDefaultLCID@0 0047b328     kernel32:KERNEL32.dll
 0002:0000032c       __imp__IsValidLocale@8     0047b32c     kernel32:KERNEL32.dll
 0002:00000330       __imp__GetLocaleInfoW@16   0047b330     kernel32:KERNEL32.dll
 0002:00000334       __imp__LCMapStringW@24     0047b334     kernel32:KERNEL32.dll
 0002:00000338       \177KERNEL32_NULL_THUNK_DATA 0047b338     kernel32:KERNEL32.dll
 0002:0000033c       __imp__VariantClear@4      0047b33c     oleaut32:OLEAUT32.dll
 0002:00000340       __imp__VariantInit@4       0047b340     oleaut32:OLEAUT32.dll
 0002:00000344       __imp__SysAllocString@4    0047b344     oleaut32:OLEAUT32.dll
 0002:00000348       __imp__VarUI4FromStr@16    0047b348     oleaut32:OLEAUT32.dll
 0002:0000034c       __imp__SysFreeString@4     0047b34c     oleaut32:OLEAUT32.dll
 0002:00000350       __imp__VarI4FromStr@16     0047b350     oleaut32:OLEAUT32.dll
 0002:00000354       __imp__VarR8FromStr@16     0047b354     oleaut32:OLEAUT32.dll
 0002:00000358       __imp__VarDateFromStr@16   0047b358     oleaut32:OLEAUT32.dll
 0002:0000035c       __imp__VarDecFromStr@16    0047b35c     oleaut32:OLEAUT32.dll
 0002:00000360       __imp__VarDecCmp@8         0047b360     oleaut32:OLEAUT32.dll
 0002:00000364       \177OLEAUT32_NULL_THUNK_DATA 0047b364     oleaut32:OLEAUT32.dll
 0002:00000368       __imp__Shell_NotifyIconW@8 0047b368     shell32:SHELL32.dll
 0002:0000036c       __imp__SHQueryUserNotificationState@4 0047b36c     shell32:SHELL32.dll
 0002:00000370       __imp__ShellExecuteW@24    0047b370     shell32:SHELL32.dll
 0002:00000374       __imp__SetCurrentProcessExplicitAppUserModelID@4 0047b374     shell32:SHELL32.dll
 0002:00000378       \177SHELL32_NULL_THUNK_DATA 0047b378     shell32:SHELL32.dll
 0002:0000037c       __imp__GetWindowTextW@12   0047b37c     user32:USER32.dll
 0002:00000380       __imp__DrawTextW@20        0047b380     user32:USER32.dll
 0002:00000384       __imp__EnumWindows@8       0047b384     user32:USER32.dll
 0002:00000388       __imp__IsIconic@4          0047b388     user32:USER32.dll
 0002:0000038c       __imp__MonitorFromWindow@8 0047b38c     user32:USER32.dll
 0002:00000390       __imp__SystemParametersInfoW@16 0047b390     user32:USER32.dll
 0002:00000394       __imp__LoadImageW@24       0047b394     user32:USER32.dll
 0002:00000398       __imp__GetWindow@8         0047b398     user32:USER32.dll
 0002:0000039c       __imp__GetDesktopWindow@0  0047b39c     user32:USER32.dll
 0002:000003a0       __imp__FillRect@12         0047b3a0     user32:USER32.dll
 0002:000003a4       __imp__GetSysColorBrush@4  0047b3a4     user32:USER32.dll
 0002:000003a8       __imp__GetSysColor@4       0047b3a8     user32:USER32.dll
 0002:000003ac       __imp__SetCursor@4         0047b3ac     user32:USER32.dll
 0002:000003b0       __imp__SetWindowTextW@8    0047b3b0     user32:USER32.dll
 0002:000003b4       __imp__RedrawWindow@16     0047b3b4     user32:USER32.dll
 0002:000003b8       __imp__ReleaseDC@8         0047b3b8     user32:USER32.dll
 0002:000003bc       __imp__GetDlgCtrlID@4      0047b3bc     user32:USER32.dll
 0002:000003c0       __imp__SetDlgItemTextW@12  0047b3c0     user32:USER32.dll
 0002:000003c4       __imp__GetDlgItem@8        0047b3c4     user32:USER32.dll
 0002:000003c8       __imp__IsWindowVisible@4   0047b3c8     user32:USER32.dll
 0002:000003cc       __imp__ChangeWindowMessageFilterEx@16 0047b3cc     user32:USER32.dll
 0002:000003d0       __imp__GetMonitorInfoW@8   0047b3d0     user32:USER32.dll
 0002:000003d4       __imp__MonitorFromPoint@12 0047b3d4     user32:USER32.dll
 0002:000003d8       __imp__IsDialogMessageW@8  0047b3d8     user32:USER32.dll
 0002:000003dc       __imp__GetLastActivePopup@4 0047b3dc     user32:USER32.dll
 0002:000003e0       __imp__GetCursorPos@4      0047b3e0     user32:USER32.dll
 0002:000003e4       __imp__SetForegroundWindow@4 0047b3e4     user32:USER32.dll
 0002:000003e8       __imp__TrackPopupMenu@28   0047b3e8     user32:USER32.dll
 0002:000003ec       __imp__AppendMenuW@16      0047b3ec     user32:USER32.dll
 0002:000003f0       __imp__DestroyMenu@4       0047b3f0     user32:USER32.dll
 0002:000003f4       __imp__GetWindowTextLengthW@4 0047b3f4     user32:USER32.dll
 0002:000003f8       __imp__KillTimer@8         0047b3f8     user32:USER32.dll
 0002:000003fc       __imp__SetTimer@16         0047b3fc     user32:USER32.dll
 0002:00000400       __imp__MsgWaitForMultipleObjectsEx@20 0047b400     user32:USER32.dll
 0002:00000404       __imp__CreateDialogParamW@20 0047b404     user32:USER32.dll
 0002:00000408       __imp__ShowWindow@8        0047b408     user32:USER32.dll
 0002:0000040c       __imp__CallWindowProcW@20  0047b40c     user32:USER32.dll
 0002:00000410       __imp__PostQuitMessage@4   0047b410     user32:USER32.dll
 0002:00000414       __imp__DefWindowProcW@16   0047b414     user32:USER32.dll
 0002:00000418       __imp__SendMessageW@16     0047b418     user32:USER32.dll
 0002:0000041c       __imp__UnregisterHotKey@8  0047b41c     user32:USER32.dll
 0002:00000420       __imp__RegisterHotKey@16   0047b420     user32:USER32.dll
 0002:00000424       __imp__RegisterWindowMessageW@4 0047b424     user32:USER32.dll
 0002:00000428       __imp__GetClassNameW@12    0047b428     user32:USER32.dll
 0002:0000042c       __imp__EnumChildWindows@12 0047b42c     user32:USER32.dll
 0002:00000430       __imp__GetParent@4         0047b430     user32:USER32.dll
 0002:00000434       __imp__GetWindowLongW@8    0047b434     user32:USER32.dll
 0002:00000438       __imp__MapWindowPoints@16  0047b438     user32:USER32.dll
 0002:0000043c       __imp__GetWindowRect@8     0047b43c     user32:USER32.dll
 0002:00000440       __imp__GetClientRect@8     0047b440     user32:USER32.dll
 0002:00000444       __imp__InvalidateRect@12   0047b444     user32:USER32.dll
 0002:00000448       __imp__GetDC@4             0047b448     user32:USER32.dll
 0002:0000044c       __imp__SetWindowPos@28     0047b44c     user32:USER32.dll
 0002:00000450       __imp__LoadStringW@16      0047b450     user32:USER32.dll
 0002:00000454       __imp__DestroyIcon@4       0047b454     user32:USER32.dll
 0002:00000458       __imp__LoadCursorW@8       0047b458     user32:USER32.dll
 0002:0000045c       __imp__GetWindowThreadProcessId@8 0047b45c     user32:USER32.dll
 0002:00000460       __imp__FindWindowW@8       0047b460     user32:USER32.dll
 0002:00000464       __imp__SetWindowLongW@12   0047b464     user32:USER32.dll
 0002:00000468       __imp__MessageBoxW@16      0047b468     user32:USER32.dll
 0002:0000046c       __imp__MessageBoxA@16      0047b46c     user32:USER32.dll
 0002:00000470       __imp__AllowSetForegroundWindow@4 0047b470     user32:USER32.dll
 0002:00000474       __imp__GetSystemMetrics@4  0047b474     user32:USER32.dll
 0002:00000478       __imp__EnableWindow@8      0047b478     user32:USER32.dll
 0002:0000047c       __imp__CharNextW@4         0047b47c     user32:USER32.dll
 0002:00000480       __imp__DestroyWindow@4     0047b480     user32:USER32.dll
 0002:00000484       __imp__CreateWindowExW@48  0047b484     user32:USER32.dll
 0002:00000488       __imp__GetClassInfoExW@12  0047b488     user32:USER32.dll
 0002:0000048c       __imp__RegisterClassExW@4  0047b48c     user32:USER32.dll
 0002:00000490       __imp__UnregisterClassW@8  0047b490     user32:USER32.dll
 0002:00000494       __imp__PostMessageW@16     0047b494     user32:USER32.dll
 0002:00000498       __imp__PeekMessageW@20     0047b498     user32:USER32.dll
 0002:0000049c       __imp__DispatchMessageW@4  0047b49c     user32:USER32.dll
 0002:000004a0       __imp__TranslateMessage@4  0047b4a0     user32:USER32.dll
 0002:000004a4       __imp__GetMessageW@16      0047b4a4     user32:USER32.dll
 0002:000004a8       __imp__SetUserObjectInformationW@16 0047b4a8     user32:USER32.dll
 0002:000004ac       __imp__CreatePopupMenu@0   0047b4ac     user32:USER32.dll
 0002:000004b0       __imp__IsWindow@4          0047b4b0     user32:USER32.dll
 0002:000004b4       \177USER32_NULL_THUNK_DATA 0047b4b4     user32:USER32.dll
 0002:000004b8       __imp__DestroyEnvironmentBlock@4 0047b4b8     userenv:USERENV.dll
 0002:000004bc       __imp__CreateEnvironmentBlock@12 0047b4bc     userenv:USERENV.dll
 0002:000004c0       \177USERENV_NULL_THUNK_DATA 0047b4c0     userenv:USERENV.dll
 0002:000004c4       __imp__SetWindowTheme@12   0047b4c4     uxtheme:UxTheme.dll
 0002:000004c8       \177UxTheme_NULL_THUNK_DATA 0047b4c8     uxtheme:UxTheme.dll
 0002:000004cc       __imp__WinHttpCrackUrl@16  0047b4cc     Winhttp:WINHTTP.dll
 0002:000004d0       __imp__WinHttpQueryHeaders@24 0047b4d0     Winhttp:WINHTTP.dll
 0002:000004d4       __imp__WinHttpReceiveResponse@8 0047b4d4     Winhttp:WINHTTP.dll
 0002:000004d8       __imp__WinHttpQueryAuthSchemes@16 0047b4d8     Winhttp:WINHTTP.dll
 0002:000004dc       __imp__WinHttpConnect@16   0047b4dc     Winhttp:WINHTTP.dll
 0002:000004e0       __imp__WinHttpSendRequest@28 0047b4e0     Winhttp:WINHTTP.dll
 0002:000004e4       __imp__WinHttpWriteData@16 0047b4e4     Winhttp:WINHTTP.dll
 0002:000004e8       __imp__WinHttpReadData@16  0047b4e8     Winhttp:WINHTTP.dll
 0002:000004ec       __imp__WinHttpCloseHandle@4 0047b4ec     Winhttp:WINHTTP.dll
 0002:000004f0       __imp__WinHttpSetStatusCallback@16 0047b4f0     Winhttp:WINHTTP.dll
 0002:000004f4       __imp__WinHttpOpen@20      0047b4f4     Winhttp:WINHTTP.dll
 0002:000004f8       __imp__WinHttpOpenRequest@28 0047b4f8     Winhttp:WINHTTP.dll
 0002:000004fc       __imp__WinHttpAddRequestHeaders@16 0047b4fc     Winhttp:WINHTTP.dll
 0002:00000500       __imp__WinHttpSetOption@16 0047b500     Winhttp:WINHTTP.dll
 0002:00000504       __imp__WinHttpSetCredentials@24 0047b504     Winhttp:WINHTTP.dll
 0002:00000508       \177WINHTTP_NULL_THUNK_DATA 0047b508     Winhttp:WINHTTP.dll
 0002:0000050c       __imp__WTSQuerySessionInformationW@20 0047b50c     wtsapi32:WTSAPI32.dll
 0002:00000510       __imp__WTSFreeMemory@4     0047b510     wtsapi32:WTSAPI32.dll
 0002:00000514       __imp__WTSQueryUserToken@8 0047b514     wtsapi32:WTSAPI32.dll
 0002:00000518       __imp__WTSEnumerateSessionsW@20 0047b518     wtsapi32:WTSAPI32.dll
 0002:0000051c       \177WTSAPI32_NULL_THUNK_DATA 0047b51c     wtsapi32:WTSAPI32.dll
 0002:00000520       __imp__CoTaskMemAlloc@4    0047b520     ole32:ole32.dll
 0002:00000524       __imp__CoUninitialize@0    0047b524     ole32:ole32.dll
 0002:00000528       __imp__CoTaskMemRealloc@8  0047b528     ole32:ole32.dll
 0002:0000052c       __imp__CoTaskMemFree@4     0047b52c     ole32:ole32.dll
 0002:00000530       __imp__CoInitialize@4      0047b530     ole32:ole32.dll
 0002:00000534       __imp__StringFromGUID2@12  0047b534     ole32:ole32.dll
 0002:00000538       __imp__CoCreateInstance@20 0047b538     ole32:ole32.dll
 0002:0000053c       __imp__CoCreateGuid@4      0047b53c     ole32:ole32.dll
 0002:00000540       __imp__IIDFromString@8     0047b540     ole32:ole32.dll
 0002:00000544       \177ole32_NULL_THUNK_DATA  0047b544     ole32:ole32.dll
 0002:00000548       __imp__EvtNext@24          0047b548     wevtapi:wevtapi.dll
 0002:0000054c       __imp__EvtClose@4          0047b54c     wevtapi:wevtapi.dll
 0002:00000550       __imp__EvtSubscribe@32     0047b550     wevtapi:wevtapi.dll
 0002:00000554       __imp__EvtCreateRenderContext@12 0047b554     wevtapi:wevtapi.dll
 0002:00000558       __imp__EvtRender@28        0047b558     wevtapi:wevtapi.dll
 0002:0000055c       \177wevtapi_NULL_THUNK_DATA 0047b55c     wevtapi:wevtapi.dll
 0002:00000560       ___guard_check_icall_fptr  0047b560     LIBCMT:guard_support.obj
 0002:00000564       ___castguard_check_failure_os_handled_fptr 0047b564     LIBCMT:guard_support.obj
 0002:00000568       ___xc_a                    0047b568     LIBCMT:initializers.obj
 0002:000005b8       ___xc_z                    0047b5b8     LIBCMT:initializers.obj
 0002:000005bc       ___xi_a                    0047b5bc     LIBCMT:initializers.obj
 0002:000005cc       ___acrt_stdio_initializer  0047b5cc     libucrt:stdio_initializer.obj
 0002:000005d0       ___acrt_tran_sse2_initializer 0047b5d0     libucrt:sse2_initializer.obj
 0002:000005d4       ___acrt_timeset_initializer 0047b5d4     libucrt:timeset_initializer.obj
 0002:000005d8       ___acrt_multibyte_initializer 0047b5d8     libucrt:multibyte_initializer.obj
 0002:000005dc       ___acrt_fmode_initializer  0047b5dc     libucrt:fmode_initializer.obj
 0002:000005e0       ___xi_z                    0047b5e0     LIBCMT:initializers.obj
 0002:000005e4       ___xl_a                    0047b5e4     LIBCMT:tlssup.obj
 0002:000005e8       ___xl_z                    0047b5e8     LIBCMT:tlssup.obj
 0002:000005ec       ___xp_a                    0047b5ec     LIBCMT:initializers.obj
 0002:000005f0       ___acrt_locale_terminator  0047b5f0     libucrt:locale_initializer.obj
 0002:000005f4       ___dcrt_console_output_terminator 0047b5f4     libucrt:console_output_initializer.obj
 0002:000005f8       ___acrt_stdio_terminator   0047b5f8     libucrt:stdio_initializer.obj
 0002:000005fc       ___xp_z                    0047b5fc     LIBCMT:initializers.obj
 0002:00000600       ___xt_a                    0047b600     LIBCMT:initializers.obj
 0002:00000604       ___xt_z                    0047b604     LIBCMT:initializers.obj
 0002:00000624       ??_7exception@std@@6B@     0047b624     portable_settings.obj
 0002:0000062c       ??_C@_0BC@EOODALEL@Unknown?5exception@ 0047b62c     portable_settings.obj
 0002:00000644       ??_7bad_alloc@std@@6B@     0047b644     portable_settings.obj
 0002:00000650       ??_7bad_array_new_length@std@@6B@ 0047b650     portable_settings.obj
 0002:00000658       ??_C@_0BF@KINCDENJ@bad?5array?5new?5length@ 0047b658     portable_settings.obj
 0002:00000670       ??_C@_0BA@JFNIOLAK@string?5too?5long@ 0047b670     portable_settings.obj
 0002:00000684       ??_7logic_error@std@@6B@   0047b684     portable_settings.obj
 0002:00000690       ??_7invalid_argument@std@@6B@ 0047b690     portable_settings.obj
 0002:00000698       ??_C@_00CNPNBAHC@@         0047b698     portable_settings.obj
 0002:0000069c       ??_C@_0BG@HBEOPAA@invalid?5stol?5argument@ 0047b69c     portable_settings.obj
 0002:000006b4       ??_C@_0BL@CNHODNBK@stol?5argument?5out?5of?5range@ 0047b6b4     portable_settings.obj
 0002:000006d0       ??_C@_09FBNMMHMJ@Exception@ 0047b6d0     portable_settings.obj
 0002:000006dc       ??_C@_08PHCNGLJD@ReturnNt@ 0047b6dc     portable_settings.obj
 0002:000006e8       ??_C@_08KFPKLAKH@ReturnHr@ 0047b6e8     portable_settings.obj
 0002:000006f4       ??_C@_05LKGDKHFF@LogNt@    0047b6f4     portable_settings.obj
 0002:000006fc       ??_C@_05OILEHMGB@LogHr@    0047b6fc     portable_settings.obj
 0002:00000704       ??_C@_08IAOKKAJK@FailFast@ 0047b704     portable_settings.obj
 0002:00000710       ??_C@_1CC@NCIPMFAO@?$AA?$CF?$AAh?$AAs?$AA?$CI?$AA?$CF?$AAu?$AA?$CJ?$AA?2?$AA?$CF?$AAh?$AAs?$AA?$CB?$AA?$CF?$AAp?$AA?3@ 0047b710     portable_settings.obj
 0002:00000734       ??_C@_1BC@HOGHCIFF@?$AA?$CF?$AAh?$AAs?$AA?$CB?$AA?$CF?$AAp?$AA?3?$AA?5@ 0047b734     portable_settings.obj
 0002:00000748       ??_C@_1BM@EAHLIJPA@?$AA?$CI?$AAc?$AAa?$AAl?$AAl?$AAe?$AAr?$AA?3?$AA?5?$AA?$CF?$AAp?$AA?$CJ?$AA?5@ 0047b748     portable_settings.obj
 0002:00000764       ??_C@_1DC@MFHOKFOG@?$AA?$CF?$AAh?$AAs?$AA?$CI?$AA?$CF?$AAd?$AA?$CJ?$AA?5?$AAt?$AAi?$AAd?$AA?$CI?$AA?$CF?$AAx?$AA?$CJ@ 0047b764     portable_settings.obj
 0002:00000798       ??_C@_19NMAFMAH@?$AA?5?$AA?5?$AA?5?$AA?5@ 0047b798     portable_settings.obj
 0002:000007a4       ??_C@_1BG@MCLOHHAM@?$AAM?$AAs?$AAg?$AA?3?$AA?$FL?$AA?$CF?$AAw?$AAs?$AA?$FN?$AA?5@ 0047b7a4     portable_settings.obj
 0002:000007bc       ??_C@_1CG@CGJKEFKG@?$AAC?$AAa?$AAl?$AAl?$AAC?$AAo?$AAn?$AAt?$AAe?$AAx?$AAt?$AA?3?$AA?$FL?$AA?$CF?$AAh@ 0047b7bc     portable_settings.obj
 0002:000007e4       ??_C@_1BI@PKOCHLJN@?$AA?$FL?$AA?$CF?$AAh?$AAs?$AA?$CI?$AA?$CF?$AAh?$AAs?$AA?$CJ?$AA?$FN?$AA?6@ 0047b7e4     portable_settings.obj
 0002:000007fc       ??_C@_1O@PJKHPDBK@?$AA?$FL?$AA?$CF?$AAh?$AAs?$AA?$FN?$AA?6@ 0047b7fc     portable_settings.obj
 0002:0000080c       ??_C@_13LBAGMAIH@?$AA?6@   0047b80c     portable_settings.obj
 0002:00000810       ??_C@_0BA@FOIKENOD@vector?5too?5long@ 0047b810     portable_settings.obj
 0002:00000820       ??_C@_0BI@CFPLBAOH@invalid?5string?5position@ 0047b820     portable_settings.obj
 0002:0000083c       ??_7RegistrySettings@@6B@  0047b83c     portable_settings.obj
 0002:00000868       ??_7IniFileSettings@@6B@   0047b868     portable_settings.obj
 0002:00000894       ??_7?$EnumIteratorImpl@H@@6B@ 0047b894     portable_settings.obj
 0002:000008a4       ??_7?$EnumIteratorRegistryBase@H@@6B@ 0047b8a4     portable_settings.obj
 0002:000008b4       ??_7EnumIteratorRegistryInt@@6B@ 0047b8b4     portable_settings.obj
 0002:000008c4       ??_7?$EnumIteratorImpl@V?$basic_string@_WU?$char_traits@_W@std@@V?$allocator@_W@2@@std@@@@6B@ 0047b8c4     portable_settings.obj
 0002:000008d4       ??_7?$EnumIteratorRegistryBase@V?$basic_string@_WU?$char_traits@_W@std@@V?$allocator@_W@2@@std@@@@6B@ 0047b8d4     portable_settings.obj
 0002:000008e4       ??_7EnumIteratorRegistryString@@6B@ 0047b8e4     portable_settings.obj
 0002:000008f0       ??_C@_0FK@PDIBAOGF@c?3?2Users?2kai99?2Desktop?2New?5fold@ 0047b8f0     portable_settings.obj
 0002:0000094c       ??_C@_0BC@IJHGPFDC@invalid?5hex?5digit@ 0047b94c     portable_settings.obj
 0002:00000964       ??_7?$EnumIteratorIniFileBase@H@@6B@ 0047b964     portable_settings.obj
 0002:00000974       ??_7EnumIteratorIniFileInt@@6B@ 0047b974     portable_settings.obj
 0002:00000984       ??_7?$EnumIteratorIniFileBase@V?$basic_string@_WU?$char_traits@_W@std@@V?$allocator@_W@2@@std@@@@6B@ 0047b984     portable_settings.obj
 0002:00000994       ??_7EnumIteratorIniFileString@@6B@ 0047b994     portable_settings.obj
 0002:000009a0       ??_C@_02DEBJNODD@?$PP?$PO@ 0047b9a0     portable_settings.obj
 0002:000009a4       ??_C@_15JNBOKNOG@?$AA?$AN?$AA?6@ 0047b9a4     portable_settings.obj
 0002:000009ac       ??_C@_0L@BNKBKFNE@odd?5length@ 0047b9ac     portable_settings.obj
 0002:000009dc       ??_C@_1BK@BIGILECK@?$AAA?$AAd?$AAv?$AAa?$AAp?$AAi?$AA3?$AA2?$AA?4?$AAd?$AAl?$AAl@ 0047b9dc     app.obj
 0002:000009f8       ??_C@_0BG@EKFFMJIO@RegOpenKeyTransactedW@ 0047b9f8     app.obj
 0002:00000a10       ??_C@_0BI@MNCFCPFK@RegCreateKeyTransactedW@ 0047ba10     app.obj
 0002:00000a28       ??_C@_0BI@HAKLOOGP@RegDeleteKeyTransactedW@ 0047ba28     app.obj
 0002:00000a44       ??_7CAtlStringMgr@ATL@@6B@ 0047ba44     app.obj
 0002:00000a5c       __GUID_00000146_0000_0000_c000_000000000046 0047ba5c     app.obj
 0002:00000a70       ??_7CComModule@ATL@@6B@    0047ba70     app.obj
 0002:00000a98       ??_C@_0BA@LILAPHGE@RegDeleteKeyExW@ 0047ba98     app.obj
 0002:00000aac       ??_7CAppModule@WTL@@6B@    0047baac     app.obj
 0002:00000ad4       ??_C@_1M@PPPPCDEP@?$AAA?$AAP?$AAP?$AAI?$AAD@ 0047bad4     app.obj
 0002:00000ae0       ??_C@_1M@KANJNLFF@?$AAC?$AAL?$AAS?$AAI?$AAD@ 0047bae0     app.obj
 0002:00000aec       ??_C@_1M@EJNEECMJ@?$AAA?$AAp?$AAp?$AAI?$AAD@ 0047baec     app.obj
 0002:00000af8       ??_C@_13HADIAKP@?$AAS@     0047baf8     app.obj
 0002:00000afc       ??_C@_13LHMFKAAD@?$AAM@    0047bafc     app.obj
 0002:00000b00       ??_C@_13MKMNOPIJ@?$AAD@    0047bb00     app.obj
 0002:00000b04       ??_C@_13OPKGLAFF@?$AAB@    0047bb04     app.obj
 0002:00000b08       ??_C@_17LLMMEOJD@?$AAV?$AAa?$AAl@ 0047bb08     app.obj
 0002:00000b10       ??_C@_1BI@JFAIJMHL@?$AAF?$AAo?$AAr?$AAc?$AAe?$AAR?$AAe?$AAm?$AAo?$AAv?$AAe@ 0047bb10     app.obj
 0002:00000b28       ??_C@_1BC@GCKHIPE@?$AAN?$AAo?$AAR?$AAe?$AAm?$AAo?$AAv?$AAe@ 0047bb28     app.obj
 0002:00000b3c       ??_C@_1O@JDLOHAN@?$AAD?$AAe?$AAl?$AAe?$AAt?$AAe@ 0047bb3c     app.obj
 0002:00000b4c       ?rgszNeverDelete@CRegParser@ATL@@1QBQB_WB 0047bb4c     app.obj
 0002:00000b80       ??_7CRegObject@ATL@@6B@    0047bb80     app.obj
 0002:00000b98       ??_C@_1CK@OEKPKBNA@?$AAC?$AAo?$AAm?$AAp?$AAo?$AAn?$AAe?$AAn?$AAt?$AA?5?$AAC?$AAa?$AAt?$AAe?$AAg@ 0047bb98     app.obj
 0002:00000bc4       ??_C@_1BC@NKMMNMGL@?$AAF?$AAi?$AAl?$AAe?$AAT?$AAy?$AAp?$AAe@ 0047bbc4     app.obj
 0002:00000bd8       ??_C@_1BE@EKPAFMCP@?$AAI?$AAn?$AAt?$AAe?$AAr?$AAf?$AAa?$AAc?$AAe@ 0047bbd8     app.obj
 0002:00000bec       ??_C@_1BC@MAICEHGI@?$AAH?$AAa?$AAr?$AAd?$AAw?$AAa?$AAr?$AAe@ 0047bbec     app.obj
 0002:00000c00       ??_C@_19HLLLM@?$AAM?$AAi?$AAm?$AAe@ 0047bc00     app.obj
 0002:00000c0c       ??_C@_17OMAOINJK@?$AAS?$AAA?$AAM@ 0047bc0c     app.obj
 0002:00000c14       ??_C@_1BC@IBECJAAI@?$AAS?$AAE?$AAC?$AAU?$AAR?$AAI?$AAT?$AAY@ 0047bc14     app.obj
 0002:00000c28       ??_C@_1O@GBFINDKL@?$AAS?$AAY?$AAS?$AAT?$AAE?$AAM@ 0047bc28     app.obj
 0002:00000c38       ??_C@_1BC@EAHCMADO@?$AAS?$AAo?$AAf?$AAt?$AAw?$AAa?$AAr?$AAe@ 0047bc38     app.obj
 0002:00000c4c       ??_C@_1BA@JIHHIEDE@?$AAT?$AAy?$AAp?$AAe?$AAL?$AAi?$AAb@ 0047bc4c     app.obj
 0002:00000c60       ?map@?1??HKeyFromString@CRegParser@ATL@@KAPAUHKEY__@@PA_W@Z@4QBUkeymap@?1??123@KAPAU4@0@Z@B 0047bc60     app.obj
 0002:00000cd0       ??_C@_19NCHLBIN@?$AAH?$AAK?$AAC?$AAR@ 0047bcd0     app.obj
 0002:00000cdc       ??_C@_19JAPAIJDE@?$AAH?$AAK?$AAC?$AAU@ 0047bcdc     app.obj
 0002:00000ce8       ??_C@_19PEALEEJB@?$AAH?$AAK?$AAL?$AAM@ 0047bce8     app.obj
 0002:00000cf4       ??_C@_17PJOJPMPB@?$AAH?$AAK?$AAU@ 0047bcf4     app.obj
 0002:00000cfc       ??_C@_19PNBHMJPL@?$AAH?$AAK?$AAP?$AAD@ 0047bcfc     app.obj
 0002:00000d08       ??_C@_19GFFAIJHG@?$AAH?$AAK?$AAD?$AAD@ 0047bd08     app.obj
 0002:00000d14       ??_C@_19OFICIBHH@?$AAH?$AAK?$AAC?$AAC@ 0047bd14     app.obj
 0002:00000d20       ??_C@_1CE@PACHPJFI@?$AAH?$AAK?$AAE?$AAY?$AA_?$AAC?$AAL?$AAA?$AAS?$AAS?$AAE?$AAS?$AA_?$AAR?$AAO@ 0047bd20     app.obj
 0002:00000d44       ??_C@_1CE@HLHNCBPM@?$AAH?$AAK?$AAE?$AAY?$AA_?$AAC?$AAU?$AAR?$AAR?$AAE?$AAN?$AAT?$AA_?$AAU?$AAS@ 0047bd44     app.obj
 0002:00000d68       ??_C@_1CG@GFBEANJL@?$AAH?$AAK?$AAE?$AAY?$AA_?$AAL?$AAO?$AAC?$AAA?$AAL?$AA_?$AAM?$AAA?$AAC?$AAH@ 0047bd68     app.obj
 0002:00000d90       ??_C@_1BG@BGODANIO@?$AAH?$AAK?$AAE?$AAY?$AA_?$AAU?$AAS?$AAE?$AAR?$AAS@ 0047bd90     app.obj
 0002:00000da8       ??_C@_1CM@KHNNAOIC@?$AAH?$AAK?$AAE?$AAY?$AA_?$AAP?$AAE?$AAR?$AAF?$AAO?$AAR?$AAM?$AAA?$AAN?$AAC@ 0047bda8     app.obj
 0002:00000dd4       ??_C@_1BM@HAGMMHIA@?$AAH?$AAK?$AAE?$AAY?$AA_?$AAD?$AAY?$AAN?$AA_?$AAD?$AAA?$AAT?$AAA@ 0047bdd4     app.obj
 0002:00000df0       ??_C@_1CI@BBJOACGG@?$AAH?$AAK?$AAE?$AAY?$AA_?$AAC?$AAU?$AAR?$AAR?$AAE?$AAN?$AAT?$AA_?$AAC?$AAO@ 0047bdf0     app.obj
 0002:00000e18       ??_C@_1EA@NHKLICFA@?$AAH?$AAK?$AAC?$AAU?$AA?$AN?$AA?6?$AA?$HL?$AA?7?$AAS?$AAo?$AAf?$AAt?$AAw?$AAa?$AAr@ 0047be18     app.obj
 0002:00000e58       ??_C@_1BE@LJOLIMEM@?$AA?$AN?$AA?6?$AA?7?$AA?$HN?$AA?$AN?$AA?6?$AA?$HN?$AA?$AN?$AA?6@ 0047be58     app.obj
 0002:00000e6c       ??_C@_1O@MNLDABAF@?$AAM?$AAo?$AAd?$AAu?$AAl?$AAe@ 0047be6c     app.obj
 0002:00000e7c       ??_C@_1BG@JBACFMF@?$AAM?$AAo?$AAd?$AAu?$AAl?$AAe?$AA_?$AAR?$AAa?$AAw@ 0047be7c     app.obj
 0002:00000e94       ??_C@_1BC@KAILKFFG@?$AAR?$AAE?$AAG?$AAI?$AAS?$AAT?$AAR?$AAY@ 0047be94     app.obj
 0002:00000ea8       ??_C@_11LOCGONAA@@         0047bea8     app.obj
 0002:00000eb0       ??_7CWin32Heap@ATL@@6B@    0047beb0     app.obj
 0002:00000ec8       ??_7CMessageLoop@WTL@@6B@  0047bec8     app.obj
 0002:00000ed8       ??_C@_1O@GBFKGNEO@?$AAA?$AAT?$AAL?$AA?3?$AA?$CF?$AAp@ 0047bed8     app.obj
 0002:00000eec       ??_7bad_optional_access@std@@6B@ 0047beec     app.obj
 0002:00000ef4       ??_C@_0BE@LMOOKEAD@Bad?5optional?5access@ 0047bef4     app.obj
 0002:00000f0c       ??_7CHandle@WinHTTPWrappers@@6B@ 0047bf0c     app.obj
 0002:00000f1c       ??_7CAsyncDownloader@WinHTTPWrappers@@6B@ 0047bf1c     app.obj
 0002:00000f60       ??_C@_1CM@KBGJEPPN@?$AAR?$AAa?$AAn?$AAg?$AAe?$AA?3?$AA?5?$AAb?$AAy?$AAt?$AAe?$AAs?$AA?$DN?$AA?$CF?$AAI@ 0047bf60     app.obj
 0002:00000f8c       ??_C@_1DA@DEIBDDLO@?$AAC?$AAo?$AAn?$AAt?$AAe?$AAn?$AAt?$AA?9?$AAL?$AAe?$AAn?$AAg?$AAt?$AAh?$AA?3@ 0047bf8c     app.obj
 0002:00000fbc       ??_C@_03KGBNGMMC@wil@      0047bfbc     app.obj
 0002:00000fc0       ??_C@_0FN@BNJIPNBM@c?3?2Users?2kai99?2Desktop?2New?5fold@ 0047bfc0     app.obj
 0002:00001020       ??_C@_0GC@FDGIFPPC@c?3?2Users?2kai99?2Desktop?2New?5fold@ 0047c020     app.obj
 0002:00001088       ??_7?$__base@$$A6AJPA_WIPAI@Z@__function@wistd@@6B@ 0047c088     app.obj
 0002:000010a0       ??_7CSimpleWinHTTPDownloader@CWinHTTPSimple@@6B@ 0047c0a0     app.obj
 0002:000010ec       ??_C@_1BO@KKGOJFAG@?$AAW?$AAi?$AAn?$AAd?$AAh?$AAa?$AAw?$AAk?$AAD?$AAa?$AAe?$AAm?$AAo?$AAn@ 0047c0ec     app.obj
 0002:0000110c       ??_C@_1CO@CLMDEAOO@?$AAR?$AAa?$AAm?$AAe?$AAn?$AAS?$AAo?$AAf?$AAt?$AAw?$AAa?$AAr?$AAe?$AA?4?$AAW@ 0047c10c     app.obj
 0002:0000113c       ??_C@_1BC@LGMDIKCH@?$AA?9?$AAs?$AAe?$AAr?$AAv?$AAi?$AAc?$AAe@ 0047c13c     app.obj
 0002:00001150       ??_C@_1BO@DJAPBGJI@?$AA?9?$AAs?$AAe?$AAr?$AAv?$AAi?$AAc?$AAe?$AA?9?$AAs?$AAt?$AAa?$AAr?$AAt@ 0047c150     app.obj
 0002:00001170       ??_C@_1BM@MIBBMOMC@?$AA?9?$AAs?$AAe?$AAr?$AAv?$AAi?$AAc?$AAe?$AA?9?$AAs?$AAt?$AAo?$AAp@ 0047c170     app.obj
 0002:0000118c       ??_C@_1BA@KEFGLDN@?$AA?9?$AAr?$AAu?$AAn?$AA?9?$AAu?$AAi@ 0047c18c     app.obj
 0002:0000119c       ??_C@_1CC@IJBKPGPH@?$AA?9?$AAr?$AAu?$AAn?$AA?9?$AAu?$AAi?$AA?9?$AAa?$AAs?$AA?9?$AAa?$AAd?$AAm?$AAi@ 0047c19c     app.obj
 0002:000011c0       ??_C@_1CK@LHLJGAJN@?$AA?9?$AAr?$AAu?$AAn?$AA?9?$AAu?$AAi?$AA?9?$AAi?$AAn?$AA?9?$AAs?$AAa?$AAf?$AAe@ 0047c1c0     app.obj
 0002:000011ec       ??_C@_1DE@CHAFANIF@?$AA?9?$AAs?$AAe?$AAr?$AAv?$AAi?$AAc?$AAe?$AA?9?$AAs?$AAt?$AAa?$AAr?$AAt?$AA?9@ 0047c1ec     app.obj
 0002:00001220       ??_C@_1CG@OFIGKCNI@?$AA?9?$AAc?$AAh?$AAe?$AAc?$AAk?$AA?9?$AAf?$AAo?$AAr?$AA?9?$AAu?$AAp?$AAd?$AAa@ 0047c220     app.obj
 0002:00001248       ??_C@_1CG@HJKEMCPE@?$AA?9?$AAn?$AAe?$AAw?$AA?9?$AAu?$AAp?$AAd?$AAa?$AAt?$AAe?$AAs?$AA?9?$AAf?$AAo@ 0047c248     app.obj
 0002:00001270       ??_C@_1CM@ICBEJPC@?$AA?9?$AAa?$AAp?$AAp?$AA?9?$AAs?$AAe?$AAt?$AAt?$AAi?$AAn?$AAg?$AAs?$AA?9?$AAc@ 0047c270     app.obj
 0002:0000129c       ??_C@_1M@IBGJMPMO@?$AA?9?$AAe?$AAx?$AAi?$AAt@ 0047c29c     app.obj
 0002:000012a8       ??_C@_1BC@HEDBHNJF@?$AA?9?$AAr?$AAe?$AAs?$AAt?$AAa?$AAr?$AAt@ 0047c2a8     app.obj
 0002:000012bc       ??_C@_1BI@NGDIOKKK@?$AA?9?$AAr?$AAe?$AAs?$AAt?$AAa?$AAr?$AAt?$AA?9?$AAb?$AAg@ 0047c2bc     app.obj
 0002:000012d4       ??_C@_0P@IGCNAHKG@Windhawk?5error@ 0047c2d4     app.obj
 0002:000012e4       ??_C@_08GBIGGCJG@wWinMain@ 0047c2e4     app.obj
 0002:000012f0       ??_C@_1BO@CJDPGKLP@?$AA?$FL?$AAW?$AAH?$AA?$FN?$AA?5?$AA?$FL?$AA?$CF?$AAS?$AA?$FN?$AA?3?$AA?5?$AA?$CF?$AAS?$AA?6@ 0047c2f0     app.obj
 0002:00001310       ??_C@_0BL@GGDFKNOH@?$GAanonymous?9namespace?8?3?3Run@ 0047c310     app.obj
 0002:0000132c       ??_C@_1DI@DBPFOKN@?$AA?$FL?$AAW?$AAH?$AA?$FN?$AA?5?$AA?$FL?$AA?$CF?$AAS?$AA?$FN?$AA?3?$AA?5?$AAR?$AAu?$AAn?$AAn@ 0047c32c     app.obj
 0002:00001364       ??_C@_1DK@JABKOGNM@?$AA?$FL?$AAW?$AAH?$AA?$FN?$AA?5?$AA?$FL?$AA?$CF?$AAS?$AA?$FN?$AA?3?$AA?5?$AAS?$AAt?$AAa?$AAr@ 0047c364     app.obj
 0002:000013a0       ??_C@_1DK@EEFHPHND@?$AA?$FL?$AAW?$AAH?$AA?$FN?$AA?5?$AA?$FL?$AA?$CF?$AAS?$AA?$FN?$AA?3?$AA?5?$AAS?$AAt?$AAo?$AAp@ 0047c3a0     app.obj
 0002:000013dc       ??_C@_1CG@KOICNEAN@?$AA?9?$AAa?$AAl?$AAs?$AAo?$AA?9?$AAn?$AAo?$AA?9?$AAa?$AAu?$AAt?$AAo?$AAs?$AAt@ 0047c3dc     app.obj
 0002:00001408       ??_C@_1EA@BLJOGHIO@?$AA?$FL?$AAW?$AAH?$AA?$FN?$AA?5?$AA?$FL?$AA?$CF?$AAS?$AA?$FN?$AA?3?$AA?5?$AAR?$AAu?$AAn?$AAn@ 0047c408     app.obj
 0002:00001448       ??_C@_1CO@NGEIJKBJ@?$AA?$FL?$AAW?$AAH?$AA?$FN?$AA?5?$AA?$FL?$AA?$CF?$AAS?$AA?$FN?$AA?3?$AA?5?$AAR?$AAu?$AAn?$AAn@ 0047c448     app.obj
 0002:00001478       ??_C@_1EI@GEFIMBPJ@?$AA?$FL?$AAW?$AAH?$AA?$FN?$AA?5?$AA?$FL?$AA?$CF?$AAS?$AA?$FN?$AA?3?$AA?5?$AAR?$AAu?$AAn?$AAn@ 0047c478     app.obj
 0002:000014c0       ??_C@_1FI@LMBBEHCP@?$AA?$FL?$AAW?$AAH?$AA?$FN?$AA?5?$AA?$FL?$AA?$CF?$AAS?$AA?$FN?$AA?3?$AA?5?$AAS?$AAt?$AAa?$AAr@ 0047c4c0     app.obj
 0002:00001518       ??_C@_1EC@NKIDBMMH@?$AA?$FL?$AAW?$AAH?$AA?$FN?$AA?5?$AA?$FL?$AA?$CF?$AAS?$AA?$FN?$AA?3?$AA?5?$AAC?$AAh?$AAe?$AAc@ 0047c518     app.obj
 0002:00001560       ??_C@_1FM@KEJCMOOO@?$AA?$FL?$AAW?$AAH?$AA?$FN?$AA?5?$AA?$FL?$AA?$CF?$AAS?$AA?$FN?$AA?3?$AA?5?$AAN?$AAo?$AAt?$AAi@ 0047c560     app.obj
 0002:000015c0       ??_C@_1GC@PADBGAGF@?$AA?$FL?$AAW?$AAH?$AA?$FN?$AA?5?$AA?$FL?$AA?$CF?$AAS?$AA?$FN?$AA?3?$AA?5?$AAN?$AAo?$AAt?$AAi@ 0047c5c0     app.obj
 0002:00001624       ??_C@_1DA@CPPBHDBO@?$AA?$FL?$AAW?$AAH?$AA?$FN?$AA?5?$AA?$FL?$AA?$CF?$AAS?$AA?$FN?$AA?3?$AA?5?$AAE?$AAx?$AAi?$AAt@ 0047c624     app.obj
 0002:00001654       ??_C@_1BC@CIJPHDOC@?$AA?9?$AAt?$AAi?$AAm?$AAe?$AAo?$AAu?$AAt@ 0047c654     app.obj
 0002:00001668       ??_C@_1M@MBMGLEBL@?$AA?9?$AAw?$AAa?$AAi?$AAt@ 0047c668     app.obj
 0002:00001674       ??_C@_1DG@HMJEBOAL@?$AA?$FL?$AAW?$AAH?$AA?$FN?$AA?5?$AA?$FL?$AA?$CF?$AAS?$AA?$FN?$AA?3?$AA?5?$AAR?$AAe?$AAs?$AAt@ 0047c674     app.obj
 0002:000016ac       ??_C@_1BG@LJBCAFPA@?$AA?9?$AAt?$AAr?$AAa?$AAy?$AA?9?$AAo?$AAn?$AAl?$AAy@ 0047c6ac     app.obj
 0002:000016c8       ??_C@_1EM@CDCLKDOP@?$AA?$FL?$AAW?$AAH?$AA?$FN?$AA?5?$AA?$FL?$AA?$CF?$AAS?$AA?$FN?$AA?3?$AA?5?$AAR?$AAe?$AAs?$AAt@ 0047c6c8     app.obj
 0002:00001718       ??_C@_1EI@NEDOINAG@?$AA?$FL?$AAW?$AAH?$AA?$FN?$AA?5?$AA?$FL?$AA?$CF?$AAS?$AA?$FN?$AA?3?$AA?5?$AAR?$AAu?$AAn?$AAn@ 0047c718     app.obj
 0002:00001774       ??_C@_1BG@BDAOMNME@?$AA?9?$AAs?$AAa?$AAf?$AAe?$AA?9?$AAm?$AAo?$AAd?$AAe@ 0047c774     app.obj
 0002:0000178c       ??_C@_07ENHKIFHH@app?4cpp@ 0047c78c     app.obj
 0002:00001794       ??_C@_0CB@FLNOFPFO@?$GAanonymous?9namespace?8?3?3RunDaemo@ 0047c794     app.obj
 0002:000017b8       ??_C@_1GG@HBCOGFGK@?$AA?$FL?$AAW?$AAH?$AA?$FN?$AA?5?$AA?$FL?$AA?$CF?$AAS?$AA?$FN?$AA?3?$AA?5?$AAS?$AAe?$AAt?$AAD@ 0047c7b8     app.obj
 0002:00001820       ??_C@_1GI@HNPCDBCF@?$AAG?$AAl?$AAo?$AAb?$AAa?$AAl?$AA?2?$AAW?$AAi?$AAn?$AAd?$AAh?$AAa?$AAw?$AAk@ 0047c820     app.obj
 0002:00001888       ??_C@_1EO@MFHDMJMB@?$AAW?$AAi?$AAn?$AAd?$AAh?$AAa?$AAw?$AAk?$AAA?$AAp?$AAp?$AAS?$AAe?$AAt?$AAt@ 0047c888     app.obj
 0002:000018d8       ??_C@_1GO@OLBNLJOG@?$AAG?$AAl?$AAo?$AAb?$AAa?$AAl?$AA?2?$AAW?$AAi?$AAn?$AAd?$AAh?$AAa?$AAw?$AAk@ 0047c8d8     app.obj
 0002:00001948       ??_C@_1BC@PFDDLKEP@?$AAS?$AAe?$AAt?$AAt?$AAi?$AAn?$AAg?$AAs@ 0047c948     app.obj
 0002:0000195c       ??_C@_1BC@EIJJHGED@?$AAS?$AAa?$AAf?$AAe?$AAM?$AAo?$AAd?$AAe@ 0047c95c     app.obj
 0002:00001970       ??_C@_1BK@JJOCIDHP@?$AAw?$AAi?$AAn?$AAd?$AAh?$AAa?$AAw?$AAk?$AA?4?$AAe?$AAx?$AAe@ 0047c970     app.obj
 0002:0000198c       ??_C@_1BM@IHCPGAAE@?$AAu?$AAn?$AAi?$AAn?$AAs?$AAt?$AAa?$AAl?$AAl?$AA?4?$AAe?$AAx?$AAe@ 0047c98c     app.obj
 0002:000019a8       ??_C@_0DK@LHHIFILO@?$GAanonymous?9namespace?8?3?3WaitForR@ 0047c9a8     app.obj
 0002:000019e8       ??_C@_1EA@DGBGJDFI@?$AA?$FL?$AAW?$AAH?$AA?$FN?$AA?5?$AA?$FL?$AA?$CF?$AAS?$AA?$FN?$AA?3?$AA?5?$AAW?$AAa?$AAi?$AAt@ 0047c9e8     app.obj
 0002:00001a28       ??_C@_1JG@PGAEFOON@?$AA?$FL?$AAW?$AAH?$AA?$FN?$AA?5?$AA?$FL?$AA?$CF?$AAS?$AA?$FN?$AA?3?$AA?5?$AAQ?$AAu?$AAe?$AAr@ 0047ca28     app.obj
 0002:00001ac0       ??_C@_1HC@OEBKPNPF@?$AA?$FL?$AAW?$AAH?$AA?$FN?$AA?5?$AA?$FL?$AA?$CF?$AAS?$AA?$FN?$AA?3?$AA?5?$AAO?$AAp?$AAe?$AAn@ 0047cac0     app.obj
 0002:00001b38       ??_C@_1EK@MAEIPMPF@?$AA?$FL?$AAW?$AAH?$AA?$FN?$AA?5?$AA?$FL?$AA?$CF?$AAS?$AA?$FN?$AA?3?$AA?5?$AAW?$AAa?$AAi?$AAt@ 0047cb38     app.obj
 0002:00001b84       ??_C@_13NEIAEHFG@?$AA?$CC@ 0047cb84     app.obj
 0002:00001b88       ??_C@_1M@CDHIAJCD@?$AAr?$AAu?$AAn?$AAa?$AAs@ 0047cb88     app.obj
 0002:00001b98       ??_7?$__func@V<lambda_1>@?1???$QueryFullProcessImageNameW@V?$basic_string@_WU?$char_traits@_W@std@@V?$allocator@_W@2@@std@@$0BAA@@wil@@YAJPAXKAAV?$basic_string@_WU?$char_traits@_W@std@@V?$allocator@_W@2@@std@@@Z@$$A6AJPA_WIPAI@Z@__function@wistd@@6B@ 0047cb98     app.obj
 0002:00001bb0       ??_7?$__func@V<lambda_1>@?1???$K32GetModuleFileNameExW@V?$basic_string@_WU?$char_traits@_W@std@@V?$allocator@_W@2@@std@@$0IA@@wil@@YAJPAXPAUHINSTANCE__@@AAV?$basic_string@_WU?$char_traits@_W@std@@V?$allocator@_W@2@@std@@@Z@$$A6AJPA_WIPAI@Z@__function@wistd@@6B@ 0047cbb0     app.obj
 0002:00001bc8       ??_7runtime_error@std@@6B@ 0047cbc8     engine_control.obj
 0002:00001bd0       ??_C@_17LGGGMOOB@?$AA?$CF?$AAh?$AAs@ 0047cbd0     engine_control.obj
 0002:00001bd8       ??_C@_1BK@LAAHIMOG@?$AAw?$AAi?$AAn?$AAd?$AAh?$AAa?$AAw?$AAk?$AA?4?$AAd?$AAl?$AAl@ 0047cbd8     engine_control.obj
 0002:00001bf8       ??_C@_0GP@FABDJMMA@Failed?5to?5load?5engine?5library?3?5@ 0047cbf8     engine_control.obj
 0002:00001c68       ??_C@_0BD@IOADMKLH@engine_control?4cpp@ 0047cc68     engine_control.obj
 0002:00001c7c       ??_C@_0BH@EIGCDCIG@GlobalHookSessionStart@ 0047cc7c     engine_control.obj
 0002:00001c94       ??_C@_0CE@NPJNBBHL@GlobalHookSessionHandleNewProce@ 0047cc94     engine_control.obj
 0002:00001cb8       ??_C@_0BF@MDGEJKCB@GlobalHookSessionEnd@ 0047ccb8     engine_control.obj
 0002:00001cd0       ??_C@_0CL@PDFKHMNP@Failed?5to?5start?5the?5global?5hook@ 0047ccd0     engine_control.obj
 0002:00001cfc       ??_C@_0BP@CALEJMPK@event_viewer_crash_monitor?4cpp@ 0047ccfc     event_viewer_crash_monitor.obj
 0002:00001d1c       ??_C@_1BI@JBDNBBGL@?$AAA?$AAp?$AAp?$AAl?$AAi?$AAc?$AAa?$AAt?$AAi?$AAo?$AAn@ 0047cd1c     event_viewer_crash_monitor.obj
 0002:00001d38       ??_C@_1GK@MHCIIJJ@?$AAE?$AAv?$AAe?$AAn?$AAt?$AA?1?$AAS?$AAy?$AAs?$AAt?$AAe?$AAm?$AA?$FL?$AAL?$AAe@ 0047cd38     event_viewer_crash_monitor.obj
 0002:00001da4       ??_C@_0CO@FAHHGJJL@EventViewerCrashMonitor?3?3GetAmo@ 0047cda4     event_viewer_crash_monitor.obj
 0002:00001dd4       ??_C@_0CB@IJHIHLLO@Unexpected?5result?5from?5EvtRende@ 0047cdd4     event_viewer_crash_monitor.obj
 0002:00001df8       ??_C@_0CI@PDLCCDIE@EventViewerCrashMonitor?3?3DoesEv@ 0047cdf8     event_viewer_crash_monitor.obj
 0002:00001e20       ??_C@_1FI@LLBKBDGN@?$AA?$FL?$AAW?$AAH?$AA?$FN?$AA?5?$AA?$FL?$AA?$CF?$AAS?$AA?$FN?$AA?3?$AA?5?$AAN?$AAo?$AAt?$AA?5@ 0047ce20     event_viewer_crash_monitor.obj
 0002:00001e78       ??_C@_1GA@HCOOCIGC@?$AA?$FL?$AAW?$AAH?$AA?$FN?$AA?5?$AA?$FL?$AA?$CF?$AAS?$AA?$FN?$AA?3?$AA?5?$AAU?$AAn?$AAe?$AAx@ 0047ce78     event_viewer_crash_monitor.obj
 0002:00001ed8       ??_C@_0FN@KLGDOHOJ@c?3?2Users?2kai99?2Desktop?2New?5fold@ 0047ced8     event_viewer_crash_monitor.obj
 0002:00001f38       ??_C@_1BK@MGMFAEKH@?$AAk?$AAe?$AAr?$AAn?$AAe?$AAl?$AA3?$AA2?$AA?4?$AAd?$AAl?$AAl@ 0047cf38     functions.obj
 0002:00001f54       ??_C@_1BE@GJOFHIHD@?$AAn?$AAt?$AAd?$AAl?$AAl?$AA?4?$AAd?$AAl?$AAl@ 0047cf54     functions.obj
 0002:00001f68       ??_C@_0BN@OFDOGPDL@invalid?5string_view?5position@ 0047cf68     functions.obj
 0002:00001f88       ??_C@_0BD@EJALDNPB@NtPowerInformation@ 0047cf88     functions.obj
 0002:00001f9c       ??_C@_1CC@DMDJMJLM@?$AAS?$AAe?$AAD?$AAe?$AAb?$AAu?$AAg?$AAP?$AAr?$AAi?$AAv?$AAi?$AAl?$AAe?$AAg@ 0047cf9c     functions.obj
 0002:00001fc0       ??_C@_1EE@OFOCIELB@?$AAD?$AA?3?$AA?$CI?$AAA?$AA?$DL?$AA?$DL?$AA0?$AAx?$AA0?$AA0?$AA0?$AA2?$AA?$DL?$AA?$DL?$AA?$DL@ 0047cfc0     functions.obj
 0002:00002004       ??_C@_1DE@DPPEFADK@?$AA?$CI?$AAC?$AAo?$AAu?$AAl?$AAd?$AA?5?$AAn?$AAo?$AAt?$AA?5?$AAl?$AAo?$AAa?$AAd@ 0047d004     functions.obj
 0002:00002038       ??_C@_1BG@OILDLIOJ@?$AAu?$AAs?$AAe?$AAr?$AA3?$AA2?$AA?4?$AAd?$AAl?$AAl@ 0047d038     functions.obj
 0002:00002050       ??_C@_0BA@LGGPEDOH@GetDpiForWindow@ 0047d050     functions.obj
 0002:00002060       ??_C@_0BH@HPKNFNCE@GetSystemMetricsForDpi@ 0047d060     functions.obj
 0002:00002078       ??_C@_0BK@EGDDIFMK@NtQueryInformationProcess@ 0047d078     functions.obj
 0002:00002094       ??_C@_0BH@OLGOMKMH@RtlGetNtVersionNumbers@ 0047d094     functions.obj
 0002:000020ac       ??_C@_19PLOBJMHF@?$AAE?$AAd?$AAi?$AAt@ 0047d0ac     functions.obj
 0002:000020b8       ??_C@_1CC@EPFAMDMB@?$AAL?$AAo?$AAg?$AAg?$AAi?$AAn?$AAg?$AAV?$AAe?$AAr?$AAb?$AAo?$AAs?$AAi?$AAt@ 0047d0b8     logger.obj
 0002:00002214       ??_7CMainWindow@@6B?$CWindowImpl@VCMainWindow@@VCWindow@ATL@@V?$CWinTraits@$0A@$0A@@3@@ATL@@@ 0047d214     main_window.obj
 0002:00002228       ??_7CMainWindow@@6BCMessageFilter@WTL@@@ 0047d228     main_window.obj
 0002:00002230       ??_7CMainWindow@@6BCIdleHandler@WTL@@@ 0047d230     main_window.obj
 0002:00002234       ??_C@_1BM@GLLFNEEF@?$AAS?$AAh?$AAe?$AAl?$AAl?$AA_?$AAT?$AAr?$AAa?$AAy?$AAW?$AAn?$AAd@ 0047d234     main_window.obj
 0002:00002250       ??_C@_1BO@NBGJACOC@?$AAT?$AAa?$AAs?$AAk?$AAb?$AAa?$AAr?$AAC?$AAr?$AAe?$AAa?$AAt?$AAe?$AAd@ 0047d250     main_window.obj
 0002:00002270       ??_C@_0BE@LLPFFMLJ@CMainWindow?3?3OnIdle@ 0047d270     main_window.obj
 0002:00002288       ??_C@_1GA@FGKJMJLJ@?$AA?$FL?$AAW?$AAH?$AA?$FN?$AA?5?$AA?$FL?$AA?$CF?$AAS?$AA?$FN?$AA?3?$AA?5?$AAT?$AAa?$AAs?$AAk@ 0047d288     main_window.obj
 0002:000022e8       ??_C@_1GG@EAFNOKAA@?$AA?$FL?$AAW?$AAH?$AA?$FN?$AA?5?$AA?$FL?$AA?$CF?$AAS?$AA?$FN?$AA?3?$AA?5?$AAS?$AAt?$AAa?$AAt@ 0047d2e8     main_window.obj
 0002:00002350       ??_C@_1FM@PFGJDFPA@?$AA?$FL?$AAW?$AAH?$AA?$FN?$AA?5?$AA?$FL?$AA?$CF?$AAS?$AA?$FN?$AA?3?$AA?5?$AAE?$AAx?$AAp?$AAl@ 0047d350     main_window.obj
 0002:000023b0       ??_C@_1FO@HHBHIIPC@?$AA?$FL?$AAW?$AAH?$AA?$FN?$AA?5?$AA?$FL?$AA?$CF?$AAS?$AA?$FN?$AA?3?$AA?5?$AAE?$AAx?$AAp?$AAl@ 0047d3b0     main_window.obj
 0002:00002410       ??_C@_0BO@EDNAMAKI@Could?5not?5initialize?5Windhawk@ 0047d410     main_window.obj
 0002:00002430       ??_C@_1BC@KKLCINDK@?$AAm?$AAo?$AAd?$AA?9?$AAt?$AAa?$AAs?$AAk@ 0047d430     main_window.obj
 0002:00002444       ??_C@_0BG@OPCFKHFL@CMainWindow?3?3OnCreate@ 0047d444     main_window.obj
 0002:00002460       ??_C@_1GA@NAPCPPN@?$AA?$FL?$AAW?$AAH?$AA?$FN?$AA?5?$AA?$FL?$AA?$CF?$AAS?$AA?$FN?$AA?3?$AA?5?$AAT?$AAa?$AAs?$AAk@ 0047d460     main_window.obj
 0002:000024c0       ??_C@_1EM@BELCHACH@?$AA?$FL?$AAW?$AAH?$AA?$FN?$AA?5?$AA?$FL?$AA?$CF?$AAS?$AA?$FN?$AA?3?$AA?5?$AAR?$AAe?$AAg?$AAi@ 0047d4c0     main_window.obj
 0002:0000250c       ??_C@_0BF@FAGLFHJB@CMainWindow?3?3OnTimer@ 0047d50c     main_window.obj
 0002:00002528       ??_C@_1EK@JLNFBILD@?$AA?$FL?$AAW?$AAH?$AA?$FN?$AA?5?$AA?$FL?$AA?$CF?$AAS?$AA?$FN?$AA?3?$AA?5?$AAU?$AAp?$AAd?$AAa@ 0047d528     main_window.obj
 0002:00002574       ??_C@_1CA@CJFAGNJ@?$AAL?$AAa?$AAs?$AAt?$AAU?$AAp?$AAd?$AAa?$AAt?$AAe?$AAC?$AAh?$AAe?$AAc?$AAk@ 0047d574     main_window.obj
 0002:00002594       ??_C@_13COJANIEC@?$AA0@    0047d594     main_window.obj
 0002:00002598       ??_C@_0BO@EIENCBKH@CMainWindow?3?3OnPowerBroadcast@ 0047d598     main_window.obj
 0002:000025b8       ??_C@_1FO@GKIOHAHF@?$AA?$FL?$AAW?$AAH?$AA?$FN?$AA?5?$AA?$FL?$AA?$CF?$AAS?$AA?$FN?$AA?3?$AA?5?$AAG?$AAe?$AAt?$AAt@ 0047d5b8     main_window.obj
 0002:00002618       ??_C@_1BI@DGENFMEP@?$AA?7?$AAC?$AAt?$AAr?$AAl?$AA?$CL?$AAW?$AAi?$AAn?$AA?$CL?$AAW@ 0047d618     main_window.obj
 0002:00002630       ??_C@_0BA@DNGFMDGD@main_window?4cpp@ 0047d630     main_window.obj
 0002:00002640       ??_C@_0CH@EAGACODJ@CMainWindow?3?3InitForNonPortable@ 0047d640     main_window.obj
 0002:00002668       ??_C@_1GO@FEJINGBJ@?$AA?$FL?$AAW?$AAH?$AA?$FN?$AA?5?$AA?$FL?$AA?$CF?$AAS?$AA?$FN?$AA?3?$AA?5?$AAV?$AAe?$AAr?$AAs@ 0047d668     main_window.obj
 0002:000026d8       ??_C@_1BC@KHBNKMMK@?$AAL?$AAa?$AAn?$AAg?$AAu?$AAa?$AAg?$AAe@ 0047d6d8     main_window.obj
 0002:000026ec       ??_C@_15MNPNEAIF@?$AAe?$AAn@ 0047d6ec     main_window.obj
 0002:000026f4       ??_C@_1BK@CBNNFKLB@?$AAH?$AAi?$AAd?$AAe?$AAT?$AAr?$AAa?$AAy?$AAI?$AAc?$AAo?$AAn@ 0047d6f4     main_window.obj
 0002:00002710       ??_C@_1CG@HLCPILOC@?$AAD?$AAi?$AAs?$AAa?$AAb?$AAl?$AAe?$AAU?$AAp?$AAd?$AAa?$AAt?$AAe?$AAC?$AAh@ 0047d710     main_window.obj
 0002:00002738       ??_C@_1CI@CABPFAEL@?$AAD?$AAo?$AAn?$AAt?$AAA?$AAu?$AAt?$AAo?$AAS?$AAh?$AAo?$AAw?$AAT?$AAo?$AAo@ 0047d738     main_window.obj
 0002:00002760       ??_C@_1CK@DKGHDNON@?$AAD?$AAi?$AAs?$AAa?$AAb?$AAl?$AAe?$AAT?$AAo?$AAo?$AAl?$AAk?$AAi?$AAt?$AAH@ 0047d760     main_window.obj
 0002:0000278c       ??_C@_1CI@MBJFOMAF@?$AAM?$AAo?$AAd?$AAT?$AAa?$AAs?$AAk?$AAs?$AAD?$AAi?$AAa?$AAl?$AAo?$AAg?$AAD@ 0047d78c     main_window.obj
 0002:000027b4       ??_C@_0BI@GEMMIMIP@Could?5not?5load?5settings@ 0047d7b4     main_window.obj
 0002:000027cc       ??_C@_1BM@ENECIFHC@?$AA?2?$AAe?$AAx?$AAp?$AAl?$AAo?$AAr?$AAe?$AAr?$AA?4?$AAe?$AAx?$AAe@ 0047d7cc     main_window.obj
 0002:000027e8       ??_C@_0BK@NNOIAPFA@CMainWindow?3?3LoadSettings@ 0047d7e8     main_window.obj
 0002:00002808       ??_C@_1EC@PJIKGFPK@?$AA?9?$AAs?$AAe?$AAr?$AAv?$AAi?$AAc?$AAe?$AA?9?$AAs?$AAt?$AAo?$AAp?$AA?5?$AA?9@ 0047d808     main_window.obj
 0002:00002850       ??_C@_0JG@DOIHEHOE@Exiting?5failed?5with?5the?5error?5b@ 0047d850     main_window.obj
 0002:000028e8       ??_C@_0P@CBOLDCK@Exiting?5failed@ 0047d8e8     main_window.obj
 0002:000028f8       ??_C@_05NAOIJFC@Error@     0047d8f8     main_window.obj
 0002:00002900       ??_C@_0CA@EFHAENNF@Could?5not?5launch?5the?5UI?5process@ 0047d900     main_window.obj
 0002:00002920       ??_C@_0BF@JNLAJPN@CMainWindow?3?3CloseUI@ 0047d920     main_window.obj
 0002:00002938       ??_C@_1DO@OBKPMLAI@?$AA?$FL?$AAW?$AAH?$AA?$FN?$AA?5?$AA?$FL?$AA?$CF?$AAS?$AA?$FN?$AA?3?$AA?5?$AAC?$AAl?$AAo?$AAs@ 0047d938     main_window.obj
 0002:00002978       ??_C@_0BP@BNMBOFCJ@CMainWindow?3?3SetLastUpdateTime@ 0047d978     main_window.obj
 0002:00002998       ??_C@_0CB@KGLIAGPC@CMainWindow?3?3ResetLastUpdateTim@ 0047d998     main_window.obj
 0002:000029c0       ??_C@_1FI@IHAGCAKG@?$AAh?$AAt?$AAt?$AAp?$AAs?$AA?3?$AA?1?$AA?1?$AAw?$AAi?$AAn?$AAd?$AAh?$AAa?$AAw@ 0047d9c0     main_window.obj
 0002:00002a18       ??_C@_1M@ILHOPKA@?$AAE?$AAr?$AAr?$AAo?$AAr@ 0047da18     main_window.obj
 0002:00002a28       ??_C@_1IA@MIKEAAPJ@?$AAC?$AAo?$AAu?$AAl?$AAd?$AA?5?$AAn?$AAo?$AAt?$AA?5?$AAo?$AAp?$AAe?$AAn?$AA?5@ 0047da28     main_window.obj
 0002:00002aa8       ??_C@_1BG@MDFIMHKE@?$AAm?$AAo?$AAd?$AA?9?$AAs?$AAt?$AAa?$AAt?$AAu?$AAs@ 0047daa8     main_window.obj
 0002:00002ac0       ??_C@_0CC@IDJAMJAO@CMainWindow?3?3ShowLoadedModsDial@ 0047dac0     main_window.obj
 0002:00002ae8       ??_C@_1GG@BLPLAMEE@?$AA?$FL?$AAW?$AAH?$AA?$FN?$AA?5?$AA?$FL?$AA?$CF?$AAS?$AA?$FN?$AA?3?$AA?5?$AAS?$AAt?$AAa?$AAt@ 0047dae8     main_window.obj
 0002:00002b50       ??_C@_1BA@LFDBPOH@?$AA?$CC?$AA?5?$AA?9?$AAw?$AAa?$AAi?$AAt@ 0047db50     main_window.obj
 0002:00002b60       ??_C@_0BO@GPJEIOI@CMainWindow?3?3SwitchToSafeMode@ 0047db60     main_window.obj
 0002:00002b80       ??_C@_0CB@LNDNOIBE@CMainWindow?3?3HandleExplorerCras@ 0047db80     main_window.obj
 0002:00002ba8       ??_C@_1FC@ICNIGCAD@?$AA?$FL?$AAW?$AAH?$AA?$FN?$AA?5?$AA?$FL?$AA?$CF?$AAS?$AA?$FN?$AA?3?$AA?5?$AAD?$AAe?$AAt?$AAe@ 0047dba8     main_window.obj
 0002:00002c00       ??_C@_1IG@CCDGNLKG@?$AA?$FL?$AAW?$AAH?$AA?$FN?$AA?5?$AA?$FL?$AA?$CF?$AAS?$AA?$FN?$AA?3?$AA?5?$AAT?$AAa?$AAs?$AAk@ 0047dc00     main_window.obj
 0002:00002da4       ??_7?$__func@V<lambda_1>@?1???$GetWindowsDirectoryW@V?$basic_string@_WU?$char_traits@_W@std@@V?$allocator@_W@2@@std@@$0BAA@@wil@@YAJAAV?$basic_string@_WU?$char_traits@_W@std@@V?$allocator@_W@2@@std@@@Z@$$A6AJPA_WIPAI@Z@__function@wistd@@6B@ 0047dda4     main_window.obj
 0002:00002f40       ??_C@_1EE@DOCGNLJK@?$AAD?$AA?3?$AA?$CI?$AAA?$AA?$DL?$AA?$DL?$AA0?$AAx?$AA0?$AA0?$AA0?$AA4?$AA?$DL?$AA?$DL?$AA?$DL@ 0047df40     service.obj
 0002:00002f84       ??_C@_0M@IGBHBEDL@service?4cpp@ 0047df84     service.obj
 0002:00002f90       ??_C@_1EM@KPBAOFKJ@?$AAD?$AA?3?$AA?$CI?$AAA?$AA?$DL?$AA?$DL?$AA0?$AAx?$AA0?$AA0?$AA1?$AA0?$AA0?$AA0?$AA0@ 0047df90     service.obj
 0002:00002fdc       ??_C@_0BJ@JOAPGADM@ServiceInstance?3?3SvcMain@ 0047dfdc     service.obj
 0002:00002ff8       ??_C@_1DI@LHCAMOBB@?$AA?$FL?$AAW?$AAH?$AA?$FN?$AA?5?$AA?$FL?$AA?$CF?$AAS?$AA?$FN?$AA?3?$AA?5?$AAR?$AAu?$AAn?$AAn@ 0047dff8     service.obj
 0002:00003030       ??_C@_1DO@BCFBKLHE@?$AA?$FL?$AAW?$AAH?$AA?$FN?$AA?5?$AA?$FL?$AA?$CF?$AAS?$AA?$FN?$AA?3?$AA?5?$AAS?$AAv?$AAc?$AAI@ 0047e030     service.obj
 0002:00003070       ??_C@_1DG@NCMIIJHK@?$AA?$FL?$AAW?$AAH?$AA?$FN?$AA?5?$AA?$FL?$AA?$CF?$AAS?$AA?$FN?$AA?3?$AA?5?$AAR?$AAu?$AAn?$AAn@ 0047e070     service.obj
 0002:000030a8       ??_C@_1DM@KMNOEKPB@?$AA?$FL?$AAW?$AAH?$AA?$FN?$AA?5?$AA?$FL?$AA?$CF?$AAS?$AA?$FN?$AA?3?$AA?5?$AAS?$AAv?$AAc?$AAR@ 0047e0a8     service.obj
 0002:000030e8       ??_C@_1EM@GBKOAALO@?$AA?$FL?$AAW?$AAH?$AA?$FN?$AA?5?$AA?$FL?$AA?$CF?$AAS?$AA?$FN?$AA?3?$AA?5?$AAR?$AAe?$AAp?$AAo@ 0047e0e8     service.obj
 0002:00003134       ??_C@_0BJ@IDMBCMHB@ServiceInstance?3?3SvcInit@ 0047e134     service.obj
 0002:00003150       ??_C@_1BK@NKJOAPIG@?$AA?$CC?$AA?5?$AA?9?$AAt?$AAr?$AAa?$AAy?$AA?9?$AAo?$AAn?$AAl?$AAy@ 0047e150     service.obj
 0002:0000316c       ??_C@_0BI@JNOLAJPK@ServiceInstance?3?3SvcRun@ 0047e16c     service.obj
 0002:00003188       ??_C@_1GE@FHPJPPLE@?$AA?$FL?$AAW?$AAH?$AA?$FN?$AA?5?$AA?$FL?$AA?$CF?$AAS?$AA?$FN?$AA?3?$AA?5?$AAC?$AAr?$AAe?$AAa@ 0047e188     service.obj
 0002:000031f0       ??_C@_1EA@FPKNEOLI@?$AA?$FL?$AAW?$AAH?$AA?$FN?$AA?5?$AA?$FL?$AA?$CF?$AAS?$AA?$FN?$AA?3?$AA?5?$AAR?$AAe?$AAc?$AAe@ 0047e1f0     service.obj
 0002:00003230       ??_C@_1FM@LEDKMGBE@?$AA?$FL?$AAW?$AAH?$AA?$FN?$AA?5?$AA?$FL?$AA?$CF?$AAS?$AA?$FN?$AA?3?$AA?5?$AAR?$AAe?$AAc?$AAe@ 0047e230     service.obj
 0002:00003290       ??_C@_1FE@KNFBFPEM@?$AA?$FL?$AAW?$AAH?$AA?$FN?$AA?5?$AA?$FL?$AA?$CF?$AAS?$AA?$FN?$AA?3?$AA?5?$AAR?$AAe?$AAc?$AAe@ 0047e290     service.obj
 0002:000032e8       ??_C@_1FE@DDOCJJFC@?$AA?$FL?$AAW?$AAH?$AA?$FN?$AA?5?$AA?$FL?$AA?$CF?$AAS?$AA?$FN?$AA?3?$AA?5?$AAR?$AAe?$AAc?$AAe@ 0047e2e8     service.obj
 0002:00003340       ??_C@_1EM@DACMBBBG@?$AA?$FL?$AAW?$AAH?$AA?$FN?$AA?5?$AA?$FL?$AA?$CF?$AAS?$AA?$FN?$AA?3?$AA?5?$AAR?$AAe?$AAc?$AAe@ 0047e340     service.obj
 0002:0000338c       ??_C@_0CC@IMBHMPMP@ServiceInstance?3?3SvcCtrlHandler@ 0047e38c     service.obj
 0002:000033b0       ??_C@_1FE@EJLDIAIP@?$AA?$FL?$AAW?$AAH?$AA?$FN?$AA?5?$AA?$FL?$AA?$CF?$AAS?$AA?$FN?$AA?3?$AA?5?$AAH?$AAa?$AAn?$AAd@ 0047e3b0     service.obj
 0002:00003408       ??_C@_1EO@KEIJONPD@?$AA?$FL?$AAW?$AAH?$AA?$FN?$AA?5?$AA?$FL?$AA?$CF?$AAS?$AA?$FN?$AA?3?$AA?5?$AAH?$AAa?$AAn?$AAd@ 0047e408     service.obj
 0002:00003458       ??_C@_1GC@BNIHGILH@?$AA?$FL?$AAW?$AAH?$AA?$FN?$AA?5?$AA?$FL?$AA?$CF?$AAS?$AA?$FN?$AA?3?$AA?5?$AAW?$AAT?$AAS?$AA_@ 0047e458     service.obj
 0002:000034bc       ??_C@_07NPCNPGEO@SvcMain@  0047e4bc     service.obj
 0002:000034c4       ??_C@_1DO@MOECAKGP@?$AA?$FL?$AAW?$AAH?$AA?$FN?$AA?5?$AA?$FL?$AA?$CF?$AAS?$AA?$FN?$AA?3?$AA?5?$AAS?$AAv?$AAc?$AAM@ 0047e4c4     service.obj
 0002:00003504       ??_C@_0BO@ELAFCPOP@RtlDisownModuleHeapAllocation@ 0047e504     stdafx.obj
 0002:00003524       ??_C@_1BO@MFOKJHPK@?$AAk?$AAe?$AAr?$AAn?$AAe?$AAl?$AAb?$AAa?$AAs?$AAe?$AA?4?$AAd?$AAl?$AAl@ 0047e524     stdafx.obj
 0002:00003544       ??_C@_0BH@EEDPADAA@RaiseFailFastException@ 0047e544     stdafx.obj
 0002:0000355c       ??_C@_1CM@DFICJNGJ@?$AAL?$AAo?$AAc?$AAa?$AAl?$AA?2?$AAS?$AAM?$AA0?$AA?3?$AA?$CF?$AAl?$AAu?$AA?3?$AA?$CF@ 0047e55c     stdafx.obj
 0002:0000358c       ??_7ResultException@wil@@6B@ 0047e58c     stdafx.obj
 0002:00003594       ??_C@_0O@KIMGFJMA@WIL?5Exception@ 0047e594     stdafx.obj
 0002:000035a4       ??_C@_1CI@KEGLKJIE@?$AAs?$AAt?$AAd?$AA?3?$AA?3?$AAe?$AAx?$AAc?$AAe?$AAp?$AAt?$AAi?$AAo?$AAn?$AA?3@ 0047e5a4     stdafx.obj
 0002:000035cc       ??_C@_17ONNCDEJM@?$AA_?$AAp?$AA0@ 0047e5cc     stdafx.obj
 0002:000035d4       ??_C@_13CACJPPAP@?$AAh@    0047e5d4     stdafx.obj
 0002:000035d8       ?value@?$static_const@Uto_json_fn@detail@nlohmann@@@detail@nlohmann@@2Uto_json_fn@23@B 0047e5d8     stdafx.obj
 0002:000035dc       ??_C@_0M@BENCEGID@WilError_03@ 0047e5dc     stdafx.obj
 0002:000035ec       ??_7bad_variant_access@std@@6B@ 0047e5ec     storage_manager.obj
 0002:000035f4       ??_C@_0BD@FGIAGBIG@bad?5variant?5access@ 0047e5f4     storage_manager.obj
 0002:0000360c       ??_7_System_error@std@@6B@ 0047e60c     storage_manager.obj
 0002:00003614       ??_C@_02LMMGGCAJ@?3?5@     0047e614     storage_manager.obj
 0002:0000361c       ??_7system_error@std@@6B@  0047e61c     storage_manager.obj
 0002:00003628       ??_7_Generic_error_category@std@@6B@ 0047e628     storage_manager.obj
 0002:00003640       ??_C@_07DCLBNMLN@generic@  0047e640     storage_manager.obj
 0002:0000364c       ??_7_System_error_category@std@@6B@ 0047e64c     storage_manager.obj
 0002:00003664       ??_C@_06FHFOAHML@system@   0047e664     storage_manager.obj
 0002:0000366c       ?_Unknown_error@?6??message@_System_error_category@std@@UBE?AV?$basic_string@DU?$char_traits@D@std@@V?$allocator@D@2@@3@H@Z@4QBDB 0047e66c     storage_manager.obj
 0002:0000367c       ??_C@_13JOFGPIOO@?$AA?4@   0047e67c     storage_manager.obj
 0002:00003680       ??_C@_15DDHGOCBH@?$AA?4?$AA?4@ 0047e680     storage_manager.obj
 0002:0000368c       ??_7filesystem_error@filesystem@std@@6B@ 0047e68c     storage_manager.obj
 0002:00003694       ??_C@_03NONCDIOG@?3?5?$CC@ 0047e694     storage_manager.obj
 0002:00003698       ??_C@_04PHMHGEMA@?$CC?0?5?$CC@ 0047e698     storage_manager.obj
 0002:000036a0       ??_C@_06DJIHEMFI@status@   0047e6a0     storage_manager.obj
 0002:000036a8       ??_C@_0BF@GMINJHOM@Missing?5path?5value?3?5@ 0047e6a8     storage_manager.obj
 0002:000036c0       ??_C@_1BO@HNKIOGCF@?$AA?$CF?$AAP?$AAr?$AAo?$AAg?$AAr?$AAa?$AAm?$AAW?$AA6?$AA4?$AA3?$AA2?$AA?$CF@ 0047e6c0     storage_manager.obj
 0002:000036e0       ??_C@_1BO@DFHEBLHG@?$AA?$CF?$AAP?$AAr?$AAo?$AAg?$AAr?$AAa?$AAm?$AAF?$AAi?$AAl?$AAe?$AAs?$AA?$CF@ 0047e6e0     storage_manager.obj
 0002:00003700       ??_C@_1BK@LOEJHKPH@?$AAM?$AAo?$AAd?$AAs?$AAW?$AAr?$AAi?$AAt?$AAa?$AAb?$AAl?$AAe@ 0047e700     storage_manager.obj
 0002:0000371c       ??_C@_15JGPBBLHF@?$AA3?$AA2@ 0047e71c     storage_manager.obj
 0002:00003724       ??_C@_15ODFHNFBK@?$AA6?$AA4@ 0047e724     storage_manager.obj
 0002:0000372c       ??_C@_1M@CDOFHCHO@?$AAa?$AAr?$AAm?$AA6?$AA4@ 0047e72c     storage_manager.obj
 0002:00003738       ??_C@_0BF@PAAHKDFF@Unknown?5architecture@ 0047e738     storage_manager.obj
 0002:00003750       ??_C@_1O@LIBPHGOH@?$AAU?$AAI?$AAD?$AAa?$AAt?$AAa@ 0047e750     storage_manager.obj
 0002:00003760       ??_C@_1CA@PMIJDFKD@?$AAE?$AAd?$AAi?$AAt?$AAo?$AAr?$AAW?$AAo?$AAr?$AAk?$AAs?$AAp?$AAa?$AAc?$AAe@ 0047e760     storage_manager.obj
 0002:00003780       ??_C@_1CC@IGHEDKD@?$AAu?$AAs?$AAe?$AAr?$AAp?$AAr?$AAo?$AAf?$AAi?$AAl?$AAe?$AA?4?$AAj?$AAs?$AAo@ 0047e780     storage_manager.obj
 0002:000037a4       ??_C@_03GOODKOKO@ini@      0047e7a4     storage_manager.obj
 0002:000037a8       ??_C@_1BA@KMCEMKEI@?$AAS?$AAt?$AAo?$AAr?$AAa?$AAg?$AAe@ 0047e7a8     storage_manager.obj
 0002:000037b8       ??_C@_1BG@DOPBBHOI@?$AAE?$AAn?$AAg?$AAi?$AAn?$AAe?$AAP?$AAa?$AAt?$AAh@ 0047e7b8     storage_manager.obj
 0002:000037d0       ??_C@_1O@OLFCBIPP@?$AAU?$AAI?$AAP?$AAa?$AAt?$AAh@ 0047e7d0     storage_manager.obj
 0002:000037e0       ??_C@_1BK@KIIIDJGH@?$AAC?$AAo?$AAm?$AAp?$AAi?$AAl?$AAe?$AAr?$AAP?$AAa?$AAt?$AAh@ 0047e7e0     storage_manager.obj
 0002:000037fc       ??_C@_1BI@HCGPBLCP@?$AAA?$AAp?$AAp?$AAD?$AAa?$AAt?$AAa?$AAP?$AAa?$AAt?$AAh@ 0047e7fc     storage_manager.obj
 0002:00003814       ??_C@_1BC@EIAJDLIM@?$AAP?$AAo?$AAr?$AAt?$AAa?$AAb?$AAl?$AAe@ 0047e814     storage_manager.obj
 0002:00003828       ??_C@_1BK@BDLHIEGA@?$AAs?$AAe?$AAt?$AAt?$AAi?$AAn?$AAg?$AAs?$AA?4?$AAi?$AAn?$AAi@ 0047e828     storage_manager.obj
 0002:00003844       ??_C@_1BI@PJNLJJGH@?$AAR?$AAe?$AAg?$AAi?$AAs?$AAt?$AAr?$AAy?$AAK?$AAe?$AAy@ 0047e844     storage_manager.obj
 0002:0000385c       ??_C@_0BK@LMMIEMIN@Missing?5RegistryKey?5value@ 0047e85c     storage_manager.obj
 0002:00003878       ??_C@_0BK@NBAMLEHE@Invalid?5RegistryKey?5value@ 0047e878     storage_manager.obj
 0002:00003894       ??_C@_0BO@LNGLPCAK@Unsupported?5RegistryKey?5value@ 0047e894     storage_manager.obj
 0002:000038b4       ??_C@_1O@OIKEGNDA@?$AAE?$AAn?$AAg?$AAi?$AAn?$AAe@ 0047e8b4     storage_manager.obj
 0002:000038c4       ??_C@_0BE@CDOICAJ@storage_manager?4cpp@ 0047e8c4     storage_manager.obj
 0002:000038dc       ??_7?$__func@V<lambda_1>@?1???$ExpandEnvironmentStringsW@V?$basic_string@_WU?$char_traits@_W@std@@V?$allocator@_W@2@@std@@$0BAA@@wil@@YAJPB_WAAV?$basic_string@_WU?$char_traits@_W@std@@V?$allocator@_W@2@@std@@@Z@$$A6AJPA_WIPAI@Z@__function@wistd@@6B@ 0047e8dc     storage_manager.obj
 0002:000038f0       ??_C@_0O@OGDGDABE@DllGetVersion@ 0047e8f0     task_manager_dlg.obj
 0002:00003900       ??_C@_1BK@JKBHGHPP@?$AAc?$AAo?$AAm?$AAc?$AAt?$AAl?$AA3?$AA2?$AA?4?$AAd?$AAl?$AAl@ 0047e900     task_manager_dlg.obj
 0002:0000391c       ??_C@_1BI@BNFKGMFK@?$AAs?$AAh?$AAe?$AAl?$AAl?$AA3?$AA2?$AA?4?$AAd?$AAl?$AAl@ 0047e91c     task_manager_dlg.obj
 0002:00003938       ??_7CSortListViewCtrl@WTL@@6B@ 0047e938     task_manager_dlg.obj
 0002:00003948       ??_C@_0BH@DPNNDOEK@invalid?5stoul?5argument@ 0047e948     task_manager_dlg.obj
 0002:00003960       ??_C@_0BM@MOLGGFGJ@stoul?5argument?5out?5of?5range@ 0047e960     task_manager_dlg.obj
 0002:0000397c       ??_C@_0BI@DIFNIIHI@invalid?5stoull?5argument@ 0047e97c     task_manager_dlg.obj
 0002:00003994       ??_C@_0BN@NGMOKJGA@stoull?5argument?5out?5of?5range@ 0047e994     task_manager_dlg.obj
 0002:000039b4       ??_C@_0BI@LBKDNGFK@directory_entry?3?3status@ 0047e9b4     task_manager_dlg.obj
 0002:000039cc       ??_C@_13BBDEGPLJ@?$AA?$CK@ 0047e9cc     task_manager_dlg.obj
 0002:000039d0       ??_C@_0CH@GANCNKKD@directory_iterator?3?3directory_i@ 0047e9d0     task_manager_dlg.obj
 0002:000039f8       ??_C@_0BP@DPMCMHCK@directory_iterator?3?3operator?$CL?$CL@ 0047e9f8     task_manager_dlg.obj
 0002:00003a18       ??_C@_06OGCODMJI@exists@   0047ea18     task_manager_dlg.obj
 0002:00003a24       ??_7?$_Ref_count_obj2@U_Dir_enum_impl@filesystem@std@@@std@@6B@ 0047ea24     task_manager_dlg.obj
 0002:00003a38       ??_7CTaskManagerDlg@@6B@   0047ea38     task_manager_dlg.obj
 0002:00003a48       ?theMap@?1??GetDlgResizeMap@CTaskManagerDlg@@SAPBU_AtlDlgResizeMap@WTL@@XZ@4QBU34@B 0047ea48     task_manager_dlg.obj
 0002:00003a60       ??_C@_0BF@NPKEFPOI@task_manager_dlg?4cpp@ 0047ea60     task_manager_dlg.obj
 0002:00003a78       ??_C@_1BG@GCBDAABL@?$AAP?$AAe?$AAn?$AAd?$AAi?$AAn?$AAg?$AA?4?$AA?4?$AA?4@ 0047ea78     task_manager_dlg.obj
 0002:00003a90       ??_C@_1BG@IPGMPLAM@?$AAL?$AAo?$AAa?$AAd?$AAi?$AAn?$AAg?$AA?4?$AA?4?$AA?4@ 0047ea90     task_manager_dlg.obj
 0002:00003aa8       ??_C@_1O@JJDHCMCP@?$AAL?$AAo?$AAa?$AAd?$AAe?$AAd@ 0047eaa8     task_manager_dlg.obj
 0002:00003ab8       ??_C@_1BC@ILOENEMO@?$AAU?$AAn?$AAl?$AAo?$AAa?$AAd?$AAe?$AAd@ 0047eab8     task_manager_dlg.obj
 0002:00003acc       ??_C@_1CA@CPAJBOA@?$AAI?$AAn?$AAi?$AAt?$AAi?$AAa?$AAl?$AAi?$AAz?$AAi?$AAn?$AAg?$AA?4?$AA?4?$AA?4@ 0047eacc     task_manager_dlg.obj
 0002:00003aec       ??_C@_1CE@MNKCPMGJ@?$AAU?$AAn?$AAi?$AAn?$AAi?$AAt?$AAi?$AAa?$AAl?$AAi?$AAz?$AAi?$AAn?$AAg?$AA?4@ 0047eaec     task_manager_dlg.obj
 0002:00003b10       ??_C@_1CG@GFPINLC@?$AAL?$AAo?$AAa?$AAd?$AAi?$AAn?$AAg?$AA?5?$AAs?$AAy?$AAm?$AAb?$AAo?$AAl?$AAs@ 0047eb10     task_manager_dlg.obj
 0002:00003b38       ??_C@_1CO@BDIADPMN@?$AAW?$AAa?$AAi?$AAt?$AAi?$AAn?$AAg?$AA?5?$AAf?$AAo?$AAr?$AA?5?$AAs?$AAy?$AAm@ 0047eb38     task_manager_dlg.obj
 0002:00003b68       ??_C@_1BC@EBLNLBPD@?$AAW?$AAi?$AAn?$AAd?$AAh?$AAa?$AAw?$AAk@ 0047eb68     task_manager_dlg.obj
 0002:00003b7c       ??_C@_1BM@BKHOCPPO@?$AA?$CF?$AAs?$AA?5?$AA?9?$AA?5?$AAW?$AAi?$AAn?$AAd?$AAh?$AAa?$AAw?$AAk@ 0047eb7c     task_manager_dlg.obj
 0002:00003b98       ??_C@_0BK@GKDNNIAN@Failed?5to?5initialize?5data@ 0047eb98     task_manager_dlg.obj
 0002:00003bb4       ??_C@_1BC@PKEHKAEB@?$AAE?$AAx?$AAp?$AAl?$AAo?$AAr?$AAe?$AAr@ 0047ebb4     task_manager_dlg.obj
 0002:00003bc8       ??_C@_17GFKDCKHB@?$AAM?$AAo?$AAd@ 0047ebc8     task_manager_dlg.obj
 0002:00003bd0       ??_C@_1BA@NMDNJJOO@?$AAP?$AAr?$AAo?$AAc?$AAe?$AAs?$AAs@ 0047ebd0     task_manager_dlg.obj
 0002:00003be0       ??_C@_17PDNKEHJO@?$AAP?$AAI?$AAD@ 0047ebe0     task_manager_dlg.obj
 0002:00003be8       ??_C@_1O@GGDILBNB@?$AAS?$AAt?$AAa?$AAt?$AAu?$AAs@ 0047ebe8     task_manager_dlg.obj
 0002:00003bf8       ??_C@_0BO@FDIJOGHP@CTaskManagerDlg?3?3LoadTaskList@ 0047ebf8     task_manager_dlg.obj
 0002:00003c18       ??_C@_1DG@MMCMAG@?$AA?$FL?$AAW?$AAH?$AA?$FN?$AA?5?$AA?$FL?$AA?$CF?$AAS?$AA?$FN?$AA?3?$AA?5?$AAD?$AAi?$AAd?$AAn@ 0047ec18     task_manager_dlg.obj
 0002:00003c50       ??_C@_1EE@JKLPPILI@?$AA?$FL?$AAW?$AAH?$AA?$FN?$AA?5?$AA?$FL?$AA?$CF?$AAS?$AA?$FN?$AA?3?$AA?5?$AAE?$AAr?$AAr?$AAo@ 0047ec50     task_manager_dlg.obj
 0002:00003c94       ??_C@_0BP@JJHLPBGN@CTaskManagerDlg?3?3AddItemToList@ 0047ec94     task_manager_dlg.obj
 0002:00003cb8       ??_C@_1HM@CNOPFBI@?$AA?$FL?$AAW?$AAH?$AA?$FN?$AA?5?$AA?$FL?$AA?$CF?$AAS?$AA?$FN?$AA?3?$AA?5?$AAF?$AAa?$AAi?$AAl@ 0047ecb8     task_manager_dlg.obj
 0002:00003d34       ??_C@_0BG@FJECJBNG@Failed?5to?5update?5data@ 0047ed34     task_manager_dlg.obj
 0002:00003d4c       ??_C@_0CB@MAHLEBIN@CTaskManagerDlg?3?3RefreshTaskLis@ 0047ed4c     task_manager_dlg.obj
 0002:00003d70       ??_C@_1BE@PNDFOHKG@?$AAS?$AAC?$AAR?$AAO?$AAL?$AAL?$AAB?$AAA?$AAR@ 0047ed70     task_manager_dlg.obj
 0002:00003d84       ??_C@_0BL@GOIGLPKN@unordered_map?1set?5too?5long@ 0047ed84     task_manager_dlg.obj
 0002:00003da0       ??_C@_0BK@OGNNAFAB@invalid?5hash?5bucket?5count@ 0047eda0     task_manager_dlg.obj
 0002:00003dc0       __xmm@00000009000000020000000400000007 0047edc0     task_manager_dlg.obj
 0002:00003dd0       __xmm@00000009000000070000000400000002 0047edd0     task_manager_dlg.obj
 0002:00003de0       __xmm@0000000f000000100000000000000000 0047ede0     task_manager_dlg.obj
 0002:00003df0       __xmm@000000c2000000c1000000c0000000bf 0047edf0     task_manager_dlg.obj
 0002:00003e00       __xmm@41f00000000000000000000000000000 0047ee00     task_manager_dlg.obj
 0002:00003e10       ??_C@_0BJ@PGBLBGEK@telemetry?4telemetryLevel@ 0047ee10     ui_control.obj
 0002:00003e2c       ??_C@_03MCADLMAF@off@      0047ee2c     ui_control.obj
 0002:00003e30       ??_C@_0M@MMHEJMLD@update?4mode@ 0047ee30     ui_control.obj
 0002:00003e3c       ??_C@_04CGFJFPFD@none@     0047ee3c     ui_control.obj
 0002:00003e44       ??_C@_0BI@HIFFHBC@update?4showReleaseNotes@ 0047ee44     ui_control.obj
 0002:00003e5c       ??_C@_0BM@BLMFDDMA@extensions?4autoCheckUpdates@ 0047ee5c     ui_control.obj
 0002:00003e78       ??_C@_0BG@PGIPKGDN@extensions?4autoUpdate@ 0047ee78     ui_control.obj
 0002:00003e90       ??_C@_0P@ICHNIPJF@files?4autoSave@ 0047ee90     ui_control.obj
 0002:00003ea0       ??_C@_0L@JEGLBFIM@afterDelay@ 0047eea0     ui_control.obj
 0002:00003eac       ??_C@_0N@FLBPNILH@window?4title@ 0047eeac     ui_control.obj
 0002:00003ebc       ??_C@_0DD@PNNFOIAP@$?$HLdirty?$HN$?$HLactiveEditorShort?$HN$?$HLs@ 0047eebc     ui_control.obj
 0002:00003ef0       ??_C@_0BM@LDEMFJAC@workbench?4enableExperiments@ 0047eef0     ui_control.obj
 0002:00003f0c       ??_C@_0CP@PGOAIKEJ@workbench?4settings?4enableNatura@ 0047ef0c     ui_control.obj
 0002:00003f3c       ??_C@_0CC@HOBMJPBK@workbench?4editor?4restoreViewSta@ 0047ef3c     ui_control.obj
 0002:00003f60       ??_C@_0BH@DMPKJFHH@workbench?4tips?4enabled@ 0047ef60     ui_control.obj
 0002:00003f78       ??_C@_0BI@LJPNMOFJ@workbench?4startupEditor@ 0047ef78     ui_control.obj
 0002:00003f90       ??_C@_0CA@DHHAGNBL@workbench?4layoutControl?4enabled@ 0047ef90     ui_control.obj
 0002:00003fb0       ??_C@_0CB@PIBIPPH@security?4workspace?4trust?4enable@ 0047efb0     ui_control.obj
 0002:00003fd4       ??_C@_0BK@MOGLOCBB@editor?4inlayHints?4enabled@ 0047efd4     ui_control.obj
 0002:00003ff0       ??_C@_0P@CBPLAKIJ@editor?4tabSize@ 0047eff0     ui_control.obj
 0002:00004000       ??_C@_0BE@FBCOHNCN@editor?4insertSpaces@ 0047f000     ui_control.obj
 0002:00004014       ??_C@_0BJ@FHGCPIJO@editor?4detectIndentation@ 0047f014     ui_control.obj
 0002:00004030       ??_C@_0M@DHEJECHH@clangd?4path@ 0047f030     ui_control.obj
 0002:0000403c       ??_C@_0CN@JDAGHHNA@$?$HLenv?3WINDHAWK_COMPILER_PATH?$HN?2b@ 0047f03c     ui_control.obj
 0002:0000406c       ??_C@_0BB@FFBEGLIG@clangd?4arguments@ 0047f06c     ui_control.obj
 0002:00004080       ??_C@_0BI@DKAKOGEF@?9header?9insertion?$DNnever@ 0047f080     ui_control.obj
 0002:00004098       ??_C@_0BE@PLFHOGOG@clangd?4checkUpdates@ 0047f098     ui_control.obj
 0002:000040ac       ??_C@_0BJ@HMIBANDA@window?4menuBarVisibility@ 0047f0ac     ui_control.obj
 0002:000040c8       ??_C@_07HGKHBOGE@compact@  0047f0c8     ui_control.obj
 0002:000040d0       ??_C@_0BO@BICJBGPI@workbench?4activityBar?4visible@ 0047f0d0     ui_control.obj
 0002:000040f0       ??_C@_0BK@LCHNPMBN@workbench?4editor?4showTabs@ 0047f0f0     ui_control.obj
 0002:0000410c       ??_C@_0BM@MJHMCILM@workbench?4statusBar?4visible@ 0047f10c     ui_control.obj
 0002:00004128       ??_C@_0M@BLENOGBP@git?4enabled@ 0047f128     ui_control.obj
 0002:00004134       ??_C@_0BB@NMDMFOLN@git?4showProgress@ 0047f134     ui_control.obj
 0002:00004148       ??_C@_0BI@NNKGMFCJ@git?4decorations?4enabled@ 0047f148     ui_control.obj
 0002:00004160       ??_C@_0BM@NBKFPGAL@git?4ignoreMissingGitWarning@ 0047f160     ui_control.obj
 0002:0000417c       ??_C@_0BI@KBHMFGCG@git?4ignoreLegacyWarning@ 0047f17c     ui_control.obj
 0002:00004194       ??_C@_0BO@GEMOAFBI@git?4ignoreWindowsGit27Warning@ 0047f194     ui_control.obj
 0002:000041b8       ??_C@_0EO@MCPBOCMC@$?$HLenv?3WINDHAWK_UI_PATH?$HN?2resourc@ 0047f1b8     ui_control.obj
 0002:00004208       ??_C@_13FPGAJAPJ@?$AA?2@   0047f208     ui_control.obj
 0002:00004210       ??_7_Iostream_error_category2@std@@6B@ 0047f210     ui_control.obj
 0002:00004228       ??_C@_08LLGCOLLL@iostream@ 0047f228     ui_control.obj
 0002:00004234       ?_Iostream_error@?4??message@_Iostream_error_category2@std@@UBE?AV?$basic_string@DU?$char_traits@D@std@@V?$allocator@D@2@@3@H@Z@4QBDB 0047f234     ui_control.obj
 0002:00004250       ??_7_Facet_base@std@@6B@   0047f250     ui_control.obj
 0002:0000425c       ??_C@_0BA@ELKIONDK@bad?5locale?5name@ 0047f25c     ui_control.obj
 0002:0000426c       ??_C@_05LAPONLG@false@     0047f26c     ui_control.obj
 0002:00004274       ??_C@_04LOAJBDKD@true@     0047f274     ui_control.obj
 0002:00004280       ??_7?$ctype@D@std@@6B@     0047f280     ui_control.obj
 0002:000042b0       ??_7failure@ios_base@std@@6B@ 0047f2b0     ui_control.obj
 0002:000042bc       ??_7ios_base@std@@6B@      0047f2bc     ui_control.obj
 0002:000042c0       ??_C@_0BF@PHHKMMFD@ios_base?3?3badbit?5set@ 0047f2c0     ui_control.obj
 0002:000042d8       ??_C@_0BG@FMKFHCIL@ios_base?3?3failbit?5set@ 0047f2d8     ui_control.obj
 0002:000042f0       ??_C@_0BF@OOHOMBOF@ios_base?3?3eofbit?5set@ 0047f2f0     ui_control.obj
 0002:00004308       ??_C@_01LFCBOECM@?4@       0047f308     ui_control.obj
 0002:00004310       ??_7?$basic_ios@DU?$char_traits@D@std@@@std@@6B@ 0047f310     ui_control.obj
 0002:00004318       ??_7?$basic_ostream@DU?$char_traits@D@std@@@std@@6B@ 0047f318     ui_control.obj
 0002:00004320       ??_7?$basic_streambuf@DU?$char_traits@D@std@@@std@@6B@ 0047f320     ui_control.obj
 0002:0000435c       ??_C@_0BD@EPABGGCG@create_directories@ 0047f35c     ui_control.obj
 0002:00004374       ??_7exception@detail@nlohmann@@6B@ 0047f374     ui_control.obj
 0002:0000437c       ??_C@_02PBFOLPKM@?$FN?5@   0047f37c     ui_control.obj
 0002:00004380       ??_C@_0BB@DHAIOKED@?$FLjson?4exception?4@ 0047f380     ui_control.obj
 0002:00004398       ??_7parse_error@detail@nlohmann@@6B@ 0047f398     ui_control.obj
 0002:000043a0       ??_C@_0M@BJIBBOFC@parse?5error@ 0047f3a0     ui_control.obj
 0002:000043ac       ??_C@_0M@DKBLOJA@parse_error@ 0047f3ac     ui_control.obj
 0002:000043b8       ??_C@_09LIPKCAOI@?0?5column?5@ 0047f3b8     ui_control.obj
 0002:000043c4       ??_C@_09BEOCNAAM@?5at?5line?5@ 0047f3c4     ui_control.obj
 0002:000043d4       ??_7invalid_iterator@detail@nlohmann@@6B@ 0047f3d4     ui_control.obj
 0002:000043dc       ??_C@_0BB@NIGHFCLN@invalid_iterator@ 0047f3dc     ui_control.obj
 0002:000043f4       ??_7type_error@detail@nlohmann@@6B@ 0047f3f4     ui_control.obj
 0002:000043fc       ??_C@_0L@CJHFOHFM@type_error@ 0047f3fc     ui_control.obj
 0002:0000440c       ??_7out_of_range@detail@nlohmann@@6B@ 0047f40c     ui_control.obj
 0002:00004414       ??_C@_0N@EPJFPCBB@out_of_range@ 0047f414     ui_control.obj
 0002:00004428       ??_7other_error@detail@nlohmann@@6B@ 0047f428     ui_control.obj
 0002:00004430       ??_C@_0M@DLKELGHM@other_error@ 0047f430     ui_control.obj
 0002:00004440       ??_7?$basic_istream@DU?$char_traits@D@std@@@std@@6B@ 0047f440     ui_control.obj
 0002:00004448       ?kCachedPowers@?1??get_cached_power_for_binary_exponent@dtoa_impl@detail@nlohmann@@YA?AUcached_power@234@H@Z@4V?$array@Ucached_power@dtoa_impl@detail@nlohmann@@$0EP@@std@@B 0047f448     ui_control.obj
 0002:00004938       ??_C@_0GC@KKHEGBAL@c?3?2Users?2kai99?2Desktop?2New?5fold@ 0047f938     ui_control.obj
 0002:0000499c       ??_C@_05MFEJDJP@value@     0047f99c     ui_control.obj
 0002:000049a4       ??_C@_0BB@GBBPBDAB@cannot?5get?5value@ 0047f9a4     ui_control.obj
 0002:000049b8       ??_C@_01GEODFPGF@?8@       0047f9b8     ui_control.obj
 0002:000049bc       ??_C@_0L@GEOKNAJI@object?5key@ 0047f9bc     ui_control.obj
 0002:000049c8       ??_C@_0BB@NAEMOGCE@object?5separator@ 0047f9c8     ui_control.obj
 0002:000049dc       ??_C@_0BK@GBHGKIGD@number?5overflow?5parsing?5?8@ 0047f9dc     ui_control.obj
 0002:000049f8       ??_C@_05HIFJDKLD@array@    0047f9f8     ui_control.obj
 0002:00004a00       ??_C@_06IEOJBDIK@object@   0047fa00     ui_control.obj
 0002:00004a08       ??_C@_08HEDMEGDA@?$DMU?$CL?$CF?44X?$DO@ 0047fa08     ui_control.obj
 0002:00004a14       ??_C@_0O@DLFJJHJG@syntax?5error?5@ 0047fa14     ui_control.obj
 0002:00004a24       ??_C@_01CLKCMJKC@?5@       0047fa24     ui_control.obj
 0002:00004a28       ??_C@_0P@ENHBMBLC@while?5parsing?5@ 0047fa28     ui_control.obj
 0002:00004a38       ??_C@_02KFKPNHPM@?9?5@     0047fa38     ui_control.obj
 0002:00004a3c       ??_C@_0P@CPMJEHAD@?$DL?5last?5read?3?5?8@ 0047fa3c     ui_control.obj
 0002:00004a4c       ??_C@_0M@GHJKFFPF@unexpected?5@ 0047fa4c     ui_control.obj
 0002:00004a58       ??_C@_0M@DKPGADPC@?$DL?5expected?5@ 0047fa58     ui_control.obj
 0002:00004a64       ??_C@_0CK@IFEIPALN@cannot?5use?5key?$CI?$CJ?5for?5non?9object@ 0047fa64     ui_control.obj
 0002:00004a90       ??_C@_0DB@MMKEGCHK@cannot?5compare?5iterators?5of?5dif@ 0047fa90     ui_control.obj
 0002:00004ac4       ??_C@_04MLLLIHIP@null@     0047fac4     ui_control.obj
 0002:00004acc       ??_C@_06ICGJLFIM@string@   0047facc     ui_control.obj
 0002:00004ad4       ??_C@_07GOBOHMJA@boolean@  0047fad4     ui_control.obj
 0002:00004adc       ??_C@_06FNFBAEBE@binary@   0047fadc     ui_control.obj
 0002:00004ae4       ??_C@_09BHELGMBL@discarded@ 0047fae4     ui_control.obj
 0002:00004af0       ??_C@_06EBGNBFIA@number@   0047faf0     ui_control.obj
 0002:00004af8       ??_C@_0BH@FCBMNGHJ@excessive?5array?5size?3?5@ 0047faf8     ui_control.obj
 0002:00004b10       ??_C@_0BI@JLEGJFPM@excessive?5object?5size?3?5@ 0047fb10     ui_control.obj
 0002:00004b28       ??_C@_0CN@IONLHPJF@invalid?5BOM?$DL?5must?5be?50xEF?50xBB?5@ 0047fb28     ui_control.obj
 0002:00004b58       ??_C@_0BA@NMKHNIFD@invalid?5literal@ 0047fb58     ui_control.obj
 0002:00004b68       ??_C@_0CP@HEACOJGN@961c151d2e87f2686a955a9be24d316@ 0047fb68     ui_control.obj
 0002:00004b98       ??_C@_0BA@JFDABGPH@?$DMuninitialized?$DO@ 0047fb98     ui_control.obj
 0002:00004ba8       ??_C@_0N@GBJNOFKB@true?5literal@ 0047fba8     ui_control.obj
 0002:00004bb8       ??_C@_0O@GPPJPPBD@false?5literal@ 0047fbb8     ui_control.obj
 0002:00004bc8       ??_C@_0N@LCPDBNFG@null?5literal@ 0047fbc8     ui_control.obj
 0002:00004bd8       ??_C@_0P@JJFCJNC@string?5literal@ 0047fbd8     ui_control.obj
 0002:00004be8       ??_C@_0P@CMLFDPOO@number?5literal@ 0047fbe8     ui_control.obj
 0002:00004bf8       ??_C@_03FJHCMEFA@?8?$FL?8@ 0047fbf8     ui_control.obj
 0002:00004bfc       ??_C@_03GBDPICLA@?8?$HL?8@ 0047fbfc     ui_control.obj
 0002:00004c00       ??_C@_03FNPPLIOC@?8?$FN?8@ 0047fc00     ui_control.obj
 0002:00004c04       ??_C@_03GFLCPOAC@?8?$HN?8@ 0047fc04     ui_control.obj
 0002:00004c08       ??_C@_03BAGHGFEH@?8?3?8@   0047fc08     ui_control.obj
 0002:00004c0c       ??_C@_03IMMLKIF@?8?0?8@    0047fc0c     ui_control.obj
 0002:00004c10       ??_C@_0O@JLFFEAGH@?$DMparse?5error?$DO@ 0047fc10     ui_control.obj
 0002:00004c20       ??_C@_0N@KMCIHGPC@end?5of?5input@ 0047fc20     ui_control.obj
 0002:00004c30       ??_C@_0BH@EOPOIFBB@?8?$FL?8?0?5?8?$HL?8?0?5or?5a?5literal@ 0047fc30     ui_control.obj
 0002:00004c48       ??_C@_0O@IDJJBCJJ@unknown?5token@ 0047fc48     ui_control.obj
 0002:00004c58       ??_C@_0CE@BGJPELCC@iterator?5does?5not?5fit?5current?5v@ 0047fc58     ui_control.obj
 0002:00004c7c       ??_C@_0BG@OAOABPIO@iterator?5out?5of?5range@ 0047fc7c     ui_control.obj
 0002:00004c94       ??_C@_0BJ@NPKCAHHP@cannot?5use?5erase?$CI?$CJ?5with?5@ 0047fc94     ui_control.obj
 0002:00004cb0       ??_C@_0CJ@CDLKIENK@invalid?5number?$DL?5expected?5digit?5@ 0047fcb0     ui_control.obj
 0002:00004cdc       ??_C@_0CJ@CBPMDKID@invalid?5number?$DL?5expected?5digit?5@ 0047fcdc     ui_control.obj
 0002:00004d08       ??_C@_0DL@FABMJCCP@invalid?5number?$DL?5expected?5?8?$CL?8?0?5?8@ 0047fd08     ui_control.obj
 0002:00004d44       ??_C@_0DD@LINOMLFL@invalid?5number?$DL?5expected?5digit?5@ 0047fd44     ui_control.obj
 0002:00004d78       ??_C@_0CG@NNDMIEDH@invalid?5comment?$DL?5missing?5closin@ 0047fd78     ui_control.obj
 0002:00004da0       ??_C@_0DA@PAGCIHNF@invalid?5comment?$DL?5expecting?5?8?1?8?5@ 0047fda0     ui_control.obj
 0002:00004dd0       ??_C@_0CG@MLGKFPBE@invalid?5string?3?5missing?5closing@ 0047fdd0     ui_control.obj
 0002:00004df8       ??_C@_0DG@LMKKCLLH@invalid?5string?3?5?8?2u?8?5must?5be?5fo@ 0047fdf8     ui_control.obj
 0002:00004e30       ??_C@_0EM@NBBIGKDA@invalid?5string?3?5surrogate?5U?$CLD80@ 0047fe30     ui_control.obj
 0002:00004e80       ??_C@_0EE@JEFCKMMK@invalid?5string?3?5surrogate?5U?$CLDC0@ 0047fe80     ui_control.obj
 0002:00004ec4       ??_C@_0DE@FDKDLPFL@invalid?5string?3?5forbidden?5chara@ 0047fec4     ui_control.obj
 0002:00004ef8       ??_C@_0EJ@NABLKLLF@invalid?5string?3?5control?5charact@ 0047fef8     ui_control.obj
 0002:00004f48       ??_C@_0EJ@CGIOMNAN@invalid?5string?3?5control?5charact@ 0047ff48     ui_control.obj
 0002:00004f98       ??_C@_0EJ@OKNGOHIK@invalid?5string?3?5control?5charact@ 0047ff98     ui_control.obj
 0002:00004fe8       ??_C@_0EJ@BPGBHIAL@invalid?5string?3?5control?5charact@ 0047ffe8     ui_control.obj
 0002:00005038       ??_C@_0EJ@FKCGPJCG@invalid?5string?3?5control?5charact@ 00480038     ui_control.obj
 0002:00005088       ??_C@_0EJ@GPLGMBKM@invalid?5string?3?5control?5charact@ 00480088     ui_control.obj
 0002:000050d8       ??_C@_0EJ@JAMEJLH@invalid?5string?3?5control?5charact@ 004800d8     ui_control.obj
 0002:00005128       ??_C@_0EJ@FMJJFDDO@invalid?5string?3?5control?5charact@ 00480128     ui_control.obj
 0002:00005178       ??_C@_0EO@HAMNCDCJ@invalid?5string?3?5control?5charact@ 00480178     ui_control.obj
 0002:000051c8       ??_C@_0EO@GMAPOODH@invalid?5string?3?5control?5charact@ 004801c8     ui_control.obj
 0002:00005218       ??_C@_0EO@BDKKLBCN@invalid?5string?3?5control?5charact@ 00480218     ui_control.obj
 0002:00005268       ??_C@_0EI@DPPPKLPC@invalid?5string?3?5control?5charact@ 00480268     ui_control.obj
 0002:000052b0       ??_C@_0EO@IFHEDFEP@invalid?5string?3?5control?5charact@ 004802b0     ui_control.obj
 0002:00005300       ??_C@_0EO@PJJBEEPG@invalid?5string?3?5control?5charact@ 00480300     ui_control.obj
 0002:00005350       ??_C@_0EI@LAJMIDAP@invalid?5string?3?5control?5charact@ 00480350     ui_control.obj
 0002:00005398       ??_C@_0EI@FBMHLBEA@invalid?5string?3?5control?5charact@ 00480398     ui_control.obj
 0002:000053e0       ??_C@_0EJ@MNJGJMON@invalid?5string?3?5control?5charact@ 004803e0     ui_control.obj
 0002:00005430       ??_C@_0EJ@MKMIGOL@invalid?5string?3?5control?5charact@ 00480430     ui_control.obj
 0002:00005480       ??_C@_0EJ@OPAPENBO@invalid?5string?3?5control?5charact@ 00480480     ui_control.obj
 0002:000054d0       ??_C@_0EJ@LBJBPEEN@invalid?5string?3?5control?5charact@ 004804d0     ui_control.obj
 0002:00005520       ??_C@_0EJ@PDDJNMLF@invalid?5string?3?5control?5charact@ 00480520     ui_control.obj
 0002:00005570       ??_C@_0EJ@KGLCIOHO@invalid?5string?3?5control?5charact@ 00480570     ui_control.obj
 0002:000055c0       ??_C@_0EJ@DANDDHBM@invalid?5string?3?5control?5charact@ 004805c0     ui_control.obj
 0002:00005610       ??_C@_0EJ@MJEDHOMH@invalid?5string?3?5control?5charact@ 00480610     ui_control.obj
 0002:00005660       ??_C@_0EJ@CMNKNMME@invalid?5string?3?5control?5charact@ 00480660     ui_control.obj
 0002:000056b0       ??_C@_0EI@PODKIIEG@invalid?5string?3?5control?5charact@ 004806b0     ui_control.obj
 0002:000056f8       ??_C@_0EJ@GHGHBGJE@invalid?5string?3?5control?5charact@ 004806f8     ui_control.obj
 0002:00005748       ??_C@_0EJ@DKHNKOP@invalid?5string?3?5control?5charact@ 00480748     ui_control.obj
 0002:00005798       ??_C@_0EI@LHNMAEPO@invalid?5string?3?5control?5charact@ 00480798     ui_control.obj
 0002:000057e0       ??_C@_0EI@EECAIDOI@invalid?5string?3?5control?5charact@ 004807e0     ui_control.obj
 0002:00005828       ??_C@_0EI@NGMGHBHA@invalid?5string?3?5control?5charact@ 00480828     ui_control.obj
 0002:00005870       ??_C@_0EI@BDNODKJO@invalid?5string?3?5control?5charact@ 00480870     ui_control.obj
 0002:000058b8       ??_C@_0CG@DBODJMKB@invalid?5string?3?5ill?9formed?5UTF?9@ 004808b8     ui_control.obj
 0002:000058e0       ??_C@_0BG@EOMJEIFA@vector?$DMbool?$DO?5too?5long@ 004808e0     ui_control.obj
 0002:000058fc       ??_7?$basic_filebuf@DU?$char_traits@D@std@@@std@@6B@ 004808fc     ui_control.obj
 0002:0000593c       ??_7?$basic_ifstream@DU?$char_traits@D@std@@@std@@6B@ 0048093c     ui_control.obj
 0002:00005940       ??_8?$basic_ifstream@DU?$char_traits@D@std@@@std@@7B@ 00480940     ui_control.obj
 0002:0000594c       ??_7?$basic_ofstream@DU?$char_traits@D@std@@@std@@6B@ 0048094c     ui_control.obj
 0002:00005950       ??_8?$basic_ofstream@DU?$char_traits@D@std@@@std@@7B@ 00480950     ui_control.obj
 0002:00005958       ??_C@_19PIJILKAI@?$AAU?$AAs?$AAe?$AAr@ 00480958     ui_control.obj
 0002:00005964       ??_C@_1BE@COGPIAIO@?$AAu?$AAs?$AAe?$AAr?$AA?9?$AAd?$AAa?$AAt?$AAa@ 00480964     ui_control.obj
 0002:00005978       ??_C@_1BM@IOABMDPN@?$AAs?$AAe?$AAt?$AAt?$AAi?$AAn?$AAg?$AAs?$AA?4?$AAj?$AAs?$AAo?$AAn@ 00480978     ui_control.obj
 0002:00005994       ??_C@_0CJ@DOKNNELK@?$GAanonymous?9namespace?8?3?3PrepareU@ 00480994     ui_control.obj
 0002:000059c0       ??_C@_1FK@IMAJPNNI@?$AA?$FL?$AAW?$AAH?$AA?$FN?$AA?5?$AA?$FL?$AA?$CF?$AAS?$AA?$FN?$AA?3?$AA?5?$AAP?$AAa?$AAr?$AAs@ 004809c0     ui_control.obj
 0002:00005a1c       ??_C@_0BA@JBBGLKFP@IsWow64Process2@ 00480a1c     ui_control.obj
 0002:00005a2c       ??_C@_1CK@LDFIIBIO@?$AAE?$AAL?$AAE?$AAC?$AAT?$AAR?$AAO?$AAN?$AA_?$AAR?$AAU?$AAN?$AA_?$AAA?$AAS@ 00480a2c     ui_control.obj
 0002:00005a58       ??_C@_1CA@KJBFCFLP@?$AAV?$AAS?$AAC?$AAO?$AAD?$AAE?$AA_?$AAP?$AAO?$AAR?$AAT?$AAA?$AAB?$AAL?$AAE@ 00480a58     ui_control.obj
 0002:00005a78       ??_C@_1CC@IELEFHGN@?$AAW?$AAI?$AAN?$AAD?$AAH?$AAA?$AAW?$AAK?$AA_?$AAU?$AAI?$AA_?$AAP?$AAA?$AAT@ 00480a78     ui_control.obj
 0002:00005a9c       ??_C@_1CO@GMMELMOG@?$AAW?$AAI?$AAN?$AAD?$AAH?$AAA?$AAW?$AAK?$AA_?$AAC?$AAO?$AAM?$AAP?$AAI?$AAL@ 00480a9c     ui_control.obj
 0002:00005acc       ??_C@_13JGCMLPCH@?$AA1@    00480acc     ui_control.obj
 0002:00005ad0       ??_C@_1CO@EDKHIOBL@?$AAW?$AAI?$AAN?$AAD?$AAH?$AAA?$AAW?$AAK?$AA_?$AAA?$AAR?$AAM?$AA6?$AA4?$AA_@ 00480ad0     ui_control.obj
 0002:00005b00       ??_C@_1BK@FCDPLLNM@?$AAV?$AAS?$AAC?$AAo?$AAd?$AAi?$AAu?$AAm?$AA?4?$AAe?$AAx?$AAe@ 00480b00     ui_control.obj
 0002:00005b1c       ??_C@_1BC@HINCHJAG@?$AAC?$AAo?$AAd?$AAe?$AA?4?$AAe?$AAx?$AAe@ 00480b1c     ui_control.obj
 0002:00005b30       ??_C@_0P@CPBGMNOA@ui_control?4cpp@ 00480b30     ui_control.obj
 0002:00005b40       ??_C@_1GC@LAJHLGAA@?$AA?$CC?$AA?5?$AA?9?$AA?9?$AAl?$AAo?$AAc?$AAa?$AAl?$AAe?$AA?$DN?$AAe?$AAn?$AA?5?$AA?9@ 00480b40     ui_control.obj
 0002:00005ba4       ??_C@_17CMBJCHDO@?$AA?$CC?$AA?5?$AA?$CC@ 00480ba4     ui_control.obj
 0002:00005bac       ??_C@_1CE@LGBOBMIL@?$AAW?$AAi?$AAn?$AAd?$AAh?$AAa?$AAw?$AAk?$AAR?$AAu?$AAn?$AAU?$AAI?$AAT?$AAa@ 00480bac     ui_control.obj
 0002:00005bd0       ??_C@_1CG@JLODHMDF@?$AAC?$AAh?$AAr?$AAo?$AAm?$AAe?$AA_?$AAW?$AAi?$AAd?$AAg?$AAe?$AAt?$AAW?$AAi@ 00480bd0     ui_control.obj
 0002:00005bf8       ??_C@_0DF@NOFIFNJC@UIControl?3?3GetOpenUIWindows?3?3?$DMl@ 00480bf8     ui_control.obj
 0002:00005c30       ??_C@_1HI@PANMPPBF@?$AA?$FL?$AAW?$AAH?$AA?$FN?$AA?5?$AA?$FL?$AA?$CF?$AAS?$AA?$FN?$AA?3?$AA?5?$AAE?$AAn?$AAu?$AAm@ 00480c30     ui_control.obj
 0002:00005ca8       ??_C@_0BP@KCJIFGG@UIControl?3?3RunUIOrBringToFront@ 00480ca8     ui_control.obj
 0002:00005cc8       ??_C@_1FA@GJOGPHGK@?$AA?$FL?$AAW?$AAH?$AA?$FN?$AA?5?$AA?$FL?$AA?$CF?$AAS?$AA?$FN?$AA?3?$AA?5?$AAR?$AAu?$AAn?$AAU@ 00480cc8     ui_control.obj
 0002:00005d18       __GUID_2faba4c7_4da9_4013_9697_20cc3fd40f85 00480d18     ui_control.obj
 0002:00005d28       ??_C@_0DD@MKOBOCJE@cannot?5use?5operator?$FL?$FN?5with?5a?5st@ 00480d28     ui_control.obj
 0002:00005d5c       ??_C@_0CL@PMFMHANH@cannot?5create?5object?5from?5initi@ 00480d5c     ui_control.obj
 0002:00005d8c       ??_7?$codecvt@DDU_Mbstatet@@@std@@6B@ 00480d8c     ui_control.obj
 0002:00005db4       ??_C@_02MCILKGOH@?$HL?$HN@ 00480db4     ui_control.obj
 0002:00005db8       ??_C@_02KCPFEJNG@?$HL?6@   00480db8     ui_control.obj
 0002:00005dbc       ??_C@_03GIPIADLC@?$CC?3?5@ 00480dbc     ui_control.obj
 0002:00005dc0       ??_C@_02MLAGHBOD@?0?6@     00480dc0     ui_control.obj
 0002:00005dc4       ??_C@_02BONOGKBK@?$CC?3@   00480dc4     ui_control.obj
 0002:00005dc8       ??_C@_02GPECMEKF@?$FL?$FN@ 00480dc8     ui_control.obj
 0002:00005dcc       ??_C@_02JKLIAPDG@?$FL?6@   00480dcc     ui_control.obj
 0002:00005dd0       ??_C@_0L@PKCNPMFP@?$CCbytes?$CC?3?5?$FL@ 00480dd0     ui_control.obj
 0002:00005ddc       ??_C@_02KEGNLNML@?0?5@     00480ddc     ui_control.obj
 0002:00005de0       ??_C@_03CMGEKAJC@?$FN?0?6@ 00480de0     ui_control.obj
 0002:00005de4       ??_C@_0M@MIEMHDME@?$CCsubtype?$CC?3?5@ 00480de4     ui_control.obj
 0002:00005df0       ??_C@_0L@EHLNBIHC@?$HL?$CCbytes?$CC?3?$FL@ 00480df0     ui_control.obj
 0002:00005dfc       ??_C@_0N@JHCCFCOC@?$FN?0?$CCsubtype?$CC?3@ 00480dfc     ui_control.obj
 0002:00005e0c       ??_C@_05OHFNCCIN@null?$HN@ 00480e0c     ui_control.obj
 0002:00005e14       ??_C@_0M@MKMGJFPL@?$DMdiscarded?$DO@ 00480e14     ui_control.obj
 0002:00005e24       ??_7?$output_stream_adapter@D@detail@nlohmann@@6B@ 00480e24     ui_control.obj
 0002:00005e30       ?digits_to_99@?1???$dump_integer@E$0A@@?$serializer@V?$basic_json@Uordered_map@nlohmann@@Vvector@std@@V?$basic_string@DU?$char_traits@D@std@@V?$allocator@D@2@@4@_N_J_KNVallocator@4@Uadl_serializer@2@V?$vector@EV?$allocator@E@std@@@4@@nlohmann@@@detail@nlohmann@@AAEXE@Z@4V?$array@V?$array@D$01@std@@$0GE@@std@@B 00480e30     ui_control.obj
 0002:00005ef8       ?digits_to_99@?1???$dump_integer@_J$0A@@?$serializer@V?$basic_json@Uordered_map@nlohmann@@Vvector@std@@V?$basic_string@DU?$char_traits@D@std@@V?$allocator@D@2@@4@_N_J_KNVallocator@4@Uadl_serializer@2@V?$vector@EV?$allocator@E@std@@@4@@nlohmann@@@detail@nlohmann@@AAEX_J@Z@4V?$array@V?$array@D$01@std@@$0GE@@std@@B 00480ef8     ui_control.obj
 0002:00005fc0       ?digits_to_99@?1???$dump_integer@_K$0A@@?$serializer@V?$basic_json@Uordered_map@nlohmann@@Vvector@std@@V?$basic_string@DU?$char_traits@D@std@@V?$allocator@D@2@@4@_N_J_KNVallocator@4@Uadl_serializer@2@V?$vector@EV?$allocator@E@std@@@4@@nlohmann@@@detail@nlohmann@@AAEX_K@Z@4V?$array@V?$array@D$01@std@@$0GE@@std@@B 00480fc0     ui_control.obj
 0002:0000608c       ??_7?$_Ref_count_obj2@V?$output_stream_adapter@D@detail@nlohmann@@@std@@6B@ 0048108c     ui_control.obj
 0002:0000609c       ??_C@_06OAIHNJFH@?2u?$CF04x@ 0048109c     ui_control.obj
 0002:000060a4       ??_C@_0N@MOBGICJD@?2u?$CF04x?2u?$CF04x@ 004810a4     ui_control.obj
 0002:000060b4       ??_C@_04CFJMJGDJ@?$CF?42X@ 004810b4     ui_control.obj
 0002:000060bc       ??_C@_04LBPDBBJF@?3?50x@   004810bc     ui_control.obj
 0002:000060c4       ??_C@_0BN@FGKMDFDN@invalid?5UTF?98?5byte?5at?5index?5@ 004810c4     ui_control.obj
 0002:000060e4       ??_C@_0CH@OBGEFBNA@incomplete?5UTF?98?5string?$DL?5last?5b@ 004810e4     ui_control.obj
 0002:0000610c       ??_C@_06JIPNAMDD@?2ufffd@  0048110c     ui_control.obj
 0002:00006114       ??_C@_03MPMOBIFF@?o?$LP?$LN@ 00481114     ui_control.obj
 0002:0000611c       ??_7?$__func@V<lambda_1>@?1???$GetEnvironmentVariableW@V?$basic_string@_WU?$char_traits@_W@std@@V?$allocator@_W@2@@std@@$0IA@@wil@@YAJPB_WAAV?$basic_string@_WU?$char_traits@_W@std@@V?$allocator@_W@2@@std@@@Z@$$A6AJPA_WIPAI@Z@__function@wistd@@6B@ 0048111c     ui_control.obj
 0002:00006130       ?utf8d@?1??decode@?$serializer@V?$basic_json@Uordered_map@nlohmann@@Vvector@std@@V?$basic_string@DU?$char_traits@D@std@@V?$allocator@D@2@@4@_N_J_KNVallocator@4@Uadl_serializer@2@V?$vector@EV?$allocator@E@std@@@4@@nlohmann@@@detail@nlohmann@@CAEAAEAAIE@Z@4V?$array@E$0BJA@@std@@B 00481130     ui_control.obj
 0002:000062c0       __real@0000000000000000    004812c0     ui_control.obj
 0002:000062d0       __xmm@000000bf000000800000008f00000080 004812d0     ui_control.obj
 0002:000062e0       __xmm@000000bf000000800000009f00000080 004812e0     ui_control.obj
 0002:000062f0       __xmm@000000bf00000080000000bf00000080 004812f0     ui_control.obj
 0002:00006300       __xmm@000000bf00000080000000bf00000090 00481300     ui_control.obj
 0002:00006310       __xmm@000000bf00000080000000bf000000a0 00481310     ui_control.obj
 0002:00006320       __xmm@80000000000000008000000000000000 00481320     ui_control.obj
 0002:00006330       ??_C@_0BG@GBJCDJOP@CreateFileTransactedW@ 00481330     update_checker.obj
 0002:0000634c       ??_7CSession@WinHTTPWrappers@@6B@ 0048134c     update_checker.obj
 0002:0000635c       ??_7CConnection@WinHTTPWrappers@@6B@ 0048135c     update_checker.obj
 0002:00006368       ??_C@_1FE@CMMDNGN@?$AAh?$AAt?$AAt?$AAp?$AAs?$AA?3?$AA?1?$AA?1?$AAu?$AAp?$AAd?$AAa?$AAt?$AAe?$AA?4@ 00481368     update_checker.obj
 0002:000063bc       ??_C@_1CC@MEDHCMFN@?$AAW?$AAi?$AAn?$AAd?$AAh?$AAa?$AAw?$AAk?$AA?1?$AA1?$AA?4?$AA7?$AA?4?$AA3?$AA?5@ 004813bc     update_checker.obj
 0002:000063e0       ??_C@_1BG@GBNCPONI@?$AA?$DL?$AA?5?$AAp?$AAo?$AAr?$AAt?$AAa?$AAb?$AAl?$AAe@ 004813e0     update_checker.obj
 0002:000063f8       ??_C@_13DIBMAFH@?$AA?$CJ@  004813f8     update_checker.obj
 0002:000063fc       ??_C@_19JLKJCDCM@?$AAP?$AAO?$AAS?$AAT@ 004813fc     update_checker.obj
 0002:00006408       ??_C@_1DO@PAKGOMDL@?$AAC?$AAo?$AAn?$AAt?$AAe?$AAn?$AAt?$AA?9?$AAT?$AAy?$AAp?$AAe?$AA?3?$AA?5?$AAa@ 00481408     update_checker.obj
 0002:00006448       ??_C@_0BD@EOAJEONH@update_checker?4cpp@ 00481448     update_checker.obj
 0002:0000645c       ??_C@_0BO@BHEJDDPC@UpdateChecker?3?3HandleResponse@ 0048145c     update_checker.obj
 0002:00006480       ??_C@_1GA@NBKIFCFA@?$AA?$FL?$AAW?$AAH?$AA?$FN?$AA?5?$AA?$FL?$AA?$CF?$AAS?$AA?$FN?$AA?3?$AA?5?$AAH?$AAa?$AAn?$AAd@ 00481480     update_checker.obj
 0002:000064e0       ??_C@_0BN@PBOPNPGJ@UpdateChecker?3?3OnRequestDone@ 004814e0     update_checker.obj
 0002:00006500       ??_C@_1EG@LADFGPFO@?$AA?$FL?$AAW?$AAH?$AA?$FN?$AA?5?$AA?$FL?$AA?$CF?$AAS?$AA?$FN?$AA?3?$AA?5?$AAG?$AAe?$AAt?$AA?5@ 00481500     update_checker.obj
 0002:00006580       ??_C@_0BB@GCADKGJO@map?1set?5too?5long@ 00481580     userprofile.obj
 0002:00006594       ??_C@_0DD@IDPNBBOI@?$GAanonymous?9namespace?8?3?3ReadUser@ 00481594     userprofile.obj
 0002:000065c8       ??_C@_1GA@PPOIJFEC@?$AA?$FL?$AAW?$AAH?$AA?$FN?$AA?5?$AA?$FL?$AA?$CF?$AAS?$AA?$FN?$AA?3?$AA?5?$AAP?$AAa?$AAr?$AAs@ 004815c8     userprofile.obj
 0002:00006628       ??_C@_02EGCJHIOB@id@       00481628     userprofile.obj
 0002:0000662c       ??_C@_02EHCHIAMF@os@       0048162c     userprofile.obj
 0002:00006630       ??_C@_03CGOPKBCD@app@      00481630     userprofile.obj
 0002:00006634       ??_C@_07CPCPJPKL@version@  00481634     userprofile.obj
 0002:0000663c       ??_C@_05FEKONFPD@1?47?43@  0048163c     userprofile.obj
 0002:00006644       ??_C@_0CO@LPLFOLPH@?$GAanonymous?9namespace?8?3?3GetLocal@ 00481644     userprofile.obj
 0002:00006678       ??_C@_1GE@HOHMOANL@?$AA?$FL?$AAW?$AAH?$AA?$FN?$AA?5?$AA?$FL?$AA?$CF?$AAS?$AA?$FN?$AA?3?$AA?5?$AAU?$AAp?$AAd?$AAa@ 00481678     userprofile.obj
 0002:000066dc       ??_C@_0O@KBHDGKDP@latestVersion@ 004816dc     userprofile.obj
 0002:000066ec       ??_C@_04HAPGBFIC@mods@     004816ec     userprofile.obj
 0002:000066f4       ??_C@_0CJ@NCGEAAJD@UserProfile?3?3UpdateContentWithO@ 004816f4     userprofile.obj
 0002:00006720       ??_C@_0M@BPLKEMIM@?8?5not?5found@ 00481720     userprofile.obj
 0002:0000672c       ??_C@_05IJGDECGL@key?5?8@  0048172c     userprofile.obj
 0002:00006734       ??_C@_0BG@GLMDJNDN@cannot?5use?5at?$CI?$CJ?5with?5@ 00481734     userprofile.obj
 0002:0000674c       ??_C@_0BG@BBKNOMOH@invalid?5map?$DMK?0?5T?$DO?5key@ 0048174c     userprofile.obj
 0002:00006768       ??_7?$output_string_adapter@DV?$basic_string@DU?$char_traits@D@std@@V?$allocator@D@2@@std@@@detail@nlohmann@@6B@ 00481768     userprofile.obj
 0002:00006778       ?digits_to_99@?1???$dump_integer@E$0A@@?$serializer@V?$basic_json@Vmap@std@@Vvector@2@V?$basic_string@DU?$char_traits@D@std@@V?$allocator@D@2@@2@_N_J_KNVallocator@2@Uadl_serializer@nlohmann@@V?$vector@EV?$allocator@E@std@@@2@@nlohmann@@@detail@nlohmann@@AAEXE@Z@4V?$array@V?$array@D$01@std@@$0GE@@std@@B 00481778     userprofile.obj
 0002:00006840       ?digits_to_99@?1???$dump_integer@_J$0A@@?$serializer@V?$basic_json@Vmap@std@@Vvector@2@V?$basic_string@DU?$char_traits@D@std@@V?$allocator@D@2@@2@_N_J_KNVallocator@2@Uadl_serializer@nlohmann@@V?$vector@EV?$allocator@E@std@@@2@@nlohmann@@@detail@nlohmann@@AAEX_J@Z@4V?$array@V?$array@D$01@std@@$0GE@@std@@B 00481840     userprofile.obj
 0002:00006908       ?digits_to_99@?1???$dump_integer@_K$0A@@?$serializer@V?$basic_json@Vmap@std@@Vvector@2@V?$basic_string@DU?$char_traits@D@std@@V?$allocator@D@2@@2@_N_J_KNVallocator@2@Uadl_serializer@nlohmann@@V?$vector@EV?$allocator@E@std@@@2@@nlohmann@@@detail@nlohmann@@AAEX_K@Z@4V?$array@V?$array@D$01@std@@$0GE@@std@@B 00481908     userprofile.obj
 0002:000069d4       ??_7?$_Ref_count_obj2@V?$output_string_adapter@DV?$basic_string@DU?$char_traits@D@std@@V?$allocator@D@2@@std@@@detail@nlohmann@@@std@@6B@ 004819d4     userprofile.obj
 0002:000069e4       ??_C@_0BN@GPCBHMHC@type?5must?5be?5string?0?5but?5is?5@ 004819e4     userprofile.obj
 0002:00006a08       ?utf8d@?1??decode@?$serializer@V?$basic_json@Vmap@std@@Vvector@2@V?$basic_string@DU?$char_traits@D@std@@V?$allocator@D@2@@2@_N_J_KNVallocator@2@Uadl_serializer@nlohmann@@V?$vector@EV?$allocator@E@std@@@2@@nlohmann@@@detail@nlohmann@@CAEAAEAAIE@Z@4V?$array@E$0BJA@@std@@B 00481a08     userprofile.obj
 0002:00006b9c       ??_7CToolkitDlg@@6B@       00481b9c     toolkit_dlg.obj
 0002:00006bb0       __xmm@000003ee000003ed000003ec000003eb 00481bb0     toolkit_dlg.obj
 0002:00006bc0       _CLSID_TaskScheduler       00481bc0     taskschd:taskschd.obj
 0002:00006bd0       _CLSID_StdGlobalInterfaceTable 00481bd0     uuid:cguid_i.obj
 0002:00006be0       _GUID_ATLVer110            00481be0     atls:atlbase.obj
 0002:00006bf0       ??_C@_1IC@ONKHOIDK@?$AAE?$AAR?$AAR?$AAO?$AAR?$AA?5?$AA?3?$AA?5?$AAU?$AAn?$AAa?$AAb?$AAl?$AAe?$AA?5@ 00481bf0     atls:atlbase.obj
 0002:00006c74       ??_C@_0N@FJEPLCIH@atlthunk?4dll@ 00481c74     atls:atlthunk.obj
 0002:00006c84       ??_C@_0BG@GAKFHCBM@AtlThunk_AllocateData@ 00481c84     atls:atlthunk.obj
 0002:00006c9c       ??_C@_0BC@JKONFIAH@AtlThunk_InitData@ 00481c9c     atls:atlthunk.obj
 0002:00006cb0       ??_C@_0BE@IAOEELAK@AtlThunk_DataToCode@ 00481cb0     atls:atlthunk.obj
 0002:00006cc4       ??_C@_0BC@GBGKAIPI@AtlThunk_FreeData@ 00481cc4     atls:atlthunk.obj
 0002:00006cd8       ??_C@_0P@GHFPNOJB@bad?5allocation@ 00481cd8     libcpmt:xthrow.obj
 0002:00006cec       ??_7bad_function_call@std@@6B@ 00481cec     libcpmt:xthrow.obj
 0002:00006cf4       ??_C@_0BC@DPJNKNAF@bad?5function?5call@ 00481cf4     libcpmt:xthrow.obj
 0002:00006d0c       ??_7length_error@std@@6B@  00481d0c     libcpmt:xthrow.obj
 0002:00006d18       ??_7out_of_range@std@@6B@  00481d18     libcpmt:xthrow.obj
 0002:00009270       __xmm@ff00ff00ff00ff00ff00ff00ff00ff00 00484270     libcpmt:vector_algorithms.obj
 0002:00009280       __ymm@0000001f0000001f0000001f0000001f0000001f0000001f0000001f0000001f 00484280     libcpmt:vector_algorithms.obj
 0002:000092a0       __ymm@ffffff00ffffff00ffffff00ffffff00ffffff00ffffff00ffffff00ffffff00 004842a0     libcpmt:vector_algorithms.obj
 0002:000092c0       ?nothrow@std@@3Unothrow_t@1@B 004842c0     libcpmt:nothrow.obj
 0002:000093c8       ??_C@_1CM@BFAMBNFD@?$AA?$CB?$AAx?$AA?9?$AAs?$AAy?$AAs?$AA?9?$AAd?$AAe?$AAf?$AAa?$AAu?$AAl?$AAt?$AA?9@ 004843c8     libcpmt:syserror_import_lib.obj
 0002:00009910       ??_C@_07IPNMCAN@success@   00484910     libcpmt:syserror.obj
 0002:00009918       ??_C@_0BN@LKKBCCDB@address?5family?5not?5supported@ 00484918     libcpmt:syserror.obj
 0002:00009938       ??_C@_0P@LDMLAFHI@address?5in?5use@ 00484938     libcpmt:syserror.obj
 0002:00009948       ??_C@_0BG@DHPCNBJB@address?5not?5available@ 00484948     libcpmt:syserror.obj
 0002:00009960       ??_C@_0BC@DFIBIBIL@already?5connected@ 00484960     libcpmt:syserror.obj
 0002:00009974       ??_C@_0BH@CAKOHOMI@argument?5list?5too?5long@ 00484974     libcpmt:syserror.obj
 0002:0000998c       ??_C@_0BH@CGIMPKIM@argument?5out?5of?5domain@ 0048498c     libcpmt:syserror.obj
 0002:000099a4       ??_C@_0M@KGHGGJGL@bad?5address@ 004849a4     libcpmt:syserror.obj
 0002:000099b0       ??_C@_0BE@MPJPGCEO@bad?5file?5descriptor@ 004849b0     libcpmt:syserror.obj
 0002:000099c4       ??_C@_0M@PMMIEFCP@bad?5message@ 004849c4     libcpmt:syserror.obj
 0002:000099d0       ??_C@_0M@KPHOFDBE@broken?5pipe@ 004849d0     libcpmt:syserror.obj
 0002:000099dc       ??_C@_0BD@MGNDDEGM@connection?5aborted@ 004849dc     libcpmt:syserror.obj
 0002:000099f0       ??_C@_0BP@KAIHPOGN@connection?5already?5in?5progress@ 004849f0     libcpmt:syserror.obj
 0002:00009a10       ??_C@_0BD@PJLIIJEL@connection?5refused@ 00484a10     libcpmt:syserror.obj
 0002:00009a24       ??_C@_0BB@IECNJNOI@connection?5reset@ 00484a24     libcpmt:syserror.obj
 0002:00009a38       ??_C@_0BC@PPHBOELF@cross?5device?5link@ 00484a38     libcpmt:syserror.obj
 0002:00009a4c       ??_C@_0BN@KDMIFEIP@destination?5address?5required@ 00484a4c     libcpmt:syserror.obj
 0002:00009a6c       ??_C@_0BI@NGCEHDD@device?5or?5resource?5busy@ 00484a6c     libcpmt:syserror.obj
 0002:00009a84       ??_C@_0BE@JIDOCPHM@directory?5not?5empty@ 00484a84     libcpmt:syserror.obj
 0002:00009a98       ??_C@_0BI@BNCLIGPB@executable?5format?5error@ 00484a98     libcpmt:syserror.obj
 0002:00009ab0       ??_C@_0M@MIDIAGJP@file?5exists@ 00484ab0     libcpmt:syserror.obj
 0002:00009abc       ??_C@_0P@DNAJLBJK@file?5too?5large@ 00484abc     libcpmt:syserror.obj
 0002:00009acc       ??_C@_0BC@EJHOMAAK@filename?5too?5long@ 00484acc     libcpmt:syserror.obj
 0002:00009ae0       ??_C@_0BH@KEFGLDAF@function?5not?5supported@ 00484ae0     libcpmt:syserror.obj
 0002:00009af8       ??_C@_0BB@DHFDFGDM@host?5unreachable@ 00484af8     libcpmt:syserror.obj
 0002:00009b0c       ??_C@_0BD@JPHBMONG@identifier?5removed@ 00484b0c     libcpmt:syserror.obj
 0002:00009b20       ??_C@_0BG@CDNPAGJK@illegal?5byte?5sequence@ 00484b20     libcpmt:syserror.obj
 0002:00009b38       ??_C@_0CD@BNPLBMNA@inappropriate?5io?5control?5operat@ 00484b38     libcpmt:syserror.obj
 0002:00009b5c       ??_C@_0M@EGEKIIMP@interrupted@ 00484b5c     libcpmt:syserror.obj
 0002:00009b68       ??_C@_0BB@FCMFBGOM@invalid?5argument@ 00484b68     libcpmt:syserror.obj
 0002:00009b7c       ??_C@_0N@OHAFKDEK@invalid?5seek@ 00484b7c     libcpmt:syserror.obj
 0002:00009b8c       ??_C@_08GLNPIFBN@io?5error@ 00484b8c     libcpmt:syserror.obj
 0002:00009b98       ??_C@_0P@FLLDBIDK@is?5a?5directory@ 00484b98     libcpmt:syserror.obj
 0002:00009ba8       ??_C@_0N@IFLPBIOP@message?5size@ 00484ba8     libcpmt:syserror.obj
 0002:00009bb8       ??_C@_0N@KIIEAAIO@network?5down@ 00484bb8     libcpmt:syserror.obj
 0002:00009bc8       ??_C@_0O@FNPDBHEE@network?5reset@ 00484bc8     libcpmt:syserror.obj
 0002:00009bd8       ??_C@_0BE@IFNCKGE@network?5unreachable@ 00484bd8     libcpmt:syserror.obj
 0002:00009bec       ??_C@_0BA@PFFCAOFK@no?5buffer?5space@ 00484bec     libcpmt:syserror.obj
 0002:00009bfc       ??_C@_0BB@IEPBLJHK@no?5child?5process@ 00484bfc     libcpmt:syserror.obj
 0002:00009c10       ??_C@_07PLECNNKG@no?5link@ 00484c10     libcpmt:syserror.obj
 0002:00009c18       ??_C@_0BC@NJECKMKE@no?5lock?5available@ 00484c18     libcpmt:syserror.obj
 0002:00009c2c       ??_C@_0BF@PBGGPKKE@no?5message?5available@ 00484c2c     libcpmt:syserror.obj
 0002:00009c44       ??_C@_0L@EDOLMPAK@no?5message@ 00484c44     libcpmt:syserror.obj
 0002:00009c50       ??_C@_0BD@EAMBFIDF@no?5protocol?5option@ 00484c50     libcpmt:syserror.obj
 0002:00009c64       ??_C@_0BD@IJDJKDEA@no?5space?5on?5device@ 00484c64     libcpmt:syserror.obj
 0002:00009c78       ??_C@_0BE@MKFDAFMP@no?5stream?5resources@ 00484c78     libcpmt:syserror.obj
 0002:00009c8c       ??_C@_0BK@IMCPHCBI@no?5such?5device?5or?5address@ 00484c8c     libcpmt:syserror.obj
 0002:00009ca8       ??_C@_0P@FDINDDOK@no?5such?5device@ 00484ca8     libcpmt:syserror.obj
 0002:00009cb8       ??_C@_0BK@NDOCBPGE@no?5such?5file?5or?5directory@ 00484cb8     libcpmt:syserror.obj
 0002:00009cd4       ??_C@_0BA@ENLPPKBN@no?5such?5process@ 00484cd4     libcpmt:syserror.obj
 0002:00009ce4       ??_C@_0BA@DOCPFFJG@not?5a?5directory@ 00484ce4     libcpmt:syserror.obj
 0002:00009cf4       ??_C@_0N@POEIPGGF@not?5a?5socket@ 00484cf4     libcpmt:syserror.obj
 0002:00009d04       ??_C@_0N@LGAPMMPI@not?5a?5stream@ 00484d04     libcpmt:syserror.obj
 0002:00009d14       ??_C@_0O@GLMIBBEG@not?5connected@ 00484d14     libcpmt:syserror.obj
 0002:00009d24       ??_C@_0BC@ENOOLCNF@not?5enough?5memory@ 00484d24     libcpmt:syserror.obj
 0002:00009d38       ??_C@_0O@NHEDABJP@not?5supported@ 00484d38     libcpmt:syserror.obj
 0002:00009d48       ??_C@_0BD@MOLBPMEA@operation?5canceled@ 00484d48     libcpmt:syserror.obj
 0002:00009d5c       ??_C@_0BG@KDKHOPCO@operation?5in?5progress@ 00484d5c     libcpmt:syserror.obj
 0002:00009d74       ??_C@_0BI@OHIEJAAB@operation?5not?5permitted@ 00484d74     libcpmt:syserror.obj
 0002:00009d8c       ??_C@_0BI@LNEGIFLN@operation?5not?5supported@ 00484d8c     libcpmt:syserror.obj
 0002:00009da4       ??_C@_0BG@OEMDKMEE@operation?5would?5block@ 00484da4     libcpmt:syserror.obj
 0002:00009dbc       ??_C@_0L@BLPOFLNJ@owner?5dead@ 00484dbc     libcpmt:syserror.obj
 0002:00009dc8       ??_C@_0BC@CIJDGCDI@permission?5denied@ 00484dc8     libcpmt:syserror.obj
 0002:00009ddc       ??_C@_0P@FNPOCJBE@protocol?5error@ 00484ddc     libcpmt:syserror.obj
 0002:00009dec       ??_C@_0BH@JPPPLHJB@protocol?5not?5supported@ 00484dec     libcpmt:syserror.obj
 0002:00009e04       ??_C@_0BG@EICBIHDP@read?5only?5file?5system@ 00484e04     libcpmt:syserror.obj
 0002:00009e1c       ??_C@_0BO@BJBOMOEJ@resource?5deadlock?5would?5occur@ 00484e1c     libcpmt:syserror.obj
 0002:00009e3c       ??_C@_0BP@LKNGHENJ@resource?5unavailable?5try?5again@ 00484e3c     libcpmt:syserror.obj
 0002:00009e5c       ??_C@_0BE@GOIPJJHG@result?5out?5of?5range@ 00484e5c     libcpmt:syserror.obj
 0002:00009e70       ??_C@_0BG@MPLKFPAE@state?5not?5recoverable@ 00484e70     libcpmt:syserror.obj
 0002:00009e88       ??_C@_0P@DIIFGFCG@stream?5timeout@ 00484e88     libcpmt:syserror.obj
 0002:00009e98       ??_C@_0P@IPFDMIFL@text?5file?5busy@ 00484e98     libcpmt:syserror.obj
 0002:00009ea8       ??_C@_09KJPPMAOI@timed?5out@ 00484ea8     libcpmt:syserror.obj
 0002:00009eb4       ??_C@_0BO@HACHBEKI@too?5many?5files?5open?5in?5system@ 00484eb4     libcpmt:syserror.obj
 0002:00009ed4       ??_C@_0BE@GHAFMPAH@too?5many?5files?5open@ 00484ed4     libcpmt:syserror.obj
 0002:00009ee8       ??_C@_0P@HCOMKFCC@too?5many?5links@ 00484ee8     libcpmt:syserror.obj
 0002:00009ef8       ??_C@_0BO@EFGOJEF@too?5many?5symbolic?5link?5levels@ 00484ef8     libcpmt:syserror.obj
 0002:00009f18       ??_C@_0BA@KGKGOOJA@value?5too?5large@ 00484f18     libcpmt:syserror.obj
 0002:00009f28       ??_C@_0BE@MIEJDDNH@wrong?5protocol?5type@ 00484f28     libcpmt:syserror.obj
 0002:00009f3c       ??_C@_0O@BFJCFAAK@unknown?5error@ 00484f3c     libcpmt:syserror.obj
 0002:00009f4c       ??_C@_0O@NNMIPI@GetTempPath2W@ 00484f4c     libcpmt:filesystem.obj
 0002:00009f60       ??_7_Locimp@locale@std@@6B@ 00484f60     libcpmt:locale0.obj
 0002:00009f6c       ??_C@_01NBENCBCI@?$CK@     00484f6c     libcpmt:locale0.obj
 0002:00009f70       ??_C@_01GFHCPBMG@C@        00484f70     libcpmt:locale0.obj
 0002:00009f78       ?_BADOFF@std@@3_JB         00484f78     libcpmt:ios.obj
 0002:00009fd4       ??_C@_13BPINEIPE@?$AAr@    00484fd4     libcpmt:fiopen.obj
 0002:00009fd8       ??_C@_13CIFDLIMG@?$AAw@    00484fd8     libcpmt:fiopen.obj
 0002:00009fdc       ??_C@_13FNCBLAIF@?$AAa@    00484fdc     libcpmt:fiopen.obj
 0002:00009fe0       ??_C@_15JJPIMNBO@?$AAr?$AAb@ 00484fe0     libcpmt:fiopen.obj
 0002:00009fe8       ??_C@_15MJDFFMKN@?$AAw?$AAb@ 00484fe8     libcpmt:fiopen.obj
 0002:00009ff0       ??_C@_15BMLKLNCL@?$AAa?$AAb@ 00484ff0     libcpmt:fiopen.obj
 0002:00009ff8       ??_C@_15HPOENKKJ@?$AAr?$AA?$CL@ 00484ff8     libcpmt:fiopen.obj
 0002:0000a000       ??_C@_15CPCJELBK@?$AAw?$AA?$CL@ 00485000     libcpmt:fiopen.obj
 0002:0000a008       ??_C@_15PKKGKKJM@?$AAa?$AA?$CL@ 00485008     libcpmt:fiopen.obj
 0002:0000a010       ??_C@_17IIOMHMAG@?$AAr?$AA?$CL?$AAb@ 00485010     libcpmt:fiopen.obj
 0002:0000a018       ??_C@_17MAAMHCGC@?$AAw?$AA?$CL?$AAb@ 00485018     libcpmt:fiopen.obj
 0002:0000a020       ??_C@_17HKNIEKMO@?$AAa?$AA?$CL?$AAb@ 00485020     libcpmt:fiopen.obj
 0002:0000a028       ??_C@_15PGJBOLFG@?$AAw?$AAx@ 00485028     libcpmt:fiopen.obj
 0002:0000a030       ??_C@_17PPKIMFJJ@?$AAw?$AA?$CL?$AAx@ 00485030     libcpmt:fiopen.obj
 0002:0000a038       ??_C@_17NHPPJODN@?$AAw?$AAb?$AAx@ 00485038     libcpmt:fiopen.obj
 0002:0000a040       ??_C@_19EHELFBEK@?$AAw?$AA?$CL?$AAb?$AAx@ 00485040     libcpmt:fiopen.obj
 0002:0000a090       __xmm@7fffffffffffffff7fffffffffffffff 00485090     libcpmt:locale.obj
 0002:0000a0a0       ??_C@_01JOAMLHOP@?9@       004850a0     libcpmt:wlocale.obj
 0002:0000a0a4       ??_C@_13IMODFHAA@?$AA?9@   004850a4     libcpmt:wlocale.obj
 0002:0000a148       ??_C@_0BP@FPNJPEJC@GetSystemTimePreciseAsFileTime@ 00485148     libcpmt:winapisupp.obj
 0002:0000a174       ??_7type_info@@6B@         00485174     LIBCMT:std_type_info_static.obj
 0002:0000a1b0       __pDestructExceptionObject 004851b0     libvcruntime:ehhelpers.obj
 0002:0000a1c0       __xmm@00000000000000000000000000000000 004851c0     libvcruntime:wcsstr.obj
 0002:0000a1d4       ??_7bad_exception@std@@6B@ 004851d4     libvcruntime:frame.obj
 0002:0000a1dc       ??_C@_0O@DPKOEFFH@bad?5exception@ 004851dc     libvcruntime:frame.obj
 0002:0000a578       ??_C@_08EHJDFFNH@__based?$CI@ 00485578     libvcruntime:undname.obj
 0002:0000a584       ??_C@_07KOLFKCDI@__cdecl@  00485584     libvcruntime:undname.obj
 0002:0000a58c       ??_C@_09IFJBGAPI@__stdcall@ 0048558c     libvcruntime:undname.obj
 0002:0000a598       ??_C@_0L@NPHFGOKO@__thiscall@ 00485598     libvcruntime:undname.obj
 0002:0000a5a4       ??_C@_0L@JMKHOMEK@__fastcall@ 004855a4     libvcruntime:undname.obj
 0002:0000a5b0       ??_C@_0N@BCKKPABJ@__vectorcall@ 004855b0     libvcruntime:undname.obj
 0002:0000a5c0       ??_C@_0BA@NAGGFLJK@__preserve_none@ 004855c0     libvcruntime:undname.obj
 0002:0000a5d0       ??_C@_09HIJEGCPM@__clrcall@ 004855d0     libvcruntime:undname.obj
 0002:0000a5dc       ??_C@_06GHPCKEAG@__eabi@   004855dc     libvcruntime:undname.obj
 0002:0000a5e4       ??_C@_09IOPIDJLG@__swift_1@ 004855e4     libvcruntime:undname.obj
 0002:0000a5f0       ??_C@_09KFNFGKHF@__swift_2@ 004855f0     libvcruntime:undname.obj
 0002:0000a5fc       ??_C@_09LMMOFLDE@__swift_3@ 004855fc     libvcruntime:undname.obj
 0002:0000a608       ??_C@_07JOMMBBKO@__ptr64@  00485608     libvcruntime:undname.obj
 0002:0000a610       ??_C@_0L@PILCLIHE@__restrict@ 00485610     libvcruntime:undname.obj
 0002:0000a61c       ??_C@_0M@GFIIJFMG@__unaligned@ 0048561c     libvcruntime:undname.obj
 0002:0000a628       ??_C@_09DHDLOLLB@restrict?$CI@ 00485628     libvcruntime:undname.obj
 0002:0000a634       ??_C@_04NIHEBCM@?5new@     00485634     libvcruntime:undname.obj
 0002:0000a63c       ??_C@_07FPCDHGMM@?5delete@ 0048563c     libvcruntime:undname.obj
 0002:0000a644       ??_C@_01NEMOKFLO@?$DN@     00485644     libvcruntime:undname.obj
 0002:0000a648       ??_C@_02GPIOPFAK@?$DO?$DO@ 00485648     libvcruntime:undname.obj
 0002:0000a64c       ??_C@_02FODMEDOG@?$DM?$DM@ 0048564c     libvcruntime:undname.obj
 0002:0000a650       ??_C@_01DCLJPIOD@?$CB@     00485650     libvcruntime:undname.obj
 0002:0000a654       ??_C@_02EGOFBIJA@?$DN?$DN@ 00485654     libvcruntime:undname.obj
 0002:0000a658       ??_C@_02FDNJECIE@?$CB?$DN@ 00485658     libvcruntime:undname.obj
 0002:0000a65c       ??_C@_08LHJFAFGD@operator@ 0048565c     libvcruntime:undname.obj
 0002:0000a668       ??_C@_02HBOOOICD@?9?$DO@   00485668     libvcruntime:undname.obj
 0002:0000a66c       ??_C@_02ECNGHCIF@?$CL?$CL@ 0048566c     libvcruntime:undname.obj
 0002:0000a670       ??_C@_02BAABKJLB@?9?9@     00485670     libvcruntime:undname.obj
 0002:0000a674       ??_C@_01MIFGBAGJ@?$CL@     00485674     libvcruntime:undname.obj
 0002:0000a678       ??_C@_01HNPIGOCE@?$CG@     00485678     libvcruntime:undname.obj
 0002:0000a67c       ??_C@_03MNHNFDLC@?9?$DO?$CK@ 0048567c     libvcruntime:undname.obj
 0002:0000a680       ??_C@_01KMDKNFGN@?1@       00485680     libvcruntime:undname.obj
 0002:0000a684       ??_C@_01FGNFDNOH@?$CF@     00485684     libvcruntime:undname.obj
 0002:0000a688       ??_C@_01MNNFJEPP@?$DM@     00485688     libvcruntime:undname.obj
 0002:0000a68c       ??_C@_02EHCHHCKH@?$DM?$DN@ 0048568c     libvcruntime:undname.obj
 0002:0000a690       ??_C@_01PPODPGHN@?$DO@     00485690     libvcruntime:undname.obj
 0002:0000a694       ??_C@_02EEKDKGMJ@?$DO?$DN@ 00485694     libvcruntime:undname.obj
 0002:0000a698       ??_C@_01IHBHIGKO@?0@       00485698     libvcruntime:undname.obj
 0002:0000a69c       ??_C@_02HCKGKOFO@?$CI?$CJ@ 0048569c     libvcruntime:undname.obj
 0002:0000a6a0       ??_C@_01PJKLJHI@?$HO@      004856a0     libvcruntime:undname.obj
 0002:0000a6a4       ??_C@_01JKBOJNNK@?$FO@     004856a4     libvcruntime:undname.obj
 0002:0000a6a8       ??_C@_01DNKMNLPK@?$HM@     004856a8     libvcruntime:undname.obj
 0002:0000a6ac       ??_C@_02PPKAJPJL@?$CG?$CG@ 004856ac     libvcruntime:undname.obj
 0002:0000a6b0       ??_C@_02NONPIBCD@?$HM?$HM@ 004856b0     libvcruntime:undname.obj
 0002:0000a6b4       ??_C@_02FPIMKNGF@?$CK?$DN@ 004856b4     libvcruntime:undname.obj
 0002:0000a6b8       ??_C@_02FOEOMHFC@?$CL?$DN@ 004856b8     libvcruntime:undname.obj
 0002:0000a6bc       ??_C@_02FKMDLLOA@?9?$DN@   004856bc     libvcruntime:undname.obj
 0002:0000a6c0       ??_C@_02FJEHGPIO@?1?$DN@   004856c0     libvcruntime:undname.obj
 0002:0000a6c4       ??_C@_02FENAOKFI@?$CF?$DN@ 004856c4     libvcruntime:undname.obj
 0002:0000a6c8       ??_C@_03IKFCCPFF@?$DO?$DO?$DN@ 004856c8     libvcruntime:undname.obj
 0002:0000a6cc       ??_C@_03CDNPDDLA@?$DM?$DM?$DN@ 004856cc     libvcruntime:undname.obj
 0002:0000a6d0       ??_C@_02FGJGFEAB@?$CG?$DN@ 004856d0     libvcruntime:undname.obj
 0002:0000a6d4       ??_C@_02DHLNPPGH@?$HM?$DN@ 004856d4     libvcruntime:undname.obj
 0002:0000a6d8       ??_C@_02MHEGNOJ@?$FO?$DN@  004856d8     libvcruntime:undname.obj
 0002:0000a6dc       ??_C@_09IFPLHPGF@?$GAvftable?8@ 004856dc     libvcruntime:undname.obj
 0002:0000a6e8       ??_C@_09BLBHBJP@?$GAvbtable?8@ 004856e8     libvcruntime:undname.obj
 0002:0000a6f4       ??_C@_07FEEIOKP@?$GAvcall?8@ 004856f4     libvcruntime:undname.obj
 0002:0000a6fc       ??_C@_08LLFFHHDJ@?$GAtypeof?8@ 004856fc     libvcruntime:undname.obj
 0002:0000a708       ??_C@_0BF@KDPPACIK@?$GAlocal?5static?5guard?8@ 00485708     libvcruntime:undname.obj
 0002:0000a720       ??_C@_08OBABFOLI@?$GAstring?8@ 00485720     libvcruntime:undname.obj
 0002:0000a72c       ??_C@_0BD@JDLKDPAB@?$GAvbase?5destructor?8@ 0048572c     libvcruntime:undname.obj
 0002:0000a740       ??_C@_0BN@DEGPLNFK@?$GAvector?5deleting?5destructor?8@ 00485740     libvcruntime:undname.obj
 0002:0000a760       ??_C@_0BO@OBMKPJIG@?$GAdefault?5constructor?5closure?8@ 00485760     libvcruntime:undname.obj
 0002:0000a780       ??_C@_0BN@IMDCHIKM@?$GAscalar?5deleting?5destructor?8@ 00485780     libvcruntime:undname.obj
 0002:0000a7a0       ??_C@_0BO@PFGOCPJJ@?$GAvector?5constructor?5iterator?8@ 004857a0     libvcruntime:undname.obj
 0002:0000a7c0       ??_C@_0BN@LFPFMEDL@?$GAvector?5destructor?5iterator?8@ 004857c0     libvcruntime:undname.obj
 0002:0000a7e0       ??_C@_0CE@IKBNEHA@?$GAvector?5vbase?5constructor?5itera@ 004857e0     libvcruntime:undname.obj
 0002:0000a804       ??_C@_0BL@NILFHHPC@?$GAvirtual?5displacement?5map?8@ 00485804     libvcruntime:undname.obj
 0002:0000a820       ??_C@_0CB@JONCMFFK@?$GAeh?5vector?5constructor?5iterator@ 00485820     libvcruntime:undname.obj
 0002:0000a844       ??_C@_0CA@GCEOPDGL@?$GAeh?5vector?5destructor?5iterator?8@ 00485844     libvcruntime:undname.obj
 0002:0000a864       ??_C@_0CH@OOJPLCPH@?$GAeh?5vector?5vbase?5constructor?5it@ 00485864     libvcruntime:undname.obj
 0002:0000a88c       ??_C@_0BL@LLKPOHJI@?$GAcopy?5constructor?5closure?8@ 0048588c     libvcruntime:undname.obj
 0002:0000a8a8       ??_C@_0BA@KBCDOMBN@?$GAudt?5returning?8@ 004858a8     libvcruntime:undname.obj
 0002:0000a8b8       ??_C@_03KLGMFNMG@?$GAEH@   004858b8     libvcruntime:undname.obj
 0002:0000a8bc       ??_C@_05KHLCHHI@?$GARTTI@  004858bc     libvcruntime:undname.obj
 0002:0000a8c4       ??_C@_0BA@KKLDJDLB@?$GAlocal?5vftable?8@ 004858c4     libvcruntime:undname.obj
 0002:0000a8d4       ??_C@_0CE@IIHCMGGL@?$GAlocal?5vftable?5constructor?5clos@ 004858d4     libvcruntime:undname.obj
 0002:0000a8f8       ??_C@_06FHBGPFGH@?5new?$FL?$FN@ 004858f8     libvcruntime:undname.obj
 0002:0000a900       ??_C@_09LBNFPBCA@?5delete?$FL?$FN@ 00485900     libvcruntime:undname.obj
 0002:0000a90c       ??_C@_0P@HJKNJFNN@?$GAomni?5callsig?8@ 0048590c     libvcruntime:undname.obj
 0002:0000a91c       ??_C@_0BL@CNOONJFP@?$GAplacement?5delete?5closure?8@ 0048591c     libvcruntime:undname.obj
 0002:0000a938       ??_C@_0BN@CKNJLHMB@?$GAplacement?5delete?$FL?$FN?5closure?8@ 00485938     libvcruntime:undname.obj
 0002:0000a958       ??_C@_0CG@CFDHKGGD@?$GAmanaged?5vector?5constructor?5ite@ 00485958     libvcruntime:undname.obj
 0002:0000a980       ??_C@_0CF@IMGKMJNO@?$GAmanaged?5vector?5destructor?5iter@ 00485980     libvcruntime:undname.obj
 0002:0000a9a8       ??_C@_0CG@HLDDJMAG@?$GAeh?5vector?5copy?5constructor?5ite@ 004859a8     libvcruntime:undname.obj
 0002:0000a9d0       ??_C@_0CM@FCBBDIGB@?$GAeh?5vector?5vbase?5copy?5construct@ 004859d0     libvcruntime:undname.obj
 0002:0000a9fc       ??_C@_0BL@CLIPGLGB@?$GAdynamic?5initializer?5for?5?8@ 004859fc     libvcruntime:undname.obj
 0002:0000aa18       ??_C@_0CB@PDBIFEP@?$GAdynamic?5atexit?5destructor?5for?5@ 00485a18     libvcruntime:undname.obj
 0002:0000aa3c       ??_C@_0CD@CGAJBKEJ@?$GAvector?5copy?5constructor?5iterat@ 00485a3c     libvcruntime:undname.obj
 0002:0000aa60       ??_C@_0CJ@GJELGAMM@?$GAvector?5vbase?5copy?5constructor?5@ 00485a60     libvcruntime:undname.obj
 0002:0000aa8c       ??_C@_0CL@FGIJHLCE@?$GAmanaged?5vector?5copy?5constructo@ 00485a8c     libvcruntime:undname.obj
 0002:0000aab8       ??_C@_0BM@PMGGMLDN@?$GAlocal?5static?5thread?5guard?8@ 00485ab8     libvcruntime:undname.obj
 0002:0000aad4       ??_C@_0N@BDNMDMOL@operator?5?$CC?$CC?5@ 00485ad4     libvcruntime:undname.obj
 0002:0000aae4       ??_C@_0BC@GGEBGALA@operator?5co_await@ 00485ae4     libvcruntime:undname.obj
 0002:0000aaf8       ??_C@_0M@GAAIMMOH@operator?$DM?$DN?$DO@ 00485af8     libvcruntime:undname.obj
 0002:0000ab04       ??_C@_0BC@DAFEJGAK@?5Type?5Descriptor?8@ 00485b04     libvcruntime:undname.obj
 0002:0000ab18       ??_C@_0BM@LDKODKLH@?5Base?5Class?5Descriptor?5at?5?$CI@ 00485b18     libvcruntime:undname.obj
 0002:0000ab34       ??_C@_0BD@LGICGFMM@?5Base?5Class?5Array?8@ 00485b34     libvcruntime:undname.obj
 0002:0000ab48       ??_C@_0BN@MECKDCOJ@?5Class?5Hierarchy?5Descriptor?8@ 00485b48     libvcruntime:undname.obj
 0002:0000ab68       ??_C@_0BK@CFCOFLF@?5Complete?5Object?5Locator?8@ 00485b68     libvcruntime:undname.obj
 0002:0000ab84       ??_C@_0BG@JNJLAMPM@?$GAanonymous?5namespace?8@ 00485b84     libvcruntime:undname.obj
 0002:0000aba8       ??_C@_1DM@KHCHBNEB@?$AAa?$AAp?$AAi?$AA?9?$AAm?$AAs?$AA?9?$AAw?$AAi?$AAn?$AA?9?$AAc?$AAo?$AAr?$AAe@ 00485ba8     libvcruntime:winapi_downlevel.obj
 0002:0000abe4       ??_C@_1DK@LPPGFMPP@?$AAa?$AAp?$AAi?$AA?9?$AAm?$AAs?$AA?9?$AAw?$AAi?$AAn?$AA?9?$AAc?$AAo?$AAr?$AAe@ 00485be4     libvcruntime:winapi_downlevel.obj
 0002:0000ac20       ??_C@_1BC@GDMECMAK@?$AAk?$AAe?$AAr?$AAn?$AAe?$AAl?$AA3?$AA2@ 00485c20     libvcruntime:winapi_downlevel.obj
 0002:0000ac34       ??_C@_1BA@PFFKHIOG@?$AAa?$AAp?$AAi?$AA?9?$AAm?$AAs?$AA?9@ 00485c34     libvcruntime:winapi_downlevel.obj
