 windhawk

 Timestamp is 69bae86c (Wed Mar 18 18:01:16 2026)

 Preferred load address is 00400000

 Start         Length     Name                   Class
 0001:00000000 000015b0H .text$di                CODE
 0001:000015b0 00071da0H .text$mn                CODE
 0001:00073350 00005780H .text$x                 CODE
 0001:00078ad0 0000037fH .text$yd                CODE
 0002:00000000 0000055cH .idata$5                DATA
 0002:0000055c 00000008H .00cfg                  DATA
 0002:00000564 00000004H .CRT$XCA                DATA
 0002:00000568 00000004H .CRT$XCAA               DATA
 0002:0000056c 0000000cH .CRT$XCC                DATA
 0002:00000578 0000000cH .CRT$XCL                DATA
 0002:00000584 00000030H .CRT$XCU                DATA
 0002:000005b4 00000004H .CRT$XCZ                DATA
 0002:000005b8 00000004H .CRT$XIA                DATA
 0002:000005bc 00000004H .CRT$XIAA               DATA
 0002:000005c0 00000004H .CRT$XIAC               DATA
 0002:000005c4 00000018H .CRT$XIC                DATA
 0002:000005dc 00000004H .CRT$XIZ                DATA
 0002:000005e0 00000004H .CRT$XLA                DATA
 0002:000005e4 00000004H .CRT$XLZ                DATA
 0002:000005e8 00000004H .CRT$XPA                DATA
 0002:000005ec 00000008H .CRT$XPX                DATA
 0002:000005f4 00000004H .CRT$XPXA               DATA
 0002:000005f8 00000004H .CRT$XPZ                DATA
 0002:000005fc 00000004H .CRT$XTA                DATA
 0002:00000600 00000020H .CRT$XTZ                DATA
 0002:00000604 00000000H .gfids$y                DATA
 0002:00000604 00000000H .giats$y                DATA
 0002:00000620 00010820H .rdata                  DATA
 0002:00010e40 00000000H .rdata$CastGuardVftablesA DATA
 0002:00010e40 00000000H .rdata$CastGuardVftablesC DATA
 0002:00010e40 00000018H .rdata$T                DATA
 0002:00010e58 00002548H .rdata$r                DATA
 0002:000133a0 00000474H .rdata$sxdata           DATA
 0002:00013814 00000188H .rdata$voltmd           DATA
 0002:0001399c 000003f8H .rdata$zzzdbg           DATA
 0002:00013d94 00000004H .rtc$IAA                DATA
 0002:00013d98 00000004H .rtc$IZZ                DATA
 0002:00013d9c 00000004H .rtc$TAA                DATA
 0002:00013da0 00000004H .rtc$TZZ                DATA
 0002:00013da4 00000004H .tls                    DATA
 0002:00013da8 00000004H .tls$                   DATA
 0002:00013dac 00000004H .tls$ZZZ                DATA
 0002:00013db0 00005bf4H .xdata$x                DATA
 0002:000199a4 00000004H ATL$__a                 DATA
 0002:000199a8 00000004H ATL$__z                 DATA
 0002:000199ac 00000000H .edata                  DATA
 0002:000199ac 00000104H .idata$2                DATA
 0002:00019ab0 00000014H .idata$3                DATA
 0002:00019ac4 0000055cH .idata$4                DATA
 0002:0001a020 00001862H .idata$6                DATA
 0003:00000000 00000c70H .data                   DATA
 0003:00000c70 000006c0H .data$r                 DATA
 0003:00001330 00001ab8H .data$rs                DATA
 0003:00002de8 0000109cH .bss                    DATA
 0004:00000000 00000080H .fptable                DATA
 0005:00000000 00001e10H .rsrc$01                DATA
 0005:00001e10 00029cb0H .rsrc$02                DATA

  Address         Publics by Value              Rva+Base       Lib:Object

 0000:00000000       ___AbsoluteZero            00000000     <absolute>
 0000:00000000       ___arm64x_extra_rfe_table  00000000     <absolute>
 0000:00000000       ___arm64x_extra_rfe_table_size 00000000     <absolute>
 0000:00000000       ___arm64x_native_entrypoint 00000000     <absolute>
 0000:00000000       ___arm64x_redirection_metadata 00000000     <absolute>
 0000:00000000       ___arm64x_redirection_metadata_count 00000000     <absolute>
 0000:00000000       ___dynamic_value_reloc_table 00000000     <absolute>
 0000:00000000       ___enclave_config          00000000     <absolute>
 0000:00000000       ___guard_check_icall_a64n_fptr 00000000     <absolute>
 0000:00000000       ___guard_eh_cont_count     00000000     <absolute>
 0000:00000000       ___guard_eh_cont_table     00000000     <absolute>
 0000:00000000       ___guard_fids_count        00000000     <absolute>
 0000:00000000       ___guard_fids_table        00000000     <absolute>
 0000:00000000       ___guard_iat_count         00000000     <absolute>
 0000:00000000       ___guard_iat_table         00000000     <absolute>
 0000:00000000       ___guard_longjmp_count     00000000     <absolute>
 0000:00000000       ___guard_longjmp_table     00000000     <absolute>
 0000:00000000       ___hybrid_auxiliary_delayload_iat 00000000     <absolute>
 0000:00000000       ___hybrid_auxiliary_delayload_iat_copy 00000000     <absolute>
 0000:00000000       ___hybrid_auxiliary_iat    00000000     <absolute>
 0000:00000000       ___hybrid_auxiliary_iat_copy 00000000     <absolute>
 0000:00000000       ___hybrid_code_map         00000000     <absolute>
 0000:00000000       ___hybrid_code_map_count   00000000     <absolute>
 0000:00000000       ___hybrid_image_info_bitfield 00000000     <absolute>
 0000:00000000       ___x64_code_ranges_to_entry_points 00000000     <absolute>
 0000:00000000       ___x64_code_ranges_to_entry_points_count 00000000     <absolute>
 0000:00000000       __except_list              00000000     <absolute>
 0000:0000002c       __tls_array                0000002c     <absolute>
 0000:00000100       ___guard_flags             00000100     <absolute>
 0000:0000011d       ___safe_se_handler_count   0000011d     <absolute>
 0000:00000000       ___ImageBase               00400000     <linker-defined>
 0001:000015b0       ??0CAtlException@ATL@@QAE@J@Z 004025b0 f   app.obj
 0001:000015b0       ??0LoggerBase@@QAE@W4Verbosity@0@@Z 004025b0 f   logger_base.obj
 0001:000015c0       ?GetVerbosity@LoggerBase@@QAE?AW4Verbosity@1@XZ 004025c0 f   logger_base.obj
 0001:000015d0       ?LogLine@LoggerBase@@QAAXPB_WZZ 004025d0 f   logger_base.obj
 0001:00001690       ___local_stdio_printf_options 00402690 f i logger_base.obj
 0001:000016a0       ??$?0URawData@RegistrySettings@@$0A@@?$optional@URawData@RegistrySettings@@@std@@QAE@$$QAURawData@RegistrySettings@@@Z 004026a0 f i portable_settings.obj
 0001:00001700       ??$?0V?$basic_string@_WU?$char_traits@_W@std@@V?$allocator@_W@2@@std@@V01@$0A@@?$pair@V?$basic_string@_WU?$char_traits@_W@std@@V?$allocator@_W@2@@std@@V12@@std@@QAE@$$QAV?$basic_string@_WU?$char_traits@_W@std@@V?$allocator@_W@2@@1@0@Z 00402700 f i portable_settings.obj
 0001:00001780       ??$?0V?$tuple@V?$basic_string@_WU?$char_traits@_W@std@@V?$allocator@_W@2@@std@@V12@KK@std@@$0A@@?$optional@V?$tuple@V?$basic_string@_WU?$char_traits@_W@std@@V?$allocator@_W@2@@std@@V12@KK@std@@@std@@QAE@$$QAV?$tuple@V?$basic_string@_WU?$char_traits@_W@std@@V?$allocator@_W@2@@std@@V12@KK@1@@Z 00402780 f i portable_settings.obj
 0001:00001810       ??$?4U?$pair@V?$basic_string@_WU?$char_traits@_W@std@@V?$allocator@_W@2@@std@@V12@@std@@$0A@@?$pair@V?$basic_string@_WU?$char_traits@_W@std@@V?$allocator@_W@2@@std@@V12@@std@@QAEAAU01@$$QAU01@@Z 00402810 f i portable_settings.obj
 0001:00001890       ??$ReportFailure_Base@$01$0A@@details@wil@@YAXPAXIPBD110ABUResultStatus@01@PB_WW4ReportFailureOptions@01@W4FailureFlags@1@@Z 00402890 f i portable_settings.obj
 0001:000018a0       ??$ReportFailure_Base@$0A@$0A@@details@wil@@YAXPAXIPBD110ABUResultStatus@01@PB_WW4ReportFailureOptions@01@W4FailureFlags@1@@Z 004028a0 f i portable_settings.obj
 0001:000018d0       ??$ReportFailure_Hr@$01@details@wil@@YAXPAXIPBD110JW4FailureFlags@1@@Z 004028d0 f i portable_settings.obj
 0001:00001920       ??$ReportFailure_NoReturn@$0A@@details@wil@@YAXPAXIPBD110ABUResultStatus@01@PB_WW4ReportFailureOptions@01@@Z 00402920 f i portable_settings.obj
 0001:00001c90       ??$ReportFailure_Return@$01@details@wil@@YAXPAXIPBD110ABUResultStatus@01@PB_WW4ReportFailureOptions@01@W4FailureFlags@1@@Z 00402c90 f i portable_settings.obj
 0001:00001d40       ??$ReportFailure_Win32@$0A@@details@wil@@YAJPAXIPBD110K@Z 00402d40 f i portable_settings.obj
 0001:00001da0       ??$_Allocate_at_least_helper@V?$allocator@D@std@@@std@@YAPADAAV?$allocator@D@0@AAI@Z 00402da0 f i ui_control.obj
 0001:00001da0       ??$_Allocate_at_least_helper@V?$allocator@E@std@@@std@@YAPAEAAV?$allocator@E@0@AAI@Z 00402da0 f i portable_settings.obj
 0001:00001e00       ??$_Allocate_for_capacity@$0A@@?$basic_string@_WU?$char_traits@_W@std@@V?$allocator@_W@2@@std@@CAPA_WAAV?$allocator@_W@1@AAI@Z 00402e00 f i portable_settings.obj
 0001:00001e70       ??$_Assign_counted_range@PBE@?$vector@EV?$allocator@E@std@@@std@@AAEXPBEI@Z 00402e70 f i portable_settings.obj
 0001:00001fc0       ??$_Construct@$00PB_W@?$basic_string@_WU?$char_traits@_W@std@@V?$allocator@_W@2@@std@@AAEXQB_WI@Z 00402fc0 f i portable_settings.obj
 0001:00002060       ??$_UIntegral_to_buff@_WI@std@@YAPA_WPA_WI@Z 00403060 f i portable_settings.obj
 0001:000020a0       ??$make_tuple@V?$basic_string@_WU?$char_traits@_W@std@@V?$allocator@_W@2@@std@@V12@AAKAAK@std@@YA?AV?$tuple@V?$basic_string@_WU?$char_traits@_W@std@@V?$allocator@_W@2@@std@@V12@KK@0@$$QAV?$basic_string@_WU?$char_traits@_W@std@@V?$allocator@_W@2@@0@0AAK1@Z 004030a0 f i portable_settings.obj
 0001:00002130       ??0?$EnumIteratorIniFileBase@H@@QAE@PBVIniFileSettings@@@Z 00403130 f i portable_settings.obj
 0001:000022a0       ??0?$EnumIteratorIniFileBase@V?$basic_string@_WU?$char_traits@_W@std@@V?$allocator@_W@2@@std@@@@QAE@PBVIniFileSettings@@@Z 004032a0 f i portable_settings.obj
 0001:00002420       ??0?$basic_string@_WU?$char_traits@_W@std@@V?$allocator@_W@2@@std@@QAE@$$QAV01@@Z 00403420 f i portable_settings.obj
 0001:00002470       ??0?$basic_string@_WU?$char_traits@_W@std@@V?$allocator@_W@2@@std@@QAE@ABV01@@Z 00403470 f i portable_settings.obj
 0001:00002520       ??0EnumIteratorRegistryInt@@QAE@PAUHKEY__@@@Z 00403520 f i portable_settings.obj
 0001:00002710       ??0IniFileSettings@@QAE@PB_W0_N@Z 00403710 f   portable_settings.obj
 0001:00002810       ??0RegistrySettings@@QAE@PAUHKEY__@@PB_W_N@Z 00403810 f   portable_settings.obj
 0001:000028b0       ??0bad_alloc@std@@QAE@ABV01@@Z 004038b0 f i portable_settings.obj
 0001:000028f0       ??0bad_array_new_length@std@@QAE@ABV01@@Z 004038f0 f i portable_settings.obj
 0001:00002930       ??0bad_array_new_length@std@@QAE@XZ 00403930 f i portable_settings.obj
 0001:00002950       ??0exception@std@@QAE@ABV01@@Z 00403950 f i portable_settings.obj
 0001:00002980       ??0invalid_argument@std@@QAE@ABV01@@Z 00403980 f i portable_settings.obj
 0001:000029c0       ??0invalid_argument@std@@QAE@PBD@Z 004039c0 f i portable_settings.obj
 0001:00002a10       ??0logic_error@std@@QAE@ABV01@@Z 00403a10 f i portable_settings.obj
 0001:00002a50       ??1?$EnumIteratorImpl@H@@UAE@XZ 00403a50 f i portable_settings.obj
 0001:00002a50       ??1?$EnumIteratorRegistryBase@H@@UAE@XZ 00403a50 f i portable_settings.obj
 0001:00002a60       ??1?$EnumIteratorImpl@V?$basic_string@_WU?$char_traits@_W@std@@V?$allocator@_W@2@@std@@@@UAE@XZ 00403a60 f i portable_settings.obj
 0001:00002a60       ??1?$EnumIteratorRegistryBase@V?$basic_string@_WU?$char_traits@_W@std@@V?$allocator@_W@2@@std@@@@UAE@XZ 00403a60 f i portable_settings.obj
 0001:00002a80       ??1?$EnumIteratorIniFileBase@H@@UAE@XZ 00403a80 f i portable_settings.obj
 0001:00002aa0       ??1?$EnumIteratorIniFileBase@V?$basic_string@_WU?$char_traits@_W@std@@V?$allocator@_W@2@@std@@@@UAE@XZ 00403aa0 f i portable_settings.obj
 0001:00002ac0       ??1?$basic_string@_WU?$char_traits@_W@std@@V?$allocator@_W@2@@std@@QAE@XZ 00403ac0 f i portable_settings.obj
 0001:00002ac0       ??1path@filesystem@std@@QAE@XZ 00403ac0 f i app.obj
 0001:00002ad0       ??1?$optional@URawData@RegistrySettings@@@std@@QAE@XZ 00403ad0 f i portable_settings.obj
 0001:00002ae0       ??1?$optional@V?$basic_string@_WU?$char_traits@_W@std@@V?$allocator@_W@2@@std@@@std@@QAE@XZ 00403ae0 f i portable_settings.obj
 0001:00002af0       ??1?$optional@V?$tuple@V?$basic_string@_WU?$char_traits@_W@std@@V?$allocator@_W@2@@std@@V12@KK@std@@@std@@QAE@XZ 00403af0 f i portable_settings.obj
 0001:00002b10       ??1?$unique_any_t@V?$unique_storage@U?$resource_policy@PAUHKEY__@@P6GJPAU1@@Z$1?RegCloseKey@@YGJ0@ZU?$integral_constant@I$0A@@wistd@@PAU1@PAU1@$0A@$$T@details@wil@@@details@wil@@@wil@@QAE@XZ 00403b10 f i portable_settings.obj
 0001:00002b20       ??1?$vector@DV?$allocator@D@std@@@std@@QAE@XZ 00403b20 f i ui_control.obj
 0001:00002b20       ??1?$vector@EV?$allocator@E@std@@@std@@QAE@XZ 00403b20 f i portable_settings.obj
 0001:00002b20       ?_Tidy@?$vector@EV?$allocator@E@std@@@std@@AAEXXZ 00403b20 f i ui_control.obj
 0001:00002b80       ??1bad_alloc@std@@UAE@XZ   00403b80 f i libcpmt:xthrow.obj
 0001:00002b80       ??1bad_array_new_length@std@@UAE@XZ 00403b80 f i portable_settings.obj
 0001:00002b80       ??1bad_exception@std@@UAE@XZ 00403b80 f i libvcruntime:frame.obj
 0001:00002b80       ??1bad_function_call@std@@UAE@XZ 00403b80 f i libcpmt:xthrow.obj
 0001:00002b80       ??1bad_optional_access@std@@UAE@XZ 00403b80 f i app.obj
 0001:00002b80       ??1bad_variant_access@std@@UAE@XZ 00403b80 f i storage_manager.obj
 0001:00002b80       ??1failure@ios_base@std@@UAE@XZ 00403b80 f i ui_control.obj
 0001:00002b80       ??1invalid_argument@std@@UAE@XZ 00403b80 f i portable_settings.obj
 0001:00002b80       ??1length_error@std@@UAE@XZ 00403b80 f i libcpmt:xthrow.obj
 0001:00002b80       ??1logic_error@std@@UAE@XZ 00403b80 f i event_viewer_crash_monitor.obj
 0001:00002b80       ??1out_of_range@std@@UAE@XZ 00403b80 f i libcpmt:xthrow.obj
 0001:00002b80       ??1runtime_error@std@@UAE@XZ 00403b80 f i engine_control.obj
 0001:00002b80       ??1system_error@std@@UAE@XZ 00403b80 f i storage_manager.obj
 0001:00002ba0       ??4?$basic_string@_WU?$char_traits@_W@std@@V?$allocator@_W@2@@std@@QAEAAV01@$$QAV01@@Z 00403ba0 f i portable_settings.obj
 0001:00002be0       ??_E?$EnumIteratorImpl@H@@UAEPAXI@Z 00403be0 f i portable_settings.obj
 0001:00002be0       ??_G?$EnumIteratorImpl@H@@UAEPAXI@Z 00403be0 f i portable_settings.obj
 0001:00002c10       ??_E?$EnumIteratorImpl@V?$basic_string@_WU?$char_traits@_W@std@@V?$allocator@_W@2@@std@@@@UAEPAXI@Z 00403c10 f i portable_settings.obj
 0001:00002c10       ??_G?$EnumIteratorImpl@V?$basic_string@_WU?$char_traits@_W@std@@V?$allocator@_W@2@@std@@@@UAEPAXI@Z 00403c10 f i portable_settings.obj
 0001:00002c40       ??_E?$EnumIteratorIniFileBase@H@@UAEPAXI@Z 00403c40 f i portable_settings.obj
 0001:00002c40       ??_EEnumIteratorIniFileInt@@UAEPAXI@Z 00403c40 f i portable_settings.obj
 0001:00002c40       ??_G?$EnumIteratorIniFileBase@H@@UAEPAXI@Z 00403c40 f i portable_settings.obj
 0001:00002c40       ??_GEnumIteratorIniFileInt@@UAEPAXI@Z 00403c40 f i portable_settings.obj
 0001:00002c70       ??_E?$EnumIteratorIniFileBase@V?$basic_string@_WU?$char_traits@_W@std@@V?$allocator@_W@2@@std@@@@UAEPAXI@Z 00403c70 f i portable_settings.obj
 0001:00002c70       ??_EEnumIteratorIniFileString@@UAEPAXI@Z 00403c70 f i portable_settings.obj
 0001:00002c70       ??_G?$EnumIteratorIniFileBase@V?$basic_string@_WU?$char_traits@_W@std@@V?$allocator@_W@2@@std@@@@UAEPAXI@Z 00403c70 f i portable_settings.obj
 0001:00002c70       ??_GEnumIteratorIniFileString@@UAEPAXI@Z 00403c70 f i portable_settings.obj
 0001:00002cb0       ??_E?$EnumIteratorRegistryBase@H@@UAEPAXI@Z 00403cb0 f i portable_settings.obj
 0001:00002cb0       ??_EEnumIteratorRegistryInt@@UAEPAXI@Z 00403cb0 f i portable_settings.obj
 0001:00002cb0       ??_G?$EnumIteratorRegistryBase@H@@UAEPAXI@Z 00403cb0 f i portable_settings.obj
 0001:00002cb0       ??_GEnumIteratorRegistryInt@@UAEPAXI@Z 00403cb0 f i portable_settings.obj
 0001:00002ce0       ??_E?$EnumIteratorRegistryBase@V?$basic_string@_WU?$char_traits@_W@std@@V?$allocator@_W@2@@std@@@@UAEPAXI@Z 00403ce0 f i portable_settings.obj
 0001:00002ce0       ??_EEnumIteratorRegistryString@@UAEPAXI@Z 00403ce0 f i portable_settings.obj
 0001:00002ce0       ??_G?$EnumIteratorRegistryBase@V?$basic_string@_WU?$char_traits@_W@std@@V?$allocator@_W@2@@std@@@@UAEPAXI@Z 00403ce0 f i portable_settings.obj
 0001:00002ce0       ??_GEnumIteratorRegistryString@@UAEPAXI@Z 00403ce0 f i portable_settings.obj
 0001:00002d10       ??_EIniFileSettings@@UAEPAXI@Z 00403d10 f i portable_settings.obj
 0001:00002d10       ??_GIniFileSettings@@UAEPAXI@Z 00403d10 f i portable_settings.obj
 0001:00002d40       ??_ERegistrySettings@@UAEPAXI@Z 00403d40 f i portable_settings.obj
 0001:00002d40       ??_GRegistrySettings@@UAEPAXI@Z 00403d40 f i portable_settings.obj
 0001:00002d70       ??_Ebad_alloc@std@@UAEPAXI@Z 00403d70 f i portable_settings.obj
 0001:00002d70       ??_Ebad_array_new_length@std@@UAEPAXI@Z 00403d70 f i portable_settings.obj
 0001:00002d70       ??_Ebad_optional_access@std@@UAEPAXI@Z 00403d70 f i app.obj
 0001:00002d70       ??_Ebad_variant_access@std@@UAEPAXI@Z 00403d70 f i storage_manager.obj
 0001:00002d70       ??_Eexception@std@@UAEPAXI@Z 00403d70 f i portable_settings.obj
 0001:00002d70       ??_Einvalid_argument@std@@UAEPAXI@Z 00403d70 f i portable_settings.obj
 0001:00002d70       ??_Elogic_error@std@@UAEPAXI@Z 00403d70 f i portable_settings.obj
 0001:00002d70       ??_Eruntime_error@std@@UAEPAXI@Z 00403d70 f i engine_control.obj
 0001:00002d70       ??_Gbad_alloc@std@@UAEPAXI@Z 00403d70 f i portable_settings.obj
 0001:00002d70       ??_Gbad_array_new_length@std@@UAEPAXI@Z 00403d70 f i portable_settings.obj
 0001:00002d70       ??_Gbad_optional_access@std@@UAEPAXI@Z 00403d70 f i app.obj
 0001:00002d70       ??_Gbad_variant_access@std@@UAEPAXI@Z 00403d70 f i storage_manager.obj
 0001:00002d70       ??_Gexception@std@@UAEPAXI@Z 00403d70 f i portable_settings.obj
 0001:00002d70       ??_Ginvalid_argument@std@@UAEPAXI@Z 00403d70 f i portable_settings.obj
 0001:00002d70       ??_Glogic_error@std@@UAEPAXI@Z 00403d70 f i portable_settings.obj
 0001:00002d70       ??_Gruntime_error@std@@UAEPAXI@Z 00403d70 f i engine_control.obj
 0001:00002da0       ?EnumIntValues@IniFileSettings@@UBE?AV?$EnumIterator@H@PortableSettings@@XZ 00403da0 f   portable_settings.obj
 0001:00002e30       ?EnumIntValues@RegistrySettings@@UBE?AV?$EnumIterator@H@PortableSettings@@XZ 00403e30 f   portable_settings.obj
 0001:00002eb0       ?EnumStringValues@IniFileSettings@@UBE?AV?$EnumIterator@V?$basic_string@_WU?$char_traits@_W@std@@V?$allocator@_W@2@@std@@@PortableSettings@@XZ 00403eb0 f   portable_settings.obj
 0001:00002f40       ?EnumStringValues@RegistrySettings@@UBE?AV?$EnumIterator@V?$basic_string@_WU?$char_traits@_W@std@@V?$allocator@_W@2@@std@@@PortableSettings@@XZ 00403f40 f   portable_settings.obj
 0001:000030e0       ?FromResult@ResultStatus@details@wil@@SA?AU123@J@Z 004040e0 f i portable_settings.obj
 0001:00003110       ?GetBinary@IniFileSettings@@UBE?AV?$optional@V?$vector@EV?$allocator@E@std@@@std@@@std@@PB_W@Z 00404110 f   portable_settings.obj
 0001:00003430       ?GetBinary@RegistrySettings@@UBE?AV?$optional@V?$vector@EV?$allocator@E@std@@@std@@@std@@PB_W@Z 00404430 f   portable_settings.obj
 0001:00003570       ?GetFailureLogString@wil@@YAJPA_WIABUFailureInfo@1@@Z 00404570 f i portable_settings.obj
 0001:00003800       ?GetInt@IniFileSettings@@UBE?AV?$optional@H@std@@PB_W@Z 00404800 f   portable_settings.obj
 0001:000038d0       ?GetInt@RegistrySettings@@UBE?AV?$optional@H@std@@PB_W@Z 004048d0 f   portable_settings.obj
 0001:000039e0       ?GetRaw@RegistrySettings@@ABE?AV?$optional@URawData@RegistrySettings@@@std@@PB_W@Z 004049e0 f   portable_settings.obj
 0001:00003b90       ?GetString@IniFileSettings@@UBE?AV?$optional@V?$basic_string@_WU?$char_traits@_W@std@@V?$allocator@_W@2@@std@@@std@@PB_W@Z 00404b90 f   portable_settings.obj
 0001:00003d70       ?GetString@RegistrySettings@@UBE?AV?$optional@V?$basic_string@_WU?$char_traits@_W@std@@V?$allocator@_W@2@@std@@@std@@PB_W@Z 00404d70 f   portable_settings.obj
 0001:00003ec0       ?HrToNtStatus@details@wil@@YAJJ@Z 00404ec0 f i portable_settings.obj
 0001:000041c0       ?LogFailure@details@wil@@YAXPAXIPBD110W4FailureType@2@ABUResultStatus@12@PB_W_NPA_WIPADIW4FailureFlags@2@PAUFailureInfo@2@@Z 004051c0 f i portable_settings.obj
 0001:00004470       ?LogStringPrintf@details@wil@@YAPA_WPA_WPB_W1ZZ 00405470 f i portable_settings.obj
 0001:000047a0       ?RecordException@details@wil@@YAHJ@Z 004057a0 f i portable_settings.obj
 0001:000047c0       ?RecordFailFast@details@wil@@YAHJ@Z 004057c0 f i portable_settings.obj
 0001:000047e0       ?RecordLog@details@wil@@YAHJ@Z 004057e0 f i portable_settings.obj
 0001:00004800       ?RecordReturn@details@wil@@YAHJ@Z 00405800 f i portable_settings.obj
 0001:00004820       ?Remove@IniFileSettings@@UAEXPB_W@Z 00405820 f   portable_settings.obj
 0001:00004880       ?Remove@RegistrySettings@@UAEXPB_W@Z 00405880 f   portable_settings.obj
 0001:000048c0       ?RethrowCaughtException@wil@@YAXXZ 004058c0 f i portable_settings.obj
 0001:000048d0       ?SetBinary@IniFileSettings@@UAEXPB_WPBEI@Z 004058d0 f   portable_settings.obj
 0001:00004c40       ?SetBinary@RegistrySettings@@UAEXPB_WPBEI@Z 00405c40 f   portable_settings.obj
 0001:00004c80       ?SetInt@IniFileSettings@@UAEXPB_WH@Z 00405c80 f   portable_settings.obj
 0001:00004d00       ?SetInt@RegistrySettings@@UAEXPB_WH@Z 00405d00 f   portable_settings.obj
 0001:00004d40       ?SetString@IniFileSettings@@UAEXPB_W0@Z 00405d40 f   portable_settings.obj
 0001:00005370       ?SetString@RegistrySettings@@UAEXPB_W0@Z 00406370 f   portable_settings.obj
 0001:000053d0       ?ThrowResultException@wil@@YAXABUFailureInfo@1@@Z 004063d0 f i portable_settings.obj
 0001:000053f0       ?Throw_Win32@in1diag3@details@wil@@YAXPAXIPBDK@Z 004063f0 f i portable_settings.obj
 0001:00005410       ?WilFailFast@details@wil@@YGXABUFailureInfo@2@@Z 00406410 f i portable_settings.obj
 0001:000054b0       ?WilRaiseFailFastException@details@wil@@YGXPAU_EXCEPTION_RECORD@@PAU_CONTEXT@@K@Z 004064b0 f i portable_settings.obj
 0001:000054e0       ?_Change_array@?$vector@EV?$allocator@E@std@@@std@@AAEXQAEII@Z 004064e0 f i portable_settings.obj
 0001:00005540       ?_Deallocate_for_capacity@?$basic_string@_WU?$char_traits@_W@std@@V?$allocator@_W@2@@std@@CAXAAV?$allocator@_W@2@QA_WI@Z 00406540 f i portable_settings.obj
 0001:00005590       ?_FailFastImmediate_Unexpected@in1diag3@details@wil@@YAXXZ 00406590 f i portable_settings.obj
 0001:00005590       ?__throw_bad_function_call@wistd@@YAXXZ 00406590 f i app.obj
 0001:000055a0       ?_Throw_bad_array_new_length@std@@YAXXZ 004065a0 f i portable_settings.obj
 0001:000055a0       ?__scrt_throw_std_bad_array_new_length@@YAXXZ 004065a0 f i LIBCMT:throw_bad_alloc.obj
 0001:000055c0       ?_Tidy_deallocate@?$basic_string@_WU?$char_traits@_W@std@@V?$allocator@_W@2@@std@@AAEXXZ 004065c0 f i portable_settings.obj
 0001:00005620       ?_Xlen_string@std@@YAXXZ   00406620 f i portable_settings.obj
 0001:00005630       ?_Xlength@?$vector@DV?$allocator@D@std@@@std@@CAXXZ 00406630 f i ui_control.obj
 0001:00005630       ?_Xlength@?$vector@EV?$allocator@E@std@@@std@@CAXXZ 00406630 f i portable_settings.obj
 0001:00005630       ?_Xlength@?$vector@IV?$allocator@I@std@@@std@@CAXXZ 00406630 f i ui_control.obj
 0001:00005630       ?_Xlength@?$vector@PAUHWND__@@V?$allocator@PAUHWND__@@@std@@@std@@CAXXZ 00406630 f i ui_control.obj
 0001:00005630       ?_Xlength@?$vector@PAV?$basic_json@Uordered_map@nlohmann@@Vvector@std@@V?$basic_string@DU?$char_traits@D@std@@V?$allocator@D@2@@4@_N_J_KNVallocator@4@Uadl_serializer@2@V?$vector@EV?$allocator@E@std@@@4@@nlohmann@@V?$allocator@PAV?$basic_json@Uordered_map@nlohmann@@Vvector@std@@V?$basic_string@DU?$char_traits@D@std@@V?$allocator@D@2@@4@_N_J_KNVallocator@4@Uadl_serializer@2@V?$vector@EV?$allocator@E@std@@@4@@nlohmann@@@std@@@std@@CAXXZ 00406630 f i ui_control.obj
 0001:00005630       ?_Xlength@?$vector@PAV?$basic_json@Vmap@std@@Vvector@2@V?$basic_string@DU?$char_traits@D@std@@V?$allocator@D@2@@2@_N_J_KNVallocator@2@Uadl_serializer@nlohmann@@V?$vector@EV?$allocator@E@std@@@2@@nlohmann@@V?$allocator@PAV?$basic_json@Vmap@std@@Vvector@2@V?$basic_string@DU?$char_traits@D@std@@V?$allocator@D@2@@2@_N_J_KNVallocator@2@Uadl_serializer@nlohmann@@V?$vector@EV?$allocator@E@std@@@2@@nlohmann@@@std@@@std@@CAXXZ 00406630 f i userprofile.obj
 0001:00005630       ?_Xlength@?$vector@PB_WV?$allocator@PB_W@std@@@std@@CAXXZ 00406630 f i update_checker.obj
 0001:00005630       ?_Xlength@?$vector@U?$pair@$$CBV?$basic_string@DU?$char_traits@D@std@@V?$allocator@D@2@@std@@V?$basic_json@Uordered_map@nlohmann@@Vvector@std@@V?$basic_string@DU?$char_traits@D@std@@V?$allocator@D@2@@4@_N_J_KNVallocator@4@Uadl_serializer@2@V?$vector@EV?$allocator@E@std@@@4@@nlohmann@@@std@@V?$allocator@U?$pair@$$CBV?$basic_string@DU?$char_traits@D@std@@V?$allocator@D@2@@std@@V?$basic_json@Uordered_map@nlohmann@@Vvector@std@@V?$basic_string@DU?$char_traits@D@std@@V?$allocator@D@2@@4@_N_J_KNVallocator@4@Uadl_serializer@2@V?$vector@EV?$allocator@E@std@@@4@@nlohmann@@@std@@@2@@std@@CAXXZ 00406630 f i ui_control.obj
 0001:00005630       ?_Xlength@?$vector@V?$basic_json@Uordered_map@nlohmann@@Vvector@std@@V?$basic_string@DU?$char_traits@D@std@@V?$allocator@D@2@@4@_N_J_KNVallocator@4@Uadl_serializer@2@V?$vector@EV?$allocator@E@std@@@4@@nlohmann@@V?$allocator@V?$basic_json@Uordered_map@nlohmann@@Vvector@std@@V?$basic_string@DU?$char_traits@D@std@@V?$allocator@D@2@@4@_N_J_KNVallocator@4@Uadl_serializer@2@V?$vector@EV?$allocator@E@std@@@4@@nlohmann@@@std@@@std@@CAXXZ 00406630 f i ui_control.obj
 0001:00005630       ?_Xlength@?$vector@V?$basic_json@Vmap@std@@Vvector@2@V?$basic_string@DU?$char_traits@D@std@@V?$allocator@D@2@@2@_N_J_KNVallocator@2@Uadl_serializer@nlohmann@@V?$vector@EV?$allocator@E@std@@@2@@nlohmann@@V?$allocator@V?$basic_json@Vmap@std@@Vvector@2@V?$basic_string@DU?$char_traits@D@std@@V?$allocator@D@2@@2@_N_J_KNVallocator@2@Uadl_serializer@nlohmann@@V?$vector@EV?$allocator@E@std@@@2@@nlohmann@@@std@@@std@@CAXXZ 00406630 f i userprofile.obj
 0001:00005630       ?_Xlength@?$vector@V?$basic_string@_WU?$char_traits@_W@std@@V?$allocator@_W@2@@std@@V?$allocator@V?$basic_string@_WU?$char_traits@_W@std@@V?$allocator@_W@2@@std@@@2@@std@@CAXXZ 00406630 f i functions.obj
 0001:00005630       ?_Xlength@?$vector@V?$basic_string_view@_WU?$char_traits@_W@std@@@std@@V?$allocator@V?$basic_string_view@_WU?$char_traits@_W@std@@@std@@@2@@std@@CAXXZ 00406630 f i functions.obj
 0001:00005640       ?append@?$basic_string@_WU?$char_traits@_W@std@@V?$allocator@_W@2@@std@@QAEAAV12@I_W@Z 00406640 f i portable_settings.obj
 0001:000057c0       ?append@?$basic_string@_WU?$char_traits@_W@std@@V?$allocator@_W@2@@std@@QAEAAV12@QB_WI@Z 004067c0 f i portable_settings.obj
 0001:00005910       ?clone@EnumIteratorIniFileInt@@UBE?AV?$unique_ptr@V?$EnumIteratorImpl@H@@U?$default_delete@V?$EnumIteratorImpl@H@@@std@@@std@@XZ 00406910 f i portable_settings.obj
 0001:000059d0       ?clone@EnumIteratorIniFileString@@UBE?AV?$unique_ptr@V?$EnumIteratorImpl@V?$basic_string@_WU?$char_traits@_W@std@@V?$allocator@_W@2@@std@@@@U?$default_delete@V?$EnumIteratorImpl@V?$basic_string@_WU?$char_traits@_W@std@@V?$allocator@_W@2@@std@@@@@std@@@std@@XZ 004069d0 f i portable_settings.obj
 0001:00005aa0       ?clone@EnumIteratorRegistryInt@@UBE?AV?$unique_ptr@V?$EnumIteratorImpl@H@@U?$default_delete@V?$EnumIteratorImpl@H@@@std@@@std@@XZ 00406aa0 f i portable_settings.obj
 0001:00005b60       ?clone@EnumIteratorRegistryString@@UBE?AV?$unique_ptr@V?$EnumIteratorImpl@V?$basic_string@_WU?$char_traits@_W@std@@V?$allocator@_W@2@@std@@@@U?$default_delete@V?$EnumIteratorImpl@V?$basic_string@_WU?$char_traits@_W@std@@V?$allocator@_W@2@@std@@@@@std@@@std@@XZ 00406b60 f i portable_settings.obj
 0001:00005c30       ?deallocate@?$allocator@E@std@@QAEXQAEI@Z 00406c30 f i portable_settings.obj
 0001:00005c80       ?get_next_item_raw@?$EnumIteratorRegistryBase@H@@IAE?AV?$optional@V?$tuple@V?$basic_string@_WU?$char_traits@_W@std@@V?$allocator@_W@2@@std@@V12@KK@std@@@std@@XZ 00406c80 f i portable_settings.obj
 0001:00005f20       ?get_next_item_raw@?$EnumIteratorRegistryBase@V?$basic_string@_WU?$char_traits@_W@std@@V?$allocator@_W@2@@std@@@@IAE?AV?$optional@V?$tuple@V?$basic_string@_WU?$char_traits@_W@std@@V?$allocator@_W@2@@std@@V12@KK@std@@@std@@XZ 00406f20 f i portable_settings.obj
 0001:000061c0       ?next@EnumIteratorIniFileInt@@UAEXXZ 004071c0 f i portable_settings.obj
 0001:000063f0       ?next@EnumIteratorIniFileString@@UAEXXZ 004073f0 f i portable_settings.obj
 0001:000065c0       ?next@EnumIteratorRegistryInt@@UAEXXZ 004075c0 f i portable_settings.obj
 0001:00006740       ?next@EnumIteratorRegistryString@@UAEXXZ 00407740 f i portable_settings.obj
 0001:00006860       ?push_back@?$basic_string@_WU?$char_traits@_W@std@@V?$allocator@_W@2@@std@@QAEX_W@Z 00407860 f i portable_settings.obj
 0001:00006960       ?reserve@?$basic_string@_WU?$char_traits@_W@std@@V?$allocator@_W@2@@std@@QAEXI@Z 00407960 f i portable_settings.obj
 0001:00006a50       ?stol@std@@YAJABV?$basic_string@_WU?$char_traits@_W@std@@V?$allocator@_W@2@@1@PAIH@Z 00407a50 f i portable_settings.obj
 0001:00006ac0       ?to_wstring@std@@YA?AV?$basic_string@_WU?$char_traits@_W@std@@V?$allocator@_W@2@@1@H@Z 00407ac0 f i portable_settings.obj
 0001:00006bf0       ?what@exception@std@@UBEPBDXZ 00407bf0 f i portable_settings.obj
 0001:00006c00       _wmemchr                   00407c00 f i portable_settings.obj
 0001:00006d50       ?Allocate@CAtlStringMgr@ATL@@UAEPAUCStringData@2@HH@Z 00407d50 f i app.obj
 0001:00006dc0       ?Free@CAtlStringMgr@ATL@@UAEXPAUCStringData@2@@Z 00407dc0 f i app.obj
 0001:00006dd0       ?Reallocate@CAtlStringMgr@ATL@@UAEPAUCStringData@2@PAU32@HH@Z 00407dd0 f i app.obj
 0001:00006e30       ?GetNilString@CAtlStringMgr@ATL@@UAEPAUCStringData@2@XZ 00407e30 f i app.obj
 0001:00006e40       ?Clone@CAtlStringMgr@ATL@@UAEPAUIAtlStringMgr@2@XZ 00407e40 f i app.obj
 0001:00006e40       ?EnsureLinked@CAtlStringMgrStaticInitializer@ATLImplementationDetails@ATL@@QAEPAXXZ 00407e40 f i app.obj
 0001:00006e50       ??_ECAtlStringMgr@ATL@@UAEPAXI@Z 00407e50 f i app.obj
 0001:00006e50       ??_GCAtlStringMgr@ATL@@UAEPAXI@Z 00407e50 f i app.obj
 0001:00006e80       ?Lock@CAtlModule@ATL@@UAEJXZ 00407e80 f i app.obj
 0001:00006e90       ?Unlock@CAtlModule@ATL@@UAEJXZ 00407e90 f i app.obj
 0001:00006ea0       ?GetLockCount@CAtlModule@ATL@@UAEJXZ 00407ea0 f i app.obj
 0001:00006eb0       ?GetGITPtr@CAtlModule@ATL@@UAEJPAPAUIGlobalInterfaceTable@@@Z 00407eb0 f i app.obj
 0001:00006f40       ?AddCommonRGSReplacements@?$CAtlModuleT@VCComModule@ATL@@@ATL@@UAEJPAUIRegistrarBase@@@Z 00407f40 f i app.obj
 0001:00006f90       ?UpdateRegistryFromResourceD@CComModule@ATL@@UAGJIHPAU_ATL_REGMAP_ENTRY@2@@Z 00407f90 f i app.obj
 0001:00006f90       ?UpdateRegistryFromResourceD@CComModule@ATL@@UAGJPB_WHPAU_ATL_REGMAP_ENTRY@2@@Z 00407f90 f i app.obj
 0001:00006fa0       ?UpdateRegistryFromResource@CComModule@ATL@@UAGJPB_WHPAU_ATL_REGMAP_ENTRY@2@@Z 00407fa0 f i app.obj
 0001:00006fb0       ?UpdateRegistryFromResource@CComModule@ATL@@UAGJIHPAU_ATL_REGMAP_ENTRY@2@@Z 00407fb0 f i app.obj
 0001:00006fc0       ??_ECComModule@ATL@@UAEPAXI@Z 00407fc0 f i app.obj
 0001:00006fc0       ??_GCComModule@ATL@@UAEPAXI@Z 00407fc0 f i app.obj
 0001:00006ff0       ??_ECAppModule@WTL@@UAEPAXI@Z 00407ff0 f i app.obj
 0001:00006ff0       ??_GCAppModule@WTL@@UAEPAXI@Z 00407ff0 f i app.obj
 0001:00007020       ?QueryInterface@CRegObject@ATL@@UAGJABU_GUID@@PAPAX@Z 00408020 f i app.obj
 0001:00007030       ?AddRef@CRegObject@ATL@@UAGKXZ 00408030 f i app.obj
 0001:00007040       ?Release@CRegObject@ATL@@UAGKXZ 00408040 f i app.obj
 0001:00007040       ?_Get_deleter@_Ref_count_base@std@@UBEPAXABVtype_info@@@Z 00408040 f i task_manager_dlg.obj
 0001:00007050       ?AddReplacement@CRegObject@ATL@@UAGJPB_W0@Z 00408050 f i app.obj
 0001:000070f0       ?ClearReplacements@CRegObject@ATL@@UAGJXZ 004080f0 f i app.obj
 0001:00007120       ??_ECRegObject@ATL@@UAEPAXI@Z 00408120 f i app.obj
 0001:00007120       ??_GCRegObject@ATL@@UAEPAXI@Z 00408120 f i app.obj
 0001:00007150       ?Allocate@CWin32Heap@ATL@@UAEPAXI@Z 00408150 f i app.obj
 0001:00007170       ?Free@CWin32Heap@ATL@@UAEXPAX@Z 00408170 f i app.obj
 0001:00007190       ?Reallocate@CWin32Heap@ATL@@UAEPAXPAXI@Z 00408190 f i app.obj
 0001:000071d0       ?GetSize@CWin32Heap@ATL@@UAEIPAX@Z 004081d0 f i app.obj
 0001:000071f0       ??_ECWin32Heap@ATL@@UAEPAXI@Z 004081f0 f i app.obj
 0001:000071f0       ??_GCWin32Heap@ATL@@UAEPAXI@Z 004081f0 f i app.obj
 0001:00007230       ??$AdaptFixedSizeToAllocatedResult@V?$basic_string@_WU?$char_traits@_W@std@@V?$allocator@_W@2@@std@@$0BAA@@wil@@YAJAAV?$basic_string@_WU?$char_traits@_W@std@@V?$allocator@_W@2@@std@@V?$function@$$A6AJPA_WIPAI@Z@wistd@@@Z 00408230 f i app.obj
 0001:00007720       ??$AdaptFixedSizeToAllocatedResult@V?$basic_string@_WU?$char_traits@_W@std@@V?$allocator@_W@2@@std@@$0IA@@wil@@YAJAAV?$basic_string@_WU?$char_traits@_W@std@@V?$allocator@_W@2@@std@@V?$function@$$A6AJPA_WIPAI@Z@wistd@@@Z 00408720 f i app.obj
 0001:00007c10       ??$AtlModuleRegisterWndClassInfoT@VAtlModuleRegisterWndClassInfoParamW@ATL@@@ATL@@YAGPAU_ATL_BASE_MODULE70@0@PAU_ATL_WIN_MODULE70@0@PAU_ATL_WNDCLASSINFOW@0@PAP6GJPAUHWND__@@IIJ@ZVAtlModuleRegisterWndClassInfoParamW@0@@Z 00408c10 f i app.obj
 0001:00007e00       ??$GetModuleFileNameW@V?$basic_string@_WU?$char_traits@_W@std@@V?$allocator@_W@2@@std@@$0IA@@wil@@YA?AV?$basic_string@_WU?$char_traits@_W@std@@V?$allocator@_W@2@@std@@PAUHINSTANCE__@@@Z 00408e00 f i app.obj
 0001:00007ed0       ??$ReportFailure_Base@$00$0A@@details@wil@@YAXPAXIPBD110ABUResultStatus@01@PB_WW4ReportFailureOptions@01@W4FailureFlags@1@@Z 00408ed0 f i app.obj
 0001:00007ee0       ??$ReportFailure_Base@$02$0A@@details@wil@@YAXPAXIPBD110ABUResultStatus@01@PB_WW4ReportFailureOptions@01@W4FailureFlags@1@@Z 00408ee0 f i app.obj
 0001:00007f10       ??$ReportFailure_GetLastError@$02@details@wil@@YAKPAXIPBD110@Z 00408f10 f i app.obj
 0001:00007f80       ??$ReportFailure_GetLastError@$0A@@details@wil@@YAKPAXIPBD110@Z 00408f80 f i app.obj
 0001:00007ff0       ??$ReportFailure_GetLastErrorHr@$00@details@wil@@YAJPAXIPBD110@Z 00408ff0 f i app.obj
 0001:000080b0       ??$ReportFailure_Hr@$00@details@wil@@YAXPAXIPBD110JW4FailureFlags@1@@Z 004090b0 f i app.obj
 0001:00008100       ??$ReportFailure_Hr@$02@details@wil@@YAXPAXIPBD110JW4FailureFlags@1@@Z 00409100 f i app.obj
 0001:00008150       ??$ReportFailure_Hr@$0A@@details@wil@@YAXPAXIPBD110JW4FailureFlags@1@@Z 00409150 f i app.obj
 0001:000081a0       ??$ReportFailure_NoReturn@$02@details@wil@@YAXPAXIPBD110ABUResultStatus@01@PB_WW4ReportFailureOptions@01@@Z 004091a0 f i app.obj
 0001:00008490       ??$ReportFailure_Return@$00@details@wil@@YAXPAXIPBD110ABUResultStatus@01@PB_WW4ReportFailureOptions@01@W4FailureFlags@1@@Z 00409490 f i app.obj
 0001:00008790       ??$_Insert_counted_range@PBE@?$vector@EV?$allocator@E@std@@@std@@AAEXV?$_Vector_const_iterator@V?$_Vector_val@U?$_Simple_types@E@std@@@std@@@1@PBEI@Z 00409790 f i app.obj
 0001:00008980       ??$_Reallocate_grow_by@V<lambda_1>@?1??insert@?$basic_string@_WU?$char_traits@_W@std@@V?$allocator@_W@2@@std@@QAEAAV34@IQB_WI@Z@IPB_WI@?$basic_string@_WU?$char_traits@_W@std@@V?$allocator@_W@2@@std@@AAEAAV01@IV<lambda_1>@?1??insert@01@QAEAAV01@IQB_WI@Z@IPB_WI@Z 00409980 f i app.obj
 0001:00008ab0       ??0?$CStringT@_WV?$StrTraitATL@_WV?$ChTraitsCRT@_W@ATL@@@ATL@@@ATL@@QAE@PB_WPAUIAtlStringMgr@1@@Z 00409ab0 f i app.obj
 0001:00008c50       ??0?$unique_any_t@V?$unique_storage@U?$handle_null_only_resource_policy@P6GHPAX@Z$1?CloseHandle@@YGH0@Z@details@wil@@@details@wil@@@wil@@QAE@XZ 00409c50 f i app.obj
 0001:00008c60       ??0bad_optional_access@std@@QAE@ABV01@@Z 00409c60 f i app.obj
 0001:00008ca0       ??0bad_optional_access@std@@QAE@XZ 00409ca0 f i app.obj
 0001:00008cc0       ??1?$CAtlSafeAllocBufferManager@VCCRTAllocator@ATL@@@_ATL_SAFE_ALLOCA_IMPL@ATL@@QAE@XZ 00409cc0 f i app.obj
 0001:00008cf0       ??1?$CAutoVectorPtr@_W@ATL@@QAE@XZ 00409cf0 f i app.obj
 0001:00008d10       ??1?$CSimpleStringT@D$0A@@ATL@@QAE@XZ 00409d10 f i storage_manager.obj
 0001:00008d10       ??1?$CSimpleStringT@_W$0A@@ATL@@QAE@XZ 00409d10 f i app.obj
 0001:00008d10       ??1?$CStringT@DV?$StrTraitATL@DV?$ChTraitsCRT@D@ATL@@@ATL@@@ATL@@QAE@XZ 00409d10 f i storage_manager.obj
 0001:00008d10       ??1?$CStringT@_WV?$StrTraitATL@_WV?$ChTraitsCRT@_W@ATL@@@ATL@@@ATL@@QAE@XZ 00409d10 f i app.obj
 0001:00008d30       ??1?$CTempBuffer@E$0BAA@VCCRTAllocator@ATL@@@ATL@@QAE@XZ 00409d30 f i app.obj
 0001:00008d30       ??1?$CTempBuffer@_W$0BAA@VCCRTAllocator@ATL@@@ATL@@QAE@XZ 00409d30 f i app.obj
 0001:00008d30       ??1?$CTempBuffer@_W$0EAA@VCCRTAllocator@ATL@@@ATL@@QAE@XZ 00409d30 f i app.obj
 0001:00008d40       ??1?$unique_any_t@V?$event_t@V?$unique_storage@U?$resource_policy@PAXP6GXPAX@_E$1?CloseHandle@details@wil@@YGX0@ZU?$integral_constant@I$0A@@wistd@@PAXPAX$0A@$$T@details@wil@@@details@wil@@Uerr_exception_policy@3@@wil@@@wil@@QAE@XZ 00409d40 f i app.obj
 0001:00008d40       ??1?$unique_any_t@V?$mutex_t@V?$unique_storage@U?$resource_policy@PAXP6GXPAX@_E$1?CloseHandle@details@wil@@YGX0@ZU?$integral_constant@I$0A@@wistd@@PAXPAX$0A@$$T@details@wil@@@details@wil@@Uerr_returncode_policy@3@@wil@@@wil@@QAE@XZ 00409d40 f i app.obj
 0001:00008d70       ??1?$unique_any_t@V?$unique_storage@U?$handle_invalid_resource_policy@P6GHPAX@Z$1?CloseHandle@@YGH0@Z@details@wil@@@details@wil@@@wil@@QAE@XZ 00409d70 f i app.obj
 0001:00008d90       ??1?$unique_any_t@V?$unique_storage@U?$handle_null_only_resource_policy@P6GHPAX@Z$1?CloseHandle@@YGH0@Z@details@wil@@@details@wil@@@wil@@QAE@XZ 00409d90 f i app.obj
 0001:00008da0       ??1?$unique_any_t@V?$unique_storage@U?$resource_policy@PAXP6GXPAX@_E$1?ReleaseMutex@details@wil@@YGX0@ZU?$integral_constant@I$01@wistd@@PAXPAX$0A@$$T@details@wil@@@details@wil@@@wil@@QAE@XZ 00409da0 f i app.obj
 0001:00008dd0       ??1?$unique_ptr@U_WTS_SESSION_INFOW@@U?$function_deleter@P6GXPAX@Z$1?WTSFreeMemory@@YGX0@Z@wil@@@wistd@@QAE@XZ 00409dd0 f i app.obj
 0001:00008dd0       ??1?$unique_ptr@_WU?$function_deleter@P6GXPAX@Z$1?WTSFreeMemory@@YGX0@Z@wil@@@wistd@@QAE@XZ 00409dd0 f i app.obj
 0001:00008df0       ??1?$unique_ptr@VPortableSettings@@U?$default_delete@VPortableSettings@@@std@@@std@@QAE@XZ 00409df0 f i app.obj
 0001:00008df0       ??1?$unique_ptr@V_Facet_base@std@@U?$default_delete@V_Facet_base@std@@@2@@std@@QAE@XZ 00409df0 f i ui_control.obj
 0001:00008e00       ??1?$unique_struct@U_PROCESS_INFORMATION@@P6GXPAU1@@Z$1?CloseProcessInformation@details@wil@@YGX0@Z$$T$0A@@wil@@QAE@XZ 00409e00 f i app.obj
 0001:00008e10       ??1?$vector@IV?$allocator@I@std@@@std@@QAE@XZ 00409e10 f i ui_control.obj
 0001:00008e10       ??1?$vector@PAUHWND__@@V?$allocator@PAUHWND__@@@std@@@std@@QAE@XZ 00409e10 f i app.obj
 0001:00008e10       ??1?$vector@PAV?$basic_json@Uordered_map@nlohmann@@Vvector@std@@V?$basic_string@DU?$char_traits@D@std@@V?$allocator@D@2@@4@_N_J_KNVallocator@4@Uadl_serializer@2@V?$vector@EV?$allocator@E@std@@@4@@nlohmann@@V?$allocator@PAV?$basic_json@Uordered_map@nlohmann@@Vvector@std@@V?$basic_string@DU?$char_traits@D@std@@V?$allocator@D@2@@4@_N_J_KNVallocator@4@Uadl_serializer@2@V?$vector@EV?$allocator@E@std@@@4@@nlohmann@@@std@@@std@@QAE@XZ 00409e10 f i ui_control.obj
 0001:00008e10       ??1?$vector@PAV?$basic_json@Vmap@std@@Vvector@2@V?$basic_string@DU?$char_traits@D@std@@V?$allocator@D@2@@2@_N_J_KNVallocator@2@Uadl_serializer@nlohmann@@V?$vector@EV?$allocator@E@std@@@2@@nlohmann@@V?$allocator@PAV?$basic_json@Vmap@std@@Vvector@2@V?$basic_string@DU?$char_traits@D@std@@V?$allocator@D@2@@2@_N_J_KNVallocator@2@Uadl_serializer@nlohmann@@V?$vector@EV?$allocator@E@std@@@2@@nlohmann@@@std@@@std@@QAE@XZ 00409e10 f i userprofile.obj
 0001:00008e10       ??1?$vector@PB_WV?$allocator@PB_W@std@@@std@@QAE@XZ 00409e10 f i update_checker.obj
 0001:00008e10       ?_Tidy@?$vector@PAUHWND__@@V?$allocator@PAUHWND__@@@std@@@std@@AAEXXZ 00409e10 f i ui_control.obj
 0001:00008e70       ??1CAsyncDownloader@WinHTTPWrappers@@UAE@XZ 00409e70 f i app.obj
 0001:00008f50       ??1CCritSecLock@ATL@@QAE@XZ 00409f50 f i app.obj
 0001:00008f50       ??1CStaticDataInitCriticalSectionLock@WTL@@QAE@XZ 00409f50 f i app.obj
 0001:00008f70       ??1CMainWindow@@UAE@XZ     00409f70 f i app.obj
 0001:00009120       ??1CMessageLoop@WTL@@UAE@XZ 0040a120 f i app.obj
 0001:00009190       ??1CParseBuffer@CRegParser@ATL@@QAE@XZ 0040a190 f i app.obj
 0001:000091a0       ??1CRegKey@ATL@@QAE@XZ     0040a1a0 f i app.obj
 0001:000091c0       ??1CRegObject@ATL@@UAE@XZ  0040a1c0 f i app.obj
 0001:00009270       ??1CSimpleWinHTTPDownloader@CWinHTTPSimple@@UAE@XZ 0040a270 f i app.obj
 0001:000092f0       ??1CWinHTTPSimple@@QAE@XZ  0040a2f0 f i app.obj
 0001:00009350       ??1UpdateChecker@@QAE@XZ   0040a350 f i app.obj
 0001:00009400       ??1_Reallocation_guard@?$vector@EV?$allocator@E@std@@@std@@QAE@XZ 0040a400 f i app.obj
 0001:00009440       ??R?$__func@V<lambda_1>@?1???$K32GetModuleFileNameExW@V?$basic_string@_WU?$char_traits@_W@std@@V?$allocator@_W@2@@std@@$0IA@@wil@@YAJPAXPAUHINSTANCE__@@AAV?$basic_string@_WU?$char_traits@_W@std@@V?$allocator@_W@2@@std@@@Z@$$A6AJPA_WIPAI@Z@__function@wistd@@UAEJ$$QAPA_W$$QAI$$QAPAI@Z 0040a440 f i app.obj
 0001:000094e0       ??R?$__func@V<lambda_1>@?1???$QueryFullProcessImageNameW@V?$basic_string@_WU?$char_traits@_W@std@@V?$allocator@_W@2@@std@@$0BAA@@wil@@YAJPAXKAAV?$basic_string@_WU?$char_traits@_W@std@@V?$allocator@_W@2@@std@@@Z@$$A6AJPA_WIPAI@Z@__function@wistd@@UAEJ$$QAPA_W$$QAI$$QAPAI@Z 0040a4e0 f i app.obj
 0001:00009550       ??R_Is_slash_oper@filesystem@std@@SA_N_W@Z 0040a550 f i app.obj
 0001:00009570       ??_E?$__base@$$A6AJPA_WIPAI@Z@__function@wistd@@UAEPAXI@Z 0040a570 f i app.obj
 0001:00009570       ??_G?$__base@$$A6AJPA_WIPAI@Z@__function@wistd@@UAEPAXI@Z 0040a570 f i app.obj
 0001:000095a0       ??_E?$__func@V<lambda_1>@?1???$K32GetModuleFileNameExW@V?$basic_string@_WU?$char_traits@_W@std@@V?$allocator@_W@2@@std@@$0IA@@wil@@YAJPAXPAUHINSTANCE__@@AAV?$basic_string@_WU?$char_traits@_W@std@@V?$allocator@_W@2@@std@@@Z@$$A6AJPA_WIPAI@Z@__function@wistd@@UAEPAXI@Z 0040a5a0 f i app.obj
 0001:000095a0       ??_E?$__func@V<lambda_1>@?1???$QueryFullProcessImageNameW@V?$basic_string@_WU?$char_traits@_W@std@@V?$allocator@_W@2@@std@@$0BAA@@wil@@YAJPAXKAAV?$basic_string@_WU?$char_traits@_W@std@@V?$allocator@_W@2@@std@@@Z@$$A6AJPA_WIPAI@Z@__function@wistd@@UAEPAXI@Z 0040a5a0 f i app.obj
 0001:000095a0       ??_G?$__func@V<lambda_1>@?1???$K32GetModuleFileNameExW@V?$basic_string@_WU?$char_traits@_W@std@@V?$allocator@_W@2@@std@@$0IA@@wil@@YAJPAXPAUHINSTANCE__@@AAV?$basic_string@_WU?$char_traits@_W@std@@V?$allocator@_W@2@@std@@@Z@$$A6AJPA_WIPAI@Z@__function@wistd@@UAEPAXI@Z 0040a5a0 f i app.obj
 0001:000095a0       ??_G?$__func@V<lambda_1>@?1???$QueryFullProcessImageNameW@V?$basic_string@_WU?$char_traits@_W@std@@V?$allocator@_W@2@@std@@$0BAA@@wil@@YAJPAXKAAV?$basic_string@_WU?$char_traits@_W@std@@V?$allocator@_W@2@@std@@@Z@$$A6AJPA_WIPAI@Z@__function@wistd@@UAEPAXI@Z 0040a5a0 f i app.obj
 0001:000095d0       ??_ECAsyncDownloader@WinHTTPWrappers@@UAEPAXI@Z 0040a5d0 f i app.obj
 0001:000095d0       ??_GCAsyncDownloader@WinHTTPWrappers@@UAEPAXI@Z 0040a5d0 f i app.obj
 0001:00009600       ??_ECConnection@WinHTTPWrappers@@UAEPAXI@Z 0040a600 f i update_checker.obj
 0001:00009600       ??_ECHandle@WinHTTPWrappers@@UAEPAXI@Z 0040a600 f i app.obj
 0001:00009600       ??_ECSession@WinHTTPWrappers@@UAEPAXI@Z 0040a600 f i update_checker.obj
 0001:00009600       ??_GCConnection@WinHTTPWrappers@@UAEPAXI@Z 0040a600 f i update_checker.obj
 0001:00009600       ??_GCHandle@WinHTTPWrappers@@UAEPAXI@Z 0040a600 f i app.obj
 0001:00009600       ??_GCSession@WinHTTPWrappers@@UAEPAXI@Z 0040a600 f i update_checker.obj
 0001:00009640       ??_ECMessageLoop@WTL@@UAEPAXI@Z 0040a640 f i app.obj
 0001:00009640       ??_GCMessageLoop@WTL@@UAEPAXI@Z 0040a640 f i app.obj
 0001:00009670       ??_ECSimpleWinHTTPDownloader@CWinHTTPSimple@@UAEPAXI@Z 0040a670 f i app.obj
 0001:00009670       ??_GCSimpleWinHTTPDownloader@CWinHTTPSimple@@UAEPAXI@Z 0040a670 f i app.obj
 0001:000096a0       ?Add@CExpansionVector@ATL@@QAEHPB_W0@Z 0040a6a0 f i app.obj
 0001:00009860       ?AddValue@CRegParser@ATL@@IAEJAAVCRegKey@2@PB_WPA_W@Z 0040a860 f i app.obj
 0001:00009d80       ?AllocateHeap@?$CTempBuffer@E$0BAA@VCCRTAllocator@ATL@@@ATL@@AAEXI@Z 0040ad80 f i app.obj
 0001:00009d80       ?AllocateHeap@?$CTempBuffer@_W$0BAA@VCCRTAllocator@ATL@@@ATL@@AAEXI@Z 0040ad80 f i app.obj
 0001:00009d80       ?AllocateHeap@?$CTempBuffer@_W$0EAA@VCCRTAllocator@ATL@@@ATL@@AAEXI@Z 0040ad80 f i app.obj
 0001:00009db0       ?Append@CParseBuffer@CRegParser@ATL@@QAEHPB_WH@Z 0040adb0 f i app.obj
 0001:00009e60       ?AtlCrtErrorCheck@ATL@@YAHH@Z 0040ae60 f i app.obj
 0001:00009f00       ?AtlHresultFromLastError@ATL@@YAJXZ 0040af00 f i app.obj
 0001:00009f20       ?AtlHresultFromWin32@ATL@@YAJK@Z 0040af20 f i app.obj
 0001:00009f40       ?AtlThrowImpl@ATL@@YGXJ@Z  0040af40 f i app.obj
 0001:00009f60       ?ChooseAuthScheme@CAsyncDownloader@WinHTTPWrappers@@UAEKKKK@Z 0040af60 f i app.obj
 0001:00009fb0       ?ClearReplacements@CExpansionVector@ATL@@QAEJXZ 0040afb0 f i app.obj
 0001:0000a040       ?CloseProcessInformation@details@wil@@YGXPAU_PROCESS_INFORMATION@@@Z 0040b040 f i app.obj
 0001:0000a0a0       ?DeleteDownloadedFile@CAsyncDownloader@WinHTTPWrappers@@QAEJXZ 0040b0a0 f i app.obj
 0001:0000a0f0       ?DeleteSubKey@CRegKey@ATL@@QAEJPB_W@Z 0040b0f0 f i app.obj
 0001:0000a220       ?DoAuthentication@CAsyncDownloader@WinHTTPWrappers@@UAEJKKK@Z 0040b220 f i app.obj
 0001:0000a2b0       ?DoBandwidthThrottling@CAsyncDownloader@WinHTTPWrappers@@MAEXXZ 0040b2b0 f i app.obj
 0001:0000a410       ?EscapeSingleQuote@CAtlModule@ATL@@SAXPA_WIPB_W@Z 0040b410 f i app.obj
 0001:0000a4a0       ?Fork@?$CSimpleStringT@_W$0A@@ATL@@AAEXH@Z 0040b4a0 f i app.obj
 0001:0000a560       ?Format@?$CStringT@_WV?$StrTraitATL@_WV?$ChTraitsCRT@_W@ATL@@@ATL@@@ATL@@QAAXPB_WZZ 0040b560 f i app.obj
 0001:0000a690       ?FreeHeap@?$CTempBuffer@E$0BAA@VCCRTAllocator@ATL@@@ATL@@AAEXXZ 0040b690 f i app.obj
 0001:0000a690       ?FreeHeap@?$CTempBuffer@_W$0BAA@VCCRTAllocator@ATL@@@ATL@@AAEXXZ 0040b690 f i app.obj
 0001:0000a690       ?FreeHeap@?$CTempBuffer@_W$0EAA@VCCRTAllocator@ATL@@@ATL@@AAEXXZ 0040b690 f i app.obj
 0001:0000a6a0       ?GetContentLength@CAsyncDownloader@WinHTTPWrappers@@UAEKXZ 0040b6a0 f i app.obj
 0001:0000a6d0       ?GetHeaders@CAsyncDownloader@WinHTTPWrappers@@UAE?AV?$basic_string@_WU?$char_traits@_W@std@@V?$allocator@_W@2@@std@@XZ 0040b6d0 f i app.obj
 0001:0000a870       ?GetInstance@CAtlStringMgr@ATL@@SAPAUIAtlStringMgr@2@XZ 0040b870 f i app.obj
 0001:0000a9e0       ?GetLastErrorFail@details@wil@@YAKPAXIPBD110@Z 0040b9e0 f i app.obj
 0001:0000aa50       ?Init@CAppModule@WTL@@QAEJPAU_ATL_OBJMAP_ENTRY30@ATL@@PAUHINSTANCE__@@PBU_GUID@@@Z 0040ba50 f i app.obj
 0001:0000ab80       ?IsIdleMessage@CMessageLoop@WTL@@UBEHPAUtagMSG@@@Z 0040bb80 f i app.obj
 0001:0000abc0       ?NextToken@CRegParser@ATL@@IAEJPA_W@Z 0040bbc0 f i app.obj
 0001:0000ad80       ?On401Response@CAsyncDownloader@WinHTTPWrappers@@MAEJXZ 0040bd80 f i app.obj
 0001:0000aee0       ?On407Response@CAsyncDownloader@WinHTTPWrappers@@MAEJXZ 0040bee0 f i app.obj
 0001:0000b030       ?OnCallback@CAsyncDownloader@WinHTTPWrappers@@MAEJPAXK0K@Z 0040c030 f i app.obj
 0001:0000b090       ?OnCallback@CHandle@WinHTTPWrappers@@MAEJPAXK0K@Z 0040c090 f i app.obj
 0001:0000b0a0       ?OnCallback@CSimpleWinHTTPDownloader@CWinHTTPSimple@@MAEJPAXK0K@Z 0040c0a0 f i app.obj
 0001:0000b150       ?OnCallbackComplete@CAsyncDownloader@WinHTTPWrappers@@MAEJJPAXK0K@Z 0040c150 f i app.obj
 0001:0000b1b0       ?OnCallbackComplete@CHandle@WinHTTPWrappers@@MAEJJPAXK0K@Z 0040c1b0 f i app.obj
 0001:0000b1c0       ?OnCallbackComplete@CSimpleWinHTTPDownloader@CWinHTTPSimple@@MAEJJPAXK0K@Z 0040c1c0 f i app.obj
 0001:0000b260       ?OnCheckStatusCode@CAsyncDownloader@WinHTTPWrappers@@MAEJXZ 0040c260 f i app.obj
 0001:0000b2b0       ?OnHeadersAvailableCallback@CAsyncDownloader@WinHTTPWrappers@@MAEJPAXK0K@Z 0040c2b0 f i app.obj
 0001:0000b3d0       ?OnIdle@CMessageLoop@WTL@@UAEHH@Z 0040c3d0 f i app.obj
 0001:0000b460       ?OnReadCompleteCallback@CAsyncDownloader@WinHTTPWrappers@@MAEJPAXK0K@Z 0040c460 f i app.obj
 0001:0000b530       ?OnReadData@CAsyncDownloader@WinHTTPWrappers@@MAEJPBXK@Z 0040c530 f i app.obj
 0001:0000b630       ?OnRequestErrorCallback@CAsyncDownloader@WinHTTPWrappers@@MAEJPAXK0K@Z 0040c630 f i app.obj
 0001:0000b720       ?OnWriteCallback@CAsyncDownloader@WinHTTPWrappers@@MAEJPAXK0K@Z 0040c720 f i app.obj
 0001:0000b750       ?OnWriteData@CAsyncDownloader@WinHTTPWrappers@@MAEJXZ 0040c750 f i app.obj
 0001:0000b8c0       ?PreProcessBuffer@CRegParser@ATL@@QAEJPA_WPAPA_W@Z 0040c8c0 f i app.obj
 0001:0000bc90       ?PreTranslateMessage@CMessageLoop@WTL@@UAEHPAUtagMSG@@@Z 0040cc90 f i app.obj
 0001:0000bce0       ?PrepareWrite2@?$CSimpleStringT@_W$0A@@ATL@@AAEXH@Z 0040cce0 f i app.obj
 0001:0000bd40       ?QueryContentLength@CAsyncDownloader@WinHTTPWrappers@@IAEJAA_J@Z 0040cd40 f i app.obj
 0001:0000be70       ?Reallocate@?$CSimpleStringT@_W$0A@@ATL@@AAEXH@Z 0040ce70 f i app.obj
 0001:0000beb0       ?RecurseDeleteKey@CRegKey@ATL@@QAEJPB_W@Z 0040ceb0 f i app.obj
 0001:0000c070       ?RegisterBuffer@CRegParser@ATL@@QAEJPA_WH@Z 0040d070 f i app.obj
 0001:0000c210       ?RegisterFromResource@CRegObject@ATL@@IAEJPB_W00H@Z 0040d210 f i app.obj
 0001:0000c420       ?RegisterSubkeys@CRegParser@ATL@@IAEJPA_WPAUHKEY__@@HH@Z 0040d420 f i app.obj
 0001:0000ce40       ?ReleaseResources@CAsyncDownloader@WinHTTPWrappers@@QAEXXZ 0040de40 f i app.obj
 0001:0000cf10       ?RemoveAt@?$CSimpleMap@KPAVCMessageLoop@WTL@@V?$CSimpleMapEqualHelper@KPAVCMessageLoop@WTL@@@ATL@@@ATL@@QAEHH@Z 0040df10 f i app.obj
 0001:0000d060       ?ResultFromCaughtException@wil@@YAJXZ 0040e060 f i app.obj
 0001:0000d0f0       ?Return_GetLastError@in1diag3@details@wil@@YAJPAXIPBD@Z 0040e0f0 f i app.obj
 0001:0000d140       ?Return_Hr@in1diag3@details@wil@@YAXPAXIPBDJ@Z 0040e140 f i app.obj
 0001:0000e3b0       ?SendRequest@CAsyncDownloader@WinHTTPWrappers@@QAEJPAXKABV?$basic_string@_WU?$char_traits@_W@std@@V?$allocator@_W@2@@std@@@Z 0040f3b0 f i app.obj
 0001:0000e490       ?SendRequestSync@CSimpleWinHTTPDownloader@CWinHTTPSimple@@UAEJPAXK@Z 0040f490 f i app.obj
 0001:0000e510       ?SendRequestSync@CSyncDownloader@WinHTTPWrappers@@UAEJPAXKABV?$basic_string@_WU?$char_traits@_W@std@@V?$allocator@_W@2@@std@@@Z 0040f510 f i app.obj
 0001:0000ed50       ?SetString@?$CSimpleStringT@_W$0A@@ATL@@QAEXPB_WH@Z 0040fd50 f i app.obj
 0001:0000ef10       ?SkipAssignment@CRegParser@ATL@@IAEJPA_W@Z 0040ff10 f i app.obj
 0001:0000ef90       ?SkipWhiteSpace@CRegParser@ATL@@IAEXXZ 0040ff90 f i app.obj
 0001:0000f000       ?StartWindowProc@?$CWindowImplBaseT@VCWindow@ATL@@V?$CWinTraits@$0A@$0A@@2@@ATL@@SGJPAUHWND__@@IIJ@Z 00410000 f i app.obj
 0001:0000f0d0       ?Term@CAtlModule@ATL@@QAEXXZ 004100d0 f i app.obj
 0001:0000f190       ?ThrowMemoryException@?$CSimpleStringT@D$0A@@ATL@@KAXXZ 00410190 f i storage_manager.obj
 0001:0000f190       ?ThrowMemoryException@?$CSimpleStringT@_W$0A@@ATL@@KAXXZ 00410190 f i app.obj
 0001:0000f1a0       ?Throw_GetLastError@in1diag3@details@wil@@YAXPAXIPBD@Z 004101a0 f i app.obj
 0001:0000f1a0       ?_Throw_GetLastError@in1diag3@details@wil@@YAXPAXIPBD@Z 004101a0 f i app.obj
 0001:0000f1c0       ?UpdateRegistryFromResource@CAtlModule@ATL@@QAGJIHPAU_ATL_REGMAP_ENTRY@2@@Z 004101c0 f i app.obj
 0001:0000f540       ?UpdateRegistryFromResource@CAtlModule@ATL@@QAGJPB_WHPAU_ATL_REGMAP_ENTRY@2@@Z 00410540 f i app.obj
 0001:00010270       ?_AtlGetStringResourceImage@ATL@@YAPBUATLSTRINGRESOURCEIMAGE@1@PAUHINSTANCE__@@PAUHRSRC__@@I@Z 00411270 f i app.obj
 0001:000102d0       ?_AtlInitializeCriticalSectionEx@ATL@@YAHPAU_RTL_CRITICAL_SECTION@@KK@Z 004112d0 f i app.obj
 0001:000102f0       ?_AtlRaiseException@ATL@@YAXKK@Z 004112f0 f i app.obj
 0001:00010310       ?_FailFast_GetLastError@in1diag3@details@wil@@YAXPAXIPBD@Z 00411310 f i app.obj
 0001:00010350       ?_FailFast_Hr@in1diag3@details@wil@@YAXPAXIPBDJ@Z 00411350 f i app.obj
 0001:000103a0       ?_Find_root_name_end@filesystem@std@@YAPB_WQB_W0@Z 004113a0 f i app.obj
 0001:000104c0       ?_Throw_Hr@in1diag3@details@wil@@YAXPAXIPBDJ@Z 004114c0 f i app.obj
 0001:000104e0       ?_Throw_bad_optional_access@std@@YAXXZ 004114e0 f i app.obj
 0001:00010510       ?_Xran@?$_String_val@U?$_Simple_types@_W@std@@@std@@SAXXZ 00411510 f i app.obj
 0001:00010520       ?__clone@?$__func@V<lambda_1>@?1???$K32GetModuleFileNameExW@V?$basic_string@_WU?$char_traits@_W@std@@V?$allocator@_W@2@@std@@$0IA@@wil@@YAJPAXPAUHINSTANCE__@@AAV?$basic_string@_WU?$char_traits@_W@std@@V?$allocator@_W@2@@std@@@Z@$$A6AJPA_WIPAI@Z@__function@wistd@@UBEXPAV?$__base@$$A6AJPA_WIPAI@Z@23@@Z 00411520 f i app.obj
 0001:00010520       ?__move@?$__func@V<lambda_1>@?1???$K32GetModuleFileNameExW@V?$basic_string@_WU?$char_traits@_W@std@@V?$allocator@_W@2@@std@@$0IA@@wil@@YAJPAXPAUHINSTANCE__@@AAV?$basic_string@_WU?$char_traits@_W@std@@V?$allocator@_W@2@@std@@@Z@$$A6AJPA_WIPAI@Z@__function@wistd@@UAEXPAV?$__base@$$A6AJPA_WIPAI@Z@23@@Z 00411520 f i app.obj
 0001:00010540       ?__clone@?$__func@V<lambda_1>@?1???$QueryFullProcessImageNameW@V?$basic_string@_WU?$char_traits@_W@std@@V?$allocator@_W@2@@std@@$0BAA@@wil@@YAJPAXKAAV?$basic_string@_WU?$char_traits@_W@std@@V?$allocator@_W@2@@std@@@Z@$$A6AJPA_WIPAI@Z@__function@wistd@@UBEXPAV?$__base@$$A6AJPA_WIPAI@Z@23@@Z 00411540 f i app.obj
 0001:00010540       ?__move@?$__func@V<lambda_1>@?1???$QueryFullProcessImageNameW@V?$basic_string@_WU?$char_traits@_W@std@@V?$allocator@_W@2@@std@@$0BAA@@wil@@YAJPAXKAAV?$basic_string@_WU?$char_traits@_W@std@@V?$allocator@_W@2@@std@@@Z@$$A6AJPA_WIPAI@Z@__function@wistd@@UAEXPAV?$__base@$$A6AJPA_WIPAI@Z@23@@Z 00411540 f i app.obj
 0001:00010560       ??1?$CIconT@$0A@@WTL@@QAE@XZ 00411560 f i task_manager_dlg.obj
 0001:00010560       ?_Lock@?$basic_streambuf@DU?$char_traits@D@std@@@std@@UAEXXZ 00411560 f i ui_control.obj
 0001:00010560       ?_Unlock@?$basic_streambuf@DU?$char_traits@D@std@@@std@@UAEXXZ 00411560 f i ui_control.obj
 0001:00010560       ?destroy@?$__func@V<lambda_1>@?1???$ExpandEnvironmentStringsW@V?$basic_string@_WU?$char_traits@_W@std@@V?$allocator@_W@2@@std@@$0BAA@@wil@@YAJPB_WAAV?$basic_string@_WU?$char_traits@_W@std@@V?$allocator@_W@2@@std@@@Z@$$A6AJPA_WIPAI@Z@__function@wistd@@UAEXXZ 00411560 f i storage_manager.obj
 0001:00010560       ?destroy@?$__func@V<lambda_1>@?1???$GetWindowsDirectoryW@V?$basic_string@_WU?$char_traits@_W@std@@V?$allocator@_W@2@@std@@$0BAA@@wil@@YAJAAV?$basic_string@_WU?$char_traits@_W@std@@V?$allocator@_W@2@@std@@@Z@$$A6AJPA_WIPAI@Z@__function@wistd@@UAEXXZ 00411560 f i main_window.obj
 0001:00010560       ?destroy@?$__func@V<lambda_1>@?1???$K32GetModuleFileNameExW@V?$basic_string@_WU?$char_traits@_W@std@@V?$allocator@_W@2@@std@@$0IA@@wil@@YAJPAXPAUHINSTANCE__@@AAV?$basic_string@_WU?$char_traits@_W@std@@V?$allocator@_W@2@@std@@@Z@$$A6AJPA_WIPAI@Z@__function@wistd@@UAEXXZ 00411560 f i app.obj
 0001:00010560       ?destroy@?$__func@V<lambda_1>@?1???$QueryFullProcessImageNameW@V?$basic_string@_WU?$char_traits@_W@std@@V?$allocator@_W@2@@std@@$0BAA@@wil@@YAJPAXKAAV?$basic_string@_WU?$char_traits@_W@std@@V?$allocator@_W@2@@std@@@Z@$$A6AJPA_WIPAI@Z@__function@wistd@@UAEXXZ 00411560 f i app.obj
 0001:00010560       @_guard_check_icall_nop@4  00411560 f i LIBCMT:guard_support.obj
 0001:00010560       __initialize_denormal_control 00411560 f i LIBCMT:denormal_control.obj
 0001:00010560       __initialize_invalid_parameter_handler 00411560 f i LIBCMT:invalid_parameter_handler.obj
 0001:00010570       ?make@?$string_maker@V?$basic_string@_WU?$char_traits@_W@std@@V?$allocator@_W@2@@std@@@details@wil@@QAEJPB_WI@Z 00411570 f i app.obj
 0001:00010780       ?memcpy_s@Checked@ATL@@YAXPAXIPBXI@Z 00411780 f i app.obj
 0001:00010850       ?reserve@?$vector@EV?$allocator@E@std@@@std@@QAEXI@Z 00411850 f i app.obj
 0001:000108f0       ?what@bad_optional_access@std@@UBEPBDXZ 004118f0 f i app.obj
 0001:00010900       _swprintf_s                00411900 f i app.obj
 0001:00010930       _wWinMain@16               00411930 f   app.obj
 0001:00010ce0       ??$ReportFailure_GetLastErrorMsg@$0A@@details@wil@@YAKPAXIPBD1101PAD@Z 00411ce0 f i engine_control.obj
 0001:00010d50       ??$ReportFailure_Msg@$0A@@details@wil@@YAXPAXIPBD110ABUResultStatus@01@1PAD@Z 00411d50 f i engine_control.obj
 0001:00010dd0       ??$Throw_GetLastErrorIfNullMsg@V?$unique_any_t@V?$unique_storage@U?$resource_policy@PAUHINSTANCE__@@P6GHPAU1@@Z$1?FreeLibrary@@YGH0@ZU?$integral_constant@I$0A@@wistd@@PAU1@PAU1@$0A@$$T@details@wil@@@details@wil@@@wil@@$0A@@in1diag3@details@wil@@YAXPAXIPBDABV?$unique_any_t@V?$unique_storage@U?$resource_policy@PAUHINSTANCE__@@P6GHPAU1@@Z$1?FreeLibrary@@YGH0@ZU?$integral_constant@I$0A@@wistd@@PAU1@PAU1@$0A@$$T@details@wil@@@details@wil@@@2@1ZZ 00411dd0 f i engine_control.obj
 0001:00010e00       ??0EngineControl@@QAE@XZ   00411e00 f   engine_control.obj
 0001:00011060       ??0runtime_error@std@@QAE@ABV01@@Z 00412060 f i engine_control.obj
 0001:000110a0       ??0runtime_error@std@@QAE@PBD@Z 004120a0 f i engine_control.obj
 0001:000110f0       ??1?$unique_any_t@V?$unique_storage@U?$resource_policy@PAUHINSTANCE__@@P6GHPAU1@@Z$1?FreeLibrary@@YGH0@ZU?$integral_constant@I$0A@@wistd@@PAU1@PAU1@$0A@$$T@details@wil@@@details@wil@@@wil@@QAE@XZ 004120f0 f i engine_control.obj
 0001:00011100       ??1EngineControl@@QAE@XZ   00412100 f   engine_control.obj
 0001:00011160       ??4path@filesystem@std@@QAEAAV012@ABV012@@Z 00412160 f i engine_control.obj
 0001:00011260       ??Kfilesystem@std@@YA?AVpath@01@ABV201@0@Z 00412260 f i engine_control.obj
 0001:00011510       ??_0path@filesystem@std@@QAEAAV012@ABV012@@Z 00412510 f i engine_control.obj
 0001:000116b0       ?HandleNewProcesses@EngineControl@@QAEHXZ 004126b0 f   engine_control.obj
 0001:000116c0       ?PrintLoggingMessage@details@wil@@YAXPA_WIPBDPAD@Z 004126c0 f i engine_control.obj
 0001:00011760       ?StringCchPrintfW@@YAJPA_WIPB_WZZ 00412760 f i engine_control.obj
 0001:000117e0       ?StringCchVPrintfW@@YGJPA_WIPB_WPAD@Z 004127e0 f i engine_control.obj
 0001:00011870       ?_Throw_GetLastErrorMsg@in1diag3@details@wil@@YAXPAXIPBD01PAD@Z 00412870 f i engine_control.obj
 0001:00011890       _wmemcmp                   00412890 f i engine_control.obj
 0001:000119f0       ??$safe_cast@HI$0A@@wil@@YAHI@Z 004129f0 f i event_viewer_crash_monitor.obj
 0001:00011a40       ??0EventViewerCrashMonitor@@QAE@V?$basic_string_view@_WU?$char_traits@_W@std@@@std@@@Z 00412a40 f   event_viewer_crash_monitor.obj
 0001:00011bf0       ??0logic_error@std@@QAE@PBD@Z 00412bf0 f i event_viewer_crash_monitor.obj
 0001:00011c40       ??1?$unique_any_t@V?$unique_storage@U?$resource_policy@PAXP6GHPAX@Z$1?EvtClose@@YGH0@ZU?$integral_constant@I$0A@@wistd@@PAXPAX$0A@$$T@details@wil@@@details@wil@@@wil@@QAE@XZ 00412c40 f i event_viewer_crash_monitor.obj
 0001:00011c50       ??1?$unique_ptr@$$BY0A@EU?$default_delete@$$BY0A@E@std@@@std@@QAE@XZ 00412c50 f i event_viewer_crash_monitor.obj
 0001:00011c60       ?DoesEventMatch@EventViewerCrashMonitor@@AAE_NPAX@Z 00412c60 f   event_viewer_crash_monitor.obj
 0001:000120a0       ?GetAmountOfNewEvents@EventViewerCrashMonitor@@QAEHXZ 004130a0 f   event_viewer_crash_monitor.obj
 0001:000121c0       ?GetEventHandle@EventViewerCrashMonitor@@QBEPAXXZ 004131c0 f   event_viewer_crash_monitor.obj
 0001:000123c0       ??1?$_Tidy_guard@V?$vector@V?$basic_string@_WU?$char_traits@_W@std@@V?$allocator@_W@2@@std@@V?$allocator@V?$basic_string@_WU?$char_traits@_W@std@@V?$allocator@_W@2@@std@@@2@@std@@@std@@QAE@XZ 004133c0 f i functions.obj
 0001:000123d0       ??1?$_Uninitialized_backout_al@V?$allocator@V?$basic_string@_WU?$char_traits@_W@std@@V?$allocator@_W@2@@std@@@std@@@std@@QAE@XZ 004133d0 f i functions.obj
 0001:00012400       ??E_Iterator@?$split_view@V?$basic_string_view@_WU?$char_traits@_W@std@@@std@@V?$single_view@_W@ranges@2@@ranges@std@@QAEAAV0123@XZ 00413400 f i functions.obj
 0001:000125e0       ?ApplyDialogLayoutRtl@Functions@@YAXVCWindow@ATL@@_N@Z 004135e0 f   functions.obj
 0001:00012640       ?CreateEventForMediumIntegrity@Functions@@YAPAXPB_WH@Z 00413640 f   functions.obj
 0001:000126b0       ?CreateExecutionRequiredRequest@Functions@@YAJPAXPAPAX@Z 004136b0 f   functions.obj
 0001:000127b0       ?GetDpiForWindowWithFallback@Functions@@YAIPAUHWND__@@@Z 004137b0 f   functions.obj
 0001:00012860       ?GetNtVersionNumbers@Functions@@YAXPAK00@Z 00413860 f   functions.obj
 0001:000129a0       ?GetSystemMetricsForDpiWithFallback@Functions@@YAHHI@Z 004139a0 f   functions.obj
 0001:00012a30       ?IsProcessFrozen@Functions@@YA_NPAX@Z 00413a30 f   functions.obj
 0001:00012ae0       ?IsRightToLeftLanguage@Functions@@YA_NG@Z 00413ae0 f   functions.obj
 0001:00012b40       ?IsRunAsAdmin@Functions@@YAHXZ 00413b40 f   functions.obj
 0001:00012bd0       ?IsWindowsVersionOrGreaterWithBuildNumber@Functions@@YA_NGGG@Z 00413bd0 f   functions.obj
 0001:00012d40       ?LoadStrFromRsrc@Functions@@YAPB_WI@Z 00413d40 f   functions.obj
 0001:00012e00       ?ReplaceAll@Functions@@YA?AV?$basic_string@_WU?$char_traits@_W@std@@V?$allocator@_W@2@@std@@V?$basic_string_view@_WU?$char_traits@_W@std@@@3@00_N@Z 00413e00 f   functions.obj
 0001:00013040       ?SetDebugPrivilege@Functions@@YAHH@Z 00414040 f   functions.obj
 0001:000130f0       ?SplitString@Functions@@YA?AV?$vector@V?$basic_string@_WU?$char_traits@_W@std@@V?$allocator@_W@2@@std@@V?$allocator@V?$basic_string@_WU?$char_traits@_W@std@@V?$allocator@_W@2@@std@@@2@@std@@V?$basic_string_view@_WU?$char_traits@_W@std@@@3@_W@Z 004140f0 f   functions.obj
 0001:000132a0       ?_Tidy@?$vector@V?$basic_string@_WU?$char_traits@_W@std@@V?$allocator@_W@2@@std@@V?$allocator@V?$basic_string@_WU?$char_traits@_W@std@@V?$allocator@_W@2@@std@@@2@@std@@AAEXXZ 004142a0 f i functions.obj
 0001:00013330       ?_Xran@?$basic_string_view@_WU?$char_traits@_W@std@@@std@@CAXXZ 00414330 f i functions.obj
 0001:00013340       ?GetInstance@Logger@@SAAAV1@XZ 00414340 f   logger.obj
 0001:000134d0       ??$?0PA_W$0A@@?$basic_string@_WU?$char_traits@_W@std@@V?$allocator@_W@2@@std@@QAE@PA_W0ABV?$allocator@_W@1@@Z 004144d0 f i main_window.obj
 0001:000135a0       ??$?H_WU?$char_traits@_W@std@@V?$allocator@_W@1@@std@@YA?AV?$basic_string@_WU?$char_traits@_W@std@@V?$allocator@_W@2@@0@$$QAV10@QB_W@Z 004145a0 f i main_window.obj
 0001:00013610       ??$?H_WU?$char_traits@_W@std@@V?$allocator@_W@1@@std@@YA?AV?$basic_string@_WU?$char_traits@_W@std@@V?$allocator@_W@2@@0@QB_W$$QAV10@@Z 00414610 f i main_window.obj
 0001:00013720       ??$_Allocate_for_capacity@$0A@@?$basic_string@DU?$char_traits@D@std@@V?$allocator@D@2@@std@@CAPADAAV?$allocator@D@1@AAI@Z 00414720 f i main_window.obj
 0001:00013790       ??$_snwprintf_s@$0BAA@@@YAHAAY0BAA@_WIPB_WZZ 00414790 f i main_window.obj
 0001:000137d0       ??$emplace@UDialogOptions@CTaskManagerDlg@@@?$optional@VCTaskManagerDlg@@@std@@QAEAAVCTaskManagerDlg@@$$QAUDialogOptions@2@@Z 004147d0 f i main_window.obj
 0001:00013820       ??$value_or@AAY00$$CB_W@?$optional@V?$basic_string@_WU?$char_traits@_W@std@@V?$allocator@_W@2@@std@@@std@@QHAE?AV?$basic_string@_WU?$char_traits@_W@std@@V?$allocator@_W@2@@1@AAY00$$CB_W@Z 00414820 f i storage_manager.obj
 0001:00013820       ??$value_or@AAY01$$CB_W@?$optional@V?$basic_string@_WU?$char_traits@_W@std@@V?$allocator@_W@2@@std@@@std@@QHAE?AV?$basic_string@_WU?$char_traits@_W@std@@V?$allocator@_W@2@@1@AAY01$$CB_W@Z 00414820 f i main_window.obj
 0001:000138c0       ??0?$basic_string@DU?$char_traits@D@std@@V?$allocator@D@2@@std@@QAE@QBD@Z 004148c0 f i main_window.obj
 0001:00013980       ??0CMainWindow@@QAE@_N0@Z  00414980 f   main_window.obj
 0001:00013aa0       ??0DialogOptions@CTaskManagerDlg@@QAE@$$QAU01@@Z 00414aa0 f i main_window.obj
 0001:00013b70       ??0DialogOptions@CToolkitDlg@@QAE@$$QAU01@@Z 00414b70 f i main_window.obj
 0001:00013d00       ??1?$CMenuT@$00@WTL@@QAE@XZ 00414d00 f i main_window.obj
 0001:00013d20       ??1?$basic_string@DU?$char_traits@D@std@@V?$allocator@D@2@@std@@QAE@XZ 00414d20 f i main_window.obj
 0001:00013d20       ?_Tidy_deallocate@?$basic_string@DU?$char_traits@D@std@@V?$allocator@D@2@@std@@AAEXXZ 00414d20 f i ui_control.obj
 0001:00013da0       ??1?$unique_any_t@V?$unique_storage@U?$handle_null_resource_policy@P6GHPAX@Z$1?CloseHandle@@YGH0@Z@details@wil@@@details@wil@@@wil@@QAE@XZ 00414da0 f i main_window.obj
 0001:00013dc0       ??1?$unique_ptr@UServiceInfo@ServiceCommon@@Umapview_deleter@wil@@@wistd@@QAE@XZ 00414dc0 f i main_window.obj
 0001:00013de0       ??1?$unique_ptr@VUpdateChecker@@U?$default_delete@VUpdateChecker@@@std@@@std@@QAE@XZ 00414de0 f i main_window.obj
 0001:00013e50       ??1DialogOptions@CTaskManagerDlg@@QAE@XZ 00414e50 f i main_window.obj
 0001:00013ea0       ??1DialogOptions@CToolkitDlg@@QAE@XZ 00414ea0 f i main_window.obj
 0001:000144d0       ??R?$__func@V<lambda_1>@?1???$GetWindowsDirectoryW@V?$basic_string@_WU?$char_traits@_W@std@@V?$allocator@_W@2@@std@@$0BAA@@wil@@YAJAAV?$basic_string@_WU?$char_traits@_W@std@@V?$allocator@_W@2@@std@@@Z@$$A6AJPA_WIPAI@Z@__function@wistd@@UAEJ$$QAPA_W$$QAI$$QAPAI@Z 004154d0 f i main_window.obj
 0001:00014520       ??Y?$basic_string@DU?$char_traits@D@std@@V?$allocator@D@2@@std@@QAEAAV01@QBD@Z 00415520 f i main_window.obj
 0001:00014550       ??_E?$__func@V<lambda_1>@?1???$ExpandEnvironmentStringsW@V?$basic_string@_WU?$char_traits@_W@std@@V?$allocator@_W@2@@std@@$0BAA@@wil@@YAJPB_WAAV?$basic_string@_WU?$char_traits@_W@std@@V?$allocator@_W@2@@std@@@Z@$$A6AJPA_WIPAI@Z@__function@wistd@@UAEPAXI@Z 00415550 f i storage_manager.obj
 0001:00014550       ??_E?$__func@V<lambda_1>@?1???$GetWindowsDirectoryW@V?$basic_string@_WU?$char_traits@_W@std@@V?$allocator@_W@2@@std@@$0BAA@@wil@@YAJAAV?$basic_string@_WU?$char_traits@_W@std@@V?$allocator@_W@2@@std@@@Z@$$A6AJPA_WIPAI@Z@__function@wistd@@UAEPAXI@Z 00415550 f i main_window.obj
 0001:00014550       ??_G?$__func@V<lambda_1>@?1???$ExpandEnvironmentStringsW@V?$basic_string@_WU?$char_traits@_W@std@@V?$allocator@_W@2@@std@@$0BAA@@wil@@YAJPB_WAAV?$basic_string@_WU?$char_traits@_W@std@@V?$allocator@_W@2@@std@@@Z@$$A6AJPA_WIPAI@Z@__function@wistd@@UAEPAXI@Z 00415550 f i storage_manager.obj
 0001:00014550       ??_G?$__func@V<lambda_1>@?1???$GetWindowsDirectoryW@V?$basic_string@_WU?$char_traits@_W@std@@V?$allocator@_W@2@@std@@$0BAA@@wil@@YAJAAV?$basic_string@_WU?$char_traits@_W@std@@V?$allocator@_W@2@@std@@@Z@$$A6AJPA_WIPAI@Z@__function@wistd@@UAEPAXI@Z 00415550 f i main_window.obj
 0001:00014580       ??_ECMainWindow@@UAEPAXI@Z 00415580 f i main_window.obj
 0001:00014580       ??_GCMainWindow@@UAEPAXI@Z 00415580 f i main_window.obj
 0001:000145b0       ?CloseUI@CMainWindow@@QAEXXZ 004155b0 f   main_window.obj
 0001:00014640       ?Create@?$CDialogImpl@VCTaskManagerDlg@@VCWindow@ATL@@@ATL@@QAEPAUHWND__@@PAU3@J@Z 00415640 f i main_window.obj
 0001:000146e0       ?Exit@CMainWindow@@QAEXXZ  004156e0 f   main_window.obj
 0001:00014740       ?ExtractCreateWndData@CAtlWinModule@ATL@@QAEPAXXZ 00415740 f i main_window.obj
 0001:000147d0       ?GetMessageLoop@CAppModule@WTL@@QBEPAVCMessageLoop@2@K@Z 004157d0 f i main_window.obj
 0001:00014860       ?GetNextUpdateDelay@CMainWindow@@QAEI_K@Z 00415860 f   main_window.obj
 0001:00014950       ?GetWindowProc@?$CWindowImplBaseT@V?$CListViewCtrlT@VCWindow@ATL@@@WTL@@V?$CWinTraits@$0FGAAAAAJ@$0CAA@@ATL@@@ATL@@UAEP6GJPAUHWND__@@IIJ@ZXZ 00415950 f i task_manager_dlg.obj
 0001:00014950       ?GetWindowProc@?$CWindowImplBaseT@VCWindow@ATL@@V?$CWinTraits@$0A@$0A@@2@@ATL@@UAEP6GJPAUHWND__@@IIJ@ZXZ 00415950 f i main_window.obj
 0001:00014960       ?InitForNonPortableVersion@CMainWindow@@QAEXXZ 00415960 f   main_window.obj
 0001:00014c50       ?LoadSettings@CMainWindow@@QAEXXZ 00415c50 f   main_window.obj
 0001:00015300       ?NotifyAboutAvailableUpdates@CMainWindow@@QAEXUUpdateStatus@UserProfile@@_N@Z 00416300 f   main_window.obj
 0001:00015430       ?OnCreate@CMainWindow@@QAEHPAUtagCREATESTRUCTW@@@Z 00416430 f   main_window.obj
 0001:00015890       ?OnDestroy@CMainWindow@@QAEXXZ 00416890 f   main_window.obj
 0001:00015a40       ?OnFinalMessage@?$CWindowImplBaseT@V?$CListViewCtrlT@VCWindow@ATL@@@WTL@@V?$CWinTraits@$0FGAAAAAJ@$0CAA@@ATL@@@ATL@@UAEXPAUHWND__@@@Z 00416a40 f i task_manager_dlg.obj
 0001:00015a40       ?OnFinalMessage@?$CWindowImplBaseT@VCWindow@ATL@@V?$CWinTraits@$0A@$0A@@2@@ATL@@UAEXPAUHWND__@@@Z 00416a40 f i main_window.obj
 0001:00015a40       ?imbue@?$basic_streambuf@DU?$char_traits@D@std@@@std@@MAEXABVlocale@2@@Z 00416a40 f i ui_control.obj
 0001:00015a50       ?OnIdle@CMainWindow@@EAEHXZ 00416a50 f   main_window.obj
 0001:00015f70       ?OnPowerBroadcast@CMainWindow@@QAEHKK@Z 00416f70 f   main_window.obj
 0001:000160e0       ?OnTimer@CMainWindow@@QAEXI@Z 004170e0 f   main_window.obj
 0001:00016380       ?OnTrayIcon@CMainWindow@@QAEJIIJ@Z 00417380 f   main_window.obj
 0001:000164b0       ?PreTranslateMessage@CMainWindow@@EAEHPAUtagMSG@@@Z 004174b0 f   main_window.obj
 0001:00016530       ?ProcessWindowMessage@CMainWindow@@UAEHPAUHWND__@@IIJAAJK@Z 00417530 f i main_window.obj
 0001:00016560       ?ResetLastUpdateTime@CMainWindow@@QAEXXZ 00417560 f   main_window.obj
 0001:00016610       ?RunUI@CMainWindow@@QAEXPAUHWND__@@@Z 00417610 f   main_window.obj
 0001:000166b0       ?SetEvent@?$event_t@V?$unique_storage@U?$resource_policy@PAXP6GXPAX@_E$1?CloseHandle@details@wil@@YGX0@ZU?$integral_constant@I$0A@@wistd@@PAXPAX$0A@$$T@details@wil@@@details@wil@@Uerr_exception_policy@3@@wil@@QBEXXZ 004176b0 f i main_window.obj
 0001:000166e0       ?SetLastUpdateTime@CMainWindow@@QAEXXZ 004176e0 f   main_window.obj
 0001:00016950       ?ShowLoadedModsDialog@CMainWindow@@QAEXXZ 00417950 f   main_window.obj
 0001:00016b40       ?ShowToolkitDialog@CMainWindow@@QAEX_N@Z 00417b40 f   main_window.obj
 0001:00016d60       ?StartDialogProc@?$CDialogImplBaseT@VCWindow@ATL@@@ATL@@SGHPAUHWND__@@IIJ@Z 00417d60 f i main_window.obj
 0001:00016dd0       ?StopService@CMainWindow@@QAEXPAUHWND__@@@Z 00417dd0 f   main_window.obj
 0001:00016eb0       ?SwitchToSafeMode@CMainWindow@@QAEXXZ 00417eb0 f   main_window.obj
 0001:00017220       ?WindowProc@?$CWindowImplBaseT@V?$CListViewCtrlT@VCWindow@ATL@@@WTL@@V?$CWinTraits@$0FGAAAAAJ@$0CAA@@ATL@@@ATL@@SGJPAUHWND__@@IIJ@Z 00418220 f i task_manager_dlg.obj
 0001:00017220       ?WindowProc@?$CWindowImplBaseT@VCWindow@ATL@@V?$CWinTraits@$0A@$0A@@2@@ATL@@SGJPAUHWND__@@IIJ@Z 00418220 f i main_window.obj
 0001:00017610       ?_ProcessWindowMessage@CMainWindow@@QAEHPAUHWND__@@IIJAAJK@Z 00418610 f i main_window.obj
 0001:00017910       ?__clone@?$__func@V<lambda_1>@?1???$GetWindowsDirectoryW@V?$basic_string@_WU?$char_traits@_W@std@@V?$allocator@_W@2@@std@@$0BAA@@wil@@YAJAAV?$basic_string@_WU?$char_traits@_W@std@@V?$allocator@_W@2@@std@@@Z@$$A6AJPA_WIPAI@Z@__function@wistd@@UBEXPAV?$__base@$$A6AJPA_WIPAI@Z@23@@Z 00418910 f i main_window.obj
 0001:00017910       ?__move@?$__func@V<lambda_1>@?1???$GetWindowsDirectoryW@V?$basic_string@_WU?$char_traits@_W@std@@V?$allocator@_W@2@@std@@$0BAA@@wil@@YAJAAV?$basic_string@_WU?$char_traits@_W@std@@V?$allocator@_W@2@@std@@@Z@$$A6AJPA_WIPAI@Z@__function@wistd@@UAEXPAV?$__base@$$A6AJPA_WIPAI@Z@23@@Z 00418910 f i main_window.obj
 0001:00017920       ?append@?$basic_string@DU?$char_traits@D@std@@V?$allocator@D@2@@std@@QAEAAV12@QBDI@Z 00418920 f i main_window.obj
 0001:00017a90       ?reset@?$_Optional_destruct_base@VEventViewerCrashMonitor@@$0A@@std@@QAEXXZ 00418a90 f i main_window.obj
 0001:00017ae0       ?reset@?$_Optional_destruct_base@VModMetadataChangeNotification@StorageManager@@$0A@@std@@QAEXXZ 00418ae0 f i main_window.obj
 0001:00017b10       ?reset@?$unique_ptr@VUpdateChecker@@U?$default_delete@VUpdateChecker@@@std@@@std@@QAEXPAVUpdateChecker@@@Z 00418b10 f i main_window.obj
 0001:00017b90       ?to_wstring@std@@YA?AV?$basic_string@_WU?$char_traits@_W@std@@V?$allocator@_W@2@@1@K@Z 00418b90 f i main_window.obj
 0001:00017c00       ??$?H_WU?$char_traits@_W@std@@V?$allocator@_W@1@@std@@YA?AV?$basic_string@_WU?$char_traits@_W@std@@V?$allocator@_W@2@@0@QB_WABV10@@Z 00418c00 f i service.obj
 0001:00017cf0       ??1?$unique_any_t@V?$unique_storage@U?$resource_policy@PAUSC_HANDLE__@@P6GHPAU1@@Z$1?CloseServiceHandle@@YGH0@ZU?$integral_constant@I$0A@@wistd@@PAU1@PAU1@$0A@$$T@details@wil@@@details@wil@@@wil@@QAE@XZ 00418cf0 f i service.obj
 0001:00017d00       ??1?$unique_any_t@V?$unique_storage@U?$resource_policy@PAXP6GHPAX@Z$1?DestroyEnvironmentBlock@@YGH0@ZU?$integral_constant@I$0A@@wistd@@PAXPAX$0A@$$T@details@wil@@@details@wil@@@wil@@QAE@XZ 00418d00 f i service.obj
 0001:00017d10       ??1?$unique_any_t@V?$unique_storage@U?$resource_policy@PAXP6GPAXPAX@Z$1?LocalFree@@YGPAX0@ZU?$integral_constant@I$0A@@wistd@@PAXPAX$0A@$$T@details@wil@@@details@wil@@@wil@@QAE@XZ 00418d10 f i service.obj
 0001:00017d20       ??1ServiceInstance@@QAE@XZ 00418d20 f i service.obj
 0001:00017f80       ?FailFast_Unexpected@in1diag3@details@wil@@YAXPAXIPBD@Z 00418f80 f i service.obj
 0001:00017fd0       ?IsRunning@Service@@YA_N_N@Z 00418fd0 f   service.obj
 0001:00018190       ?Run@Service@@YAXXZ        00419190 f   service.obj
 0001:00018210       ?Start@Service@@YAXXZ      00419210 f   service.obj
 0001:00018320       ?Stop@Service@@YAX_N@Z     00419320 f   service.obj
 0001:00018440       ?SvcCtrlHandlerEx@ServiceInstance@@AAEKKKPAX@Z 00419440 f   service.obj
 0001:00018670       ?SvcCtrlHandlerExThunk@ServiceInstance@@CGKKKPAX0@Z 00419670 f   service.obj
 0001:00018690       ?SvcInit@ServiceInstance@@AAEXKPAPA_W@Z 00419690 f   service.obj
 0001:00018bc0       ?SvcMain@@YGXKPAPA_W@Z     00419bc0 f   service.obj
 0001:00018d90       ?SvcMain@ServiceInstance@@QAEXKPAPA_W@Z 00419d90 f   service.obj
 0001:00019090       ?SvcRun@ServiceInstance@@AAEXKPAPA_W@Z 0041a090 f   service.obj
 0001:00019420       ?what@ResultException@wil@@UBEPBDXZ 0041a420 f i stdafx.obj
 0001:000194e0       ??1ResultException@wil@@UAE@XZ 0041a4e0 f i stdafx.obj
 0001:00019570       ??0ResultException@wil@@QAE@ABV01@@Z 0041a570 f i stdafx.obj
 0001:00019620       ??_EResultException@wil@@UAEPAXI@Z 0041a620 f i stdafx.obj
 0001:00019620       ??_GResultException@wil@@UAEPAXI@Z 0041a620 f i stdafx.obj
 0001:000196c0       ??$TryGetValue@K@SemaphoreValue@details_abi@wil@@SAJPB_WPAKPA_N@Z 0041a6c0 f i stdafx.obj
 0001:000198d0       ??0ResultException@wil@@QAE@ABUFailureInfo@1@@Z 0041a8d0 f i stdafx.obj
 0001:00019920       ??1?$ThreadLocalStorage@PAVThreadFailureCallbackHolder@details@wil@@@details_abi@wil@@QAE@XZ 0041a920 f i stdafx.obj
 0001:00019970       ??1?$ThreadLocalStorage@UThreadLocalData@details_abi@wil@@@details_abi@wil@@QAE@XZ 0041a970 f i stdafx.obj
 0001:000199d0       ??1ThreadLocalData@details_abi@wil@@QAE@XZ 0041a9d0 f i stdafx.obj
 0001:00019a40       ?Acquire@?$ProcessLocalStorageData@UProcessLocalData@details_abi@wil@@@details_abi@wil@@SAJPBDPAPAV123@@Z 0041aa40 f i stdafx.obj
 0001:00019d40       ?CreateFromValueInternal@SemaphoreValue@details_abi@wil@@AAEJPB_W_N_K@Z 0041ad40 f i stdafx.obj
 0001:0001a050       ?DebugBreak@details@wil@@YGXXZ 0041b050 f i stdafx.obj
 0001:0001a060       ?GetContextAndNotifyFailure@details@wil@@YGXPAUFailureInfo@2@PADI@Z 0041b060 f i stdafx.obj
 0001:0001a220       ?GetCurrentModuleName@details@wil@@YGPBDXZ 0041b220 f i stdafx.obj
 0001:0001a250       ?GetLastErrorFailHr@details@wil@@YAJXZ 0041b250 f i stdafx.obj
 0001:0001a2d0       ?GetLocal@?$ThreadLocalStorage@PAVThreadFailureCallbackHolder@details@wil@@@details_abi@wil@@QAEPAPAVThreadFailureCallbackHolder@details@3@_N@Z 0041b2d0 f i stdafx.obj
 0001:0001a430       ?GetModuleInformation@details@wil@@YG_NPAXPAIPADI@Z 0041b430 f i stdafx.obj
 0001:0001a560       ?GetThreadContext@ThreadFailureCallbackHolder@details@wil@@SA_NPAUFailureInfo@3@PAV123@PADI@Z 0041b560 f i stdafx.obj
 0001:0001a6a0       ?GetThreadLocalDataCache@details_abi@wil@@YAPAUThreadLocalData@12@_N@Z 0041b6a0 f i stdafx.obj
 0001:0001a800       ?GetValueFromSemaphore@SemaphoreValue@details_abi@wil@@CAJPAXPAJ@Z 0041b800 f i stdafx.obj
 0001:0001a9b0       ?ProcessHeapAlloc@details@wil@@YAPAXKI@Z 0041b9b0 f i stdafx.obj
 0001:0001aa50       ?RecognizeCaughtExceptionFromCallback@details@wil@@YAJPA_WI@Z 0041ba50 f i stdafx.obj
 0001:0001ab00       ?Release@?$ProcessLocalStorageData@UProcessLocalData@details_abi@wil@@@details_abi@wil@@QAEXXZ 0041bb00 f i stdafx.obj
 0001:0001ad00       ?ResultFromCaughtExceptionInternal@details@wil@@YG?AUResultStatus@12@PA_WIPA_N@Z 0041bd00 f i stdafx.obj
 0001:0001af80       ?Rethrow@details@wil@@YGXXZ 0041bf80 f i stdafx.obj
 0001:0001af90       ?RunFunctorWithExceptionFilter@details@wil@@YGJAAUIFunctor@12@AAUIFunctorHost@12@PAX@Z 0041bf90 f i stdafx.obj
 0001:0001b010       ?Set@ThreadLocalFailureInfo@details_abi@wil@@QAEXABUFailureInfo@3@I@Z 0041c010 f i stdafx.obj
 0001:0001b2a0       ?SetFailureInfo@StoredFailureInfo@wil@@QAEXABUFailureInfo@2@@Z 0041c2a0 f i stdafx.obj
 0001:0001bb20       ?ThrowResultExceptionInternal@details@wil@@YGXABUFailureInfo@2@@Z 0041cb20 f i stdafx.obj
 0001:0001bb40       ?WilDynamicLoadRaiseFailFastException@details@wil@@YGXPAU_EXCEPTION_RECORD@@PAU_CONTEXT@@K@Z 0041cb40 f i stdafx.obj
 0001:0001bb70       ?create@shared_buffer@details@wil@@QAE_NI@Z 0041cb70 f i stdafx.obj
 0001:0001bc20       ??$?0$00URegistryPath@StorageManager@@$0A@@?$_Variant_storage_@$0A@Umonostate@std@@URegistryPath@StorageManager@@UIniFilePath@4@@std@@QAE@U?$integral_constant@I$00@1@$$QAURegistryPath@StorageManager@@@Z 0041cc20 f i storage_manager.obj
 0001:0001bc70       ??$?8_WU?$char_traits@_W@std@@V?$allocator@_W@1@@std@@YA_NABV?$basic_string@_WU?$char_traits@_W@std@@V?$allocator@_W@2@@0@QB_W@Z 0041cc70 f i storage_manager.obj
 0001:0001bcd0       ??$?H_WU?$char_traits@_W@std@@V?$allocator@_W@1@@std@@YA?AV?$basic_string@_WU?$char_traits@_W@std@@V?$allocator@_W@2@@0@ABV10@_W@Z 0041ccd0 f i storage_manager.obj
 0001:0001bd90       ??$ExpandEnvironmentStringsW@V?$basic_string@_WU?$char_traits@_W@std@@V?$allocator@_W@2@@std@@$0BAA@@wil@@YA?AV?$basic_string@_WU?$char_traits@_W@std@@V?$allocator@_W@2@@std@@PB_W@Z 0041cd90 f i storage_manager.obj
 0001:0001be50       ??$_Allocate_at_least_helper@V?$allocator@V?$basic_string_view@_WU?$char_traits@_W@std@@@std@@@std@@@std@@YAPAV?$basic_string_view@_WU?$char_traits@_W@std@@@0@AAV?$allocator@V?$basic_string_view@_WU?$char_traits@_W@std@@@std@@@0@AAI@Z 0041ce50 f i storage_manager.obj
 0001:0001beb0       ??$_Construct@$00PBD@?$basic_string@DU?$char_traits@D@std@@V?$allocator@D@2@@std@@AAEXQBDI@Z 0041ceb0 f i storage_manager.obj
 0001:0001bf40       ??$_Convert_wide_to_narrow_replace_chars@U?$char_traits@D@std@@V?$allocator@D@2@@filesystem@std@@YA?AV?$basic_string@DU?$char_traits@D@std@@V?$allocator@D@2@@1@W4__std_code_page@@V?$basic_string_view@_WU?$char_traits@_W@std@@@1@ABV?$allocator@D@1@@Z 0041cf40 f i storage_manager.obj
 0001:0001c040       ??0?$CStringT@DV?$StrTraitATL@DV?$ChTraitsCRT@D@ATL@@@ATL@@@ATL@@QAE@PB_W@Z 0041d040 f i storage_manager.obj
 0001:0001c180       ??0?$basic_string@DU?$char_traits@D@std@@V?$allocator@D@2@@std@@QAE@ABV01@@Z 0041d180 f i storage_manager.obj
 0001:0001c230       ??0ModMetadataChangeNotification@StorageManager@@QAE@PB_W@Z 0041d230 f   storage_manager.obj
 0001:0001c3c0       ??0StorageManager@@AAE@XZ  0041d3c0 f   storage_manager.obj
 0001:0001ce70       ??0_System_error@std@@IAE@Verror_code@1@ABV?$basic_string@DU?$char_traits@D@std@@V?$allocator@D@2@@1@@Z 0041de70 f i storage_manager.obj
 0001:0001d020       ??0_System_error@std@@QAE@ABV01@@Z 0041e020 f i storage_manager.obj
 0001:0001d070       ??0bad_variant_access@std@@QAE@ABV01@@Z 0041e070 f i storage_manager.obj
 0001:0001d0b0       ??0bad_variant_access@std@@QAE@XZ 0041e0b0 f i storage_manager.obj
 0001:0001d0d0       ??0filesystem_error@filesystem@std@@QAE@ABV012@@Z 0041e0d0 f i storage_manager.obj
 0001:0001d180       ??0filesystem_error@filesystem@std@@QAE@ABV?$basic_string@DU?$char_traits@D@std@@V?$allocator@D@2@@2@ABVpath@12@Verror_code@2@@Z 0041e180 f i storage_manager.obj
 0001:0001d2b0       ??0system_error@std@@QAE@ABV01@@Z 0041e2b0 f i storage_manager.obj
 0001:0001d300       ??0system_error@std@@QAE@Verror_code@1@@Z 0041e300 f i storage_manager.obj
 0001:0001d3d0       ??1?$unique_any_t@V?$unique_storage@U?$handle_invalid_resource_policy@P6GHPAX@Z$1?FindCloseChangeNotification@@YGH0@Z@details@wil@@@details@wil@@@wil@@QAE@XZ 0041e3d0 f i storage_manager.obj
 0001:0001d3f0       ??1?$variant@Umonostate@std@@URegistryPath@StorageManager@@UIniFilePath@4@@std@@QAE@XZ 0041e3f0 f i storage_manager.obj
 0001:0001d420       ??1?$vector@V?$basic_string_view@_WU?$char_traits@_W@std@@@std@@V?$allocator@V?$basic_string_view@_WU?$char_traits@_W@std@@@std@@@2@@std@@QAE@XZ 0041e420 f i storage_manager.obj
 0001:0001d480       ??1IniFileSettings@@UAE@XZ 0041e480 f i storage_manager.obj
 0001:0001d4a0       ??1_System_error_message@std@@QAE@XZ 0041e4a0 f i storage_manager.obj
 0001:0001d4b0       ??1filesystem_error@filesystem@std@@UAE@XZ 0041e4b0 f i storage_manager.obj
 0001:0001d4e0       ??B?$CSimpleStringT@D$0A@@ATL@@QBEPBDXZ 0041e4e0 f i storage_manager.obj
 0001:0001d4e0       ?GetHandle@ModMetadataChangeNotification@StorageManager@@QAEPAXXZ 0041e4e0 f i storage_manager.obj
 0001:0001d4f0       ??HATL@@YA?AV?$CStringT@DV?$StrTraitATL@DV?$ChTraitsCRT@D@ATL@@@ATL@@@0@PBDABV10@@Z 0041e4f0 f i storage_manager.obj
 0001:0001d670       ??R?$__func@V<lambda_1>@?1???$ExpandEnvironmentStringsW@V?$basic_string@_WU?$char_traits@_W@std@@V?$allocator@_W@2@@std@@$0BAA@@wil@@YAJPB_WAAV?$basic_string@_WU?$char_traits@_W@std@@V?$allocator@_W@2@@std@@@Z@$$A6AJPA_WIPAI@Z@__function@wistd@@UAEJ$$QAPA_W$$QAI$$QAPAI@Z 0041e670 f i storage_manager.obj
 0001:0001d6c0       ??_E?$output_stream_adapter@D@detail@nlohmann@@UAEPAXI@Z 0041e6c0 f i ui_control.obj
 0001:0001d6c0       ??_E?$output_string_adapter@DV?$basic_string@DU?$char_traits@D@std@@V?$allocator@D@2@@std@@@detail@nlohmann@@UAEPAXI@Z 0041e6c0 f i userprofile.obj
 0001:0001d6c0       ??_E_Generic_error_category@std@@UAEPAXI@Z 0041e6c0 f i storage_manager.obj
 0001:0001d6c0       ??_E_Iostream_error_category2@std@@UAEPAXI@Z 0041e6c0 f i ui_control.obj
 0001:0001d6c0       ??_E_System_error_category@std@@UAEPAXI@Z 0041e6c0 f i storage_manager.obj
 0001:0001d6c0       ??_G?$output_stream_adapter@D@detail@nlohmann@@UAEPAXI@Z 0041e6c0 f i ui_control.obj
 0001:0001d6c0       ??_G?$output_string_adapter@DV?$basic_string@DU?$char_traits@D@std@@V?$allocator@D@2@@std@@@detail@nlohmann@@UAEPAXI@Z 0041e6c0 f i userprofile.obj
 0001:0001d6c0       ??_G_Generic_error_category@std@@UAEPAXI@Z 0041e6c0 f i storage_manager.obj
 0001:0001d6c0       ??_G_Iostream_error_category2@std@@UAEPAXI@Z 0041e6c0 f i ui_control.obj
 0001:0001d6c0       ??_G_System_error_category@std@@UAEPAXI@Z 0041e6c0 f i storage_manager.obj
 0001:0001d6e0       ??_E_System_error@std@@UAEPAXI@Z 0041e6e0 f i storage_manager.obj
 0001:0001d6e0       ??_Efailure@ios_base@std@@UAEPAXI@Z 0041e6e0 f i ui_control.obj
 0001:0001d6e0       ??_Esystem_error@std@@UAEPAXI@Z 0041e6e0 f i storage_manager.obj
 0001:0001d6e0       ??_G_System_error@std@@UAEPAXI@Z 0041e6e0 f i storage_manager.obj
 0001:0001d6e0       ??_Gfailure@ios_base@std@@UAEPAXI@Z 0041e6e0 f i ui_control.obj
 0001:0001d6e0       ??_Gsystem_error@std@@UAEPAXI@Z 0041e6e0 f i storage_manager.obj
 0001:0001d710       ??_Efilesystem_error@filesystem@std@@UAEPAXI@Z 0041e710 f i storage_manager.obj
 0001:0001d710       ??_Gfilesystem_error@filesystem@std@@UAEPAXI@Z 0041e710 f i storage_manager.obj
 0001:0001d760       ?ContinueMonitoring@ModMetadataChangeNotification@StorageManager@@QAEXXZ 0041e760 f   storage_manager.obj
 0001:0001d790       ?FlushAppConfig@StorageManager@@QAE_NPB_W@Z 0041e790 f   storage_manager.obj
 0001:0001d880       ?Fork@?$CSimpleStringT@D$0A@@ATL@@AAEXH@Z 0041e880 f i storage_manager.obj
 0001:0001d930       ?GetAppConfig@StorageManager@@QAE?AV?$unique_ptr@VPortableSettings@@U?$default_delete@VPortableSettings@@@std@@@std@@PB_W_N@Z 0041e930 f   storage_manager.obj
 0001:0001da50       ?GetCompilerPath@StorageManager@@QAE?AVpath@filesystem@std@@XZ 0041ea50 f   storage_manager.obj
 0001:0001da70       ?GetEditorWorkspacePath@StorageManager@@QAE?AVpath@filesystem@std@@XZ 0041ea70 f   storage_manager.obj
 0001:0001db50       ?GetEnginePath@StorageManager@@QAE?AVpath@filesystem@std@@G@Z 0041eb50 f   storage_manager.obj
 0001:0001dca0       ?GetInstance@StorageManager@@SAAAV1@XZ 0041eca0 f   storage_manager.obj
 0001:0001dd40       ?GetModMetadataPath@StorageManager@@QAE?AVpath@filesystem@std@@PB_W@Z 0041ed40 f   storage_manager.obj
 0001:0001df60       ?GetUIDataPath@StorageManager@@QAE?AVpath@filesystem@std@@XZ 0041ef60 f   storage_manager.obj
 0001:0001e040       ?GetUIPath@StorageManager@@QAE?AVpath@filesystem@std@@XZ 0041f040 f   storage_manager.obj
 0001:0001e060       ?GetUserProfileJsonPath@StorageManager@@QAE?AVpath@filesystem@std@@XZ 0041f060 f   storage_manager.obj
 0001:0001e140       ?IsPortable@StorageManager@@QAE_NXZ 0041f140 f   storage_manager.obj
 0001:0001e150       ?LoadStringW@?$CStringT@DV?$StrTraitATL@DV?$ChTraitsCRT@D@ATL@@@ATL@@@ATL@@QAEHI@Z 0041f150 f i storage_manager.obj
 0001:0001e500       ?PrepareWrite2@?$CSimpleStringT@D$0A@@ATL@@AAEXH@Z 0041f500 f i storage_manager.obj
 0001:0001e560       ?Reallocate@?$CSimpleStringT@D$0A@@ATL@@AAEXH@Z 0041f560 f i storage_manager.obj
 0001:0001e5a0       ?_Make_ec@std@@YA?AVerror_code@1@W4__std_win_error@@@Z 0041f5a0 f i storage_manager.obj
 0001:0001e5c0       ?_Pretty_message@filesystem_error@filesystem@std@@CA?AV?$basic_string@DU?$char_traits@D@std@@V?$allocator@D@2@@3@V?$basic_string_view@DU?$char_traits@D@std@@@3@ABVpath@23@1@Z 0041f5c0 f i storage_manager.obj
 0001:0001e970       ?_Reset@?$_Variant_base@Umonostate@std@@URegistryPath@StorageManager@@UIniFilePath@4@@std@@QAEXXZ 0041f970 f i storage_manager.obj
 0001:0001e9a0       ?_Throw_bad_variant_access@std@@YAXXZ 0041f9a0 f i storage_manager.obj
 0001:0001e9d0       ?_Throw_fs_error@filesystem@std@@YAXPBDW4__std_win_error@@ABVpath@12@@Z 0041f9d0 f i storage_manager.obj
 0001:0001ea60       ?_Throw_system_error@std@@YAXW4errc@1@@Z 0041fa60 f i storage_manager.obj
 0001:0001eaa0       ?_Throw_system_error_from_std_win_error@std@@YAXW4__std_win_error@@@Z 0041faa0 f i storage_manager.obj
 0001:0001eae0       ?__clone@?$__func@V<lambda_1>@?1???$ExpandEnvironmentStringsW@V?$basic_string@_WU?$char_traits@_W@std@@V?$allocator@_W@2@@std@@$0BAA@@wil@@YAJPB_WAAV?$basic_string@_WU?$char_traits@_W@std@@V?$allocator@_W@2@@std@@@Z@$$A6AJPA_WIPAI@Z@__function@wistd@@UBEXPAV?$__base@$$A6AJPA_WIPAI@Z@23@@Z 0041fae0 f i storage_manager.obj
 0001:0001eae0       ?__move@?$__func@V<lambda_1>@?1???$ExpandEnvironmentStringsW@V?$basic_string@_WU?$char_traits@_W@std@@V?$allocator@_W@2@@std@@$0BAA@@wil@@YAJPB_WAAV?$basic_string@_WU?$char_traits@_W@std@@V?$allocator@_W@2@@std@@@Z@$$A6AJPA_WIPAI@Z@__function@wistd@@UAEXPAV?$__base@$$A6AJPA_WIPAI@Z@23@@Z 0041fae0 f i storage_manager.obj
 0001:0001eb00       ?append@?$basic_string@DU?$char_traits@D@std@@V?$allocator@D@2@@std@@QAEAAV12@ID@Z 0041fb00 f i storage_manager.obj
 0001:0001ec70       ?assign@?$basic_string@_WU?$char_traits@_W@std@@V?$allocator@_W@2@@std@@QAEAAV12@QB_WI@Z 0041fc70 f i storage_manager.obj
 0001:0001ed50       ?create_directories@filesystem@std@@YA_NABVpath@12@AAVerror_code@2@@Z 0041fd50 f i storage_manager.obj
 0001:0001efd0       ?default_error_condition@_System_error_category@std@@UBE?AVerror_condition@2@H@Z 0041ffd0 f i storage_manager.obj
 0001:0001f040       ?default_error_condition@error_category@std@@UBE?AVerror_condition@2@H@Z 00420040 f i storage_manager.obj
 0001:0001f060       ?equivalent@error_category@std@@UBE_NABVerror_code@2@H@Z 00420060 f i storage_manager.obj
 0001:0001f090       ?equivalent@error_category@std@@UBE_NHABVerror_condition@2@@Z 00420090 f i storage_manager.obj
 0001:0001f0d0       ?is_directory@filesystem@std@@YA_NABVpath@12@@Z 004200d0 f i storage_manager.obj
 0001:0001f1b0       ?lexically_normal@path@filesystem@std@@QBE?AV123@XZ 004201b0 f i storage_manager.obj
 0001:0001fa00       ?make_error_code@std@@YA?AVerror_code@1@W4errc@1@@Z 00420a00 f i storage_manager.obj
 0001:0001fa20       ?message@_Generic_error_category@std@@UBE?AV?$basic_string@DU?$char_traits@D@std@@V?$allocator@D@2@@2@H@Z 00420a20 f i storage_manager.obj
 0001:0001fa70       ?message@_System_error_category@std@@UBE?AV?$basic_string@DU?$char_traits@D@std@@V?$allocator@D@2@@2@H@Z 00420a70 f i storage_manager.obj
 0001:0001fb40       ?name@_Generic_error_category@std@@UBEPBDXZ 00420b40 f i storage_manager.obj
 0001:0001fb50       ?name@_System_error_category@std@@UBEPBDXZ 00420b50 f i storage_manager.obj
 0001:0001fb60       ?replace_extension@path@filesystem@std@@QAEAAV123@ABV123@@Z 00420b60 f i storage_manager.obj
 0001:0001fcb0       ?substr@?$basic_string@_WU?$char_traits@_W@std@@V?$allocator@_W@2@@std@@QGBE?AV12@II@Z 00420cb0 f i storage_manager.obj
 0001:0001fd10       ?what@bad_variant_access@std@@UBEPBDXZ 00420d10 f i storage_manager.obj
 0001:0001fd20       ?what@filesystem_error@filesystem@std@@UBEPBDXZ 00420d20 f i storage_manager.obj
 0001:0001fd30       ??$_Find_last@V?$basic_string_view@_WU?$char_traits@_W@std@@@std@@@?$_Hash@V?$_Umap_traits@V?$basic_string_view@_WU?$char_traits@_W@std@@@std@@IV?$_Uhash_compare@V?$basic_string_view@_WU?$char_traits@_W@std@@@std@@U?$hash@V?$basic_string_view@_WU?$char_traits@_W@std@@@std@@@2@U?$equal_to@V?$basic_string_view@_WU?$char_traits@_W@std@@@std@@@2@@2@V?$allocator@U?$pair@$$CBV?$basic_string_view@_WU?$char_traits@_W@std@@@std@@I@std@@@2@$0A@@std@@@std@@IBE?AU?$_Hash_find_last_result@PAU?$_List_node@U?$pair@$$CBV?$basic_string_view@_WU?$char_traits@_W@std@@@std@@I@std@@PAX@std@@@1@ABV?$basic_string_view@_WU?$char_traits@_W@std@@@1@I@Z 00420d30 f i task_manager_dlg.obj
 0001:0001fdd0       ??$_Insert_range_unchecked@PBU?$pair@$$CBV?$basic_string_view@_WU?$char_traits@_W@std@@@std@@I@std@@PBU12@@?$_Hash@V?$_Umap_traits@V?$basic_string_view@_WU?$char_traits@_W@std@@@std@@IV?$_Uhash_compare@V?$basic_string_view@_WU?$char_traits@_W@std@@@std@@U?$hash@V?$basic_string_view@_WU?$char_traits@_W@std@@@std@@@2@U?$equal_to@V?$basic_string_view@_WU?$char_traits@_W@std@@@std@@@2@@2@V?$allocator@U?$pair@$$CBV?$basic_string_view@_WU?$char_traits@_W@std@@@std@@I@std@@@2@$0A@@std@@@std@@IAEXPBU?$pair@$$CBV?$basic_string_view@_WU?$char_traits@_W@std@@@std@@I@1@QBU21@@Z 00420dd0 f i task_manager_dlg.obj
 0001:0001ffe0       ??$_snwprintf_s@$0EAA@@@YAHAAY0EAA@_WIPB_WZZ 00420fe0 f i task_manager_dlg.obj
 0001:00020020       ??$fill@PAV?$_List_unchecked_iterator@V?$_List_val@U?$_List_simple_types@U?$pair@$$CBV?$basic_string_view@_WU?$char_traits@_W@std@@@std@@I@std@@@std@@@std@@@std@@V12@@std@@YAXQAV?$_List_unchecked_iterator@V?$_List_val@U?$_List_simple_types@U?$pair@$$CBV?$basic_string_view@_WU?$char_traits@_W@std@@@std@@I@std@@@std@@@std@@@0@0ABV10@@Z 00421020 f i task_manager_dlg.obj
 0001:00020090       ??0?$basic_string@_WU?$char_traits@_W@std@@V?$allocator@_W@2@@std@@QAE@QB_W@Z 00421090 f i task_manager_dlg.obj
 0001:000200e0       ??0CTaskManagerDlg@@QAE@UDialogOptions@0@@Z 004210e0 f   task_manager_dlg.obj
 0001:00020380       ??0_Dir_enum_impl@filesystem@std@@QAE@$$QAU_Creator@012@W4directory_options@12@@Z 00421380 f i task_manager_dlg.obj
 0001:00020480       ??0directory_iterator@filesystem@std@@QAE@ABVpath@12@@Z 00421480 f i task_manager_dlg.obj
 0001:00020630       ??0filesystem_error@filesystem@std@@QAE@ABV?$basic_string@DU?$char_traits@D@std@@V?$allocator@D@2@@2@Verror_code@2@@Z 00421630 f i task_manager_dlg.obj
 0001:00020700       ??1?$CBitmapT@$00@WTL@@QAE@XZ 00421700 f i task_manager_dlg.obj
 0001:00020720       ??1?$CDialogImpl@VCTaskManagerDlg@@VCWindow@ATL@@@ATL@@UAE@XZ 00421720 f i task_manager_dlg.obj
 0001:00020720       ??1?$CWindowImpl@VCSortListViewCtrl@WTL@@V?$CListViewCtrlT@VCWindow@ATL@@@2@V?$CWinTraits@$0FGAAAAAJ@$0CAA@@ATL@@@ATL@@UAE@XZ 00421720 f i task_manager_dlg.obj
 0001:00020730       ??1?$CDialogResize@VCTaskManagerDlg@@@WTL@@QAE@XZ 00421730 f i task_manager_dlg.obj
 0001:00020730       ??1?$CSimpleArray@GV?$CSimpleArrayEqualHelper@G@ATL@@@ATL@@QAE@XZ 00421730 f i task_manager_dlg.obj
 0001:00020760       ??1?$CIconT@$00@WTL@@QAE@XZ 00421760 f i task_manager_dlg.obj
 0001:00020770       ??1?$_Alloc_construct_ptr@V?$allocator@U?$_List_node@U?$pair@$$CBV?$basic_string_view@_WU?$char_traits@_W@std@@@std@@I@std@@PAX@std@@@std@@@std@@QAE@XZ 00421770 f i task_manager_dlg.obj
 0001:00020770       ??1?$_List_node_emplace_op2@V?$allocator@U?$_List_node@U?$pair@$$CBV?$basic_string_view@_WU?$char_traits@_W@std@@@std@@I@std@@PAX@std@@@std@@@std@@QAE@XZ 00421770 f i task_manager_dlg.obj
 0001:00020790       ??1?$_Hash@V?$_Umap_traits@V?$basic_string_view@_WU?$char_traits@_W@std@@@std@@IV?$_Uhash_compare@V?$basic_string_view@_WU?$char_traits@_W@std@@@std@@U?$hash@V?$basic_string_view@_WU?$char_traits@_W@std@@@std@@@2@U?$equal_to@V?$basic_string_view@_WU?$char_traits@_W@std@@@std@@@2@@2@V?$allocator@U?$pair@$$CBV?$basic_string_view@_WU?$char_traits@_W@std@@@std@@I@std@@@2@$0A@@std@@@std@@QAE@XZ 00421790 f i task_manager_dlg.obj
 0001:000207e0       ??1?$_Hash_vec@V?$allocator@V?$_List_unchecked_iterator@V?$_List_val@U?$_List_simple_types@U?$pair@$$CBV?$basic_string_view@_WU?$char_traits@_W@std@@@std@@I@std@@@std@@@std@@@std@@@std@@@std@@QAE@XZ 004217e0 f i task_manager_dlg.obj
 0001:00020880       ??1?$list@U?$pair@$$CBV?$basic_string_view@_WU?$char_traits@_W@std@@@std@@I@std@@V?$allocator@U?$pair@$$CBV?$basic_string_view@_WU?$char_traits@_W@std@@@std@@I@std@@@2@@std@@QAE@XZ 00421880 f i task_manager_dlg.obj
 0001:000208c0       ??1?$output_adapter@DV?$basic_string@DU?$char_traits@D@std@@V?$allocator@D@2@@std@@@detail@nlohmann@@QAE@XZ 004218c0 f i ui_control.obj
 0001:000208c0       ??1?$shared_ptr@U?$output_adapter_protocol@D@detail@nlohmann@@@std@@QAE@XZ 004218c0 f i ui_control.obj
 0001:000208c0       ??1?$shared_ptr@U_Dir_enum_impl@filesystem@std@@@std@@QAE@XZ 004218c0 f i task_manager_dlg.obj
 0001:000208c0       ??1directory_iterator@filesystem@std@@QAE@XZ 004218c0 f i task_manager_dlg.obj
 0001:000208f0       ??1?$vector@V?$basic_string@_WU?$char_traits@_W@std@@V?$allocator@_W@2@@std@@V?$allocator@V?$basic_string@_WU?$char_traits@_W@std@@V?$allocator@_W@2@@std@@@2@@std@@QAE@XZ 004218f0 f i task_manager_dlg.obj
 0001:00020980       ??1CWaitCursor@WTL@@QAE@XZ 00421980 f i task_manager_dlg.obj
 0001:000209a0       ??1_Creator@_Dir_enum_impl@filesystem@std@@QAE@XZ 004219a0 f i task_manager_dlg.obj
 0001:000209c0       ??1_Find_file_handle@filesystem@std@@QAE@XZ 004219c0 f i task_manager_dlg.obj
 0001:000209d0       ??1directory_entry@filesystem@std@@QAE@XZ 004219d0 f i task_manager_dlg.obj
 0001:000209e0       ??_F?$CBitmapT@$00@WTL@@QAEXXZ 004219e0 f i task_manager_dlg.obj
 0001:000209f0       ??_E?$_Ref_count_obj2@U_Dir_enum_impl@filesystem@std@@@std@@UAEPAXI@Z 004219f0 f i task_manager_dlg.obj
 0001:000209f0       ??_G?$_Ref_count_obj2@U_Dir_enum_impl@filesystem@std@@@std@@UAEPAXI@Z 004219f0 f i task_manager_dlg.obj
 0001:00020a20       ??_ECSortListViewCtrl@WTL@@UAEPAXI@Z 00421a20 f i task_manager_dlg.obj
 0001:00020a20       ??_GCSortListViewCtrl@WTL@@UAEPAXI@Z 00421a20 f i task_manager_dlg.obj
 0001:00020ac0       ??_ECTaskManagerDlg@@UAEPAXI@Z 00421ac0 f i task_manager_dlg.obj
 0001:00020ac0       ??_GCTaskManagerDlg@@UAEPAXI@Z 00421ac0 f i task_manager_dlg.obj
 0001:00020bf0       ?Add@?$CSimpleArray@U_AtlDlgResizeData@?$CDialogResize@VCTaskManagerDlg@@@WTL@@V?$CSimpleArrayEqualHelper@U_AtlDlgResizeData@?$CDialogResize@VCTaskManagerDlg@@@WTL@@@ATL@@@ATL@@QAEHABU_AtlDlgResizeData@?$CDialogResize@VCTaskManagerDlg@@@WTL@@@Z 00421bf0 f i task_manager_dlg.obj
 0001:00020c90       ?AddItemToList@CTaskManagerDlg@@QAEXHPB_W00K0U_FILETIME@@@Z 00421c90 f   task_manager_dlg.obj
 0001:00021450       ?CenterWindow@CWindow@ATL@@QAEHPAUHWND__@@@Z 00422450 f i task_manager_dlg.obj
 0001:000215f0       ?CreateSortBitmaps@?$CSortListViewImpl@VCSortListViewCtrl@WTL@@@WTL@@QAEXXZ 004225f0 f i task_manager_dlg.obj
 0001:00021830       ?DataChanged@CTaskManagerDlg@@QAEXXZ 00422830 f   task_manager_dlg.obj
 0001:00021860       ?DialogProc@?$CDialogImplBaseT@VCWindow@ATL@@@ATL@@SGHPAUHWND__@@IIJ@Z 00422860 f i task_manager_dlg.obj
 0001:00021a70       ?DlgResize_Init@?$CDialogResize@VCTaskManagerDlg@@@WTL@@QAEX_N0K@Z 00422a70 f i task_manager_dlg.obj
 0001:00021e50       ?DlgResize_UpdateLayout@?$CDialogResize@VCTaskManagerDlg@@@WTL@@QAEXHH@Z 00422e50 f i task_manager_dlg.obj
 0001:00022410       ?DoSortItems@?$CSortListViewImpl@VCSortListViewCtrl@WTL@@@WTL@@QAE_NH_N@Z 00423410 f i task_manager_dlg.obj
 0001:00023130       ?GetDialogProc@?$CDialogImplBaseT@VCWindow@ATL@@@ATL@@UAEP6GHPAUHWND__@@IIJ@ZXZ 00424130 f i task_manager_dlg.obj
 0001:00023380       ?InitTaskList@CTaskManagerDlg@@QAEXXZ 00424380 f   task_manager_dlg.obj
 0001:000235a0       ?IsDataSourceEmpty@CTaskManagerDlg@@SA_NW4DataSource@1@@Z 004245a0 f   task_manager_dlg.obj
 0001:00023920       ?LVCompareCustom@?$CSortListViewImpl@VCSortListViewCtrl@WTL@@@WTL@@SGHJJJ@Z 00424920 f i task_manager_dlg.obj
 0001:00023930       ?LVCompareDecimal@?$CSortListViewImpl@VCSortListViewCtrl@WTL@@@WTL@@SGHJJJ@Z 00424930 f i task_manager_dlg.obj
 0001:00023970       ?LVCompareDouble@?$CSortListViewImpl@VCSortListViewCtrl@WTL@@@WTL@@SGHJJJ@Z 00424970 f i task_manager_dlg.obj
 0001:000239c0       ?LVCompareLong@?$CSortListViewImpl@VCSortListViewCtrl@WTL@@@WTL@@SGHJJJ@Z 004249c0 f i task_manager_dlg.obj
 0001:00023a10       ?LVCompareText@?$CSortListViewImpl@VCSortListViewCtrl@WTL@@@WTL@@SGHJJJ@Z 00424a10 f i task_manager_dlg.obj
 0001:00023a40       ?LVCompareTextNoCase@?$CSortListViewImpl@VCSortListViewCtrl@WTL@@@WTL@@SGHJJJ@Z 00424a40 f i task_manager_dlg.obj
 0001:00023a70       ?LoadLanguageStrings@CTaskManagerDlg@@QAEXXZ 00424a70 f   task_manager_dlg.obj
 0001:00023bc0       ?LoadTaskItemFromMetadataFile@CTaskManagerDlg@@QAE_NABVpath@filesystem@std@@H@Z 00424bc0 f   task_manager_dlg.obj
 0001:00023f60       ?LoadTaskList@CTaskManagerDlg@@QAEXXZ 00424f60 f   task_manager_dlg.obj
 0001:00024c50       ?OnFinalMessage@CTaskManagerDlg@@UAEXPAUHWND__@@@Z 00425c50 f   task_manager_dlg.obj
 0001:00024c80       ?OnHeaderItemClick@?$CSortListViewImpl@VCSortListViewCtrl@WTL@@@WTL@@QAEJHPAUtagNMHDR@@AAH@Z 00425c80 f i task_manager_dlg.obj
 0001:00024d20       ?OnInitDialog@CTaskManagerDlg@@QAEHVCWindow@ATL@@J@Z 00425d20 f   task_manager_dlg.obj
 0001:00025160       ?OnInsertColumn@?$CSortListViewImpl@VCSortListViewCtrl@WTL@@@WTL@@QAEJIIJAAH@Z 00426160 f i task_manager_dlg.obj
 0001:00025280       ?ProcessWindowMessage@?$CSortListViewCtrlImpl@VCSortListViewCtrl@WTL@@V?$CListViewCtrlT@VCWindow@ATL@@@2@V?$CWinTraits@$0FGAAAAAJ@$0CAA@@ATL@@@WTL@@UAEHPAUHWND__@@IIJAAJK@Z 00426280 f i task_manager_dlg.obj
 0001:00025460       ?ProcessWindowMessage@CTaskManagerDlg@@UAEHPAUHWND__@@IIJAAJK@Z 00426460 f i task_manager_dlg.obj
 0001:00025490       ?RefreshTaskList@CTaskManagerDlg@@QAEXXZ 00426490 f   task_manager_dlg.obj
 0001:00025550       ?ReloadMainIcon@CTaskManagerDlg@@QAEXXZ 00426550 f   task_manager_dlg.obj
 0001:00025550       ?ReloadMainIcon@CToolkitDlg@@QAEXXZ 00426550 f   toolkit_dlg.obj
 0001:00025650       ?SetItemData@?$CListViewCtrlT@VCWindow@ATL@@@WTL@@QAEHHK@Z 00426650 f i task_manager_dlg.obj
 0001:000256c0       ?SetSortColumn@?$CSortListViewImpl@VCSortListViewCtrl@WTL@@@WTL@@QAEXH@Z 004266c0 f i task_manager_dlg.obj
 0001:00025860       ?SetWindowPos@CWindow@ATL@@QAEHPAUHWND__@@PBUtagRECT@@I@Z 00426860 f i task_manager_dlg.obj
 0001:00025890       ?UpdateDialogAfterListUpdate@CTaskManagerDlg@@QAEXXZ 00426890 f   task_manager_dlg.obj
 0001:00025ac0       ?UpdateTaskListProcessesStatus@CTaskManagerDlg@@QAEXXZ 00426ac0 f   task_manager_dlg.obj
 0001:00025ea0       ?_Assign_grow@?$_Hash_vec@V?$allocator@V?$_List_unchecked_iterator@V?$_List_val@U?$_List_simple_types@U?$pair@$$CBV?$basic_string_view@_WU?$char_traits@_W@std@@@std@@I@std@@@std@@@std@@@std@@@std@@@std@@QAEXIV?$_List_unchecked_iterator@V?$_List_val@U?$_List_simple_types@U?$pair@$$CBV?$basic_string_view@_WU?$char_traits@_W@std@@@std@@I@std@@@std@@@std@@@2@@Z 00426ea0 f i task_manager_dlg.obj
 0001:00025f70       ?_Delete_this@?$_Ref_count_obj2@U_Dir_enum_impl@filesystem@std@@@std@@EAEXXZ 00426f70 f i task_manager_dlg.obj
 0001:00025f70       ?_Delete_this@?$_Ref_count_obj2@V?$output_stream_adapter@D@detail@nlohmann@@@std@@EAEXXZ 00426f70 f i ui_control.obj
 0001:00025f70       ?_Delete_this@?$_Ref_count_obj2@V?$output_string_adapter@DV?$basic_string@DU?$char_traits@D@std@@V?$allocator@D@2@@std@@@detail@nlohmann@@@std@@EAEXXZ 00426f70 f i userprofile.obj
 0001:00025f80       ?_Destroy@?$_Ref_count_obj2@U_Dir_enum_impl@filesystem@std@@@std@@EAEXXZ 00426f80 f i task_manager_dlg.obj
 0001:00025fa0       ?_Find_filename@filesystem@std@@YAPB_WQB_WPB_W@Z 00426fa0 f i task_manager_dlg.obj
 0001:00025ff0       ?_Forced_rehash@?$_Hash@V?$_Umap_traits@V?$basic_string_view@_WU?$char_traits@_W@std@@@std@@IV?$_Uhash_compare@V?$basic_string_view@_WU?$char_traits@_W@std@@@std@@U?$hash@V?$basic_string_view@_WU?$char_traits@_W@std@@@std@@@2@U?$equal_to@V?$basic_string_view@_WU?$char_traits@_W@std@@@std@@@2@@2@V?$allocator@U?$pair@$$CBV?$basic_string_view@_WU?$char_traits@_W@std@@@std@@I@std@@@2@$0A@@std@@@std@@IAEXI@Z 00426ff0 f i task_manager_dlg.obj
 0001:000261a0       ?_Open_dir@_Dir_enum_impl@filesystem@std@@SA?AW4__std_win_error@@AAVpath@23@W4directory_options@23@AAU_Find_file_handle@23@AAU__std_fs_find_data@@@Z 004271a0 f i task_manager_dlg.obj
 0001:00026370       ?_ProcessWindowMessage@CTaskManagerDlg@@QAEHPAUHWND__@@IIJAAJK@Z 00427370 f i task_manager_dlg.obj
 0001:000266f0       ?_Refresh@_Dir_enum_impl@filesystem@std@@QAEXABU__std_fs_find_data@@@Z 004276f0 f i task_manager_dlg.obj
 0001:00026860       ?_Refresh@file_status@filesystem@std@@QAEXW4__std_win_error@@ABU__std_fs_stats@@@Z 00427860 f i task_manager_dlg.obj
 0001:00026910       ?_Throw_fs_error@filesystem@std@@YAXPBDABVerror_code@2@ABVpath@12@@Z 00427910 f i task_manager_dlg.obj
 0001:00026980       ?_Throw_fs_error@filesystem@std@@YAXPBDW4__std_win_error@@@Z 00427980 f i task_manager_dlg.obj
 0001:00026a00       ?compare@path@filesystem@std@@QBEHV?$basic_string_view@_WU?$char_traits@_W@std@@@3@@Z 00427a00 f i task_manager_dlg.obj
 0001:00026bb0       ?deallocate@?$allocator@V?$_List_unchecked_iterator@V?$_List_val@U?$_List_simple_types@U?$pair@$$CBV?$basic_string_view@_WU?$char_traits@_W@std@@@std@@I@std@@@std@@@std@@@std@@@std@@QAEXQAV?$_List_unchecked_iterator@V?$_List_val@U?$_List_simple_types@U?$pair@$$CBV?$basic_string_view@_WU?$char_traits@_W@std@@@std@@I@std@@@std@@@std@@@2@I@Z 00427bb0 f i task_manager_dlg.obj
 0001:00026c00       ?exists@filesystem@std@@YA_NABVpath@12@AAVerror_code@2@@Z 00427c00 f i task_manager_dlg.obj
 0001:00026ca0       ??$_snwprintf_s@$0IA@@@YAHAAY0IA@_WIPB_WZZ 00427ca0 f i tray_icon.obj
 0001:00026ce0       ??0AppTrayIcon@@QAE@PAUHWND__@@I_N@Z 00427ce0 f   tray_icon.obj
 0001:00026dd0       ?Create@AppTrayIcon@@QAEXXZ 00427dd0 f   tray_icon.obj
 0001:00026df0       ?HandleMsg@AppTrayIcon@@QAE?AW4TrayAction@1@IJ@Z 00427df0 f   tray_icon.obj
 0001:00026e70       ?Hide@AppTrayIcon@@QAEX_N@Z 00427e70 f   tray_icon.obj
 0001:00026ea0       ?Modify@AppTrayIcon@@QAEXXZ 00427ea0 f   tray_icon.obj
 0001:00026eb0       ?ReloadIcons@AppTrayIcon@@AAEXPAUHWND__@@@Z 00427eb0 f   tray_icon.obj
 0001:00026fb0       ?Remove@AppTrayIcon@@QAEXXZ 00427fb0 f   tray_icon.obj
 0001:00026fc0       ?SetNotificationIconAndTooltip@AppTrayIcon@@QAEXPB_W@Z 00427fc0 f   tray_icon.obj
 0001:00027030       ?ShowNotificationMessage@AppTrayIcon@@QAEXPB_W@Z 00428030 f   tray_icon.obj
 0001:00027090       ?UpdateIcons@AppTrayIcon@@QAEXPAUHWND__@@@Z 00428090 f   tray_icon.obj
 0001:000270e0       ??$?0AAV?$basic_string@DU?$char_traits@D@std@@V?$allocator@D@2@@std@@V01@$0A@@?$basic_json@Uordered_map@nlohmann@@Vvector@std@@V?$basic_string@DU?$char_traits@D@std@@V?$allocator@D@2@@4@_N_J_KNVallocator@4@Uadl_serializer@2@V?$vector@EV?$allocator@E@std@@@4@@nlohmann@@QAE@AAV?$basic_string@DU?$char_traits@D@std@@V?$allocator@D@2@@std@@@Z 004280e0 f i ui_control.obj
 0001:000270e0       ??$?0AAV?$basic_string@DU?$char_traits@D@std@@V?$allocator@D@2@@std@@V01@$0A@@?$basic_json@Vmap@std@@Vvector@2@V?$basic_string@DU?$char_traits@D@std@@V?$allocator@D@2@@2@_N_J_KNVallocator@2@Uadl_serializer@nlohmann@@V?$vector@EV?$allocator@E@std@@@2@@nlohmann@@QAE@AAV?$basic_string@DU?$char_traits@D@std@@V?$allocator@D@2@@std@@@Z 004280e0 f i userprofile.obj
 0001:00027160       ??$?0AAY03$$CBD$0A@@?$json_ref@V?$basic_json@Uordered_map@nlohmann@@Vvector@std@@V?$basic_string@DU?$char_traits@D@std@@V?$allocator@D@2@@4@_N_J_KNVallocator@4@Uadl_serializer@2@V?$vector@EV?$allocator@E@std@@@4@@nlohmann@@@detail@nlohmann@@QAE@AAY03$$CBD@Z 00428160 f i ui_control.obj
 0001:00027160       ??$?0AAY04$$CBD$0A@@?$json_ref@V?$basic_json@Uordered_map@nlohmann@@Vvector@std@@V?$basic_string@DU?$char_traits@D@std@@V?$allocator@D@2@@4@_N_J_KNVallocator@4@Uadl_serializer@2@V?$vector@EV?$allocator@E@std@@@4@@nlohmann@@@detail@nlohmann@@QAE@AAY04$$CBD@Z 00428160 f i ui_control.obj
 0001:00027160       ??$?0AAY07$$CBD$0A@@?$json_ref@V?$basic_json@Uordered_map@nlohmann@@Vvector@std@@V?$basic_string@DU?$char_traits@D@std@@V?$allocator@D@2@@4@_N_J_KNVallocator@4@Uadl_serializer@2@V?$vector@EV?$allocator@E@std@@@4@@nlohmann@@@detail@nlohmann@@QAE@AAY07$$CBD@Z 00428160 f i ui_control.obj
 0001:00027160       ??$?0AAY0BB@$$CBD$0A@@?$json_ref@V?$basic_json@Uordered_map@nlohmann@@Vvector@std@@V?$basic_string@DU?$char_traits@D@std@@V?$allocator@D@2@@4@_N_J_KNVallocator@4@Uadl_serializer@2@V?$vector@EV?$allocator@E@std@@@4@@nlohmann@@@detail@nlohmann@@QAE@AAY0BB@$$CBD@Z 00428160 f i ui_control.obj
 0001:00027160       ??$?0AAY0BE@$$CBD$0A@@?$json_ref@V?$basic_json@Uordered_map@nlohmann@@Vvector@std@@V?$basic_string@DU?$char_traits@D@std@@V?$allocator@D@2@@4@_N_J_KNVallocator@4@Uadl_serializer@2@V?$vector@EV?$allocator@E@std@@@4@@nlohmann@@@detail@nlohmann@@QAE@AAY0BE@$$CBD@Z 00428160 f i ui_control.obj
 0001:00027160       ??$?0AAY0BH@$$CBD$0A@@?$json_ref@V?$basic_json@Uordered_map@nlohmann@@Vvector@std@@V?$basic_string@DU?$char_traits@D@std@@V?$allocator@D@2@@4@_N_J_KNVallocator@4@Uadl_serializer@2@V?$vector@EV?$allocator@E@std@@@4@@nlohmann@@@detail@nlohmann@@QAE@AAY0BH@$$CBD@Z 00428160 f i ui_control.obj
 0001:00027160       ??$?0AAY0BI@$$CBD$0A@@?$json_ref@V?$basic_json@Uordered_map@nlohmann@@Vvector@std@@V?$basic_string@DU?$char_traits@D@std@@V?$allocator@D@2@@4@_N_J_KNVallocator@4@Uadl_serializer@2@V?$vector@EV?$allocator@E@std@@@4@@nlohmann@@@detail@nlohmann@@QAE@AAY0BI@$$CBD@Z 00428160 f i ui_control.obj
 0001:00027160       ??$?0AAY0BJ@$$CBD$0A@@?$json_ref@V?$basic_json@Uordered_map@nlohmann@@Vvector@std@@V?$basic_string@DU?$char_traits@D@std@@V?$allocator@D@2@@4@_N_J_KNVallocator@4@Uadl_serializer@2@V?$vector@EV?$allocator@E@std@@@4@@nlohmann@@@detail@nlohmann@@QAE@AAY0BJ@$$CBD@Z 00428160 f i ui_control.obj
 0001:00027160       ??$?0AAY0BK@$$CBD$0A@@?$json_ref@V?$basic_json@Uordered_map@nlohmann@@Vvector@std@@V?$basic_string@DU?$char_traits@D@std@@V?$allocator@D@2@@4@_N_J_KNVallocator@4@Uadl_serializer@2@V?$vector@EV?$allocator@E@std@@@4@@nlohmann@@@detail@nlohmann@@QAE@AAY0BK@$$CBD@Z 00428160 f i ui_control.obj
 0001:00027160       ??$?0AAY0BM@$$CBD$0A@@?$json_ref@V?$basic_json@Uordered_map@nlohmann@@Vvector@std@@V?$basic_string@DU?$char_traits@D@std@@V?$allocator@D@2@@4@_N_J_KNVallocator@4@Uadl_serializer@2@V?$vector@EV?$allocator@E@std@@@4@@nlohmann@@@detail@nlohmann@@QAE@AAY0BM@$$CBD@Z 00428160 f i ui_control.obj
 0001:00027160       ??$?0AAY0BO@$$CBD$0A@@?$json_ref@V?$basic_json@Uordered_map@nlohmann@@Vvector@std@@V?$basic_string@DU?$char_traits@D@std@@V?$allocator@D@2@@4@_N_J_KNVallocator@4@Uadl_serializer@2@V?$vector@EV?$allocator@E@std@@@4@@nlohmann@@@detail@nlohmann@@QAE@AAY0BO@$$CBD@Z 00428160 f i ui_control.obj
 0001:00027160       ??$?0AAY0CA@$$CBD$0A@@?$json_ref@V?$basic_json@Uordered_map@nlohmann@@Vvector@std@@V?$basic_string@DU?$char_traits@D@std@@V?$allocator@D@2@@4@_N_J_KNVallocator@4@Uadl_serializer@2@V?$vector@EV?$allocator@E@std@@@4@@nlohmann@@@detail@nlohmann@@QAE@AAY0CA@$$CBD@Z 00428160 f i ui_control.obj
 0001:00027160       ??$?0AAY0CB@$$CBD$0A@@?$json_ref@V?$basic_json@Uordered_map@nlohmann@@Vvector@std@@V?$basic_string@DU?$char_traits@D@std@@V?$allocator@D@2@@4@_N_J_KNVallocator@4@Uadl_serializer@2@V?$vector@EV?$allocator@E@std@@@4@@nlohmann@@@detail@nlohmann@@QAE@AAY0CB@$$CBD@Z 00428160 f i ui_control.obj
 0001:00027160       ??$?0AAY0CN@$$CBD$0A@@?$json_ref@V?$basic_json@Uordered_map@nlohmann@@Vvector@std@@V?$basic_string@DU?$char_traits@D@std@@V?$allocator@D@2@@4@_N_J_KNVallocator@4@Uadl_serializer@2@V?$vector@EV?$allocator@E@std@@@4@@nlohmann@@@detail@nlohmann@@QAE@AAY0CN@$$CBD@Z 00428160 f i ui_control.obj
 0001:00027160       ??$?0AAY0M@$$CBD$0A@@?$json_ref@V?$basic_json@Uordered_map@nlohmann@@Vvector@std@@V?$basic_string@DU?$char_traits@D@std@@V?$allocator@D@2@@4@_N_J_KNVallocator@4@Uadl_serializer@2@V?$vector@EV?$allocator@E@std@@@4@@nlohmann@@@detail@nlohmann@@QAE@AAY0M@$$CBD@Z 00428160 f i ui_control.obj
 0001:00027160       ??$?0AAY0P@$$CBD$0A@@?$json_ref@V?$basic_json@Uordered_map@nlohmann@@Vvector@std@@V?$basic_string@DU?$char_traits@D@std@@V?$allocator@D@2@@4@_N_J_KNVallocator@4@Uadl_serializer@2@V?$vector@EV?$allocator@E@std@@@4@@nlohmann@@@detail@nlohmann@@QAE@AAY0P@$$CBD@Z 00428160 f i ui_control.obj
 0001:00027210       ??$?0H$0A@@?$json_ref@V?$basic_json@Uordered_map@nlohmann@@Vvector@std@@V?$basic_string@DU?$char_traits@D@std@@V?$allocator@D@2@@4@_N_J_KNVallocator@4@Uadl_serializer@2@V?$vector@EV?$allocator@E@std@@@4@@nlohmann@@@detail@nlohmann@@QAE@$$QAH@Z 00428210 f i ui_control.obj
 0001:00027240       ??$?0PAD$0A@@?$basic_string@DU?$char_traits@D@std@@V?$allocator@D@2@@std@@QAE@PAD0ABV?$allocator@D@1@@Z 00428240 f i ui_control.obj
 0001:00027300       ??$?0_N$0A@@?$json_ref@V?$basic_json@Uordered_map@nlohmann@@Vvector@std@@V?$basic_string@DU?$char_traits@D@std@@V?$allocator@D@2@@4@_N_J_KNVallocator@4@Uadl_serializer@2@V?$vector@EV?$allocator@E@std@@@4@@nlohmann@@@detail@nlohmann@@QAE@$$QA_N@Z 00428300 f i ui_control.obj
 0001:00027340       ??$?8DU?$char_traits@D@std@@V?$allocator@D@1@@std@@YA_NABV?$basic_string@DU?$char_traits@D@std@@V?$allocator@D@2@@0@0@Z 00428340 f i ui_control.obj
 0001:000273e0       ??$?HDU?$char_traits@D@std@@V?$allocator@D@1@@std@@YA?AV?$basic_string@DU?$char_traits@D@std@@V?$allocator@D@2@@0@$$QAV10@ABV10@@Z 004283e0 f i ui_control.obj
 0001:00027440       ??$?HDU?$char_traits@D@std@@V?$allocator@D@1@@std@@YA?AV?$basic_string@DU?$char_traits@D@std@@V?$allocator@D@2@@0@$$QAV10@QBD@Z 00428440 f i ui_control.obj
 0001:000274b0       ??$?HDU?$char_traits@D@std@@V?$allocator@D@1@@std@@YA?AV?$basic_string@DU?$char_traits@D@std@@V?$allocator@D@2@@0@QBD$$QAV10@@Z 004284b0 f i ui_control.obj
 0001:000275b0       ??$?HDU?$char_traits@D@std@@V?$allocator@D@1@@std@@YA?AV?$basic_string@DU?$char_traits@D@std@@V?$allocator@D@2@@0@QBDABV10@@Z 004285b0 f i ui_control.obj
 0001:00027690       ??$CoCreateInstance@UITaskService@@Uerr_exception_policy@wil@@@wil@@YA?AV?$com_ptr_t@UITaskService@@Uerr_exception_policy@wil@@@0@ABU_GUID@@K@Z 00428690 f i ui_control.obj
 0001:00027720       ??$_Allocate_at_least_helper@V?$allocator@PAUHWND__@@@std@@@std@@YAPAPAUHWND__@@AAV?$allocator@PAUHWND__@@@0@AAI@Z 00428720 f i ui_control.obj
 0001:00027720       ??$_Allocate_at_least_helper@V?$allocator@PAV?$basic_json@Uordered_map@nlohmann@@Vvector@std@@V?$basic_string@DU?$char_traits@D@std@@V?$allocator@D@2@@4@_N_J_KNVallocator@4@Uadl_serializer@2@V?$vector@EV?$allocator@E@std@@@4@@nlohmann@@@std@@@std@@YAPAPAV?$basic_json@Uordered_map@nlohmann@@Vvector@std@@V?$basic_string@DU?$char_traits@D@std@@V?$allocator@D@2@@4@_N_J_KNVallocator@4@Uadl_serializer@2@V?$vector@EV?$allocator@E@std@@@4@@nlohmann@@AAV?$allocator@PAV?$basic_json@Uordered_map@nlohmann@@Vvector@std@@V?$basic_string@DU?$char_traits@D@std@@V?$allocator@D@2@@4@_N_J_KNVallocator@4@Uadl_serializer@2@V?$vector@EV?$allocator@E@std@@@4@@nlohmann@@@0@AAI@Z 00428720 f i ui_control.obj
 0001:00027720       ??$_Allocate_at_least_helper@V?$allocator@PAV?$basic_json@Vmap@std@@Vvector@2@V?$basic_string@DU?$char_traits@D@std@@V?$allocator@D@2@@2@_N_J_KNVallocator@2@Uadl_serializer@nlohmann@@V?$vector@EV?$allocator@E@std@@@2@@nlohmann@@@std@@@std@@YAPAPAV?$basic_json@Vmap@std@@Vvector@2@V?$basic_string@DU?$char_traits@D@std@@V?$allocator@D@2@@2@_N_J_KNVallocator@2@Uadl_serializer@nlohmann@@V?$vector@EV?$allocator@E@std@@@2@@nlohmann@@AAV?$allocator@PAV?$basic_json@Vmap@std@@Vvector@2@V?$basic_string@DU?$char_traits@D@std@@V?$allocator@D@2@@2@_N_J_KNVallocator@2@Uadl_serializer@nlohmann@@V?$vector@EV?$allocator@E@std@@@2@@nlohmann@@@0@AAI@Z 00428720 f i userprofile.obj
 0001:00027720       ??$_Allocate_at_least_helper@V?$allocator@PB_W@std@@@std@@YAPAPB_WAAV?$allocator@PB_W@0@AAI@Z 00428720 f i update_checker.obj
 0001:00027780       ??$_Allocate_at_least_helper@V?$allocator@U?$pair@$$CBV?$basic_string@DU?$char_traits@D@std@@V?$allocator@D@2@@std@@V?$basic_json@Uordered_map@nlohmann@@Vvector@std@@V?$basic_string@DU?$char_traits@D@std@@V?$allocator@D@2@@4@_N_J_KNVallocator@4@Uadl_serializer@2@V?$vector@EV?$allocator@E@std@@@4@@nlohmann@@@std@@@std@@@std@@YAPAU?$pair@$$CBV?$basic_string@DU?$char_traits@D@std@@V?$allocator@D@2@@std@@V?$basic_json@Uordered_map@nlohmann@@Vvector@std@@V?$basic_string@DU?$char_traits@D@std@@V?$allocator@D@2@@4@_N_J_KNVallocator@4@Uadl_serializer@2@V?$vector@EV?$allocator@E@std@@@4@@nlohmann@@@0@AAV?$allocator@U?$pair@$$CBV?$basic_string@DU?$char_traits@D@std@@V?$allocator@D@2@@std@@V?$basic_json@Uordered_map@nlohmann@@Vvector@std@@V?$basic_string@DU?$char_traits@D@std@@V?$allocator@D@2@@4@_N_J_KNVallocator@4@Uadl_serializer@2@V?$vector@EV?$allocator@E@std@@@4@@nlohmann@@@std@@@0@AAI@Z 00428780 f i ui_control.obj
 0001:000277f0       ??$_Allocate_at_least_helper@V?$allocator@V?$basic_json@Uordered_map@nlohmann@@Vvector@std@@V?$basic_string@DU?$char_traits@D@std@@V?$allocator@D@2@@4@_N_J_KNVallocator@4@Uadl_serializer@2@V?$vector@EV?$allocator@E@std@@@4@@nlohmann@@@std@@@std@@YAPAV?$basic_json@Uordered_map@nlohmann@@Vvector@std@@V?$basic_string@DU?$char_traits@D@std@@V?$allocator@D@2@@4@_N_J_KNVallocator@4@Uadl_serializer@2@V?$vector@EV?$allocator@E@std@@@4@@nlohmann@@AAV?$allocator@V?$basic_json@Uordered_map@nlohmann@@Vvector@std@@V?$basic_string@DU?$char_traits@D@std@@V?$allocator@D@2@@4@_N_J_KNVallocator@4@Uadl_serializer@2@V?$vector@EV?$allocator@E@std@@@4@@nlohmann@@@0@AAI@Z 004287f0 f i ui_control.obj
 0001:000277f0       ??$_Allocate_at_least_helper@V?$allocator@V?$basic_json@Vmap@std@@Vvector@2@V?$basic_string@DU?$char_traits@D@std@@V?$allocator@D@2@@2@_N_J_KNVallocator@2@Uadl_serializer@nlohmann@@V?$vector@EV?$allocator@E@std@@@2@@nlohmann@@@std@@@std@@YAPAV?$basic_json@Vmap@std@@Vvector@2@V?$basic_string@DU?$char_traits@D@std@@V?$allocator@D@2@@2@_N_J_KNVallocator@2@Uadl_serializer@nlohmann@@V?$vector@EV?$allocator@E@std@@@2@@nlohmann@@AAV?$allocator@V?$basic_json@Vmap@std@@Vvector@2@V?$basic_string@DU?$char_traits@D@std@@V?$allocator@D@2@@2@_N_J_KNVallocator@2@Uadl_serializer@nlohmann@@V?$vector@EV?$allocator@E@std@@@2@@nlohmann@@@0@AAI@Z 004287f0 f i userprofile.obj
 0001:00027850       ??$_Copy_vbool@V?$_Vb_iterator@U?$_Wrap_alloc@V?$allocator@I@std@@@std@@@std@@V12@@std@@YA?AV?$_Vb_iterator@U?$_Wrap_alloc@V?$allocator@I@std@@@std@@@0@V10@00@Z 00428850 f i ui_control.obj
 0001:00027c50       ??$_Emplace_one_at_back@$$T@?$vector@V?$basic_json@Uordered_map@nlohmann@@Vvector@std@@V?$basic_string@DU?$char_traits@D@std@@V?$allocator@D@2@@4@_N_J_KNVallocator@4@Uadl_serializer@2@V?$vector@EV?$allocator@E@std@@@4@@nlohmann@@V?$allocator@V?$basic_json@Uordered_map@nlohmann@@Vvector@std@@V?$basic_string@DU?$char_traits@D@std@@V?$allocator@D@2@@4@_N_J_KNVallocator@4@Uadl_serializer@2@V?$vector@EV?$allocator@E@std@@@4@@nlohmann@@@std@@@std@@AAEAAV?$basic_json@Uordered_map@nlohmann@@Vvector@std@@V?$basic_string@DU?$char_traits@D@std@@V?$allocator@D@2@@4@_N_J_KNVallocator@4@Uadl_serializer@2@V?$vector@EV?$allocator@E@std@@@4@@nlohmann@@$$QA$$T@Z 00428c50 f i ui_control.obj
 0001:00027dc0       ??$_Emplace_one_at_back@AAN@?$vector@V?$basic_json@Uordered_map@nlohmann@@Vvector@std@@V?$basic_string@DU?$char_traits@D@std@@V?$allocator@D@2@@4@_N_J_KNVallocator@4@Uadl_serializer@2@V?$vector@EV?$allocator@E@std@@@4@@nlohmann@@V?$allocator@V?$basic_json@Uordered_map@nlohmann@@Vvector@std@@V?$basic_string@DU?$char_traits@D@std@@V?$allocator@D@2@@4@_N_J_KNVallocator@4@Uadl_serializer@2@V?$vector@EV?$allocator@E@std@@@4@@nlohmann@@@std@@@std@@AAEAAV?$basic_json@Uordered_map@nlohmann@@Vvector@std@@V?$basic_string@DU?$char_traits@D@std@@V?$allocator@D@2@@4@_N_J_KNVallocator@4@Uadl_serializer@2@V?$vector@EV?$allocator@E@std@@@4@@nlohmann@@AAN@Z 00428dc0 f i ui_control.obj
 0001:00027f10       ??$_Emplace_one_at_back@AA_J@?$vector@V?$basic_json@Uordered_map@nlohmann@@Vvector@std@@V?$basic_string@DU?$char_traits@D@std@@V?$allocator@D@2@@4@_N_J_KNVallocator@4@Uadl_serializer@2@V?$vector@EV?$allocator@E@std@@@4@@nlohmann@@V?$allocator@V?$basic_json@Uordered_map@nlohmann@@Vvector@std@@V?$basic_string@DU?$char_traits@D@std@@V?$allocator@D@2@@4@_N_J_KNVallocator@4@Uadl_serializer@2@V?$vector@EV?$allocator@E@std@@@4@@nlohmann@@@std@@@std@@AAEAAV?$basic_json@Uordered_map@nlohmann@@Vvector@std@@V?$basic_string@DU?$char_traits@D@std@@V?$allocator@D@2@@4@_N_J_KNVallocator@4@Uadl_serializer@2@V?$vector@EV?$allocator@E@std@@@4@@nlohmann@@AA_J@Z 00428f10 f i ui_control.obj
 0001:00028050       ??$_Emplace_one_at_back@AA_K@?$vector@V?$basic_json@Uordered_map@nlohmann@@Vvector@std@@V?$basic_string@DU?$char_traits@D@std@@V?$allocator@D@2@@4@_N_J_KNVallocator@4@Uadl_serializer@2@V?$vector@EV?$allocator@E@std@@@4@@nlohmann@@V?$allocator@V?$basic_json@Uordered_map@nlohmann@@Vvector@std@@V?$basic_string@DU?$char_traits@D@std@@V?$allocator@D@2@@4@_N_J_KNVallocator@4@Uadl_serializer@2@V?$vector@EV?$allocator@E@std@@@4@@nlohmann@@@std@@@std@@AAEAAV?$basic_json@Uordered_map@nlohmann@@Vvector@std@@V?$basic_string@DU?$char_traits@D@std@@V?$allocator@D@2@@4@_N_J_KNVallocator@4@Uadl_serializer@2@V?$vector@EV?$allocator@E@std@@@4@@nlohmann@@AA_K@Z 00429050 f i ui_control.obj
 0001:00028190       ??$_Emplace_one_at_back@AA_N@?$vector@V?$basic_json@Uordered_map@nlohmann@@Vvector@std@@V?$basic_string@DU?$char_traits@D@std@@V?$allocator@D@2@@4@_N_J_KNVallocator@4@Uadl_serializer@2@V?$vector@EV?$allocator@E@std@@@4@@nlohmann@@V?$allocator@V?$basic_json@Uordered_map@nlohmann@@Vvector@std@@V?$basic_string@DU?$char_traits@D@std@@V?$allocator@D@2@@4@_N_J_KNVallocator@4@Uadl_serializer@2@V?$vector@EV?$allocator@E@std@@@4@@nlohmann@@@std@@@std@@AAEAAV?$basic_json@Uordered_map@nlohmann@@Vvector@std@@V?$basic_string@DU?$char_traits@D@std@@V?$allocator@D@2@@4@_N_J_KNVallocator@4@Uadl_serializer@2@V?$vector@EV?$allocator@E@std@@@4@@nlohmann@@AA_N@Z 00429190 f i ui_control.obj
 0001:000282e0       ??$_Emplace_one_at_back@D@?$vector@DV?$allocator@D@std@@@std@@AAEAAD$$QAD@Z 004292e0 f i ui_control.obj
 0001:00028410       ??$_Emplace_one_at_back@W4value_t@detail@nlohmann@@@?$vector@V?$basic_json@Uordered_map@nlohmann@@Vvector@std@@V?$basic_string@DU?$char_traits@D@std@@V?$allocator@D@2@@4@_N_J_KNVallocator@4@Uadl_serializer@2@V?$vector@EV?$allocator@E@std@@@4@@nlohmann@@V?$allocator@V?$basic_json@Uordered_map@nlohmann@@Vvector@std@@V?$basic_string@DU?$char_traits@D@std@@V?$allocator@D@2@@4@_N_J_KNVallocator@4@Uadl_serializer@2@V?$vector@EV?$allocator@E@std@@@4@@nlohmann@@@std@@@std@@AAEAAV?$basic_json@Uordered_map@nlohmann@@Vvector@std@@V?$basic_string@DU?$char_traits@D@std@@V?$allocator@D@2@@4@_N_J_KNVallocator@4@Uadl_serializer@2@V?$vector@EV?$allocator@E@std@@@4@@nlohmann@@$$QAW4value_t@detail@3@@Z 00429410 f i ui_control.obj
 0001:00028580       ??$_Emplace_reallocate@AAV?$basic_string@DU?$char_traits@D@std@@V?$allocator@D@2@@std@@@?$vector@V?$basic_json@Uordered_map@nlohmann@@Vvector@std@@V?$basic_string@DU?$char_traits@D@std@@V?$allocator@D@2@@4@_N_J_KNVallocator@4@Uadl_serializer@2@V?$vector@EV?$allocator@E@std@@@4@@nlohmann@@V?$allocator@V?$basic_json@Uordered_map@nlohmann@@Vvector@std@@V?$basic_string@DU?$char_traits@D@std@@V?$allocator@D@2@@4@_N_J_KNVallocator@4@Uadl_serializer@2@V?$vector@EV?$allocator@E@std@@@4@@nlohmann@@@std@@@std@@AAEPAV?$basic_json@Uordered_map@nlohmann@@Vvector@std@@V?$basic_string@DU?$char_traits@D@std@@V?$allocator@D@2@@4@_N_J_KNVallocator@4@Uadl_serializer@2@V?$vector@EV?$allocator@E@std@@@4@@nlohmann@@QAV23@AAV?$basic_string@DU?$char_traits@D@std@@V?$allocator@D@2@@1@@Z 00429580 f i ui_control.obj
 0001:000286e0       ??$_Emplace_reallocate@ABQAUHWND__@@@?$vector@PAUHWND__@@V?$allocator@PAUHWND__@@@std@@@std@@AAEPAPAUHWND__@@QAPAU2@ABQAU2@@Z 004296e0 f i ui_control.obj
 0001:00028800       ??$_Emplace_reallocate@ABV?$basic_string@DU?$char_traits@D@std@@V?$allocator@D@2@@std@@AAV?$basic_json@Uordered_map@nlohmann@@Vvector@std@@V?$basic_string@DU?$char_traits@D@std@@V?$allocator@D@2@@4@_N_J_KNVallocator@4@Uadl_serializer@2@V?$vector@EV?$allocator@E@std@@@4@@nlohmann@@@?$vector@U?$pair@$$CBV?$basic_string@DU?$char_traits@D@std@@V?$allocator@D@2@@std@@V?$basic_json@Uordered_map@nlohmann@@Vvector@std@@V?$basic_string@DU?$char_traits@D@std@@V?$allocator@D@2@@4@_N_J_KNVallocator@4@Uadl_serializer@2@V?$vector@EV?$allocator@E@std@@@4@@nlohmann@@@std@@V?$allocator@U?$pair@$$CBV?$basic_string@DU?$char_traits@D@std@@V?$allocator@D@2@@std@@V?$basic_json@Uordered_map@nlohmann@@Vvector@std@@V?$basic_string@DU?$char_traits@D@std@@V?$allocator@D@2@@4@_N_J_KNVallocator@4@Uadl_serializer@2@V?$vector@EV?$allocator@E@std@@@4@@nlohmann@@@std@@@2@@std@@AAEPAU?$pair@$$CBV?$basic_string@DU?$char_traits@D@std@@V?$allocator@D@2@@std@@V?$basic_json@Uordered_map@nlohmann@@Vvector@std@@V?$basic_string@DU?$char_traits@D@std@@V?$allocator@D@2@@4@_N_J_KNVallocator@4@Uadl_serializer@2@V?$vector@EV?$allocator@E@std@@@4@@nlohmann@@@1@QAU21@ABV?$basic_string@DU?$char_traits@D@std@@V?$allocator@D@2@@1@AAV?$basic_json@Uordered_map@nlohmann@@Vvector@std@@V?$basic_string@DU?$char_traits@D@std@@V?$allocator@D@2@@4@_N_J_KNVallocator@4@Uadl_serializer@2@V?$vector@EV?$allocator@E@std@@@4@@nlohmann@@@Z 00429800 f i ui_control.obj
 0001:00028a00       ??$_Fputc@D@std@@YA_NDPAU_iobuf@@@Z 00429a00 f i ui_control.obj
 0001:00028a20       ??$_Reallocate_grow_by@V<lambda_1>@?1??insert@?$basic_string@DU?$char_traits@D@std@@V?$allocator@D@2@@std@@QAEAAV34@IQBDI@Z@IPBDI@?$basic_string@DU?$char_traits@D@std@@V?$allocator@D@2@@std@@AAEAAV01@IV<lambda_1>@?1??insert@01@QAEAAV01@IQBDI@Z@IPBDI@Z 00429a20 f i ui_control.obj
 0001:00028b60       ??$_Resize_reallocate@I@?$vector@IV?$allocator@I@std@@@std@@AAEXIABI@Z 00429b60 f i ui_control.obj
 0001:00028c90       ??$_UIntegral_to_buff@DI@std@@YAPADPADI@Z 00429c90 f i ui_control.obj
 0001:00028cd0       ??$_Uninitialized_copy@PAU?$pair@$$CBV?$basic_string@DU?$char_traits@D@std@@V?$allocator@D@2@@std@@V?$basic_json@Uordered_map@nlohmann@@Vvector@std@@V?$basic_string@DU?$char_traits@D@std@@V?$allocator@D@2@@4@_N_J_KNVallocator@4@Uadl_serializer@2@V?$vector@EV?$allocator@E@std@@@4@@nlohmann@@@std@@PAU12@V?$allocator@U?$pair@$$CBV?$basic_string@DU?$char_traits@D@std@@V?$allocator@D@2@@std@@V?$basic_json@Uordered_map@nlohmann@@Vvector@std@@V?$basic_string@DU?$char_traits@D@std@@V?$allocator@D@2@@4@_N_J_KNVallocator@4@Uadl_serializer@2@V?$vector@EV?$allocator@E@std@@@4@@nlohmann@@@std@@@2@@std@@YAPAU?$pair@$$CBV?$basic_string@DU?$char_traits@D@std@@V?$allocator@D@2@@std@@V?$basic_json@Uordered_map@nlohmann@@Vvector@std@@V?$basic_string@DU?$char_traits@D@std@@V?$allocator@D@2@@4@_N_J_KNVallocator@4@Uadl_serializer@2@V?$vector@EV?$allocator@E@std@@@4@@nlohmann@@@0@PAU10@00AAV?$allocator@U?$pair@$$CBV?$basic_string@DU?$char_traits@D@std@@V?$allocator@D@2@@std@@V?$basic_json@Uordered_map@nlohmann@@Vvector@std@@V?$basic_string@DU?$char_traits@D@std@@V?$allocator@D@2@@4@_N_J_KNVallocator@4@Uadl_serializer@2@V?$vector@EV?$allocator@E@std@@@4@@nlohmann@@@std@@@0@@Z 00429cd0 f i ui_control.obj
 0001:00028d60       ??$_Uninitialized_fill_n@V?$allocator@I@std@@@std@@YAPAIPAIIABIAAV?$allocator@I@0@@Z 00429d60 f i ui_control.obj
 0001:00028dc0       ??$_Uninitialized_move@PAU?$pair@$$CBV?$basic_string@DU?$char_traits@D@std@@V?$allocator@D@2@@std@@V?$basic_json@Uordered_map@nlohmann@@Vvector@std@@V?$basic_string@DU?$char_traits@D@std@@V?$allocator@D@2@@4@_N_J_KNVallocator@4@Uadl_serializer@2@V?$vector@EV?$allocator@E@std@@@4@@nlohmann@@@std@@V?$allocator@U?$pair@$$CBV?$basic_string@DU?$char_traits@D@std@@V?$allocator@D@2@@std@@V?$basic_json@Uordered_map@nlohmann@@Vvector@std@@V?$basic_string@DU?$char_traits@D@std@@V?$allocator@D@2@@4@_N_J_KNVallocator@4@Uadl_serializer@2@V?$vector@EV?$allocator@E@std@@@4@@nlohmann@@@std@@@2@@std@@YAPAU?$pair@$$CBV?$basic_string@DU?$char_traits@D@std@@V?$allocator@D@2@@std@@V?$basic_json@Uordered_map@nlohmann@@Vvector@std@@V?$basic_string@DU?$char_traits@D@std@@V?$allocator@D@2@@4@_N_J_KNVallocator@4@Uadl_serializer@2@V?$vector@EV?$allocator@E@std@@@4@@nlohmann@@@0@QAU10@0PAU10@AAV?$allocator@U?$pair@$$CBV?$basic_string@DU?$char_traits@D@std@@V?$allocator@D@2@@std@@V?$basic_json@Uordered_map@nlohmann@@Vvector@std@@V?$basic_string@DU?$char_traits@D@std@@V?$allocator@D@2@@4@_N_J_KNVallocator@4@Uadl_serializer@2@V?$vector@EV?$allocator@E@std@@@4@@nlohmann@@@std@@@0@@Z 00429dc0 f i ui_control.obj
 0001:00028e70       ??$_Uninitialized_move@PAV?$basic_json@Uordered_map@nlohmann@@Vvector@std@@V?$basic_string@DU?$char_traits@D@std@@V?$allocator@D@2@@4@_N_J_KNVallocator@4@Uadl_serializer@2@V?$vector@EV?$allocator@E@std@@@4@@nlohmann@@V?$allocator@V?$basic_json@Uordered_map@nlohmann@@Vvector@std@@V?$basic_string@DU?$char_traits@D@std@@V?$allocator@D@2@@4@_N_J_KNVallocator@4@Uadl_serializer@2@V?$vector@EV?$allocator@E@std@@@4@@nlohmann@@@std@@@std@@YAPAV?$basic_json@Uordered_map@nlohmann@@Vvector@std@@V?$basic_string@DU?$char_traits@D@std@@V?$allocator@D@2@@4@_N_J_KNVallocator@4@Uadl_serializer@2@V?$vector@EV?$allocator@E@std@@@4@@nlohmann@@QAV12@0PAV12@AAV?$allocator@V?$basic_json@Uordered_map@nlohmann@@Vvector@std@@V?$basic_string@DU?$char_traits@D@std@@V?$allocator@D@2@@4@_N_J_KNVallocator@4@Uadl_serializer@2@V?$vector@EV?$allocator@E@std@@@4@@nlohmann@@@0@@Z 00429e70 f i ui_control.obj
 0001:00028e70       ??$_Uninitialized_move@PAV?$basic_json@Vmap@std@@Vvector@2@V?$basic_string@DU?$char_traits@D@std@@V?$allocator@D@2@@2@_N_J_KNVallocator@2@Uadl_serializer@nlohmann@@V?$vector@EV?$allocator@E@std@@@2@@nlohmann@@V?$allocator@V?$basic_json@Vmap@std@@Vvector@2@V?$basic_string@DU?$char_traits@D@std@@V?$allocator@D@2@@2@_N_J_KNVallocator@2@Uadl_serializer@nlohmann@@V?$vector@EV?$allocator@E@std@@@2@@nlohmann@@@std@@@std@@YAPAV?$basic_json@Vmap@std@@Vvector@2@V?$basic_string@DU?$char_traits@D@std@@V?$allocator@D@2@@2@_N_J_KNVallocator@2@Uadl_serializer@nlohmann@@V?$vector@EV?$allocator@E@std@@@2@@nlohmann@@QAV12@0PAV12@AAV?$allocator@V?$basic_json@Vmap@std@@Vvector@2@V?$basic_string@DU?$char_traits@D@std@@V?$allocator@D@2@@2@_N_J_KNVallocator@2@Uadl_serializer@nlohmann@@V?$vector@EV?$allocator@E@std@@@2@@nlohmann@@@0@@Z 00429e70 f i userprofile.obj
 0001:00028ec0       ??$construct@V?$basic_json@Uordered_map@nlohmann@@Vvector@std@@V?$basic_string@DU?$char_traits@D@std@@V?$allocator@D@2@@4@_N_J_KNVallocator@4@Uadl_serializer@2@V?$vector@EV?$allocator@E@std@@@4@@nlohmann@@AAV?$basic_string@DU?$char_traits@D@std@@V?$allocator@D@2@@std@@@?$_Default_allocator_traits@V?$allocator@V?$basic_json@Uordered_map@nlohmann@@Vvector@std@@V?$basic_string@DU?$char_traits@D@std@@V?$allocator@D@2@@4@_N_J_KNVallocator@4@Uadl_serializer@2@V?$vector@EV?$allocator@E@std@@@4@@nlohmann@@@std@@@std@@SAXAAV?$allocator@V?$basic_json@Uordered_map@nlohmann@@Vvector@std@@V?$basic_string@DU?$char_traits@D@std@@V?$allocator@D@2@@4@_N_J_KNVallocator@4@Uadl_serializer@2@V?$vector@EV?$allocator@E@std@@@4@@nlohmann@@@1@QAV?$basic_json@Uordered_map@nlohmann@@Vvector@std@@V?$basic_string@DU?$char_traits@D@std@@V?$allocator@D@2@@4@_N_J_KNVallocator@4@Uadl_serializer@2@V?$vector@EV?$allocator@E@std@@@4@@nlohmann@@AAV?$basic_string@DU?$char_traits@D@std@@V?$allocator@D@2@@1@@Z 00429ec0 f i ui_control.obj
 0001:00028f40       ??$create@U?$ordered_map@V?$basic_string@DU?$char_traits@D@std@@V?$allocator@D@2@@std@@V?$basic_json@Uordered_map@nlohmann@@Vvector@std@@V?$basic_string@DU?$char_traits@D@std@@V?$allocator@D@2@@4@_N_J_KNVallocator@4@Uadl_serializer@2@V?$vector@EV?$allocator@E@std@@@4@@nlohmann@@U?$less@X@2@V?$allocator@U?$pair@$$CBV?$basic_string@DU?$char_traits@D@std@@V?$allocator@D@2@@std@@V?$basic_json@Uordered_map@nlohmann@@Vvector@std@@V?$basic_string@DU?$char_traits@D@std@@V?$allocator@D@2@@4@_N_J_KNVallocator@4@Uadl_serializer@2@V?$vector@EV?$allocator@E@std@@@4@@nlohmann@@@std@@@2@@nlohmann@@$$V@?$basic_json@Uordered_map@nlohmann@@Vvector@std@@V?$basic_string@DU?$char_traits@D@std@@V?$allocator@D@2@@4@_N_J_KNVallocator@4@Uadl_serializer@2@V?$vector@EV?$allocator@E@std@@@4@@nlohmann@@CAPAU?$ordered_map@V?$basic_string@DU?$char_traits@D@std@@V?$allocator@D@2@@std@@V?$basic_json@Uordered_map@nlohmann@@Vvector@std@@V?$basic_string@DU?$char_traits@D@std@@V?$allocator@D@2@@4@_N_J_KNVallocator@4@Uadl_serializer@2@V?$vector@EV?$allocator@E@std@@@4@@nlohmann@@U?$less@X@2@V?$allocator@U?$pair@$$CBV?$basic_string@DU?$char_traits@D@std@@V?$allocator@D@2@@std@@V?$basic_json@Uordered_map@nlohmann@@Vvector@std@@V?$basic_string@DU?$char_traits@D@std@@V?$allocator@D@2@@4@_N_J_KNVallocator@4@Uadl_serializer@2@V?$vector@EV?$allocator@E@std@@@4@@nlohmann@@@std@@@2@@1@XZ 00429f40 f i ui_control.obj
 0001:00028f60       ??$dump_integer@E$0A@@?$serializer@V?$basic_json@Uordered_map@nlohmann@@Vvector@std@@V?$basic_string@DU?$char_traits@D@std@@V?$allocator@D@2@@4@_N_J_KNVallocator@4@Uadl_serializer@2@V?$vector@EV?$allocator@E@std@@@4@@nlohmann@@@detail@nlohmann@@AAEXE@Z 00429f60 f i ui_control.obj
 0001:000290b0       ??$erase@V?$iter_impl@V?$basic_json@Uordered_map@nlohmann@@Vvector@std@@V?$basic_string@DU?$char_traits@D@std@@V?$allocator@D@2@@4@_N_J_KNVallocator@4@Uadl_serializer@2@V?$vector@EV?$allocator@E@std@@@4@@nlohmann@@@detail@nlohmann@@$0A@@?$basic_json@Uordered_map@nlohmann@@Vvector@std@@V?$basic_string@DU?$char_traits@D@std@@V?$allocator@D@2@@4@_N_J_KNVallocator@4@Uadl_serializer@2@V?$vector@EV?$allocator@E@std@@@4@@nlohmann@@QAE?AV?$iter_impl@V?$basic_json@Uordered_map@nlohmann@@Vvector@std@@V?$basic_string@DU?$char_traits@D@std@@V?$allocator@D@2@@4@_N_J_KNVallocator@4@Uadl_serializer@2@V?$vector@EV?$allocator@E@std@@@4@@nlohmann@@@detail@1@V231@@Z 0042a0b0 f i ui_control.obj
 0001:00029390       ??$fill_n@V?$_Vb_iterator@U?$_Wrap_alloc@V?$allocator@I@std@@@std@@@std@@I_N@std@@YA?AV?$_Vb_iterator@U?$_Wrap_alloc@V?$allocator@I@std@@@std@@@0@V10@IAB_N@Z 0042a390 f i ui_control.obj
 0001:000294b0       ??$grisu2@N@dtoa_impl@detail@nlohmann@@YAXPADAAH1N@Z 0042a4b0 f i ui_control.obj
 0001:000296e0       ??$handle_value@$$T@?$json_sax_dom_callback_parser@V?$basic_json@Uordered_map@nlohmann@@Vvector@std@@V?$basic_string@DU?$char_traits@D@std@@V?$allocator@D@2@@4@_N_J_KNVallocator@4@Uadl_serializer@2@V?$vector@EV?$allocator@E@std@@@4@@nlohmann@@@detail@nlohmann@@AAE?AU?$pair@_NPAV?$basic_json@Uordered_map@nlohmann@@Vvector@std@@V?$basic_string@DU?$char_traits@D@std@@V?$allocator@D@2@@4@_N_J_KNVallocator@4@Uadl_serializer@2@V?$vector@EV?$allocator@E@std@@@4@@nlohmann@@@std@@$$QA$$T_N@Z 0042a6e0 f i ui_control.obj
 0001:00029880       ??$handle_value@AAN@?$json_sax_dom_callback_parser@V?$basic_json@Uordered_map@nlohmann@@Vvector@std@@V?$basic_string@DU?$char_traits@D@std@@V?$allocator@D@2@@4@_N_J_KNVallocator@4@Uadl_serializer@2@V?$vector@EV?$allocator@E@std@@@4@@nlohmann@@@detail@nlohmann@@AAE?AU?$pair@_NPAV?$basic_json@Uordered_map@nlohmann@@Vvector@std@@V?$basic_string@DU?$char_traits@D@std@@V?$allocator@D@2@@4@_N_J_KNVallocator@4@Uadl_serializer@2@V?$vector@EV?$allocator@E@std@@@4@@nlohmann@@@std@@AAN_N@Z 0042a880 f i ui_control.obj
 0001:00029a20       ??$handle_value@AAV?$basic_string@DU?$char_traits@D@std@@V?$allocator@D@2@@std@@@?$json_sax_dom_callback_parser@V?$basic_json@Uordered_map@nlohmann@@Vvector@std@@V?$basic_string@DU?$char_traits@D@std@@V?$allocator@D@2@@4@_N_J_KNVallocator@4@Uadl_serializer@2@V?$vector@EV?$allocator@E@std@@@4@@nlohmann@@@detail@nlohmann@@AAE?AU?$pair@_NPAV?$basic_json@Uordered_map@nlohmann@@Vvector@std@@V?$basic_string@DU?$char_traits@D@std@@V?$allocator@D@2@@4@_N_J_KNVallocator@4@Uadl_serializer@2@V?$vector@EV?$allocator@E@std@@@4@@nlohmann@@@std@@AAV?$basic_string@DU?$char_traits@D@std@@V?$allocator@D@2@@4@_N@Z 0042aa20 f i ui_control.obj
 0001:00029be0       ??$handle_value@AA_J@?$json_sax_dom_callback_parser@V?$basic_json@Uordered_map@nlohmann@@Vvector@std@@V?$basic_string@DU?$char_traits@D@std@@V?$allocator@D@2@@4@_N_J_KNVallocator@4@Uadl_serializer@2@V?$vector@EV?$allocator@E@std@@@4@@nlohmann@@@detail@nlohmann@@AAE?AU?$pair@_NPAV?$basic_json@Uordered_map@nlohmann@@Vvector@std@@V?$basic_string@DU?$char_traits@D@std@@V?$allocator@D@2@@4@_N_J_KNVallocator@4@Uadl_serializer@2@V?$vector@EV?$allocator@E@std@@@4@@nlohmann@@@std@@AA_J_N@Z 0042abe0 f i ui_control.obj
 0001:00029d80       ??$handle_value@AA_K@?$json_sax_dom_callback_parser@V?$basic_json@Uordered_map@nlohmann@@Vvector@std@@V?$basic_string@DU?$char_traits@D@std@@V?$allocator@D@2@@4@_N_J_KNVallocator@4@Uadl_serializer@2@V?$vector@EV?$allocator@E@std@@@4@@nlohmann@@@detail@nlohmann@@AAE?AU?$pair@_NPAV?$basic_json@Uordered_map@nlohmann@@Vvector@std@@V?$basic_string@DU?$char_traits@D@std@@V?$allocator@D@2@@4@_N_J_KNVallocator@4@Uadl_serializer@2@V?$vector@EV?$allocator@E@std@@@4@@nlohmann@@@std@@AA_K_N@Z 0042ad80 f i ui_control.obj
 0001:00029f30       ??$handle_value@AA_N@?$json_sax_dom_callback_parser@V?$basic_json@Uordered_map@nlohmann@@Vvector@std@@V?$basic_string@DU?$char_traits@D@std@@V?$allocator@D@2@@4@_N_J_KNVallocator@4@Uadl_serializer@2@V?$vector@EV?$allocator@E@std@@@4@@nlohmann@@@detail@nlohmann@@AAE?AU?$pair@_NPAV?$basic_json@Uordered_map@nlohmann@@Vvector@std@@V?$basic_string@DU?$char_traits@D@std@@V?$allocator@D@2@@4@_N_J_KNVallocator@4@Uadl_serializer@2@V?$vector@EV?$allocator@E@std@@@4@@nlohmann@@@std@@AA_N_N@Z 0042af30 f i ui_control.obj
 0001:0002a0e0       ??$handle_value@W4value_t@detail@nlohmann@@@?$json_sax_dom_callback_parser@V?$basic_json@Uordered_map@nlohmann@@Vvector@std@@V?$basic_string@DU?$char_traits@D@std@@V?$allocator@D@2@@4@_N_J_KNVallocator@4@Uadl_serializer@2@V?$vector@EV?$allocator@E@std@@@4@@nlohmann@@@detail@nlohmann@@AAE?AU?$pair@_NPAV?$basic_json@Uordered_map@nlohmann@@Vvector@std@@V?$basic_string@DU?$char_traits@D@std@@V?$allocator@D@2@@4@_N_J_KNVallocator@4@Uadl_serializer@2@V?$vector@EV?$allocator@E@std@@@4@@nlohmann@@@std@@$$QAW4value_t@12@_N@Z 0042b0e0 f i ui_control.obj
 0001:0002a280       ??$handle_value@W4value_t@detail@nlohmann@@@?$json_sax_dom_parser@V?$basic_json@Uordered_map@nlohmann@@Vvector@std@@V?$basic_string@DU?$char_traits@D@std@@V?$allocator@D@2@@4@_N_J_KNVallocator@4@Uadl_serializer@2@V?$vector@EV?$allocator@E@std@@@4@@nlohmann@@@detail@nlohmann@@AAEPAV?$basic_json@Uordered_map@nlohmann@@Vvector@std@@V?$basic_string@DU?$char_traits@D@std@@V?$allocator@D@2@@4@_N_J_KNVallocator@4@Uadl_serializer@2@V?$vector@EV?$allocator@E@std@@@4@@2@$$QAW4value_t@12@@Z 0042b280 f i ui_control.obj
 0001:0002a370       ??$parser@Vinput_stream_adapter@detail@nlohmann@@@?$basic_json@Uordered_map@nlohmann@@Vvector@std@@V?$basic_string@DU?$char_traits@D@std@@V?$allocator@D@2@@4@_N_J_KNVallocator@4@Uadl_serializer@2@V?$vector@EV?$allocator@E@std@@@4@@nlohmann@@CA?AV?$parser@V?$basic_json@Uordered_map@nlohmann@@Vvector@std@@V?$basic_string@DU?$char_traits@D@std@@V?$allocator@D@2@@4@_N_J_KNVallocator@4@Uadl_serializer@2@V?$vector@EV?$allocator@E@std@@@4@@nlohmann@@Vinput_stream_adapter@detail@2@@detail@1@Vinput_stream_adapter@31@V?$function@$$A6A_NHW4parse_event_t@detail@nlohmann@@AAV?$basic_json@Uordered_map@nlohmann@@Vvector@std@@V?$basic_string@DU?$char_traits@D@std@@V?$allocator@D@2@@4@_N_J_KNVallocator@4@Uadl_serializer@2@V?$vector@EV?$allocator@E@std@@@4@@3@@Z@std@@_N2@Z 0042b370 f i ui_control.obj
 0001:0002a370       ??$parser@Vinput_stream_adapter@detail@nlohmann@@@?$basic_json@Vmap@std@@Vvector@2@V?$basic_string@DU?$char_traits@D@std@@V?$allocator@D@2@@2@_N_J_KNVallocator@2@Uadl_serializer@nlohmann@@V?$vector@EV?$allocator@E@std@@@2@@nlohmann@@CA?AV?$parser@V?$basic_json@Vmap@std@@Vvector@2@V?$basic_string@DU?$char_traits@D@std@@V?$allocator@D@2@@2@_N_J_KNVallocator@2@Uadl_serializer@nlohmann@@V?$vector@EV?$allocator@E@std@@@2@@nlohmann@@Vinput_stream_adapter@detail@2@@detail@1@Vinput_stream_adapter@31@V?$function@$$A6A_NHW4parse_event_t@detail@nlohmann@@AAV?$basic_json@Vmap@std@@Vvector@2@V?$basic_string@DU?$char_traits@D@std@@V?$allocator@D@2@@2@_N_J_KNVallocator@2@Uadl_serializer@nlohmann@@V?$vector@EV?$allocator@E@std@@@2@@3@@Z@std@@_N2@Z 0042b370 f i userprofile.obj
 0001:0002a5b0       ??$sax_parse_internal@V?$json_sax_dom_callback_parser@V?$basic_json@Uordered_map@nlohmann@@Vvector@std@@V?$basic_string@DU?$char_traits@D@std@@V?$allocator@D@2@@4@_N_J_KNVallocator@4@Uadl_serializer@2@V?$vector@EV?$allocator@E@std@@@4@@nlohmann@@@detail@nlohmann@@@?$parser@V?$basic_json@Uordered_map@nlohmann@@Vvector@std@@V?$basic_string@DU?$char_traits@D@std@@V?$allocator@D@2@@4@_N_J_KNVallocator@4@Uadl_serializer@2@V?$vector@EV?$allocator@E@std@@@4@@nlohmann@@Vinput_stream_adapter@detail@2@@detail@nlohmann@@AAE_NPAV?$json_sax_dom_callback_parser@V?$basic_json@Uordered_map@nlohmann@@Vvector@std@@V?$basic_string@DU?$char_traits@D@std@@V?$allocator@D@2@@4@_N_J_KNVallocator@4@Uadl_serializer@2@V?$vector@EV?$allocator@E@std@@@4@@nlohmann@@@12@@Z 0042b5b0 f i ui_control.obj
 0001:0002b720       ??$sax_parse_internal@V?$json_sax_dom_parser@V?$basic_json@Uordered_map@nlohmann@@Vvector@std@@V?$basic_string@DU?$char_traits@D@std@@V?$allocator@D@2@@4@_N_J_KNVallocator@4@Uadl_serializer@2@V?$vector@EV?$allocator@E@std@@@4@@nlohmann@@@detail@nlohmann@@@?$parser@V?$basic_json@Uordered_map@nlohmann@@Vvector@std@@V?$basic_string@DU?$char_traits@D@std@@V?$allocator@D@2@@4@_N_J_KNVallocator@4@Uadl_serializer@2@V?$vector@EV?$allocator@E@std@@@4@@nlohmann@@Vinput_stream_adapter@detail@2@@detail@nlohmann@@AAE_NPAV?$json_sax_dom_parser@V?$basic_json@Uordered_map@nlohmann@@Vvector@std@@V?$basic_string@DU?$char_traits@D@std@@V?$allocator@D@2@@4@_N_J_KNVallocator@4@Uadl_serializer@2@V?$vector@EV?$allocator@E@std@@@4@@nlohmann@@@12@@Z 0042c720 f i ui_control.obj
 0001:0002c9f0       ??$use_facet@V?$codecvt@DDU_Mbstatet@@@std@@@std@@YAABV?$codecvt@DDU_Mbstatet@@@0@ABVlocale@0@@Z 0042d9f0 f i ui_control.obj
 0001:0002cb60       ??$use_facet@V?$ctype@D@std@@@std@@YAABV?$ctype@D@0@ABVlocale@0@@Z 0042db60 f i ui_control.obj
 0001:0002ccf0       ??0?$basic_filebuf@DU?$char_traits@D@std@@@std@@QAE@XZ 0042dcf0 f i ui_control.obj
 0001:0002ce40       ??0?$basic_ios@DU?$char_traits@D@std@@@std@@IAE@XZ 0042de40 f i ui_control.obj
 0001:0002cec0       ??0?$basic_json@Uordered_map@nlohmann@@Vvector@std@@V?$basic_string@DU?$char_traits@D@std@@V?$allocator@D@2@@4@_N_J_KNVallocator@4@Uadl_serializer@2@V?$vector@EV?$allocator@E@std@@@4@@nlohmann@@QAE@$$QAV01@@Z 0042dec0 f i ui_control.obj
 0001:0002cec0       ??0?$basic_json@Vmap@std@@Vvector@2@V?$basic_string@DU?$char_traits@D@std@@V?$allocator@D@2@@2@_N_J_KNVallocator@2@Uadl_serializer@nlohmann@@V?$vector@EV?$allocator@E@std@@@2@@nlohmann@@QAE@$$QAV01@@Z 0042dec0 f i userprofile.obj
 0001:0002cef0       ??0?$basic_json@Uordered_map@nlohmann@@Vvector@std@@V?$basic_string@DU?$char_traits@D@std@@V?$allocator@D@2@@4@_N_J_KNVallocator@4@Uadl_serializer@2@V?$vector@EV?$allocator@E@std@@@4@@nlohmann@@QAE@ABV01@@Z 0042def0 f i ui_control.obj
 0001:0002d220       ??0?$basic_json@Uordered_map@nlohmann@@Vvector@std@@V?$basic_string@DU?$char_traits@D@std@@V?$allocator@D@2@@4@_N_J_KNVallocator@4@Uadl_serializer@2@V?$vector@EV?$allocator@E@std@@@4@@nlohmann@@QAE@V?$initializer_list@V?$json_ref@V?$basic_json@Uordered_map@nlohmann@@Vvector@std@@V?$basic_string@DU?$char_traits@D@std@@V?$allocator@D@2@@4@_N_J_KNVallocator@4@Uadl_serializer@2@V?$vector@EV?$allocator@E@std@@@4@@nlohmann@@@detail@nlohmann@@@std@@_NW4value_t@detail@1@@Z 0042e220 f i ui_control.obj
 0001:0002d4c0       ??0?$basic_string@DU?$char_traits@D@std@@V?$allocator@D@2@@std@@QAE@ID@Z 0042e4c0 f i ui_control.obj
 0001:0002d570       ??0?$basic_string@DU?$char_traits@D@std@@V?$allocator@D@2@@std@@QAE@U_String_constructor_concat_tag@1@AAV01@1@Z 0042e570 f i ui_control.obj
 0001:0002d700       ??0?$iter_impl@$$CBV?$basic_json@Uordered_map@nlohmann@@Vvector@std@@V?$basic_string@DU?$char_traits@D@std@@V?$allocator@D@2@@4@_N_J_KNVallocator@4@Uadl_serializer@2@V?$vector@EV?$allocator@E@std@@@4@@nlohmann@@@detail@nlohmann@@QAE@PBV?$basic_json@Uordered_map@nlohmann@@Vvector@std@@V?$basic_string@DU?$char_traits@D@std@@V?$allocator@D@2@@4@_N_J_KNVallocator@4@Uadl_serializer@2@V?$vector@EV?$allocator@E@std@@@4@@2@@Z 0042e700 f i ui_control.obj
 0001:0002d740       ??0?$iteration_proxy_value@V?$iter_impl@$$CBV?$basic_json@Uordered_map@nlohmann@@Vvector@std@@V?$basic_string@DU?$char_traits@D@std@@V?$allocator@D@2@@4@_N_J_KNVallocator@4@Uadl_serializer@2@V?$vector@EV?$allocator@E@std@@@4@@nlohmann@@@detail@nlohmann@@@detail@nlohmann@@QAE@V?$iter_impl@$$CBV?$basic_json@Uordered_map@nlohmann@@Vvector@std@@V?$basic_string@DU?$char_traits@D@std@@V?$allocator@D@2@@4@_N_J_KNVallocator@4@Uadl_serializer@2@V?$vector@EV?$allocator@E@std@@@4@@nlohmann@@@12@@Z 0042e740 f i ui_control.obj
 0001:0002d7d0       ??0?$json_ref@V?$basic_json@Uordered_map@nlohmann@@Vvector@std@@V?$basic_string@DU?$char_traits@D@std@@V?$allocator@D@2@@4@_N_J_KNVallocator@4@Uadl_serializer@2@V?$vector@EV?$allocator@E@std@@@4@@nlohmann@@@detail@nlohmann@@QAE@V?$initializer_list@V?$json_ref@V?$basic_json@Uordered_map@nlohmann@@Vvector@std@@V?$basic_string@DU?$char_traits@D@std@@V?$allocator@D@2@@4@_N_J_KNVallocator@4@Uadl_serializer@2@V?$vector@EV?$allocator@E@std@@@4@@nlohmann@@@detail@nlohmann@@@std@@@Z 0042e7d0 f i ui_control.obj
 0001:0002d800       ??0?$json_sax_dom_callback_parser@V?$basic_json@Uordered_map@nlohmann@@Vvector@std@@V?$basic_string@DU?$char_traits@D@std@@V?$allocator@D@2@@4@_N_J_KNVallocator@4@Uadl_serializer@2@V?$vector@EV?$allocator@E@std@@@4@@nlohmann@@@detail@nlohmann@@QAE@AAV?$basic_json@Uordered_map@nlohmann@@Vvector@std@@V?$basic_string@DU?$char_traits@D@std@@V?$allocator@D@2@@4@_N_J_KNVallocator@4@Uadl_serializer@2@V?$vector@EV?$allocator@E@std@@@4@@2@V?$function@$$A6A_NHW4parse_event_t@detail@nlohmann@@AAV?$basic_json@Uordered_map@nlohmann@@Vvector@std@@V?$basic_string@DU?$char_traits@D@std@@V?$allocator@D@2@@4@_N_J_KNVallocator@4@Uadl_serializer@2@V?$vector@EV?$allocator@E@std@@@4@@3@@Z@std@@_N@Z 0042e800 f i ui_control.obj
 0001:0002db60       ??0_Locinfo@std@@QAE@PBD@Z 0042eb60 f i ui_control.obj
 0001:0002dc10       ??0exception@detail@nlohmann@@QAE@ABV012@@Z 0042ec10 f i ui_control.obj
 0001:0002dc70       ??0failure@ios_base@std@@QAE@ABV012@@Z 0042ec70 f i ui_control.obj
 0001:0002dcc0       ??0failure@ios_base@std@@QAE@PBDABVerror_code@2@@Z 0042ecc0 f i ui_control.obj
 0001:0002ddb0       ??0invalid_iterator@detail@nlohmann@@QAE@ABV012@@Z 0042edb0 f i ui_control.obj
 0001:0002de20       ??0json_value@?$basic_json@Uordered_map@nlohmann@@Vvector@std@@V?$basic_string@DU?$char_traits@D@std@@V?$allocator@D@2@@4@_N_J_KNVallocator@4@Uadl_serializer@2@V?$vector@EV?$allocator@E@std@@@4@@nlohmann@@QAE@ABV?$basic_string@DU?$char_traits@D@std@@V?$allocator@D@2@@std@@@Z 0042ee20 f i ui_control.obj
 0001:0002de20       ??0json_value@?$basic_json@Vmap@std@@Vvector@2@V?$basic_string@DU?$char_traits@D@std@@V?$allocator@D@2@@2@_N_J_KNVallocator@2@Uadl_serializer@nlohmann@@V?$vector@EV?$allocator@E@std@@@2@@nlohmann@@QAE@ABV?$basic_string@DU?$char_traits@D@std@@V?$allocator@D@2@@std@@@Z 0042ee20 f i userprofile.obj
 0001:0002de90       ??0json_value@?$basic_json@Uordered_map@nlohmann@@Vvector@std@@V?$basic_string@DU?$char_traits@D@std@@V?$allocator@D@2@@4@_N_J_KNVallocator@4@Uadl_serializer@2@V?$vector@EV?$allocator@E@std@@@4@@nlohmann@@QAE@W4value_t@detail@2@@Z 0042ee90 f i ui_control.obj
 0001:0002e000       ??0other_error@detail@nlohmann@@QAE@ABV012@@Z 0042f000 f i ui_control.obj
 0001:0002e070       ??0out_of_range@detail@nlohmann@@QAE@ABV012@@Z 0042f070 f i ui_control.obj
 0001:0002e0e0       ??0parse_error@detail@nlohmann@@QAE@ABV012@@Z 0042f0e0 f i ui_control.obj
 0001:0002e150       ??0sentry@?$basic_ostream@DU?$char_traits@D@std@@@std@@QAE@AAV12@@Z 0042f150 f i ui_control.obj
 0001:0002e1f0       ??0type_error@detail@nlohmann@@QAE@ABV012@@Z 0042f1f0 f i ui_control.obj
 0001:0002e260       ??1?$_Func_class@_NHW4parse_event_t@detail@nlohmann@@AAV?$basic_json@Uordered_map@nlohmann@@Vvector@std@@V?$basic_string@DU?$char_traits@D@std@@V?$allocator@D@2@@4@_N_J_KNVallocator@4@Uadl_serializer@2@V?$vector@EV?$allocator@E@std@@@4@@3@@std@@QAE@XZ 0042f260 f i ui_control.obj
 0001:0002e260       ??1?$_Func_class@_NHW4parse_event_t@detail@nlohmann@@AAV?$basic_json@Vmap@std@@Vvector@2@V?$basic_string@DU?$char_traits@D@std@@V?$allocator@D@2@@2@_N_J_KNVallocator@2@Uadl_serializer@nlohmann@@V?$vector@EV?$allocator@E@std@@@2@@3@@std@@QAE@XZ 0042f260 f i userprofile.obj
 0001:0002e260       ??1?$function@$$A6AXXZ@std@@QAE@XZ 0042f260 f i update_checker.obj
 0001:0002e260       ??1?$function@$$A6A_NHW4parse_event_t@detail@nlohmann@@AAV?$basic_json@Uordered_map@nlohmann@@Vvector@std@@V?$basic_string@DU?$char_traits@D@std@@V?$allocator@D@2@@4@_N_J_KNVallocator@4@Uadl_serializer@2@V?$vector@EV?$allocator@E@std@@@4@@3@@Z@std@@QAE@XZ 0042f260 f i ui_control.obj
 0001:0002e260       ??1?$function@$$A6A_NHW4parse_event_t@detail@nlohmann@@AAV?$basic_json@Vmap@std@@Vvector@2@V?$basic_string@DU?$char_traits@D@std@@V?$allocator@D@2@@2@_N_J_KNVallocator@2@Uadl_serializer@nlohmann@@V?$vector@EV?$allocator@E@std@@@2@@3@@Z@std@@QAE@XZ 0042f260 f i userprofile.obj
 0001:0002e290       ??1?$_Tidy_guard@V?$vector@U?$pair@$$CBV?$basic_string@DU?$char_traits@D@std@@V?$allocator@D@2@@std@@V?$basic_json@Uordered_map@nlohmann@@Vvector@std@@V?$basic_string@DU?$char_traits@D@std@@V?$allocator@D@2@@4@_N_J_KNVallocator@4@Uadl_serializer@2@V?$vector@EV?$allocator@E@std@@@4@@nlohmann@@@std@@V?$allocator@U?$pair@$$CBV?$basic_string@DU?$char_traits@D@std@@V?$allocator@D@2@@std@@V?$basic_json@Uordered_map@nlohmann@@Vvector@std@@V?$basic_string@DU?$char_traits@D@std@@V?$allocator@D@2@@4@_N_J_KNVallocator@4@Uadl_serializer@2@V?$vector@EV?$allocator@E@std@@@4@@nlohmann@@@std@@@2@@std@@@std@@QAE@XZ 0042f290 f i ui_control.obj
 0001:0002e2a0       ??1?$_Tidy_guard@V?$vector@V?$basic_json@Uordered_map@nlohmann@@Vvector@std@@V?$basic_string@DU?$char_traits@D@std@@V?$allocator@D@2@@4@_N_J_KNVallocator@4@Uadl_serializer@2@V?$vector@EV?$allocator@E@std@@@4@@nlohmann@@V?$allocator@V?$basic_json@Uordered_map@nlohmann@@Vvector@std@@V?$basic_string@DU?$char_traits@D@std@@V?$allocator@D@2@@4@_N_J_KNVallocator@4@Uadl_serializer@2@V?$vector@EV?$allocator@E@std@@@4@@nlohmann@@@std@@@std@@@std@@QAE@XZ 0042f2a0 f i ui_control.obj
 0001:0002e2b0       ??1?$_Uninitialized_backout_al@V?$allocator@U?$pair@$$CBV?$basic_string@DU?$char_traits@D@std@@V?$allocator@D@2@@std@@V?$basic_json@Uordered_map@nlohmann@@Vvector@std@@V?$basic_string@DU?$char_traits@D@std@@V?$allocator@D@2@@4@_N_J_KNVallocator@4@Uadl_serializer@2@V?$vector@EV?$allocator@E@std@@@4@@nlohmann@@@std@@@std@@@std@@QAE@XZ 0042f2b0 f i ui_control.obj
 0001:0002e2e0       ??1?$_Uninitialized_backout_al@V?$allocator@V?$basic_json@Uordered_map@nlohmann@@Vvector@std@@V?$basic_string@DU?$char_traits@D@std@@V?$allocator@D@2@@4@_N_J_KNVallocator@4@Uadl_serializer@2@V?$vector@EV?$allocator@E@std@@@4@@nlohmann@@@std@@@std@@QAE@XZ 0042f2e0 f i ui_control.obj
 0001:0002e310       ??1?$_Yarn@D@std@@QAE@XZ   0042f310 f i ui_control.obj
 0001:0002e310       ??1?$_Yarn@_W@std@@QAE@XZ  0042f310 f i ui_control.obj
 0001:0002e330       ??1?$basic_filebuf@DU?$char_traits@D@std@@@std@@UAE@XZ 0042f330 f i ui_control.obj
 0001:0002e480       ??1?$basic_ios@DU?$char_traits@D@std@@@std@@UAE@XZ 0042f480 f i ui_control.obj
 0001:0002e4d0       ??1?$basic_istream@DU?$char_traits@D@std@@@std@@UAE@XZ 0042f4d0 f i ui_control.obj
 0001:0002e4f0       ??1?$basic_json@Uordered_map@nlohmann@@Vvector@std@@V?$basic_string@DU?$char_traits@D@std@@V?$allocator@D@2@@4@_N_J_KNVallocator@4@Uadl_serializer@2@V?$vector@EV?$allocator@E@std@@@4@@nlohmann@@QAE@XZ 0042f4f0 f i ui_control.obj
 0001:0002e4f0       ??1?$json_ref@V?$basic_json@Uordered_map@nlohmann@@Vvector@std@@V?$basic_string@DU?$char_traits@D@std@@V?$allocator@D@2@@4@_N_J_KNVallocator@4@Uadl_serializer@2@V?$vector@EV?$allocator@E@std@@@4@@nlohmann@@@detail@nlohmann@@QAE@XZ 0042f4f0 f i ui_control.obj
 0001:0002e500       ??1?$basic_ostream@DU?$char_traits@D@std@@@std@@UAE@XZ 0042f500 f i ui_control.obj
 0001:0002e520       ??1?$com_ptr_t@UIRegisteredTask@@Uerr_exception_policy@wil@@@wil@@QAE@XZ 0042f520 f i ui_control.obj
 0001:0002e520       ??1?$com_ptr_t@UIRunningTask@@Uerr_exception_policy@wil@@@wil@@QAE@XZ 0042f520 f i ui_control.obj
 0001:0002e520       ??1?$com_ptr_t@UITaskFolder@@Uerr_exception_policy@wil@@@wil@@QAE@XZ 0042f520 f i ui_control.obj
 0001:0002e520       ??1?$com_ptr_t@UITaskService@@Uerr_exception_policy@wil@@@wil@@QAE@XZ 0042f520 f i ui_control.obj
 0001:0002e570       ??1?$iteration_proxy_value@V?$iter_impl@$$CBV?$basic_json@Uordered_map@nlohmann@@Vvector@std@@V?$basic_string@DU?$char_traits@D@std@@V?$allocator@D@2@@4@_N_J_KNVallocator@4@Uadl_serializer@2@V?$vector@EV?$allocator@E@std@@@4@@nlohmann@@@detail@nlohmann@@@detail@nlohmann@@QAE@XZ 0042f570 f i ui_control.obj
 0001:0002e570       ??1?$iteration_proxy_value@V?$iter_impl@$$CBV?$basic_json@Vmap@std@@Vvector@2@V?$basic_string@DU?$char_traits@D@std@@V?$allocator@D@2@@2@_N_J_KNVallocator@2@Uadl_serializer@nlohmann@@V?$vector@EV?$allocator@E@std@@@2@@nlohmann@@@detail@nlohmann@@@detail@nlohmann@@QAE@XZ 0042f570 f i userprofile.obj
 0001:0002e590       ??1?$json_sax_dom_callback_parser@V?$basic_json@Uordered_map@nlohmann@@Vvector@std@@V?$basic_string@DU?$char_traits@D@std@@V?$allocator@D@2@@4@_N_J_KNVallocator@4@Uadl_serializer@2@V?$vector@EV?$allocator@E@std@@@4@@nlohmann@@@detail@nlohmann@@QAE@XZ 0042f590 f i ui_control.obj
 0001:0002e5e0       ??1?$json_sax_dom_parser@V?$basic_json@Uordered_map@nlohmann@@Vvector@std@@V?$basic_string@DU?$char_traits@D@std@@V?$allocator@D@2@@4@_N_J_KNVallocator@4@Uadl_serializer@2@V?$vector@EV?$allocator@E@std@@@4@@nlohmann@@@detail@nlohmann@@QAE@XZ 0042f5e0 f i ui_control.obj
 0001:0002e5e0       ??1?$json_sax_dom_parser@V?$basic_json@Vmap@std@@Vvector@2@V?$basic_string@DU?$char_traits@D@std@@V?$allocator@D@2@@2@_N_J_KNVallocator@2@Uadl_serializer@nlohmann@@V?$vector@EV?$allocator@E@std@@@2@@nlohmann@@@detail@nlohmann@@QAE@XZ 0042f5e0 f i userprofile.obj
 0001:0002e5f0       ??1?$lexer@V?$basic_json@Uordered_map@nlohmann@@Vvector@std@@V?$basic_string@DU?$char_traits@D@std@@V?$allocator@D@2@@4@_N_J_KNVallocator@4@Uadl_serializer@2@V?$vector@EV?$allocator@E@std@@@4@@nlohmann@@Vinput_stream_adapter@detail@2@@detail@nlohmann@@QAE@XZ 0042f5f0 f i ui_control.obj
 0001:0002e5f0       ??1?$lexer@V?$basic_json@Vmap@std@@Vvector@2@V?$basic_string@DU?$char_traits@D@std@@V?$allocator@D@2@@2@_N_J_KNVallocator@2@Uadl_serializer@nlohmann@@V?$vector@EV?$allocator@E@std@@@2@@nlohmann@@Vinput_stream_adapter@detail@2@@detail@nlohmann@@QAE@XZ 0042f5f0 f i userprofile.obj
 0001:0002e610       ??1?$parser@V?$basic_json@Uordered_map@nlohmann@@Vvector@std@@V?$basic_string@DU?$char_traits@D@std@@V?$allocator@D@2@@4@_N_J_KNVallocator@4@Uadl_serializer@2@V?$vector@EV?$allocator@E@std@@@4@@nlohmann@@Vinput_stream_adapter@detail@2@@detail@nlohmann@@QAE@XZ 0042f610 f i ui_control.obj
 0001:0002e610       ??1?$parser@V?$basic_json@Vmap@std@@Vvector@2@V?$basic_string@DU?$char_traits@D@std@@V?$allocator@D@2@@2@_N_J_KNVallocator@2@Uadl_serializer@nlohmann@@V?$vector@EV?$allocator@E@std@@@2@@nlohmann@@Vinput_stream_adapter@detail@2@@detail@nlohmann@@QAE@XZ 0042f610 f i userprofile.obj
 0001:0002e650       ??1?$serializer@V?$basic_json@Uordered_map@nlohmann@@Vvector@std@@V?$basic_string@DU?$char_traits@D@std@@V?$allocator@D@2@@4@_N_J_KNVallocator@4@Uadl_serializer@2@V?$vector@EV?$allocator@E@std@@@4@@nlohmann@@@detail@nlohmann@@QAE@XZ 0042f650 f i ui_control.obj
 0001:0002e650       ??1?$serializer@V?$basic_json@Vmap@std@@Vvector@2@V?$basic_string@DU?$char_traits@D@std@@V?$allocator@D@2@@2@_N_J_KNVallocator@2@Uadl_serializer@nlohmann@@V?$vector@EV?$allocator@E@std@@@2@@nlohmann@@@detail@nlohmann@@QAE@XZ 0042f650 f i userprofile.obj
 0001:0002e690       ??1?$unique_any_t@V?$unique_storage@U?$resource_policy@PA_WP6GXPA_W@Z$1?SysFreeString@@YGX0@ZU?$integral_constant@I$0A@@wistd@@PA_WPA_W$0A@$$T@details@wil@@@details@wil@@@wil@@QAE@XZ 0042f690 f i ui_control.obj
 0001:0002e6a0       ??1?$unique_ptr@U?$ordered_map@V?$basic_string@DU?$char_traits@D@std@@V?$allocator@D@2@@std@@V?$basic_json@Uordered_map@nlohmann@@Vvector@std@@V?$basic_string@DU?$char_traits@D@std@@V?$allocator@D@2@@4@_N_J_KNVallocator@4@Uadl_serializer@2@V?$vector@EV?$allocator@E@std@@@4@@nlohmann@@U?$less@X@2@V?$allocator@U?$pair@$$CBV?$basic_string@DU?$char_traits@D@std@@V?$allocator@D@2@@std@@V?$basic_json@Uordered_map@nlohmann@@Vvector@std@@V?$basic_string@DU?$char_traits@D@std@@V?$allocator@D@2@@4@_N_J_KNVallocator@4@Uadl_serializer@2@V?$vector@EV?$allocator@E@std@@@4@@nlohmann@@@std@@@2@@nlohmann@@V<lambda_1>@?1???$create@U?$ordered_map@V?$basic_string@DU?$char_traits@D@std@@V?$allocator@D@2@@std@@V?$basic_json@Uordered_map@nlohmann@@Vvector@std@@V?$basic_string@DU?$char_traits@D@std@@V?$allocator@D@2@@4@_N_J_KNVallocator@4@Uadl_serializer@2@V?$vector@EV?$allocator@E@std@@@4@@nlohmann@@U?$less@X@2@V?$allocator@U?$pair@$$CBV?$basic_string@DU?$char_traits@D@std@@V?$allocator@D@2@@std@@V?$basic_json@Uordered_map@nlohmann@@Vvector@std@@V?$basic_string@DU?$char_traits@D@std@@V?$allocator@D@2@@4@_N_J_KNVallocator@4@Uadl_serializer@2@V?$vector@EV?$allocator@E@std@@@4@@nlohmann@@@std@@@2@@nlohmann@@ABU12@@?$basic_json@Uordered_map@nlohmann@@Vvector@std@@V?$basic_string@DU?$char_traits@D@std@@V?$allocator@D@2@@4@_N_J_KNVallocator@4@Uadl_serializer@2@V?$vector@EV?$allocator@E@std@@@4@@2@CAPAU12@ABU12@@Z@@std@@QAE@XZ 0042f6a0 f i ui_control.obj
 0001:0002e6a0       ??1?$unique_ptr@V?$vector@V?$basic_json@Uordered_map@nlohmann@@Vvector@std@@V?$basic_string@DU?$char_traits@D@std@@V?$allocator@D@2@@4@_N_J_KNVallocator@4@Uadl_serializer@2@V?$vector@EV?$allocator@E@std@@@4@@nlohmann@@V?$allocator@V?$basic_json@Uordered_map@nlohmann@@Vvector@std@@V?$basic_string@DU?$char_traits@D@std@@V?$allocator@D@2@@4@_N_J_KNVallocator@4@Uadl_serializer@2@V?$vector@EV?$allocator@E@std@@@4@@nlohmann@@@std@@@std@@V<lambda_1>@?1???$create@V?$vector@V?$basic_json@Uordered_map@nlohmann@@Vvector@std@@V?$basic_string@DU?$char_traits@D@std@@V?$allocator@D@2@@4@_N_J_KNVallocator@4@Uadl_serializer@2@V?$vector@EV?$allocator@E@std@@@4@@nlohmann@@V?$allocator@V?$basic_json@Uordered_map@nlohmann@@Vvector@std@@V?$basic_string@DU?$char_traits@D@std@@V?$allocator@D@2@@4@_N_J_KNVallocator@4@Uadl_serializer@2@V?$vector@EV?$allocator@E@std@@@4@@nlohmann@@@std@@@std@@ABV12@@?$basic_json@Uordered_map@nlohmann@@Vvector@std@@V?$basic_string@DU?$char_traits@D@std@@V?$allocator@D@2@@4@_N_J_KNVallocator@4@Uadl_serializer@2@V?$vector@EV?$allocator@E@std@@@4@@nlohmann@@CAPAV12@ABV12@@Z@@std@@QAE@XZ 0042f6a0 f i ui_control.obj
 0001:0002e6a0       ??1?$unique_ptr@V?$vector@V?$basic_json@Uordered_map@nlohmann@@Vvector@std@@V?$basic_string@DU?$char_traits@D@std@@V?$allocator@D@2@@4@_N_J_KNVallocator@4@Uadl_serializer@2@V?$vector@EV?$allocator@E@std@@@4@@nlohmann@@V?$allocator@V?$basic_json@Uordered_map@nlohmann@@Vvector@std@@V?$basic_string@DU?$char_traits@D@std@@V?$allocator@D@2@@4@_N_J_KNVallocator@4@Uadl_serializer@2@V?$vector@EV?$allocator@E@std@@@4@@nlohmann@@@std@@@std@@V<lambda_1>@?1???$create@V?$vector@V?$basic_json@Uordered_map@nlohmann@@Vvector@std@@V?$basic_string@DU?$char_traits@D@std@@V?$allocator@D@2@@4@_N_J_KNVallocator@4@Uadl_serializer@2@V?$vector@EV?$allocator@E@std@@@4@@nlohmann@@V?$allocator@V?$basic_json@Uordered_map@nlohmann@@Vvector@std@@V?$basic_string@DU?$char_traits@D@std@@V?$allocator@D@2@@4@_N_J_KNVallocator@4@Uadl_serializer@2@V?$vector@EV?$allocator@E@std@@@4@@nlohmann@@@std@@@std@@PBV?$json_ref@V?$basic_json@Uordered_map@nlohmann@@Vvector@std@@V?$basic_string@DU?$char_traits@D@std@@V?$allocator@D@2@@4@_N_J_KNVallocator@4@Uadl_serializer@2@V?$vector@EV?$allocator@E@std@@@4@@nlohmann@@@detail@nlohmann@@PBV345@@?$basic_json@Uordered_map@nlohmann@@Vvector@std@@V?$basic_string@DU?$char_traits@D@std@@V?$allocator@D@2@@4@_N_J_KNVallocator@4@Uadl_serializer@2@V?$vector@EV?$allocator@E@std@@@4@@nlohmann@@CAPAV12@$$QAPBV?$json_ref@V?$basic_json@Uordered_map@nlohmann@@Vvector@std@@V?$basic_string@DU?$char_traits@D@std@@V?$allocator@D@2@@4@_N_J_KNVallocator@4@Uadl_serializer@2@V?$vector@EV?$allocator@E@std@@@4@@nlohmann@@@detail@5@0@Z@@std@@QAE@XZ 0042f6a0 f i ui_control.obj
 0001:0002e6a0       ??1?$unique_ptr@V?$vector@V?$basic_json@Vmap@std@@Vvector@2@V?$basic_string@DU?$char_traits@D@std@@V?$allocator@D@2@@2@_N_J_KNVallocator@2@Uadl_serializer@nlohmann@@V?$vector@EV?$allocator@E@std@@@2@@nlohmann@@V?$allocator@V?$basic_json@Vmap@std@@Vvector@2@V?$basic_string@DU?$char_traits@D@std@@V?$allocator@D@2@@2@_N_J_KNVallocator@2@Uadl_serializer@nlohmann@@V?$vector@EV?$allocator@E@std@@@2@@nlohmann@@@std@@@std@@V<lambda_1>@?1???$create@V?$vector@V?$basic_json@Vmap@std@@Vvector@2@V?$basic_string@DU?$char_traits@D@std@@V?$allocator@D@2@@2@_N_J_KNVallocator@2@Uadl_serializer@nlohmann@@V?$vector@EV?$allocator@E@std@@@2@@nlohmann@@V?$allocator@V?$basic_json@Vmap@std@@Vvector@2@V?$basic_string@DU?$char_traits@D@std@@V?$allocator@D@2@@2@_N_J_KNVallocator@2@Uadl_serializer@nlohmann@@V?$vector@EV?$allocator@E@std@@@2@@nlohmann@@@std@@@std@@ABV12@@?$basic_json@Vmap@std@@Vvector@2@V?$basic_string@DU?$char_traits@D@std@@V?$allocator@D@2@@2@_N_J_KNVallocator@2@Uadl_serializer@nlohmann@@V?$vector@EV?$allocator@E@std@@@2@@nlohmann@@CAPAV12@ABV12@@Z@@std@@QAE@XZ 0042f6a0 f i userprofile.obj
 0001:0002e6a0       ??1?$unique_ptr@V?$vector@V?$basic_json@Vmap@std@@Vvector@2@V?$basic_string@DU?$char_traits@D@std@@V?$allocator@D@2@@2@_N_J_KNVallocator@2@Uadl_serializer@nlohmann@@V?$vector@EV?$allocator@E@std@@@2@@nlohmann@@V?$allocator@V?$basic_json@Vmap@std@@Vvector@2@V?$basic_string@DU?$char_traits@D@std@@V?$allocator@D@2@@2@_N_J_KNVallocator@2@Uadl_serializer@nlohmann@@V?$vector@EV?$allocator@E@std@@@2@@nlohmann@@@std@@@std@@V<lambda_1>@?1???$create@V?$vector@V?$basic_json@Vmap@std@@Vvector@2@V?$basic_string@DU?$char_traits@D@std@@V?$allocator@D@2@@2@_N_J_KNVallocator@2@Uadl_serializer@nlohmann@@V?$vector@EV?$allocator@E@std@@@2@@nlohmann@@V?$allocator@V?$basic_json@Vmap@std@@Vvector@2@V?$basic_string@DU?$char_traits@D@std@@V?$allocator@D@2@@2@_N_J_KNVallocator@2@Uadl_serializer@nlohmann@@V?$vector@EV?$allocator@E@std@@@2@@nlohmann@@@std@@@std@@PBV?$json_ref@V?$basic_json@Vmap@std@@Vvector@2@V?$basic_string@DU?$char_traits@D@std@@V?$allocator@D@2@@2@_N_J_KNVallocator@2@Uadl_serializer@nlohmann@@V?$vector@EV?$allocator@E@std@@@2@@nlohmann@@@detail@nlohmann@@PBV345@@?$basic_json@Vmap@std@@Vvector@2@V?$basic_string@DU?$char_traits@D@std@@V?$allocator@D@2@@2@_N_J_KNVallocator@2@Uadl_serializer@nlohmann@@V?$vector@EV?$allocator@E@std@@@2@@nlohmann@@CAPAV12@$$QAPBV?$json_ref@V?$basic_json@Vmap@std@@Vvector@2@V?$basic_string@DU?$char_traits@D@std@@V?$allocator@D@2@@2@_N_J_KNVallocator@2@Uadl_serializer@nlohmann@@V?$vector@EV?$allocator@E@std@@@2@@nlohmann@@@detail@5@0@Z@@std@@QAE@XZ 0042f6a0 f i userprofile.obj
 0001:0002e6c0       ??1?$unique_ptr@V?$basic_string@DU?$char_traits@D@std@@V?$allocator@D@2@@std@@V<lambda_1>@?1???$create@V?$basic_string@DU?$char_traits@D@std@@V?$allocator@D@2@@std@@AAY00$$CBD@?$basic_json@Uordered_map@nlohmann@@Vvector@std@@V?$basic_string@DU?$char_traits@D@std@@V?$allocator@D@2@@4@_N_J_KNVallocator@4@Uadl_serializer@2@V?$vector@EV?$allocator@E@std@@@4@@nlohmann@@CAPAV12@AAY00$$CBD@Z@@std@@QAE@XZ 0042f6c0 f i ui_control.obj
 0001:0002e6c0       ??1?$unique_ptr@V?$basic_string@DU?$char_traits@D@std@@V?$allocator@D@2@@std@@V<lambda_1>@?1???$create@V?$basic_string@DU?$char_traits@D@std@@V?$allocator@D@2@@std@@AAY00$$CBD@?$basic_json@Vmap@std@@Vvector@2@V?$basic_string@DU?$char_traits@D@std@@V?$allocator@D@2@@2@_N_J_KNVallocator@2@Uadl_serializer@nlohmann@@V?$vector@EV?$allocator@E@std@@@2@@nlohmann@@CAPAV12@AAY00$$CBD@Z@@std@@QAE@XZ 0042f6c0 f i userprofile.obj
 0001:0002e6c0       ??1?$unique_ptr@V?$basic_string@DU?$char_traits@D@std@@V?$allocator@D@2@@std@@V<lambda_1>@?1???$create@V?$basic_string@DU?$char_traits@D@std@@V?$allocator@D@2@@std@@AAY03$$CBD@?$basic_json@Uordered_map@nlohmann@@Vvector@std@@V?$basic_string@DU?$char_traits@D@std@@V?$allocator@D@2@@4@_N_J_KNVallocator@4@Uadl_serializer@2@V?$vector@EV?$allocator@E@std@@@4@@nlohmann@@CAPAV12@AAY03$$CBD@Z@@std@@QAE@XZ 0042f6c0 f i ui_control.obj
 0001:0002e6c0       ??1?$unique_ptr@V?$basic_string@DU?$char_traits@D@std@@V?$allocator@D@2@@std@@V<lambda_1>@?1???$create@V?$basic_string@DU?$char_traits@D@std@@V?$allocator@D@2@@std@@AAY04$$CBD@?$basic_json@Uordered_map@nlohmann@@Vvector@std@@V?$basic_string@DU?$char_traits@D@std@@V?$allocator@D@2@@4@_N_J_KNVallocator@4@Uadl_serializer@2@V?$vector@EV?$allocator@E@std@@@4@@nlohmann@@CAPAV12@AAY04$$CBD@Z@@std@@QAE@XZ 0042f6c0 f i ui_control.obj
 0001:0002e6c0       ??1?$unique_ptr@V?$basic_string@DU?$char_traits@D@std@@V?$allocator@D@2@@std@@V<lambda_1>@?1???$create@V?$basic_string@DU?$char_traits@D@std@@V?$allocator@D@2@@std@@AAY05$$CBD@?$basic_json@Vmap@std@@Vvector@2@V?$basic_string@DU?$char_traits@D@std@@V?$allocator@D@2@@2@_N_J_KNVallocator@2@Uadl_serializer@nlohmann@@V?$vector@EV?$allocator@E@std@@@2@@nlohmann@@CAPAV12@AAY05$$CBD@Z@@std@@QAE@XZ 0042f6c0 f i userprofile.obj
 0001:0002e6c0       ??1?$unique_ptr@V?$basic_string@DU?$char_traits@D@std@@V?$allocator@D@2@@std@@V<lambda_1>@?1???$create@V?$basic_string@DU?$char_traits@D@std@@V?$allocator@D@2@@std@@AAY07$$CBD@?$basic_json@Uordered_map@nlohmann@@Vvector@std@@V?$basic_string@DU?$char_traits@D@std@@V?$allocator@D@2@@4@_N_J_KNVallocator@4@Uadl_serializer@2@V?$vector@EV?$allocator@E@std@@@4@@nlohmann@@CAPAV12@AAY07$$CBD@Z@@std@@QAE@XZ 0042f6c0 f i ui_control.obj
 0001:0002e6c0       ??1?$unique_ptr@V?$basic_string@DU?$char_traits@D@std@@V?$allocator@D@2@@std@@V<lambda_1>@?1???$create@V?$basic_string@DU?$char_traits@D@std@@V?$allocator@D@2@@std@@AAY0BB@$$CBD@?$basic_json@Uordered_map@nlohmann@@Vvector@std@@V?$basic_string@DU?$char_traits@D@std@@V?$allocator@D@2@@4@_N_J_KNVallocator@4@Uadl_serializer@2@V?$vector@EV?$allocator@E@std@@@4@@nlohmann@@CAPAV12@AAY0BB@$$CBD@Z@@std@@QAE@XZ 0042f6c0 f i ui_control.obj
 0001:0002e6c0       ??1?$unique_ptr@V?$basic_string@DU?$char_traits@D@std@@V?$allocator@D@2@@std@@V<lambda_1>@?1???$create@V?$basic_string@DU?$char_traits@D@std@@V?$allocator@D@2@@std@@AAY0BE@$$CBD@?$basic_json@Uordered_map@nlohmann@@Vvector@std@@V?$basic_string@DU?$char_traits@D@std@@V?$allocator@D@2@@4@_N_J_KNVallocator@4@Uadl_serializer@2@V?$vector@EV?$allocator@E@std@@@4@@nlohmann@@CAPAV12@AAY0BE@$$CBD@Z@@std@@QAE@XZ 0042f6c0 f i ui_control.obj
 0001:0002e6c0       ??1?$unique_ptr@V?$basic_string@DU?$char_traits@D@std@@V?$allocator@D@2@@std@@V<lambda_1>@?1???$create@V?$basic_string@DU?$char_traits@D@std@@V?$allocator@D@2@@std@@AAY0BG@$$CBD@?$basic_json@Uordered_map@nlohmann@@Vvector@std@@V?$basic_string@DU?$char_traits@D@std@@V?$allocator@D@2@@4@_N_J_KNVallocator@4@Uadl_serializer@2@V?$vector@EV?$allocator@E@std@@@4@@nlohmann@@CAPAV12@AAY0BG@$$CBD@Z@@std@@QAE@XZ 0042f6c0 f i ui_control.obj
 0001:0002e6c0       ??1?$unique_ptr@V?$basic_string@DU?$char_traits@D@std@@V?$allocator@D@2@@std@@V<lambda_1>@?1???$create@V?$basic_string@DU?$char_traits@D@std@@V?$allocator@D@2@@std@@AAY0BH@$$CBD@?$basic_json@Uordered_map@nlohmann@@Vvector@std@@V?$basic_string@DU?$char_traits@D@std@@V?$allocator@D@2@@4@_N_J_KNVallocator@4@Uadl_serializer@2@V?$vector@EV?$allocator@E@std@@@4@@nlohmann@@CAPAV12@AAY0BH@$$CBD@Z@@std@@QAE@XZ 0042f6c0 f i ui_control.obj
 0001:0002e6c0       ??1?$unique_ptr@V?$basic_string@DU?$char_traits@D@std@@V?$allocator@D@2@@std@@V<lambda_1>@?1???$create@V?$basic_string@DU?$char_traits@D@std@@V?$allocator@D@2@@std@@AAY0BI@$$CBD@?$basic_json@Uordered_map@nlohmann@@Vvector@std@@V?$basic_string@DU?$char_traits@D@std@@V?$allocator@D@2@@4@_N_J_KNVallocator@4@Uadl_serializer@2@V?$vector@EV?$allocator@E@std@@@4@@nlohmann@@CAPAV12@AAY0BI@$$CBD@Z@@std@@QAE@XZ 0042f6c0 f i ui_control.obj
 0001:0002e6c0       ??1?$unique_ptr@V?$basic_string@DU?$char_traits@D@std@@V?$allocator@D@2@@std@@V<lambda_1>@?1???$create@V?$basic_string@DU?$char_traits@D@std@@V?$allocator@D@2@@std@@AAY0BJ@$$CBD@?$basic_json@Uordered_map@nlohmann@@Vvector@std@@V?$basic_string@DU?$char_traits@D@std@@V?$allocator@D@2@@4@_N_J_KNVallocator@4@Uadl_serializer@2@V?$vector@EV?$allocator@E@std@@@4@@nlohmann@@CAPAV12@AAY0BJ@$$CBD@Z@@std@@QAE@XZ 0042f6c0 f i ui_control.obj
 0001:0002e6c0       ??1?$unique_ptr@V?$basic_string@DU?$char_traits@D@std@@V?$allocator@D@2@@std@@V<lambda_1>@?1???$create@V?$basic_string@DU?$char_traits@D@std@@V?$allocator@D@2@@std@@AAY0BK@$$CBD@?$basic_json@Uordered_map@nlohmann@@Vvector@std@@V?$basic_string@DU?$char_traits@D@std@@V?$allocator@D@2@@4@_N_J_KNVallocator@4@Uadl_serializer@2@V?$vector@EV?$allocator@E@std@@@4@@nlohmann@@CAPAV12@AAY0BK@$$CBD@Z@@std@@QAE@XZ 0042f6c0 f i ui_control.obj
 0001:0002e6c0       ??1?$unique_ptr@V?$basic_string@DU?$char_traits@D@std@@V?$allocator@D@2@@std@@V<lambda_1>@?1???$create@V?$basic_string@DU?$char_traits@D@std@@V?$allocator@D@2@@std@@AAY0BM@$$CBD@?$basic_json@Uordered_map@nlohmann@@Vvector@std@@V?$basic_string@DU?$char_traits@D@std@@V?$allocator@D@2@@4@_N_J_KNVallocator@4@Uadl_serializer@2@V?$vector@EV?$allocator@E@std@@@4@@nlohmann@@CAPAV12@AAY0BM@$$CBD@Z@@std@@QAE@XZ 0042f6c0 f i ui_control.obj
 0001:0002e6c0       ??1?$unique_ptr@V?$basic_string@DU?$char_traits@D@std@@V?$allocator@D@2@@std@@V<lambda_1>@?1???$create@V?$basic_string@DU?$char_traits@D@std@@V?$allocator@D@2@@std@@AAY0BO@$$CBD@?$basic_json@Uordered_map@nlohmann@@Vvector@std@@V?$basic_string@DU?$char_traits@D@std@@V?$allocator@D@2@@4@_N_J_KNVallocator@4@Uadl_serializer@2@V?$vector@EV?$allocator@E@std@@@4@@nlohmann@@CAPAV12@AAY0BO@$$CBD@Z@@std@@QAE@XZ 0042f6c0 f i ui_control.obj
 0001:0002e6c0       ??1?$unique_ptr@V?$basic_string@DU?$char_traits@D@std@@V?$allocator@D@2@@std@@V<lambda_1>@?1???$create@V?$basic_string@DU?$char_traits@D@std@@V?$allocator@D@2@@std@@AAY0CA@$$CBD@?$basic_json@Uordered_map@nlohmann@@Vvector@std@@V?$basic_string@DU?$char_traits@D@std@@V?$allocator@D@2@@4@_N_J_KNVallocator@4@Uadl_serializer@2@V?$vector@EV?$allocator@E@std@@@4@@nlohmann@@CAPAV12@AAY0CA@$$CBD@Z@@std@@QAE@XZ 0042f6c0 f i ui_control.obj
 0001:0002e6c0       ??1?$unique_ptr@V?$basic_string@DU?$char_traits@D@std@@V?$allocator@D@2@@std@@V<lambda_1>@?1???$create@V?$basic_string@DU?$char_traits@D@std@@V?$allocator@D@2@@std@@AAY0CB@$$CBD@?$basic_json@Uordered_map@nlohmann@@Vvector@std@@V?$basic_string@DU?$char_traits@D@std@@V?$allocator@D@2@@4@_N_J_KNVallocator@4@Uadl_serializer@2@V?$vector@EV?$allocator@E@std@@@4@@nlohmann@@CAPAV12@AAY0CB@$$CBD@Z@@std@@QAE@XZ 0042f6c0 f i ui_control.obj
 0001:0002e6c0       ??1?$unique_ptr@V?$basic_string@DU?$char_traits@D@std@@V?$allocator@D@2@@std@@V<lambda_1>@?1???$create@V?$basic_string@DU?$char_traits@D@std@@V?$allocator@D@2@@std@@AAY0CC@$$CBD@?$basic_json@Uordered_map@nlohmann@@Vvector@std@@V?$basic_string@DU?$char_traits@D@std@@V?$allocator@D@2@@4@_N_J_KNVallocator@4@Uadl_serializer@2@V?$vector@EV?$allocator@E@std@@@4@@nlohmann@@CAPAV12@AAY0CC@$$CBD@Z@@std@@QAE@XZ 0042f6c0 f i ui_control.obj
 0001:0002e6c0       ??1?$unique_ptr@V?$basic_string@DU?$char_traits@D@std@@V?$allocator@D@2@@std@@V<lambda_1>@?1???$create@V?$basic_string@DU?$char_traits@D@std@@V?$allocator@D@2@@std@@AAY0CN@$$CBD@?$basic_json@Uordered_map@nlohmann@@Vvector@std@@V?$basic_string@DU?$char_traits@D@std@@V?$allocator@D@2@@4@_N_J_KNVallocator@4@Uadl_serializer@2@V?$vector@EV?$allocator@E@std@@@4@@nlohmann@@CAPAV12@AAY0CN@$$CBD@Z@@std@@QAE@XZ 0042f6c0 f i ui_control.obj
 0001:0002e6c0       ??1?$unique_ptr@V?$basic_string@DU?$char_traits@D@std@@V?$allocator@D@2@@std@@V<lambda_1>@?1???$create@V?$basic_string@DU?$char_traits@D@std@@V?$allocator@D@2@@std@@AAY0CP@$$CBD@?$basic_json@Uordered_map@nlohmann@@Vvector@std@@V?$basic_string@DU?$char_traits@D@std@@V?$allocator@D@2@@4@_N_J_KNVallocator@4@Uadl_serializer@2@V?$vector@EV?$allocator@E@std@@@4@@nlohmann@@CAPAV12@AAY0CP@$$CBD@Z@@std@@QAE@XZ 0042f6c0 f i ui_control.obj
 0001:0002e6c0       ??1?$unique_ptr@V?$basic_string@DU?$char_traits@D@std@@V?$allocator@D@2@@std@@V<lambda_1>@?1???$create@V?$basic_string@DU?$char_traits@D@std@@V?$allocator@D@2@@std@@AAY0DD@$$CBD@?$basic_json@Uordered_map@nlohmann@@Vvector@std@@V?$basic_string@DU?$char_traits@D@std@@V?$allocator@D@2@@4@_N_J_KNVallocator@4@Uadl_serializer@2@V?$vector@EV?$allocator@E@std@@@4@@nlohmann@@CAPAV12@AAY0DD@$$CBD@Z@@std@@QAE@XZ 0042f6c0 f i ui_control.obj
 0001:0002e6c0       ??1?$unique_ptr@V?$basic_string@DU?$char_traits@D@std@@V?$allocator@D@2@@std@@V<lambda_1>@?1???$create@V?$basic_string@DU?$char_traits@D@std@@V?$allocator@D@2@@std@@AAY0EO@$$CBD@?$basic_json@Uordered_map@nlohmann@@Vvector@std@@V?$basic_string@DU?$char_traits@D@std@@V?$allocator@D@2@@4@_N_J_KNVallocator@4@Uadl_serializer@2@V?$vector@EV?$allocator@E@std@@@4@@nlohmann@@CAPAV12@AAY0EO@$$CBD@Z@@std@@QAE@XZ 0042f6c0 f i ui_control.obj
 0001:0002e6c0       ??1?$unique_ptr@V?$basic_string@DU?$char_traits@D@std@@V?$allocator@D@2@@std@@V<lambda_1>@?1???$create@V?$basic_string@DU?$char_traits@D@std@@V?$allocator@D@2@@std@@AAY0L@$$CBD@?$basic_json@Uordered_map@nlohmann@@Vvector@std@@V?$basic_string@DU?$char_traits@D@std@@V?$allocator@D@2@@4@_N_J_KNVallocator@4@Uadl_serializer@2@V?$vector@EV?$allocator@E@std@@@4@@nlohmann@@CAPAV12@AAY0L@$$CBD@Z@@std@@QAE@XZ 0042f6c0 f i ui_control.obj
 0001:0002e6c0       ??1?$unique_ptr@V?$basic_string@DU?$char_traits@D@std@@V?$allocator@D@2@@std@@V<lambda_1>@?1???$create@V?$basic_string@DU?$char_traits@D@std@@V?$allocator@D@2@@std@@AAY0M@$$CBD@?$basic_json@Uordered_map@nlohmann@@Vvector@std@@V?$basic_string@DU?$char_traits@D@std@@V?$allocator@D@2@@4@_N_J_KNVallocator@4@Uadl_serializer@2@V?$vector@EV?$allocator@E@std@@@4@@nlohmann@@CAPAV12@AAY0M@$$CBD@Z@@std@@QAE@XZ 0042f6c0 f i ui_control.obj
 0001:0002e6c0       ??1?$unique_ptr@V?$basic_string@DU?$char_traits@D@std@@V?$allocator@D@2@@std@@V<lambda_1>@?1???$create@V?$basic_string@DU?$char_traits@D@std@@V?$allocator@D@2@@std@@AAY0N@$$CBD@?$basic_json@Uordered_map@nlohmann@@Vvector@std@@V?$basic_string@DU?$char_traits@D@std@@V?$allocator@D@2@@4@_N_J_KNVallocator@4@Uadl_serializer@2@V?$vector@EV?$allocator@E@std@@@4@@nlohmann@@CAPAV12@AAY0N@$$CBD@Z@@std@@QAE@XZ 0042f6c0 f i ui_control.obj
 0001:0002e6c0       ??1?$unique_ptr@V?$basic_string@DU?$char_traits@D@std@@V?$allocator@D@2@@std@@V<lambda_1>@?1???$create@V?$basic_string@DU?$char_traits@D@std@@V?$allocator@D@2@@std@@AAY0P@$$CBD@?$basic_json@Uordered_map@nlohmann@@Vvector@std@@V?$basic_string@DU?$char_traits@D@std@@V?$allocator@D@2@@4@_N_J_KNVallocator@4@Uadl_serializer@2@V?$vector@EV?$allocator@E@std@@@4@@nlohmann@@CAPAV12@AAY0P@$$CBD@Z@@std@@QAE@XZ 0042f6c0 f i ui_control.obj
 0001:0002e6c0       ??1?$unique_ptr@V?$basic_string@DU?$char_traits@D@std@@V?$allocator@D@2@@std@@V<lambda_1>@?1???$create@V?$basic_string@DU?$char_traits@D@std@@V?$allocator@D@2@@std@@ABV12@@?$basic_json@Uordered_map@nlohmann@@Vvector@std@@V?$basic_string@DU?$char_traits@D@std@@V?$allocator@D@2@@4@_N_J_KNVallocator@4@Uadl_serializer@2@V?$vector@EV?$allocator@E@std@@@4@@nlohmann@@CAPAV12@ABV12@@Z@@std@@QAE@XZ 0042f6c0 f i ui_control.obj
 0001:0002e6c0       ??1?$unique_ptr@V?$basic_string@DU?$char_traits@D@std@@V?$allocator@D@2@@std@@V<lambda_1>@?1???$create@V?$basic_string@DU?$char_traits@D@std@@V?$allocator@D@2@@std@@ABV12@@?$basic_json@Vmap@std@@Vvector@2@V?$basic_string@DU?$char_traits@D@std@@V?$allocator@D@2@@2@_N_J_KNVallocator@2@Uadl_serializer@nlohmann@@V?$vector@EV?$allocator@E@std@@@2@@nlohmann@@CAPAV12@ABV12@@Z@@std@@QAE@XZ 0042f6c0 f i userprofile.obj
 0001:0002e6e0       ??1?$unique_ptr@V?$byte_container_with_subtype@V?$vector@EV?$allocator@E@std@@@std@@@nlohmann@@V<lambda_1>@?1???$create@V?$byte_container_with_subtype@V?$vector@EV?$allocator@E@std@@@std@@@nlohmann@@ABV12@@?$basic_json@Uordered_map@nlohmann@@Vvector@std@@V?$basic_string@DU?$char_traits@D@std@@V?$allocator@D@2@@4@_N_J_KNVallocator@4@Uadl_serializer@2@V?$vector@EV?$allocator@E@std@@@4@@2@CAPAV12@ABV12@@Z@@std@@QAE@XZ 0042f6e0 f i ui_control.obj
 0001:0002e6e0       ??1?$unique_ptr@V?$byte_container_with_subtype@V?$vector@EV?$allocator@E@std@@@std@@@nlohmann@@V<lambda_1>@?1???$create@V?$byte_container_with_subtype@V?$vector@EV?$allocator@E@std@@@std@@@nlohmann@@ABV12@@?$basic_json@Vmap@std@@Vvector@2@V?$basic_string@DU?$char_traits@D@std@@V?$allocator@D@2@@2@_N_J_KNVallocator@2@Uadl_serializer@nlohmann@@V?$vector@EV?$allocator@E@std@@@2@@2@CAPAV12@ABV12@@Z@@std@@QAE@XZ 0042f6e0 f i userprofile.obj
 0001:0002e700       ??1?$vector@_NV?$allocator@_N@std@@@std@@QAE@XZ 0042f700 f i ui_control.obj
 0001:0002e730       ??1_Locinfo@std@@QAE@XZ    0042f730 f i ui_control.obj
 0001:0002e810       ??1_Reallocation_guard@?$vector@U?$pair@$$CBV?$basic_string@DU?$char_traits@D@std@@V?$allocator@D@2@@std@@V?$basic_json@Uordered_map@nlohmann@@Vvector@std@@V?$basic_string@DU?$char_traits@D@std@@V?$allocator@D@2@@4@_N_J_KNVallocator@4@Uadl_serializer@2@V?$vector@EV?$allocator@E@std@@@4@@nlohmann@@@std@@V?$allocator@U?$pair@$$CBV?$basic_string@DU?$char_traits@D@std@@V?$allocator@D@2@@std@@V?$basic_json@Uordered_map@nlohmann@@Vvector@std@@V?$basic_string@DU?$char_traits@D@std@@V?$allocator@D@2@@4@_N_J_KNVallocator@4@Uadl_serializer@2@V?$vector@EV?$allocator@E@std@@@4@@nlohmann@@@std@@@2@@std@@QAE@XZ 0042f810 f i ui_control.obj
 0001:0002e890       ??1_Reallocation_guard@?$vector@V?$basic_json@Uordered_map@nlohmann@@Vvector@std@@V?$basic_string@DU?$char_traits@D@std@@V?$allocator@D@2@@4@_N_J_KNVallocator@4@Uadl_serializer@2@V?$vector@EV?$allocator@E@std@@@4@@nlohmann@@V?$allocator@V?$basic_json@Uordered_map@nlohmann@@Vvector@std@@V?$basic_string@DU?$char_traits@D@std@@V?$allocator@D@2@@4@_N_J_KNVallocator@4@Uadl_serializer@2@V?$vector@EV?$allocator@E@std@@@4@@nlohmann@@@std@@@std@@QAE@XZ 0042f890 f i ui_control.obj
 0001:0002e900       ??1_Sentry_base@?$basic_ostream@DU?$char_traits@D@std@@@std@@QAE@XZ 0042f900 f i ui_control.obj
 0001:0002e950       ??1_bstr_t@@QAE@XZ         0042f950 f i ui_control.obj
 0001:0002e9b0       ??1_variant_t@@QAE@XZ      0042f9b0 f i ui_control.obj
 0001:0002e9c0       ??1input_stream_adapter@detail@nlohmann@@QAE@XZ 0042f9c0 f i ui_control.obj
 0001:0002ea60       ??1invalid_iterator@detail@nlohmann@@UAE@XZ 0042fa60 f i ui_control.obj
 0001:0002ea60       ??1other_error@detail@nlohmann@@UAE@XZ 0042fa60 f i ui_control.obj
 0001:0002ea60       ??1out_of_range@detail@nlohmann@@UAE@XZ 0042fa60 f i ui_control.obj
 0001:0002ea60       ??1parse_error@detail@nlohmann@@UAE@XZ 0042fa60 f i ui_control.obj
 0001:0002ea60       ??1type_error@detail@nlohmann@@UAE@XZ 0042fa60 f i ui_control.obj
 0001:0002ea90       ??1locale@std@@QAE@XZ      0042fa90 f i ui_control.obj
 0001:0002eab0       ??1sentry@?$basic_ostream@DU?$char_traits@D@std@@@std@@QAE@XZ 0042fab0 f i ui_control.obj
 0001:0002eb20       ??4?$basic_json@Uordered_map@nlohmann@@Vvector@std@@V?$basic_string@DU?$char_traits@D@std@@V?$allocator@D@2@@4@_N_J_KNVallocator@4@Uadl_serializer@2@V?$vector@EV?$allocator@E@std@@@4@@nlohmann@@QAEAAV01@V01@@Z 0042fb20 f i ui_control.obj
 0001:0002eb70       ??6nlohmann@@YAAAV?$basic_ostream@DU?$char_traits@D@std@@@std@@AAV12@ABV?$basic_json@Uordered_map@nlohmann@@Vvector@std@@V?$basic_string@DU?$char_traits@D@std@@V?$allocator@D@2@@4@_N_J_KNVallocator@4@Uadl_serializer@2@V?$vector@EV?$allocator@E@std@@@4@@0@@Z 0042fb70 f i ui_control.obj
 0001:0002ee60       ??8nlohmann@@YA_NABV?$basic_json@Uordered_map@nlohmann@@Vvector@std@@V?$basic_string@DU?$char_traits@D@std@@V?$allocator@D@2@@4@_N_J_KNVallocator@4@Uadl_serializer@2@V?$vector@EV?$allocator@E@std@@@4@@0@0@Z 0042fe60 f i ui_control.obj
 0001:0002f0f0       ??9?$iter_impl@$$CBV?$basic_json@Uordered_map@nlohmann@@Vvector@std@@V?$basic_string@DU?$char_traits@D@std@@V?$allocator@D@2@@4@_N_J_KNVallocator@4@Uadl_serializer@2@V?$vector@EV?$allocator@E@std@@@4@@nlohmann@@@detail@nlohmann@@QBE_NABV012@@Z 004300f0 f i ui_control.obj
 0001:0002f0f0       ??9?$iter_impl@$$CBV?$basic_json@Vmap@std@@Vvector@2@V?$basic_string@DU?$char_traits@D@std@@V?$allocator@D@2@@2@_N_J_KNVallocator@2@Uadl_serializer@nlohmann@@V?$vector@EV?$allocator@E@std@@@2@@nlohmann@@@detail@nlohmann@@QBE_NABV012@@Z 004300f0 f i userprofile.obj
 0001:0002f1a0       ??A?$basic_string@DU?$char_traits@D@std@@V?$allocator@D@2@@std@@QAEAADI@Z 004301a0 f i ui_control.obj
 0001:0002f1c0       ??A?$ordered_map@V?$basic_string@DU?$char_traits@D@std@@V?$allocator@D@2@@std@@V?$basic_json@Uordered_map@nlohmann@@Vvector@std@@V?$basic_string@DU?$char_traits@D@std@@V?$allocator@D@2@@4@_N_J_KNVallocator@4@Uadl_serializer@2@V?$vector@EV?$allocator@E@std@@@4@@nlohmann@@U?$less@X@2@V?$allocator@U?$pair@$$CBV?$basic_string@DU?$char_traits@D@std@@V?$allocator@D@2@@std@@V?$basic_json@Uordered_map@nlohmann@@Vvector@std@@V?$basic_string@DU?$char_traits@D@std@@V?$allocator@D@2@@4@_N_J_KNVallocator@4@Uadl_serializer@2@V?$vector@EV?$allocator@E@std@@@4@@nlohmann@@@std@@@2@@nlohmann@@QAEAAV?$basic_json@Uordered_map@nlohmann@@Vvector@std@@V?$basic_string@DU?$char_traits@D@std@@V?$allocator@D@2@@4@_N_J_KNVallocator@4@Uadl_serializer@2@V?$vector@EV?$allocator@E@std@@@4@@1@ABV?$basic_string@DU?$char_traits@D@std@@V?$allocator@D@2@@std@@@Z 004301c0 f i ui_control.obj
 0001:0002f240       ??D?$iter_impl@$$CBV?$basic_json@Uordered_map@nlohmann@@Vvector@std@@V?$basic_string@DU?$char_traits@D@std@@V?$allocator@D@2@@4@_N_J_KNVallocator@4@Uadl_serializer@2@V?$vector@EV?$allocator@E@std@@@4@@nlohmann@@@detail@nlohmann@@QBEABV?$basic_json@Uordered_map@nlohmann@@Vvector@std@@V?$basic_string@DU?$char_traits@D@std@@V?$allocator@D@2@@4@_N_J_KNVallocator@4@Uadl_serializer@2@V?$vector@EV?$allocator@E@std@@@4@@2@XZ 00430240 f i ui_control.obj
 0001:0002f5f0       ??Y?$_Vb_const_iterator@U?$_Wrap_alloc@V?$allocator@I@std@@@std@@@std@@QAEAAV01@H@Z 004305f0 f i ui_control.obj
 0001:0002f650       ??_D?$basic_ifstream@DU?$char_traits@D@std@@@std@@QAEXXZ 00430650 f i ui_control.obj
 0001:0002f6e0       ??_D?$basic_ofstream@DU?$char_traits@D@std@@@std@@QAEXXZ 004306e0 f i ui_control.obj
 0001:0002f76f       ??_E?$basic_ifstream@DU?$char_traits@D@std@@@std@@$4PPPPPPPM@A@AEPAXI@Z 0043076f f i ui_control.obj
 0001:0002f777       ??_E?$basic_istream@DU?$char_traits@D@std@@@std@@$4PPPPPPPM@A@AEPAXI@Z 00430777 f i ui_control.obj
 0001:0002f77f       ??_E?$basic_ofstream@DU?$char_traits@D@std@@@std@@$4PPPPPPPM@A@AEPAXI@Z 0043077f f i ui_control.obj
 0001:0002f787       ??_E?$basic_ostream@DU?$char_traits@D@std@@@std@@$4PPPPPPPM@A@AEPAXI@Z 00430787 f i ui_control.obj
 0001:0002f790       ??_E?$_Ref_count_obj2@V?$output_stream_adapter@D@detail@nlohmann@@@std@@UAEPAXI@Z 00430790 f i ui_control.obj
 0001:0002f790       ??_G?$_Ref_count_obj2@V?$output_stream_adapter@D@detail@nlohmann@@@std@@UAEPAXI@Z 00430790 f i ui_control.obj
 0001:0002f7c0       ??_E?$basic_filebuf@DU?$char_traits@D@std@@@std@@UAEPAXI@Z 004307c0 f i ui_control.obj
 0001:0002f7c0       ??_G?$basic_filebuf@DU?$char_traits@D@std@@@std@@UAEPAXI@Z 004307c0 f i ui_control.obj
 0001:0002f7f0       ??_E?$basic_ifstream@DU?$char_traits@D@std@@@std@@UAEPAXI@Z 004307f0 f i ui_control.obj
 0001:0002f7f0       ??_G?$basic_ifstream@DU?$char_traits@D@std@@@std@@UAEPAXI@Z 004307f0 f i ui_control.obj
 0001:0002f820       ??_E?$basic_ios@DU?$char_traits@D@std@@@std@@UAEPAXI@Z 00430820 f i ui_control.obj
 0001:0002f820       ??_G?$basic_ios@DU?$char_traits@D@std@@@std@@UAEPAXI@Z 00430820 f i ui_control.obj
 0001:0002f890       ??_E?$basic_istream@DU?$char_traits@D@std@@@std@@UAEPAXI@Z 00430890 f i ui_control.obj
 0001:0002f890       ??_G?$basic_istream@DU?$char_traits@D@std@@@std@@UAEPAXI@Z 00430890 f i ui_control.obj
 0001:0002f920       ??_E?$basic_ofstream@DU?$char_traits@D@std@@@std@@UAEPAXI@Z 00430920 f i ui_control.obj
 0001:0002f920       ??_G?$basic_ofstream@DU?$char_traits@D@std@@@std@@UAEPAXI@Z 00430920 f i ui_control.obj
 0001:0002f950       ??_E?$basic_ostream@DU?$char_traits@D@std@@@std@@UAEPAXI@Z 00430950 f i ui_control.obj
 0001:0002f950       ??_G?$basic_ostream@DU?$char_traits@D@std@@@std@@UAEPAXI@Z 00430950 f i ui_control.obj
 0001:0002f9e0       ??_E?$basic_streambuf@DU?$char_traits@D@std@@@std@@UAEPAXI@Z 004309e0 f i ui_control.obj
 0001:0002f9e0       ??_G?$basic_streambuf@DU?$char_traits@D@std@@@std@@UAEPAXI@Z 004309e0 f i ui_control.obj
 0001:0002fa30       ??_E?$codecvt@DDU_Mbstatet@@@std@@MAEPAXI@Z 00430a30 f i ui_control.obj
 0001:0002fa30       ??_G?$codecvt@DDU_Mbstatet@@@std@@MAEPAXI@Z 00430a30 f i ui_control.obj
 0001:0002fa60       ??_E?$ctype@D@std@@MAEPAXI@Z 00430a60 f i ui_control.obj
 0001:0002fa60       ??_G?$ctype@D@std@@MAEPAXI@Z 00430a60 f i ui_control.obj
 0001:0002fac0       ??_E_Facet_base@std@@UAEPAXI@Z 00430ac0 f i ui_control.obj
 0001:0002fac0       ??_G_Facet_base@std@@UAEPAXI@Z 00430ac0 f i ui_control.obj
 0001:0002faf0       ??_Eexception@detail@nlohmann@@UAEPAXI@Z 00430af0 f i ui_control.obj
 0001:0002faf0       ??_Einvalid_iterator@detail@nlohmann@@UAEPAXI@Z 00430af0 f i ui_control.obj
 0001:0002faf0       ??_Eother_error@detail@nlohmann@@UAEPAXI@Z 00430af0 f i ui_control.obj
 0001:0002faf0       ??_Eout_of_range@detail@nlohmann@@UAEPAXI@Z 00430af0 f i ui_control.obj
 0001:0002faf0       ??_Etype_error@detail@nlohmann@@UAEPAXI@Z 00430af0 f i ui_control.obj
 0001:0002faf0       ??_Gexception@detail@nlohmann@@UAEPAXI@Z 00430af0 f i ui_control.obj
 0001:0002faf0       ??_Ginvalid_iterator@detail@nlohmann@@UAEPAXI@Z 00430af0 f i ui_control.obj
 0001:0002faf0       ??_Gother_error@detail@nlohmann@@UAEPAXI@Z 00430af0 f i ui_control.obj
 0001:0002faf0       ??_Gout_of_range@detail@nlohmann@@UAEPAXI@Z 00430af0 f i ui_control.obj
 0001:0002faf0       ??_Gtype_error@detail@nlohmann@@UAEPAXI@Z 00430af0 f i ui_control.obj
 0001:0002fb30       ??_Eios_base@std@@UAEPAXI@Z 00430b30 f i ui_control.obj
 0001:0002fb30       ??_Gios_base@std@@UAEPAXI@Z 00430b30 f i ui_control.obj
 0001:0002fba0       ??_Eparse_error@detail@nlohmann@@UAEPAXI@Z 00430ba0 f i ui_control.obj
 0001:0002fba0       ??_Gparse_error@detail@nlohmann@@UAEPAXI@Z 00430ba0 f i ui_control.obj
 0001:0002fbe0       ?CloseUI@UIControl@@YA_NXZ 00430be0 f   ui_control.obj
 0001:0002fc40       ?GetOpenUIWindows@UIControl@@YA?AV?$vector@PAUHWND__@@V?$allocator@PAUHWND__@@@std@@@std@@XZ 00430c40 f   ui_control.obj
 0001:00030de0       ?RunUI@UIControl@@YAXXZ    00431de0 f   ui_control.obj
 0001:000314c0       ?RunUIOrBringToFront@UIControl@@YAXPAUHWND__@@_N@Z 004324c0 f   ui_control.obj
 0001:00031720       ?RunUIViaSchedTask@UIControl@@YA_NXZ 00432720 f   ui_control.obj
 0001:000319f0       ?_Change_array@?$vector@PAV?$basic_json@Uordered_map@nlohmann@@Vvector@std@@V?$basic_string@DU?$char_traits@D@std@@V?$allocator@D@2@@4@_N_J_KNVallocator@4@Uadl_serializer@2@V?$vector@EV?$allocator@E@std@@@4@@nlohmann@@V?$allocator@PAV?$basic_json@Uordered_map@nlohmann@@Vvector@std@@V?$basic_string@DU?$char_traits@D@std@@V?$allocator@D@2@@4@_N_J_KNVallocator@4@Uadl_serializer@2@V?$vector@EV?$allocator@E@std@@@4@@nlohmann@@@std@@@std@@AAEXQAPAV?$basic_json@Uordered_map@nlohmann@@Vvector@std@@V?$basic_string@DU?$char_traits@D@std@@V?$allocator@D@2@@4@_N_J_KNVallocator@4@Uadl_serializer@2@V?$vector@EV?$allocator@E@std@@@4@@nlohmann@@II@Z 004329f0 f i ui_control.obj
 0001:000319f0       ?_Change_array@?$vector@PAV?$basic_json@Vmap@std@@Vvector@2@V?$basic_string@DU?$char_traits@D@std@@V?$allocator@D@2@@2@_N_J_KNVallocator@2@Uadl_serializer@nlohmann@@V?$vector@EV?$allocator@E@std@@@2@@nlohmann@@V?$allocator@PAV?$basic_json@Vmap@std@@Vvector@2@V?$basic_string@DU?$char_traits@D@std@@V?$allocator@D@2@@2@_N_J_KNVallocator@2@Uadl_serializer@nlohmann@@V?$vector@EV?$allocator@E@std@@@2@@nlohmann@@@std@@@std@@AAEXQAPAV?$basic_json@Vmap@std@@Vvector@2@V?$basic_string@DU?$char_traits@D@std@@V?$allocator@D@2@@2@_N_J_KNVallocator@2@Uadl_serializer@nlohmann@@V?$vector@EV?$allocator@E@std@@@2@@nlohmann@@II@Z 004329f0 f i userprofile.obj
 0001:000319f0       ?_Change_array@?$vector@PB_WV?$allocator@PB_W@std@@@std@@AAEXQAPB_WII@Z 004329f0 f i update_checker.obj
 0001:00031a60       ?_Change_array@?$vector@V?$basic_json@Uordered_map@nlohmann@@Vvector@std@@V?$basic_string@DU?$char_traits@D@std@@V?$allocator@D@2@@4@_N_J_KNVallocator@4@Uadl_serializer@2@V?$vector@EV?$allocator@E@std@@@4@@nlohmann@@V?$allocator@V?$basic_json@Uordered_map@nlohmann@@Vvector@std@@V?$basic_string@DU?$char_traits@D@std@@V?$allocator@D@2@@4@_N_J_KNVallocator@4@Uadl_serializer@2@V?$vector@EV?$allocator@E@std@@@4@@nlohmann@@@std@@@std@@AAEXQAV?$basic_json@Uordered_map@nlohmann@@Vvector@std@@V?$basic_string@DU?$char_traits@D@std@@V?$allocator@D@2@@4@_N_J_KNVallocator@4@Uadl_serializer@2@V?$vector@EV?$allocator@E@std@@@4@@nlohmann@@II@Z 00432a60 f i ui_control.obj
 0001:00031af0       ?_Deallocate_for_capacity@?$basic_string@DU?$char_traits@D@std@@V?$allocator@D@2@@std@@CAXAAV?$allocator@D@2@QADI@Z 00432af0 f i ui_control.obj
 0001:00031b30       ?_Decref@facet@locale@std@@UAEPAV_Facet_base@3@XZ 00432b30 f i ui_control.obj
 0001:00031b50       ?_Destroy@?$_Ref_count_obj2@V?$output_stream_adapter@D@detail@nlohmann@@@std@@EAEXXZ 00432b50 f i ui_control.obj
 0001:00031b50       ?_Destroy@?$_Ref_count_obj2@V?$output_string_adapter@DV?$basic_string@DU?$char_traits@D@std@@V?$allocator@D@2@@std@@@detail@nlohmann@@@std@@EAEXXZ 00432b50 f i userprofile.obj
 0001:00031b60       ?_Endwrite@?$basic_filebuf@DU?$char_traits@D@std@@@std@@IAE_NXZ 00432b60 f i ui_control.obj
 0001:00031c30       ?_Incref@facet@locale@std@@UAEXXZ 00432c30 f i ui_control.obj
 0001:00031c40       ?_Init@?$basic_filebuf@DU?$char_traits@D@std@@@std@@IAEXPAU_iobuf@@W4_Initfl@12@@Z 00432c40 f i ui_control.obj
 0001:00031d30       ?_Init@?$basic_streambuf@DU?$char_traits@D@std@@@std@@IAEXXZ 00432d30 f i ui_control.obj
 0001:00031d90       ?_Initcvt@?$basic_filebuf@DU?$char_traits@D@std@@@std@@IAEXABV?$codecvt@DDU_Mbstatet@@@2@@Z 00432d90 f i ui_control.obj
 0001:00031e20       ?_Insert_x@?$vector@_NV?$allocator@_N@std@@@std@@QAEIV?$_Vb_const_iterator@U?$_Wrap_alloc@V?$allocator@I@std@@@std@@@2@I@Z 00432e20 f i ui_control.obj
 0001:00031ff0       ?_Lock@?$basic_filebuf@DU?$char_traits@D@std@@@std@@UAEXXZ 00432ff0 f i ui_control.obj
 0001:00032000       ?_Osfx@?$basic_ostream@DU?$char_traits@D@std@@@std@@QAEXXZ 00433000 f i ui_control.obj
 0001:000320e0       ?_Reset_back@?$basic_filebuf@DU?$char_traits@D@std@@@std@@AAEXXZ 004330e0 f i ui_control.obj
 0001:00032110       ?_Throw_NullAlloc@in1diag3@details@wil@@YAXPAXIPBD@Z 00433110 f i ui_control.obj
 0001:00032140       ?_Tidy@?$vector@U?$pair@$$CBV?$basic_string@DU?$char_traits@D@std@@V?$allocator@D@2@@std@@V?$basic_json@Uordered_map@nlohmann@@Vvector@std@@V?$basic_string@DU?$char_traits@D@std@@V?$allocator@D@2@@4@_N_J_KNVallocator@4@Uadl_serializer@2@V?$vector@EV?$allocator@E@std@@@4@@nlohmann@@@std@@V?$allocator@U?$pair@$$CBV?$basic_string@DU?$char_traits@D@std@@V?$allocator@D@2@@std@@V?$basic_json@Uordered_map@nlohmann@@Vvector@std@@V?$basic_string@DU?$char_traits@D@std@@V?$allocator@D@2@@4@_N_J_KNVallocator@4@Uadl_serializer@2@V?$vector@EV?$allocator@E@std@@@4@@nlohmann@@@std@@@2@@std@@AAEXXZ 00433140 f i ui_control.obj
 0001:000321e0       ?_Tidy@?$vector@V?$basic_json@Uordered_map@nlohmann@@Vvector@std@@V?$basic_string@DU?$char_traits@D@std@@V?$allocator@D@2@@4@_N_J_KNVallocator@4@Uadl_serializer@2@V?$vector@EV?$allocator@E@std@@@4@@nlohmann@@V?$allocator@V?$basic_json@Uordered_map@nlohmann@@Vvector@std@@V?$basic_string@DU?$char_traits@D@std@@V?$allocator@D@2@@4@_N_J_KNVallocator@4@Uadl_serializer@2@V?$vector@EV?$allocator@E@std@@@4@@nlohmann@@@std@@@std@@AAEXXZ 004331e0 f i ui_control.obj
 0001:00032260       ?_Unlock@?$basic_filebuf@DU?$char_traits@D@std@@@std@@UAEXXZ 00433260 f i ui_control.obj
 0001:00032270       ?_Xlen@?$vector@_NV?$allocator@_N@std@@@std@@SAXXZ 00433270 f i ui_control.obj
 0001:00032280       ?back@?$basic_string@DU?$char_traits@D@std@@V?$allocator@D@2@@std@@QBEABDXZ 00433280 f i ui_control.obj
 0001:000322a0       ?back@?$vector@_NV?$allocator@_N@std@@@std@@QAE?AV?$_Vb_reference@U?$_Wrap_alloc@V?$allocator@I@std@@@std@@@2@XZ 004332a0 f i ui_control.obj
 0001:00032320       ?boolean@?$json_sax_dom_parser@V?$basic_json@Uordered_map@nlohmann@@Vvector@std@@V?$basic_string@DU?$char_traits@D@std@@V?$allocator@D@2@@4@_N_J_KNVallocator@4@Uadl_serializer@2@V?$vector@EV?$allocator@E@std@@@4@@nlohmann@@@detail@nlohmann@@QAE_N_N@Z 00433320 f i ui_control.obj
 0001:000323a0       ?cend@?$basic_json@Uordered_map@nlohmann@@Vvector@std@@V?$basic_string@DU?$char_traits@D@std@@V?$allocator@D@2@@4@_N_J_KNVallocator@4@Uadl_serializer@2@V?$vector@EV?$allocator@E@std@@@4@@nlohmann@@QBE?AV?$iter_impl@$$CBV?$basic_json@Uordered_map@nlohmann@@Vvector@std@@V?$basic_string@DU?$char_traits@D@std@@V?$allocator@D@2@@4@_N_J_KNVallocator@4@Uadl_serializer@2@V?$vector@EV?$allocator@E@std@@@4@@nlohmann@@@detail@2@XZ 004333a0 f i ui_control.obj
 0001:000323a0       ?end@?$basic_json@Uordered_map@nlohmann@@Vvector@std@@V?$basic_string@DU?$char_traits@D@std@@V?$allocator@D@2@@4@_N_J_KNVallocator@4@Uadl_serializer@2@V?$vector@EV?$allocator@E@std@@@4@@nlohmann@@QAE?AV?$iter_impl@V?$basic_json@Uordered_map@nlohmann@@Vvector@std@@V?$basic_string@DU?$char_traits@D@std@@V?$allocator@D@2@@4@_N_J_KNVallocator@4@Uadl_serializer@2@V?$vector@EV?$allocator@E@std@@@4@@nlohmann@@@detail@2@XZ 004333a0 f i ui_control.obj
 0001:00032410       ?clear@ios_base@std@@QAEXH_N@Z 00433410 f i ui_control.obj
 0001:00032490       ?count_digits@?$serializer@V?$basic_json@Uordered_map@nlohmann@@Vvector@std@@V?$basic_string@DU?$char_traits@D@std@@V?$allocator@D@2@@4@_N_J_KNVallocator@4@Uadl_serializer@2@V?$vector@EV?$allocator@E@std@@@4@@nlohmann@@@detail@nlohmann@@AAEI_K@Z 00433490 f i ui_control.obj
 0001:00032490       ?count_digits@?$serializer@V?$basic_json@Vmap@std@@Vvector@2@V?$basic_string@DU?$char_traits@D@std@@V?$allocator@D@2@@2@_N_J_KNVallocator@2@Uadl_serializer@nlohmann@@V?$vector@EV?$allocator@E@std@@@2@@nlohmann@@@detail@nlohmann@@AAEI_K@Z 00433490 f i userprofile.obj
 0001:00032590       ?create@invalid_iterator@detail@nlohmann@@SA?AV123@HABV?$basic_string@DU?$char_traits@D@std@@V?$allocator@D@2@@std@@@Z 00433590 f i ui_control.obj
 0001:000327b0       ?create@other_error@detail@nlohmann@@SA?AV123@HABV?$basic_string@DU?$char_traits@D@std@@V?$allocator@D@2@@std@@@Z 004337b0 f i ui_control.obj
 0001:000329c0       ?create@out_of_range@detail@nlohmann@@SA?AV123@HABV?$basic_string@DU?$char_traits@D@std@@V?$allocator@D@2@@std@@@Z 004339c0 f i ui_control.obj
 0001:00032bd0       ?create@parse_error@detail@nlohmann@@SA?AV123@HABUposition_t@23@ABV?$basic_string@DU?$char_traits@D@std@@V?$allocator@D@2@@std@@@Z 00433bd0 f i ui_control.obj
 0001:00032fe0       ?create@type_error@detail@nlohmann@@SA?AV123@HABV?$basic_string@DU?$char_traits@D@std@@V?$allocator@D@2@@std@@@Z 00433fe0 f i ui_control.obj
 0001:000331f0       ?deallocate@?$_Default_allocator_traits@V?$allocator@V?$basic_string@DU?$char_traits@D@std@@V?$allocator@D@2@@std@@@std@@@std@@SAXAAV?$allocator@V?$basic_string@DU?$char_traits@D@std@@V?$allocator@D@2@@std@@@2@QAV?$basic_string@DU?$char_traits@D@std@@V?$allocator@D@2@@2@I@Z 004341f0 f i ui_control.obj
 0001:00033240       ?destroy@json_value@?$basic_json@Uordered_map@nlohmann@@Vvector@std@@V?$basic_string@DU?$char_traits@D@std@@V?$allocator@D@2@@4@_N_J_KNVallocator@4@Uadl_serializer@2@V?$vector@EV?$allocator@E@std@@@4@@nlohmann@@QAEXW4value_t@detail@3@@Z 00434240 f i ui_control.obj
 0001:00033720       ?do_always_noconv@?$codecvt@DDU_Mbstatet@@@std@@MBE_NXZ 00434720 f i ui_control.obj
 0001:00033720       ___acrt_uninitialize_command_line 00434720 f i libucrt:argv_data.obj
 0001:00033720       __should_initialize_environment 00434720 f i LIBCMT:env_mode.obj
 0001:00033730       ?do_encoding@codecvt_base@std@@MBEHXZ 00434730 f i ui_control.obj
 0001:00033730       ?do_max_length@codecvt_base@std@@MBEHXZ 00434730 f i ui_control.obj
 0001:00033740       ?do_in@?$codecvt@DDU_Mbstatet@@@std@@MBEHAAU_Mbstatet@@PBD1AAPBDPAD3AAPAD@Z 00434740 f i ui_control.obj
 0001:00033740       ?do_out@?$codecvt@DDU_Mbstatet@@@std@@MBEHAAU_Mbstatet@@PBD1AAPBDPAD3AAPAD@Z 00434740 f i ui_control.obj
 0001:00033760       ?do_length@?$codecvt@DDU_Mbstatet@@@std@@MBEHAAU_Mbstatet@@PBD1I@Z 00434760 f i ui_control.obj
 0001:00033780       ?do_narrow@?$ctype@D@std@@MBEDDD@Z 00434780 f i ui_control.obj
 0001:00033790       ?do_narrow@?$ctype@D@std@@MBEPBDPBD0DPAD@Z 00434790 f i ui_control.obj
 0001:000337b0       ?do_tolower@?$ctype@D@std@@MBEDD@Z 004347b0 f i ui_control.obj
 0001:000337d0       ?do_tolower@?$ctype@D@std@@MBEPBDPADPBD@Z 004347d0 f i ui_control.obj
 0001:00033800       ?do_toupper@?$ctype@D@std@@MBEDD@Z 00434800 f i ui_control.obj
 0001:00033820       ?do_toupper@?$ctype@D@std@@MBEPBDPADPBD@Z 00434820 f i ui_control.obj
 0001:00033850       ?do_unshift@?$codecvt@DDU_Mbstatet@@@std@@MBEHAAU_Mbstatet@@PAD1AAPAD@Z 00434850 f i ui_control.obj
 0001:00033870       ?do_widen@?$ctype@D@std@@MBEDD@Z 00434870 f i ui_control.obj
 0001:00033880       ?do_widen@?$ctype@D@std@@MBEPBDPBD0PAD@Z 00434880 f i ui_control.obj
 0001:000338a0       ?dump@?$serializer@V?$basic_json@Uordered_map@nlohmann@@Vvector@std@@V?$basic_string@DU?$char_traits@D@std@@V?$allocator@D@2@@4@_N_J_KNVallocator@4@Uadl_serializer@2@V?$vector@EV?$allocator@E@std@@@4@@nlohmann@@@detail@nlohmann@@QAEXABV?$basic_json@Uordered_map@nlohmann@@Vvector@std@@V?$basic_string@DU?$char_traits@D@std@@V?$allocator@D@2@@4@_N_J_KNVallocator@4@Uadl_serializer@2@V?$vector@EV?$allocator@E@std@@@4@@3@_N1II@Z 004348a0 f i ui_control.obj
 0001:00034370       ?dump_escaped@?$serializer@V?$basic_json@Uordered_map@nlohmann@@Vvector@std@@V?$basic_string@DU?$char_traits@D@std@@V?$allocator@D@2@@4@_N_J_KNVallocator@4@Uadl_serializer@2@V?$vector@EV?$allocator@E@std@@@4@@nlohmann@@@detail@nlohmann@@AAEXABV?$basic_string@DU?$char_traits@D@std@@V?$allocator@D@2@@std@@_N@Z 00435370 f i ui_control.obj
 0001:000348b0       ?emplace@?$ordered_map@V?$basic_string@DU?$char_traits@D@std@@V?$allocator@D@2@@std@@V?$basic_json@Uordered_map@nlohmann@@Vvector@std@@V?$basic_string@DU?$char_traits@D@std@@V?$allocator@D@2@@4@_N_J_KNVallocator@4@Uadl_serializer@2@V?$vector@EV?$allocator@E@std@@@4@@nlohmann@@U?$less@X@2@V?$allocator@U?$pair@$$CBV?$basic_string@DU?$char_traits@D@std@@V?$allocator@D@2@@std@@V?$basic_json@Uordered_map@nlohmann@@Vvector@std@@V?$basic_string@DU?$char_traits@D@std@@V?$allocator@D@2@@4@_N_J_KNVallocator@4@Uadl_serializer@2@V?$vector@EV?$allocator@E@std@@@4@@nlohmann@@@std@@@2@@nlohmann@@QAE?AU?$pair@V?$_Vector_iterator@V?$_Vector_val@U?$_Simple_types@U?$pair@$$CBV?$basic_string@DU?$char_traits@D@std@@V?$allocator@D@2@@std@@V?$basic_json@Uordered_map@nlohmann@@Vvector@std@@V?$basic_string@DU?$char_traits@D@std@@V?$allocator@D@2@@4@_N_J_KNVallocator@4@Uadl_serializer@2@V?$vector@EV?$allocator@E@std@@@4@@nlohmann@@@std@@@std@@@std@@@std@@_N@std@@ABV?$basic_string@DU?$char_traits@D@std@@V?$allocator@D@2@@4@$$QAV?$basic_json@Uordered_map@nlohmann@@Vvector@std@@V?$basic_string@DU?$char_traits@D@std@@V?$allocator@D@2@@4@_N_J_KNVallocator@4@Uadl_serializer@2@V?$vector@EV?$allocator@E@std@@@4@@2@@Z 004358b0 f i ui_control.obj
 0001:00034a00       ?end_array@?$json_sax_dom_callback_parser@V?$basic_json@Uordered_map@nlohmann@@Vvector@std@@V?$basic_string@DU?$char_traits@D@std@@V?$allocator@D@2@@4@_N_J_KNVallocator@4@Uadl_serializer@2@V?$vector@EV?$allocator@E@std@@@4@@nlohmann@@@detail@nlohmann@@QAE_NXZ 00435a00 f i ui_control.obj
 0001:00034ae0       ?end_object@?$json_sax_dom_callback_parser@V?$basic_json@Uordered_map@nlohmann@@Vvector@std@@V?$basic_string@DU?$char_traits@D@std@@V?$allocator@D@2@@4@_N_J_KNVallocator@4@Uadl_serializer@2@V?$vector@EV?$allocator@E@std@@@4@@nlohmann@@@detail@nlohmann@@QAE_NXZ 00435ae0 f i ui_control.obj
 0001:00034d80       ?erase@?$vector@_NV?$allocator@_N@std@@@std@@QAE?AV?$_Vb_iterator@U?$_Wrap_alloc@V?$allocator@I@std@@@std@@@2@V?$_Vb_const_iterator@U?$_Wrap_alloc@V?$allocator@I@std@@@std@@@2@@Z 00435d80 f i ui_control.obj
 0001:00034f10       ?exception_message@?$parser@V?$basic_json@Uordered_map@nlohmann@@Vvector@std@@V?$basic_string@DU?$char_traits@D@std@@V?$allocator@D@2@@4@_N_J_KNVallocator@4@Uadl_serializer@2@V?$vector@EV?$allocator@E@std@@@4@@nlohmann@@Vinput_stream_adapter@detail@2@@detail@nlohmann@@AAE?AV?$basic_string@DU?$char_traits@D@std@@V?$allocator@D@2@@std@@W4token_type@?$lexer_base@V?$basic_json@Uordered_map@nlohmann@@Vvector@std@@V?$basic_string@DU?$char_traits@D@std@@V?$allocator@D@2@@4@_N_J_KNVallocator@4@Uadl_serializer@2@V?$vector@EV?$allocator@E@std@@@4@@nlohmann@@@23@ABV45@@Z 00435f10 f i ui_control.obj
 0001:00034f10       ?exception_message@?$parser@V?$basic_json@Vmap@std@@Vvector@2@V?$basic_string@DU?$char_traits@D@std@@V?$allocator@D@2@@2@_N_J_KNVallocator@2@Uadl_serializer@nlohmann@@V?$vector@EV?$allocator@E@std@@@2@@nlohmann@@V?$iterator_input_adapter@PBD@detail@2@@detail@nlohmann@@AAE?AV?$basic_string@DU?$char_traits@D@std@@V?$allocator@D@2@@std@@W4token_type@?$lexer_base@V?$basic_json@Vmap@std@@Vvector@2@V?$basic_string@DU?$char_traits@D@std@@V?$allocator@D@2@@2@_N_J_KNVallocator@2@Uadl_serializer@nlohmann@@V?$vector@EV?$allocator@E@std@@@2@@nlohmann@@@23@ABV45@@Z 00435f10 f i userprofile.obj
 0001:00034f10       ?exception_message@?$parser@V?$basic_json@Vmap@std@@Vvector@2@V?$basic_string@DU?$char_traits@D@std@@V?$allocator@D@2@@2@_N_J_KNVallocator@2@Uadl_serializer@nlohmann@@V?$vector@EV?$allocator@E@std@@@2@@nlohmann@@Vinput_stream_adapter@detail@2@@detail@nlohmann@@AAE?AV?$basic_string@DU?$char_traits@D@std@@V?$allocator@D@2@@std@@W4token_type@?$lexer_base@V?$basic_json@Vmap@std@@Vvector@2@V?$basic_string@DU?$char_traits@D@std@@V?$allocator@D@2@@2@_N_J_KNVallocator@2@Uadl_serializer@nlohmann@@V?$vector@EV?$allocator@E@std@@@2@@nlohmann@@@23@ABV45@@Z 00435f10 f i userprofile.obj
 0001:00035550       ?find@?$ordered_map@V?$basic_string@DU?$char_traits@D@std@@V?$allocator@D@2@@std@@V?$basic_json@Uordered_map@nlohmann@@Vvector@std@@V?$basic_string@DU?$char_traits@D@std@@V?$allocator@D@2@@4@_N_J_KNVallocator@4@Uadl_serializer@2@V?$vector@EV?$allocator@E@std@@@4@@nlohmann@@U?$less@X@2@V?$allocator@U?$pair@$$CBV?$basic_string@DU?$char_traits@D@std@@V?$allocator@D@2@@std@@V?$basic_json@Uordered_map@nlohmann@@Vvector@std@@V?$basic_string@DU?$char_traits@D@std@@V?$allocator@D@2@@4@_N_J_KNVallocator@4@Uadl_serializer@2@V?$vector@EV?$allocator@E@std@@@4@@nlohmann@@@std@@@2@@nlohmann@@QAE?AV?$_Vector_iterator@V?$_Vector_val@U?$_Simple_types@U?$pair@$$CBV?$basic_string@DU?$char_traits@D@std@@V?$allocator@D@2@@std@@V?$basic_json@Uordered_map@nlohmann@@Vvector@std@@V?$basic_string@DU?$char_traits@D@std@@V?$allocator@D@2@@4@_N_J_KNVallocator@4@Uadl_serializer@2@V?$vector@EV?$allocator@E@std@@@4@@nlohmann@@@std@@@std@@@std@@@std@@ABV?$basic_string@DU?$char_traits@D@std@@V?$allocator@D@2@@4@@Z 00436550 f i ui_control.obj
 0001:00035630       ?flush@?$basic_ostream@DU?$char_traits@D@std@@@std@@QAEAAV12@XZ 00436630 f i ui_control.obj
 0001:00035780       ?format_buffer@dtoa_impl@detail@nlohmann@@YAPADPADHHHH@Z 00436780 f i ui_control.obj
 0001:00035910       ?get@?$lexer@V?$basic_json@Uordered_map@nlohmann@@Vvector@std@@V?$basic_string@DU?$char_traits@D@std@@V?$allocator@D@2@@4@_N_J_KNVallocator@4@Uadl_serializer@2@V?$vector@EV?$allocator@E@std@@@4@@nlohmann@@Vinput_stream_adapter@detail@2@@detail@nlohmann@@AAEHXZ 00436910 f i ui_control.obj
 0001:00035910       ?get@?$lexer@V?$basic_json@Vmap@std@@Vvector@2@V?$basic_string@DU?$char_traits@D@std@@V?$allocator@D@2@@2@_N_J_KNVallocator@2@Uadl_serializer@nlohmann@@V?$vector@EV?$allocator@E@std@@@2@@nlohmann@@Vinput_stream_adapter@detail@2@@detail@nlohmann@@AAEHXZ 00436910 f i userprofile.obj
 0001:00035a00       ?get_codepoint@?$lexer@V?$basic_json@Uordered_map@nlohmann@@Vvector@std@@V?$basic_string@DU?$char_traits@D@std@@V?$allocator@D@2@@4@_N_J_KNVallocator@4@Uadl_serializer@2@V?$vector@EV?$allocator@E@std@@@4@@nlohmann@@Vinput_stream_adapter@detail@2@@detail@nlohmann@@AAEHXZ 00436a00 f i ui_control.obj
 0001:00035a00       ?get_codepoint@?$lexer@V?$basic_json@Vmap@std@@Vvector@2@V?$basic_string@DU?$char_traits@D@std@@V?$allocator@D@2@@2@_N_J_KNVallocator@2@Uadl_serializer@nlohmann@@V?$vector@EV?$allocator@E@std@@@2@@nlohmann@@Vinput_stream_adapter@detail@2@@detail@nlohmann@@AAEHXZ 00436a00 f i userprofile.obj
 0001:00035b90       ?get_token_string@?$lexer@V?$basic_json@Uordered_map@nlohmann@@Vvector@std@@V?$basic_string@DU?$char_traits@D@std@@V?$allocator@D@2@@4@_N_J_KNVallocator@4@Uadl_serializer@2@V?$vector@EV?$allocator@E@std@@@4@@nlohmann@@Vinput_stream_adapter@detail@2@@detail@nlohmann@@QBE?AV?$basic_string@DU?$char_traits@D@std@@V?$allocator@D@2@@std@@XZ 00436b90 f i ui_control.obj
 0001:00035b90       ?get_token_string@?$lexer@V?$basic_json@Vmap@std@@Vvector@2@V?$basic_string@DU?$char_traits@D@std@@V?$allocator@D@2@@2@_N_J_KNVallocator@2@Uadl_serializer@nlohmann@@V?$vector@EV?$allocator@E@std@@@2@@nlohmann@@V?$iterator_input_adapter@PBD@detail@2@@detail@nlohmann@@QBE?AV?$basic_string@DU?$char_traits@D@std@@V?$allocator@D@2@@std@@XZ 00436b90 f i userprofile.obj
 0001:00035b90       ?get_token_string@?$lexer@V?$basic_json@Vmap@std@@Vvector@2@V?$basic_string@DU?$char_traits@D@std@@V?$allocator@D@2@@2@_N_J_KNVallocator@2@Uadl_serializer@nlohmann@@V?$vector@EV?$allocator@E@std@@@2@@nlohmann@@Vinput_stream_adapter@detail@2@@detail@nlohmann@@QBE?AV?$basic_string@DU?$char_traits@D@std@@V?$allocator@D@2@@std@@XZ 00436b90 f i userprofile.obj
 0001:00035d90       ?grisu2_digit_gen@dtoa_impl@detail@nlohmann@@YAXPADAAH1Udiyfp@123@22@Z 00436d90 f i ui_control.obj
 0001:000360f0       ?grisu2_round@dtoa_impl@detail@nlohmann@@YAXPADH_K111@Z 004370f0 f i ui_control.obj
 0001:000361a0       ?imbue@?$basic_filebuf@DU?$char_traits@D@std@@@std@@MAEXABVlocale@2@@Z 004371a0 f i ui_control.obj
 0001:000361c0       ?init@?$basic_ios@DU?$char_traits@D@std@@@std@@IAEXPAV?$basic_streambuf@DU?$char_traits@D@std@@@2@_N@Z 004371c0 f i ui_control.obj
 0001:00036340       ?key@?$json_sax_dom_callback_parser@V?$basic_json@Uordered_map@nlohmann@@Vvector@std@@V?$basic_string@DU?$char_traits@D@std@@V?$allocator@D@2@@4@_N_J_KNVallocator@4@Uadl_serializer@2@V?$vector@EV?$allocator@E@std@@@4@@nlohmann@@@detail@nlohmann@@QAE_NAAV?$basic_string@DU?$char_traits@D@std@@V?$allocator@D@2@@std@@@Z 00437340 f i ui_control.obj
 0001:00036480       ?key@?$json_sax_dom_parser@V?$basic_json@Uordered_map@nlohmann@@Vvector@std@@V?$basic_string@DU?$char_traits@D@std@@V?$allocator@D@2@@4@_N_J_KNVallocator@4@Uadl_serializer@2@V?$vector@EV?$allocator@E@std@@@4@@nlohmann@@@detail@nlohmann@@QAE_NAAV?$basic_string@DU?$char_traits@D@std@@V?$allocator@D@2@@std@@@Z 00437480 f i ui_control.obj
 0001:00036510       ?make_bstr@wil@@YA?AV?$unique_any_t@V?$unique_storage@U?$resource_policy@PA_WP6GXPA_W@Z$1?SysFreeString@@YGX0@ZU?$integral_constant@I$0A@@wistd@@PA_WPA_W$0A@$$T@details@wil@@@details@wil@@@1@PB_W@Z 00437510 f i ui_control.obj
 0001:00036580       ?make_error_code@std@@YA?AVerror_code@1@W4io_errc@1@@Z 00437580 f i ui_control.obj
 0001:000365a0       ?message@_Iostream_error_category2@std@@UBE?AV?$basic_string@DU?$char_traits@D@std@@V?$allocator@D@2@@2@H@Z 004375a0 f i ui_control.obj
 0001:00036660       ?mul@diyfp@dtoa_impl@detail@nlohmann@@SA?AU1234@ABU1234@0@Z 00437660 f i ui_control.obj
 0001:00036700       ?name@_Iostream_error_category2@std@@UBEPBDXZ 00437700 f i ui_control.obj
 0001:00036710       ?name@exception@detail@nlohmann@@KA?AV?$basic_string@DU?$char_traits@D@std@@V?$allocator@D@2@@std@@ABV45@H@Z 00437710 f i ui_control.obj
 0001:00036950       ?next_byte_in_range@?$lexer@V?$basic_json@Uordered_map@nlohmann@@Vvector@std@@V?$basic_string@DU?$char_traits@D@std@@V?$allocator@D@2@@4@_N_J_KNVallocator@4@Uadl_serializer@2@V?$vector@EV?$allocator@E@std@@@4@@nlohmann@@Vinput_stream_adapter@detail@2@@detail@nlohmann@@AAE_NV?$initializer_list@H@std@@@Z 00437950 f i ui_control.obj
 0001:00036950       ?next_byte_in_range@?$lexer@V?$basic_json@Vmap@std@@Vvector@2@V?$basic_string@DU?$char_traits@D@std@@V?$allocator@D@2@@2@_N_J_KNVallocator@2@Uadl_serializer@nlohmann@@V?$vector@EV?$allocator@E@std@@@2@@nlohmann@@Vinput_stream_adapter@detail@2@@detail@nlohmann@@AAE_NV?$initializer_list@H@std@@@Z 00437950 f i userprofile.obj
 0001:00036aa0       ?normalize@diyfp@dtoa_impl@detail@nlohmann@@SA?AU1234@U1234@@Z 00437aa0 f i ui_control.obj
 0001:00036af0       ?open@?$basic_filebuf@DU?$char_traits@D@std@@@std@@QAEPAV12@PB_WHH@Z 00437af0 f i ui_control.obj
 0001:00036bb0       ?overflow@?$basic_filebuf@DU?$char_traits@D@std@@@std@@MAEHH@Z 00437bb0 f i ui_control.obj
 0001:00036d30       ?overflow@?$basic_streambuf@DU?$char_traits@D@std@@@std@@MAEHH@Z 00437d30 f i ui_control.obj
 0001:00036d30       ?pbackfail@?$basic_streambuf@DU?$char_traits@D@std@@@std@@MAEHH@Z 00437d30 f i ui_control.obj
 0001:00036d40       ?parse@?$parser@V?$basic_json@Uordered_map@nlohmann@@Vvector@std@@V?$basic_string@DU?$char_traits@D@std@@V?$allocator@D@2@@4@_N_J_KNVallocator@4@Uadl_serializer@2@V?$vector@EV?$allocator@E@std@@@4@@nlohmann@@Vinput_stream_adapter@detail@2@@detail@nlohmann@@QAEX_NAAV?$basic_json@Uordered_map@nlohmann@@Vvector@std@@V?$basic_string@DU?$char_traits@D@std@@V?$allocator@D@2@@4@_N_J_KNVallocator@4@Uadl_serializer@2@V?$vector@EV?$allocator@E@std@@@4@@3@@Z 00437d40 f i ui_control.obj
 0001:000373a0       ?pbackfail@?$basic_filebuf@DU?$char_traits@D@std@@@std@@MAEHH@Z 004383a0 f i ui_control.obj
 0001:00037450       ?pop_back@?$vector@_NV?$allocator@_N@std@@@std@@QAEXXZ 00438450 f i ui_control.obj
 0001:000374d0       ?position_string@parse_error@detail@nlohmann@@CA?AV?$basic_string@DU?$char_traits@D@std@@V?$allocator@D@2@@std@@ABUposition_t@23@@Z 004384d0 f i ui_control.obj
 0001:000376e0       ?push_back@?$basic_string@DU?$char_traits@D@std@@V?$allocator@D@2@@std@@QAEXD@Z 004386e0 f i ui_control.obj
 0001:00037810       ?push_back@?$vector@PAV?$basic_json@Uordered_map@nlohmann@@Vvector@std@@V?$basic_string@DU?$char_traits@D@std@@V?$allocator@D@2@@4@_N_J_KNVallocator@4@Uadl_serializer@2@V?$vector@EV?$allocator@E@std@@@4@@nlohmann@@V?$allocator@PAV?$basic_json@Uordered_map@nlohmann@@Vvector@std@@V?$basic_string@DU?$char_traits@D@std@@V?$allocator@D@2@@4@_N_J_KNVallocator@4@Uadl_serializer@2@V?$vector@EV?$allocator@E@std@@@4@@nlohmann@@@std@@@std@@QAEX$$QAPAV?$basic_json@Uordered_map@nlohmann@@Vvector@std@@V?$basic_string@DU?$char_traits@D@std@@V?$allocator@D@2@@4@_N_J_KNVallocator@4@Uadl_serializer@2@V?$vector@EV?$allocator@E@std@@@4@@nlohmann@@@Z 00438810 f i ui_control.obj
 0001:00037810       ?push_back@?$vector@PAV?$basic_json@Uordered_map@nlohmann@@Vvector@std@@V?$basic_string@DU?$char_traits@D@std@@V?$allocator@D@2@@4@_N_J_KNVallocator@4@Uadl_serializer@2@V?$vector@EV?$allocator@E@std@@@4@@nlohmann@@V?$allocator@PAV?$basic_json@Uordered_map@nlohmann@@Vvector@std@@V?$basic_string@DU?$char_traits@D@std@@V?$allocator@D@2@@4@_N_J_KNVallocator@4@Uadl_serializer@2@V?$vector@EV?$allocator@E@std@@@4@@nlohmann@@@std@@@std@@QAEXABQAV?$basic_json@Uordered_map@nlohmann@@Vvector@std@@V?$basic_string@DU?$char_traits@D@std@@V?$allocator@D@2@@4@_N_J_KNVallocator@4@Uadl_serializer@2@V?$vector@EV?$allocator@E@std@@@4@@nlohmann@@@Z 00438810 f i ui_control.obj
 0001:00037810       ?push_back@?$vector@PAV?$basic_json@Vmap@std@@Vvector@2@V?$basic_string@DU?$char_traits@D@std@@V?$allocator@D@2@@2@_N_J_KNVallocator@2@Uadl_serializer@nlohmann@@V?$vector@EV?$allocator@E@std@@@2@@nlohmann@@V?$allocator@PAV?$basic_json@Vmap@std@@Vvector@2@V?$basic_string@DU?$char_traits@D@std@@V?$allocator@D@2@@2@_N_J_KNVallocator@2@Uadl_serializer@nlohmann@@V?$vector@EV?$allocator@E@std@@@2@@nlohmann@@@std@@@std@@QAEX$$QAPAV?$basic_json@Vmap@std@@Vvector@2@V?$basic_string@DU?$char_traits@D@std@@V?$allocator@D@2@@2@_N_J_KNVallocator@2@Uadl_serializer@nlohmann@@V?$vector@EV?$allocator@E@std@@@2@@nlohmann@@@Z 00438810 f i userprofile.obj
 0001:00037810       ?push_back@?$vector@PAV?$basic_json@Vmap@std@@Vvector@2@V?$basic_string@DU?$char_traits@D@std@@V?$allocator@D@2@@2@_N_J_KNVallocator@2@Uadl_serializer@nlohmann@@V?$vector@EV?$allocator@E@std@@@2@@nlohmann@@V?$allocator@PAV?$basic_json@Vmap@std@@Vvector@2@V?$basic_string@DU?$char_traits@D@std@@V?$allocator@D@2@@2@_N_J_KNVallocator@2@Uadl_serializer@nlohmann@@V?$vector@EV?$allocator@E@std@@@2@@nlohmann@@@std@@@std@@QAEXABQAV?$basic_json@Vmap@std@@Vvector@2@V?$basic_string@DU?$char_traits@D@std@@V?$allocator@D@2@@2@_N_J_KNVallocator@2@Uadl_serializer@nlohmann@@V?$vector@EV?$allocator@E@std@@@2@@nlohmann@@@Z 00438810 f i userprofile.obj
 0001:00037810       ?push_back@?$vector@PB_WV?$allocator@PB_W@std@@@std@@QAEX$$QAPB_W@Z 00438810 f i update_checker.obj
 0001:00037900       ?push_back@?$vector@V?$basic_json@Uordered_map@nlohmann@@Vvector@std@@V?$basic_string@DU?$char_traits@D@std@@V?$allocator@D@2@@4@_N_J_KNVallocator@4@Uadl_serializer@2@V?$vector@EV?$allocator@E@std@@@4@@nlohmann@@V?$allocator@V?$basic_json@Uordered_map@nlohmann@@Vvector@std@@V?$basic_string@DU?$char_traits@D@std@@V?$allocator@D@2@@4@_N_J_KNVallocator@4@Uadl_serializer@2@V?$vector@EV?$allocator@E@std@@@4@@nlohmann@@@std@@@std@@QAEX$$QAV?$basic_json@Uordered_map@nlohmann@@Vvector@std@@V?$basic_string@DU?$char_traits@D@std@@V?$allocator@D@2@@4@_N_J_KNVallocator@4@Uadl_serializer@2@V?$vector@EV?$allocator@E@std@@@4@@nlohmann@@@Z 00438900 f i ui_control.obj
 0001:00037a40       ?push_back@?$vector@_NV?$allocator@_N@std@@@std@@QAEXAB_N@Z 00438a40 f i ui_control.obj
 0001:00037ae0       ?put@?$basic_ostream@DU?$char_traits@D@std@@@std@@QAEAAV12@D@Z 00438ae0 f i ui_control.obj
 0001:00037c70       ?release@?$unique_ptr@V?$basic_string@DU?$char_traits@D@std@@V?$allocator@D@2@@std@@V<lambda_1>@?1???$create@V?$basic_string@DU?$char_traits@D@std@@V?$allocator@D@2@@std@@AAY0CC@$$CBD@?$basic_json@Uordered_map@nlohmann@@Vvector@std@@V?$basic_string@DU?$char_traits@D@std@@V?$allocator@D@2@@4@_N_J_KNVallocator@4@Uadl_serializer@2@V?$vector@EV?$allocator@E@std@@@4@@nlohmann@@CAPAV12@AAY0CC@$$CBD@Z@@std@@QAEPAV?$basic_string@DU?$char_traits@D@std@@V?$allocator@D@2@@2@XZ 00438c70 f i ui_control.obj
 0001:00037c80       ?reserve@?$vector@V?$basic_json@Uordered_map@nlohmann@@Vvector@std@@V?$basic_string@DU?$char_traits@D@std@@V?$allocator@D@2@@4@_N_J_KNVallocator@4@Uadl_serializer@2@V?$vector@EV?$allocator@E@std@@@4@@nlohmann@@V?$allocator@V?$basic_json@Uordered_map@nlohmann@@Vvector@std@@V?$basic_string@DU?$char_traits@D@std@@V?$allocator@D@2@@4@_N_J_KNVallocator@4@Uadl_serializer@2@V?$vector@EV?$allocator@E@std@@@4@@nlohmann@@@std@@@std@@QAEXI@Z 00438c80 f i ui_control.obj
 0001:00037ce0       ?resize@?$basic_string@DU?$char_traits@D@std@@V?$allocator@D@2@@std@@QAEXID@Z 00438ce0 f i ui_control.obj
 0001:00037d10       ?scan@?$lexer@V?$basic_json@Uordered_map@nlohmann@@Vvector@std@@V?$basic_string@DU?$char_traits@D@std@@V?$allocator@D@2@@4@_N_J_KNVallocator@4@Uadl_serializer@2@V?$vector@EV?$allocator@E@std@@@4@@nlohmann@@Vinput_stream_adapter@detail@2@@detail@nlohmann@@QAE?AW4token_type@?$lexer_base@V?$basic_json@Uordered_map@nlohmann@@Vvector@std@@V?$basic_string@DU?$char_traits@D@std@@V?$allocator@D@2@@4@_N_J_KNVallocator@4@Uadl_serializer@2@V?$vector@EV?$allocator@E@std@@@4@@nlohmann@@@23@XZ 00438d10 f i ui_control.obj
 0001:00037d10       ?scan@?$lexer@V?$basic_json@Vmap@std@@Vvector@2@V?$basic_string@DU?$char_traits@D@std@@V?$allocator@D@2@@2@_N_J_KNVallocator@2@Uadl_serializer@nlohmann@@V?$vector@EV?$allocator@E@std@@@2@@nlohmann@@Vinput_stream_adapter@detail@2@@detail@nlohmann@@QAE?AW4token_type@?$lexer_base@V?$basic_json@Vmap@std@@Vvector@2@V?$basic_string@DU?$char_traits@D@std@@V?$allocator@D@2@@2@_N_J_KNVallocator@2@Uadl_serializer@nlohmann@@V?$vector@EV?$allocator@E@std@@@2@@nlohmann@@@23@XZ 00438d10 f i userprofile.obj
 0001:00038070       ?scan_comment@?$lexer@V?$basic_json@Uordered_map@nlohmann@@Vvector@std@@V?$basic_string@DU?$char_traits@D@std@@V?$allocator@D@2@@4@_N_J_KNVallocator@4@Uadl_serializer@2@V?$vector@EV?$allocator@E@std@@@4@@nlohmann@@Vinput_stream_adapter@detail@2@@detail@nlohmann@@AAE_NXZ 00439070 f i ui_control.obj
 0001:00038070       ?scan_comment@?$lexer@V?$basic_json@Vmap@std@@Vvector@2@V?$basic_string@DU?$char_traits@D@std@@V?$allocator@D@2@@2@_N_J_KNVallocator@2@Uadl_serializer@nlohmann@@V?$vector@EV?$allocator@E@std@@@2@@nlohmann@@Vinput_stream_adapter@detail@2@@detail@nlohmann@@AAE_NXZ 00439070 f i userprofile.obj
 0001:00038220       ?scan_literal@?$lexer@V?$basic_json@Uordered_map@nlohmann@@Vvector@std@@V?$basic_string@DU?$char_traits@D@std@@V?$allocator@D@2@@4@_N_J_KNVallocator@4@Uadl_serializer@2@V?$vector@EV?$allocator@E@std@@@4@@nlohmann@@Vinput_stream_adapter@detail@2@@detail@nlohmann@@AAE?AW4token_type@?$lexer_base@V?$basic_json@Uordered_map@nlohmann@@Vvector@std@@V?$basic_string@DU?$char_traits@D@std@@V?$allocator@D@2@@4@_N_J_KNVallocator@4@Uadl_serializer@2@V?$vector@EV?$allocator@E@std@@@4@@nlohmann@@@23@PBDIW44523@@Z 00439220 f i ui_control.obj
 0001:00038220       ?scan_literal@?$lexer@V?$basic_json@Vmap@std@@Vvector@2@V?$basic_string@DU?$char_traits@D@std@@V?$allocator@D@2@@2@_N_J_KNVallocator@2@Uadl_serializer@nlohmann@@V?$vector@EV?$allocator@E@std@@@2@@nlohmann@@Vinput_stream_adapter@detail@2@@detail@nlohmann@@AAE?AW4token_type@?$lexer_base@V?$basic_json@Vmap@std@@Vvector@2@V?$basic_string@DU?$char_traits@D@std@@V?$allocator@D@2@@2@_N_J_KNVallocator@2@Uadl_serializer@nlohmann@@V?$vector@EV?$allocator@E@std@@@2@@nlohmann@@@23@PBDIW44523@@Z 00439220 f i userprofile.obj
 0001:00038360       ?scan_number@?$lexer@V?$basic_json@Uordered_map@nlohmann@@Vvector@std@@V?$basic_string@DU?$char_traits@D@std@@V?$allocator@D@2@@4@_N_J_KNVallocator@4@Uadl_serializer@2@V?$vector@EV?$allocator@E@std@@@4@@nlohmann@@Vinput_stream_adapter@detail@2@@detail@nlohmann@@AAE?AW4token_type@?$lexer_base@V?$basic_json@Uordered_map@nlohmann@@Vvector@std@@V?$basic_string@DU?$char_traits@D@std@@V?$allocator@D@2@@4@_N_J_KNVallocator@4@Uadl_serializer@2@V?$vector@EV?$allocator@E@std@@@4@@nlohmann@@@23@XZ 00439360 f i ui_control.obj
 0001:00038360       ?scan_number@?$lexer@V?$basic_json@Vmap@std@@Vvector@2@V?$basic_string@DU?$char_traits@D@std@@V?$allocator@D@2@@2@_N_J_KNVallocator@2@Uadl_serializer@nlohmann@@V?$vector@EV?$allocator@E@std@@@2@@nlohmann@@Vinput_stream_adapter@detail@2@@detail@nlohmann@@AAE?AW4token_type@?$lexer_base@V?$basic_json@Vmap@std@@Vvector@2@V?$basic_string@DU?$char_traits@D@std@@V?$allocator@D@2@@2@_N_J_KNVallocator@2@Uadl_serializer@nlohmann@@V?$vector@EV?$allocator@E@std@@@2@@nlohmann@@@23@XZ 00439360 f i userprofile.obj
 0001:00038a30       ?scan_string@?$lexer@V?$basic_json@Uordered_map@nlohmann@@Vvector@std@@V?$basic_string@DU?$char_traits@D@std@@V?$allocator@D@2@@4@_N_J_KNVallocator@4@Uadl_serializer@2@V?$vector@EV?$allocator@E@std@@@4@@nlohmann@@Vinput_stream_adapter@detail@2@@detail@nlohmann@@AAE?AW4token_type@?$lexer_base@V?$basic_json@Uordered_map@nlohmann@@Vvector@std@@V?$basic_string@DU?$char_traits@D@std@@V?$allocator@D@2@@4@_N_J_KNVallocator@4@Uadl_serializer@2@V?$vector@EV?$allocator@E@std@@@4@@nlohmann@@@23@XZ 00439a30 f i ui_control.obj
 0001:00038a30       ?scan_string@?$lexer@V?$basic_json@Vmap@std@@Vvector@2@V?$basic_string@DU?$char_traits@D@std@@V?$allocator@D@2@@2@_N_J_KNVallocator@2@Uadl_serializer@nlohmann@@V?$vector@EV?$allocator@E@std@@@2@@nlohmann@@Vinput_stream_adapter@detail@2@@detail@nlohmann@@AAE?AW4token_type@?$lexer_base@V?$basic_json@Vmap@std@@Vvector@2@V?$basic_string@DU?$char_traits@D@std@@V?$allocator@D@2@@2@_N_J_KNVallocator@2@Uadl_serializer@nlohmann@@V?$vector@EV?$allocator@E@std@@@2@@nlohmann@@@23@XZ 00439a30 f i userprofile.obj
 0001:00039270       ?seekoff@?$basic_filebuf@DU?$char_traits@D@std@@@std@@MAE?AV?$fpos@U_Mbstatet@@@2@_JHH@Z 0043a270 f i ui_control.obj
 0001:00039350       ?seekoff@?$basic_streambuf@DU?$char_traits@D@std@@@std@@MAE?AV?$fpos@U_Mbstatet@@@2@_JHH@Z 0043a350 f i ui_control.obj
 0001:00039380       ?seekpos@?$basic_filebuf@DU?$char_traits@D@std@@@std@@MAE?AV?$fpos@U_Mbstatet@@@2@V32@H@Z 0043a380 f i ui_control.obj
 0001:00039450       ?seekpos@?$basic_streambuf@DU?$char_traits@D@std@@@std@@MAE?AV?$fpos@U_Mbstatet@@@2@V32@H@Z 0043a450 f i ui_control.obj
 0001:00039480       ?setbuf@?$basic_filebuf@DU?$char_traits@D@std@@@std@@MAEPAV?$basic_streambuf@DU?$char_traits@D@std@@@2@PAD_J@Z 0043a480 f i ui_control.obj
 0001:000394e0       ?setbuf@?$basic_streambuf@DU?$char_traits@D@std@@@std@@MAEPAV12@PAD_J@Z 0043a4e0 f i ui_control.obj
 0001:000394f0       ?setstate@?$basic_ios@DU?$char_traits@D@std@@@std@@QAEXH_N@Z 0043a4f0 f i ui_control.obj
 0001:00039520       ?showmanyc@?$basic_streambuf@DU?$char_traits@D@std@@@std@@MAE_JXZ 0043a520 f i ui_control.obj
 0001:00039530       ?size@?$basic_string@DU?$char_traits@D@std@@V?$allocator@D@2@@std@@QBEIXZ 0043a530 f i ui_control.obj
 0001:00039540       ?skip_whitespace@?$lexer@V?$basic_json@Uordered_map@nlohmann@@Vvector@std@@V?$basic_string@DU?$char_traits@D@std@@V?$allocator@D@2@@4@_N_J_KNVallocator@4@Uadl_serializer@2@V?$vector@EV?$allocator@E@std@@@4@@nlohmann@@Vinput_stream_adapter@detail@2@@detail@nlohmann@@QAEXXZ 0043a540 f i ui_control.obj
 0001:00039540       ?skip_whitespace@?$lexer@V?$basic_json@Vmap@std@@Vvector@2@V?$basic_string@DU?$char_traits@D@std@@V?$allocator@D@2@@2@_N_J_KNVallocator@2@Uadl_serializer@nlohmann@@V?$vector@EV?$allocator@E@std@@@2@@nlohmann@@Vinput_stream_adapter@detail@2@@detail@nlohmann@@QAEXXZ 0043a540 f i userprofile.obj
 0001:00039660       ?sync@?$basic_filebuf@DU?$char_traits@D@std@@@std@@MAEHXZ 0043a660 f i ui_control.obj
 0001:00039690       ?sync@?$basic_streambuf@DU?$char_traits@D@std@@@std@@MAEHXZ 0043a690 f i ui_control.obj
 0001:00039690       ___scrt_exe_initialize_mta 0043a690 f i LIBCMT:utility_desktop.obj
 0001:00039690       ___scrt_initialize_winrt   0043a690 f i LIBCMT:utility_desktop.obj
 0001:00039690       ___scrt_stub_for_initialize_mta 0043a690 f i LIBCMT:utility_desktop.obj
 0001:00039690       __get_startup_commit_mode  0043a690 f i LIBCMT:commit_mode.obj
 0001:00039690       __get_startup_new_mode     0043a690 f i LIBCMT:new_mode.obj
 0001:00039690       __get_startup_thread_locale_mode 0043a690 f i LIBCMT:thread_locale.obj
 0001:00039690       __matherr                  0043a690 f i LIBCMT:matherr.obj
 0001:000396a0       ?to_string@std@@YA?AV?$basic_string@DU?$char_traits@D@std@@V?$allocator@D@2@@1@I@Z 0043a6a0 f i ui_control.obj
 0001:000396f0       ?token_type_name@?$lexer_base@V?$basic_json@Uordered_map@nlohmann@@Vvector@std@@V?$basic_string@DU?$char_traits@D@std@@V?$allocator@D@2@@4@_N_J_KNVallocator@4@Uadl_serializer@2@V?$vector@EV?$allocator@E@std@@@4@@nlohmann@@@detail@nlohmann@@SAPBDW4token_type@123@@Z 0043a6f0 f i ui_control.obj
 0001:000396f0       ?token_type_name@?$lexer_base@V?$basic_json@Vmap@std@@Vvector@2@V?$basic_string@DU?$char_traits@D@std@@V?$allocator@D@2@@2@_N_J_KNVallocator@2@Uadl_serializer@nlohmann@@V?$vector@EV?$allocator@E@std@@@2@@nlohmann@@@detail@nlohmann@@SAPBDW4token_type@123@@Z 0043a6f0 f i userprofile.obj
 0001:000397c0       ?type_name@?$basic_json@Uordered_map@nlohmann@@Vvector@std@@V?$basic_string@DU?$char_traits@D@std@@V?$allocator@D@2@@4@_N_J_KNVallocator@4@Uadl_serializer@2@V?$vector@EV?$allocator@E@std@@@4@@nlohmann@@QBEPBDXZ 0043a7c0 f i ui_control.obj
 0001:000397c0       ?type_name@?$basic_json@Vmap@std@@Vvector@2@V?$basic_string@DU?$char_traits@D@std@@V?$allocator@D@2@@2@_N_J_KNVallocator@2@Uadl_serializer@nlohmann@@V?$vector@EV?$allocator@E@std@@@2@@nlohmann@@QBEPBDXZ 0043a7c0 f i userprofile.obj
 0001:00039830       ?uflow@?$basic_filebuf@DU?$char_traits@D@std@@@std@@MAEHXZ 0043a830 f i ui_control.obj
 0001:00039b90       ?uflow@?$basic_streambuf@DU?$char_traits@D@std@@@std@@MAEHXZ 0043ab90 f i ui_control.obj
 0001:00039bc0       ?underflow@?$basic_filebuf@DU?$char_traits@D@std@@@std@@MAEHXZ 0043abc0 f i ui_control.obj
 0001:00039c00       ?underflow@?$basic_streambuf@DU?$char_traits@D@std@@@std@@MAEHXZ 0043ac00 f i ui_control.obj
 0001:00039c10       ?what@exception@detail@nlohmann@@UBEPBDXZ 0043ac10 f i ui_control.obj
 0001:00039c50       ?write@?$basic_ostream@DU?$char_traits@D@std@@@std@@QAEAAV12@PBD_J@Z 0043ac50 f i ui_control.obj
 0001:00039db0       ?write_character@?$output_stream_adapter@D@detail@nlohmann@@UAEXD@Z 0043adb0 f i ui_control.obj
 0001:00039dc0       ?write_characters@?$output_stream_adapter@D@detail@nlohmann@@UAEXPBDI@Z 0043adc0 f i ui_control.obj
 0001:00039de0       ?xsgetn@?$basic_filebuf@DU?$char_traits@D@std@@@std@@MAE_JPAD_J@Z 0043ade0 f i ui_control.obj
 0001:00039fb0       ?xsgetn@?$basic_streambuf@DU?$char_traits@D@std@@@std@@MAE_JPAD_J@Z 0043afb0 f i ui_control.obj
 0001:0003a080       ?xsputn@?$basic_filebuf@DU?$char_traits@D@std@@@std@@MAE_JPBD_J@Z 0043b080 f i ui_control.obj
 0001:0003a230       ?xsputn@?$basic_streambuf@DU?$char_traits@D@std@@@std@@MAE_JPBD_J@Z 0043b230 f i ui_control.obj
 0001:0003a310       _snprintf                  0043b310 f i ui_control.obj
 0001:0003a350       ??$make_unique@VCWinHTTPSimple@@UCWinHTTPSimpleOptions@@_N$0A@@std@@YA?AV?$unique_ptr@VCWinHTTPSimple@@U?$default_delete@VCWinHTTPSimple@@@std@@@0@$$QAUCWinHTTPSimpleOptions@@$$QA_N@Z 0043b350 f i update_checker.obj
 0001:0003a3e0       ??0?$basic_string@_WU?$char_traits@_W@std@@V?$allocator@_W@2@@std@@QAE@U_String_constructor_concat_tag@1@AAV01@1@Z 0043b3e0 f i update_checker.obj
 0001:0003a590       ??0?$function@$$A6AXXZ@std@@QAE@$$QAV01@@Z 0043b590 f i update_checker.obj
 0001:0003a5f0       ??0CAsyncDownloader@WinHTTPWrappers@@QAE@XZ 0043b5f0 f i update_checker.obj
 0001:0003a780       ??0CWinHTTPSimple@@QAE@UCWinHTTPSimpleOptions@@_N@Z 0043b780 f i update_checker.obj
 0001:0003b170       ??0CWinHTTPSimpleOptions@@QAE@$$QAU0@@Z 0043c170 f i update_checker.obj
 0001:0003b520       ??0CWinHTTPSimpleOptions@@QAE@XZ 0043c520 f i update_checker.obj
 0001:0003b6a0       ??0UpdateChecker@@QAE@KV?$function@$$A6AXXZ@std@@@Z 0043c6a0 f   update_checker.obj
 0001:0003b980       ??1?$lock_guard@Vmutex@std@@@std@@QAE@XZ 0043c980 f i update_checker.obj
 0001:0003b990       ??1?$unique_ptr@VCWinHTTPSimple@@U?$default_delete@VCWinHTTPSimple@@@std@@@std@@QAE@XZ 0043c990 f i update_checker.obj
 0001:0003b9b0       ??1CConnection@WinHTTPWrappers@@UAE@XZ 0043c9b0 f i update_checker.obj
 0001:0003b9b0       ??1CSession@WinHTTPWrappers@@UAE@XZ 0043c9b0 f i update_checker.obj
 0001:0003b9d0       ??1CHandle@ATL@@QAE@XZ     0043c9d0 f i update_checker.obj
 0001:0003b9f0       ??1CSyncDownloader@WinHTTPWrappers@@UAE@XZ 0043c9f0 f i update_checker.obj
 0001:0003ba00       ??1CWinHTTPSimpleOptions@@QAE@XZ 0043ca00 f i update_checker.obj
 0001:0003ba80       ??4?$basic_string@_WU?$char_traits@_W@std@@V?$allocator@_W@2@@std@@QAEAAV01@QB_W@Z 0043ca80 f i update_checker.obj
 0001:0003bb80       ?Abort@UpdateChecker@@QAEXXZ 0043cb80 f   update_checker.obj
 0001:0003bc00       ?AtlThrowLastWin32@ATL@@YGXXZ 0043cc00 f i update_checker.obj
 0001:0003bc20       ?Create@CAtlFile@ATL@@QAEJPB_WKKKKPAU_SECURITY_ATTRIBUTES@@PAX@Z 0043cc20 f i update_checker.obj
 0001:0003c010       ?HandleResponse@UpdateChecker@@QAE?AUResult@1@XZ 0043d010 f   update_checker.obj
 0001:0003c130       ?Initialize@CAsyncDownloader@WinHTTPWrappers@@QAEJABVCConnection@2@PB_W111PAPB_WKKK@Z 0043d130 f i update_checker.obj
 0001:0003c3d0       ?OnRequestDone@UpdateChecker@@AAEXXZ 0043d3d0 f   update_checker.obj
 0001:0003c640       ?Seek@CAtlFile@ATL@@QAEJ_JK@Z 0043d640 f i update_checker.obj
 0001:0003c680       ?SendRequest@CWinHTTPSimple@@QAEJV?$function@$$A6AXXZ@std@@@Z 0043d680 f i update_checker.obj
 0001:0003c7f0       ?_Callback@CHandle@WinHTTPWrappers@@KGXPAXKK0K@Z 0043d7f0 f i update_checker.obj
 0001:0003c8c0       ?reset@?$unique_ptr@VCWinHTTPSimple@@U?$default_delete@VCWinHTTPSimple@@@std@@@std@@QAEXPAVCWinHTTPSimple@@@Z 0043d8c0 f i update_checker.obj
 0001:0003c8f0       ?resize@?$vector@EV?$allocator@E@std@@@std@@QAEXI@Z 0043d8f0 f i update_checker.obj
 0001:0003c9d0       ??$?0Vpath@filesystem@std@@$0A@@?$basic_ofstream@DU?$char_traits@D@std@@@std@@QAE@ABVpath@filesystem@1@HH@Z 0043d9d0 f i userprofile.obj
 0001:0003cb40       ??$?9PBD$0A@@nlohmann@@YA_NABV?$basic_json@Vmap@std@@Vvector@2@V?$basic_string@DU?$char_traits@D@std@@V?$allocator@D@2@@2@_N_J_KNVallocator@2@Uadl_serializer@nlohmann@@V?$vector@EV?$allocator@E@std@@@2@@0@QBD@Z 0043db40 f i userprofile.obj
 0001:0003cbf0       ??$?A$$CBD@?$basic_json@Vmap@std@@Vvector@2@V?$basic_string@DU?$char_traits@D@std@@V?$allocator@D@2@@2@_N_J_KNVallocator@2@Uadl_serializer@nlohmann@@V?$vector@EV?$allocator@E@std@@@2@@nlohmann@@QAEAAV01@PBD@Z 0043dbf0 f i userprofile.obj
 0001:0003ce20       ??$_Copy_nodes@$0A@@?$_Tree@V?$_Tmap_traits@V?$basic_string@DU?$char_traits@D@std@@V?$allocator@D@2@@std@@V?$basic_json@Vmap@std@@Vvector@2@V?$basic_string@DU?$char_traits@D@std@@V?$allocator@D@2@@2@_N_J_KNVallocator@2@Uadl_serializer@nlohmann@@V?$vector@EV?$allocator@E@std@@@2@@nlohmann@@U?$less@X@2@V?$allocator@U?$pair@$$CBV?$basic_string@DU?$char_traits@D@std@@V?$allocator@D@2@@std@@V?$basic_json@Vmap@std@@Vvector@2@V?$basic_string@DU?$char_traits@D@std@@V?$allocator@D@2@@2@_N_J_KNVallocator@2@Uadl_serializer@nlohmann@@V?$vector@EV?$allocator@E@std@@@2@@nlohmann@@@std@@@2@$0A@@std@@@std@@IAEPAU?$_Tree_node@U?$pair@$$CBV?$basic_string@DU?$char_traits@D@std@@V?$allocator@D@2@@std@@V?$basic_json@Vmap@std@@Vvector@2@V?$basic_string@DU?$char_traits@D@std@@V?$allocator@D@2@@2@_N_J_KNVallocator@2@Uadl_serializer@nlohmann@@V?$vector@EV?$allocator@E@std@@@2@@nlohmann@@@std@@PAX@1@PAU21@0@Z 0043de20 f i userprofile.obj
 0001:0003cf20       ??$_Emplace_one_at_back@$$T@?$vector@V?$basic_json@Vmap@std@@Vvector@2@V?$basic_string@DU?$char_traits@D@std@@V?$allocator@D@2@@2@_N_J_KNVallocator@2@Uadl_serializer@nlohmann@@V?$vector@EV?$allocator@E@std@@@2@@nlohmann@@V?$allocator@V?$basic_json@Vmap@std@@Vvector@2@V?$basic_string@DU?$char_traits@D@std@@V?$allocator@D@2@@2@_N_J_KNVallocator@2@Uadl_serializer@nlohmann@@V?$vector@EV?$allocator@E@std@@@2@@nlohmann@@@std@@@std@@AAEAAV?$basic_json@Vmap@std@@Vvector@2@V?$basic_string@DU?$char_traits@D@std@@V?$allocator@D@2@@2@_N_J_KNVallocator@2@Uadl_serializer@nlohmann@@V?$vector@EV?$allocator@E@std@@@2@@nlohmann@@$$QA$$T@Z 0043df20 f i userprofile.obj
 0001:0003d090       ??$_Emplace_one_at_back@AAN@?$vector@V?$basic_json@Vmap@std@@Vvector@2@V?$basic_string@DU?$char_traits@D@std@@V?$allocator@D@2@@2@_N_J_KNVallocator@2@Uadl_serializer@nlohmann@@V?$vector@EV?$allocator@E@std@@@2@@nlohmann@@V?$allocator@V?$basic_json@Vmap@std@@Vvector@2@V?$basic_string@DU?$char_traits@D@std@@V?$allocator@D@2@@2@_N_J_KNVallocator@2@Uadl_serializer@nlohmann@@V?$vector@EV?$allocator@E@std@@@2@@nlohmann@@@std@@@std@@AAEAAV?$basic_json@Vmap@std@@Vvector@2@V?$basic_string@DU?$char_traits@D@std@@V?$allocator@D@2@@2@_N_J_KNVallocator@2@Uadl_serializer@nlohmann@@V?$vector@EV?$allocator@E@std@@@2@@nlohmann@@AAN@Z 0043e090 f i userprofile.obj
 0001:0003d1e0       ??$_Emplace_one_at_back@AA_J@?$vector@V?$basic_json@Vmap@std@@Vvector@2@V?$basic_string@DU?$char_traits@D@std@@V?$allocator@D@2@@2@_N_J_KNVallocator@2@Uadl_serializer@nlohmann@@V?$vector@EV?$allocator@E@std@@@2@@nlohmann@@V?$allocator@V?$basic_json@Vmap@std@@Vvector@2@V?$basic_string@DU?$char_traits@D@std@@V?$allocator@D@2@@2@_N_J_KNVallocator@2@Uadl_serializer@nlohmann@@V?$vector@EV?$allocator@E@std@@@2@@nlohmann@@@std@@@std@@AAEAAV?$basic_json@Vmap@std@@Vvector@2@V?$basic_string@DU?$char_traits@D@std@@V?$allocator@D@2@@2@_N_J_KNVallocator@2@Uadl_serializer@nlohmann@@V?$vector@EV?$allocator@E@std@@@2@@nlohmann@@AA_J@Z 0043e1e0 f i userprofile.obj
 0001:0003d320       ??$_Emplace_one_at_back@AA_K@?$vector@V?$basic_json@Vmap@std@@Vvector@2@V?$basic_string@DU?$char_traits@D@std@@V?$allocator@D@2@@2@_N_J_KNVallocator@2@Uadl_serializer@nlohmann@@V?$vector@EV?$allocator@E@std@@@2@@nlohmann@@V?$allocator@V?$basic_json@Vmap@std@@Vvector@2@V?$basic_string@DU?$char_traits@D@std@@V?$allocator@D@2@@2@_N_J_KNVallocator@2@Uadl_serializer@nlohmann@@V?$vector@EV?$allocator@E@std@@@2@@nlohmann@@@std@@@std@@AAEAAV?$basic_json@Vmap@std@@Vvector@2@V?$basic_string@DU?$char_traits@D@std@@V?$allocator@D@2@@2@_N_J_KNVallocator@2@Uadl_serializer@nlohmann@@V?$vector@EV?$allocator@E@std@@@2@@nlohmann@@AA_K@Z 0043e320 f i userprofile.obj
 0001:0003d460       ??$_Emplace_one_at_back@AA_N@?$vector@V?$basic_json@Vmap@std@@Vvector@2@V?$basic_string@DU?$char_traits@D@std@@V?$allocator@D@2@@2@_N_J_KNVallocator@2@Uadl_serializer@nlohmann@@V?$vector@EV?$allocator@E@std@@@2@@nlohmann@@V?$allocator@V?$basic_json@Vmap@std@@Vvector@2@V?$basic_string@DU?$char_traits@D@std@@V?$allocator@D@2@@2@_N_J_KNVallocator@2@Uadl_serializer@nlohmann@@V?$vector@EV?$allocator@E@std@@@2@@nlohmann@@@std@@@std@@AAEAAV?$basic_json@Vmap@std@@Vvector@2@V?$basic_string@DU?$char_traits@D@std@@V?$allocator@D@2@@2@_N_J_KNVallocator@2@Uadl_serializer@nlohmann@@V?$vector@EV?$allocator@E@std@@@2@@nlohmann@@AA_N@Z 0043e460 f i userprofile.obj
 0001:0003d5b0       ??$_Emplace_one_at_back@W4value_t@detail@nlohmann@@@?$vector@V?$basic_json@Vmap@std@@Vvector@2@V?$basic_string@DU?$char_traits@D@std@@V?$allocator@D@2@@2@_N_J_KNVallocator@2@Uadl_serializer@nlohmann@@V?$vector@EV?$allocator@E@std@@@2@@nlohmann@@V?$allocator@V?$basic_json@Vmap@std@@Vvector@2@V?$basic_string@DU?$char_traits@D@std@@V?$allocator@D@2@@2@_N_J_KNVallocator@2@Uadl_serializer@nlohmann@@V?$vector@EV?$allocator@E@std@@@2@@nlohmann@@@std@@@std@@AAEAAV?$basic_json@Vmap@std@@Vvector@2@V?$basic_string@DU?$char_traits@D@std@@V?$allocator@D@2@@2@_N_J_KNVallocator@2@Uadl_serializer@nlohmann@@V?$vector@EV?$allocator@E@std@@@2@@nlohmann@@$$QAW4value_t@detail@3@@Z 0043e5b0 f i userprofile.obj
 0001:0003d720       ??$_Emplace_reallocate@AAV?$basic_string@DU?$char_traits@D@std@@V?$allocator@D@2@@std@@@?$vector@V?$basic_json@Vmap@std@@Vvector@2@V?$basic_string@DU?$char_traits@D@std@@V?$allocator@D@2@@2@_N_J_KNVallocator@2@Uadl_serializer@nlohmann@@V?$vector@EV?$allocator@E@std@@@2@@nlohmann@@V?$allocator@V?$basic_json@Vmap@std@@Vvector@2@V?$basic_string@DU?$char_traits@D@std@@V?$allocator@D@2@@2@_N_J_KNVallocator@2@Uadl_serializer@nlohmann@@V?$vector@EV?$allocator@E@std@@@2@@nlohmann@@@std@@@std@@AAEPAV?$basic_json@Vmap@std@@Vvector@2@V?$basic_string@DU?$char_traits@D@std@@V?$allocator@D@2@@2@_N_J_KNVallocator@2@Uadl_serializer@nlohmann@@V?$vector@EV?$allocator@E@std@@@2@@nlohmann@@QAV23@AAV?$basic_string@DU?$char_traits@D@std@@V?$allocator@D@2@@1@@Z 0043e720 f i userprofile.obj
 0001:0003d880       ??$_Erase_tree@V?$allocator@U?$_Tree_node@U?$pair@$$CBV?$basic_string@DU?$char_traits@D@std@@V?$allocator@D@2@@std@@V?$basic_json@Vmap@std@@Vvector@2@V?$basic_string@DU?$char_traits@D@std@@V?$allocator@D@2@@2@_N_J_KNVallocator@2@Uadl_serializer@nlohmann@@V?$vector@EV?$allocator@E@std@@@2@@nlohmann@@@std@@PAX@std@@@std@@@?$_Tree_val@U?$_Tree_simple_types@U?$pair@$$CBV?$basic_string@DU?$char_traits@D@std@@V?$allocator@D@2@@std@@V?$basic_json@Vmap@std@@Vvector@2@V?$basic_string@DU?$char_traits@D@std@@V?$allocator@D@2@@2@_N_J_KNVallocator@2@Uadl_serializer@nlohmann@@V?$vector@EV?$allocator@E@std@@@2@@nlohmann@@@std@@@std@@@std@@QAEXAAV?$allocator@U?$_Tree_node@U?$pair@$$CBV?$basic_string@DU?$char_traits@D@std@@V?$allocator@D@2@@std@@V?$basic_json@Vmap@std@@Vvector@2@V?$basic_string@DU?$char_traits@D@std@@V?$allocator@D@2@@2@_N_J_KNVallocator@2@Uadl_serializer@nlohmann@@V?$vector@EV?$allocator@E@std@@@2@@nlohmann@@@std@@PAX@std@@@1@PAU?$_Tree_node@U?$pair@$$CBV?$basic_string@DU?$char_traits@D@std@@V?$allocator@D@2@@std@@V?$basic_json@Vmap@std@@Vvector@2@V?$basic_string@DU?$char_traits@D@std@@V?$allocator@D@2@@2@_N_J_KNVallocator@2@Uadl_serializer@nlohmann@@V?$vector@EV?$allocator@E@std@@@2@@nlohmann@@@std@@PAX@1@@Z 0043e880 f i userprofile.obj
 0001:0003d880       ??$_Erase_tree_and_orphan@V?$allocator@U?$_Tree_node@U?$pair@$$CBV?$basic_string@DU?$char_traits@D@std@@V?$allocator@D@2@@std@@V?$basic_json@Vmap@std@@Vvector@2@V?$basic_string@DU?$char_traits@D@std@@V?$allocator@D@2@@2@_N_J_KNVallocator@2@Uadl_serializer@nlohmann@@V?$vector@EV?$allocator@E@std@@@2@@nlohmann@@@std@@PAX@std@@@std@@@?$_Tree_val@U?$_Tree_simple_types@U?$pair@$$CBV?$basic_string@DU?$char_traits@D@std@@V?$allocator@D@2@@std@@V?$basic_json@Vmap@std@@Vvector@2@V?$basic_string@DU?$char_traits@D@std@@V?$allocator@D@2@@2@_N_J_KNVallocator@2@Uadl_serializer@nlohmann@@V?$vector@EV?$allocator@E@std@@@2@@nlohmann@@@std@@@std@@@std@@QAEXAAV?$allocator@U?$_Tree_node@U?$pair@$$CBV?$basic_string@DU?$char_traits@D@std@@V?$allocator@D@2@@std@@V?$basic_json@Vmap@std@@Vvector@2@V?$basic_string@DU?$char_traits@D@std@@V?$allocator@D@2@@2@_N_J_KNVallocator@2@Uadl_serializer@nlohmann@@V?$vector@EV?$allocator@E@std@@@2@@nlohmann@@@std@@PAX@std@@@1@PAU?$_Tree_node@U?$pair@$$CBV?$basic_string@DU?$char_traits@D@std@@V?$allocator@D@2@@std@@V?$basic_json@Vmap@std@@Vvector@2@V?$basic_string@DU?$char_traits@D@std@@V?$allocator@D@2@@2@_N_J_KNVallocator@2@Uadl_serializer@nlohmann@@V?$vector@EV?$allocator@E@std@@@2@@nlohmann@@@std@@PAX@1@@Z 0043e880 f i userprofile.obj
 0001:0003d8e0       ??$_Find_lower_bound@V?$basic_string@DU?$char_traits@D@std@@V?$allocator@D@2@@std@@@?$_Tree@V?$_Tmap_traits@V?$basic_string@DU?$char_traits@D@std@@V?$allocator@D@2@@std@@V?$basic_json@Vmap@std@@Vvector@2@V?$basic_string@DU?$char_traits@D@std@@V?$allocator@D@2@@2@_N_J_KNVallocator@2@Uadl_serializer@nlohmann@@V?$vector@EV?$allocator@E@std@@@2@@nlohmann@@U?$less@X@2@V?$allocator@U?$pair@$$CBV?$basic_string@DU?$char_traits@D@std@@V?$allocator@D@2@@std@@V?$basic_json@Vmap@std@@Vvector@2@V?$basic_string@DU?$char_traits@D@std@@V?$allocator@D@2@@2@_N_J_KNVallocator@2@Uadl_serializer@nlohmann@@V?$vector@EV?$allocator@E@std@@@2@@nlohmann@@@std@@@2@$0A@@std@@@std@@IBE?AU?$_Tree_find_result@PAU?$_Tree_node@U?$pair@$$CBV?$basic_string@DU?$char_traits@D@std@@V?$allocator@D@2@@std@@V?$basic_json@Vmap@std@@Vvector@2@V?$basic_string@DU?$char_traits@D@std@@V?$allocator@D@2@@2@_N_J_KNVallocator@2@Uadl_serializer@nlohmann@@V?$vector@EV?$allocator@E@std@@@2@@nlohmann@@@std@@PAX@std@@@1@ABV?$basic_string@DU?$char_traits@D@std@@V?$allocator@D@2@@1@@Z 0043e8e0 f i userprofile.obj
 0001:0003d980       ??$_Traits_compare@U?$char_traits@D@std@@@std@@YAHQBDI0I@Z 0043e980 f i userprofile.obj
 0001:0003da10       ??$dump_integer@E$0A@@?$serializer@V?$basic_json@Vmap@std@@Vvector@2@V?$basic_string@DU?$char_traits@D@std@@V?$allocator@D@2@@2@_N_J_KNVallocator@2@Uadl_serializer@nlohmann@@V?$vector@EV?$allocator@E@std@@@2@@nlohmann@@@detail@nlohmann@@AAEXE@Z 0043ea10 f i userprofile.obj
 0001:0003db60       ??$erase@V?$iter_impl@V?$basic_json@Vmap@std@@Vvector@2@V?$basic_string@DU?$char_traits@D@std@@V?$allocator@D@2@@2@_N_J_KNVallocator@2@Uadl_serializer@nlohmann@@V?$vector@EV?$allocator@E@std@@@2@@nlohmann@@@detail@nlohmann@@$0A@@?$basic_json@Vmap@std@@Vvector@2@V?$basic_string@DU?$char_traits@D@std@@V?$allocator@D@2@@2@_N_J_KNVallocator@2@Uadl_serializer@nlohmann@@V?$vector@EV?$allocator@E@std@@@2@@nlohmann@@QAE?AV?$iter_impl@V?$basic_json@Vmap@std@@Vvector@2@V?$basic_string@DU?$char_traits@D@std@@V?$allocator@D@2@@2@_N_J_KNVallocator@2@Uadl_serializer@nlohmann@@V?$vector@EV?$allocator@E@std@@@2@@nlohmann@@@detail@1@V231@@Z 0043eb60 f i userprofile.obj
 0001:0003de00       ??$find@$$BY07DU?$less@X@std@@$0A@@?$_Tree@V?$_Tmap_traits@V?$basic_string@DU?$char_traits@D@std@@V?$allocator@D@2@@std@@V?$basic_json@Vmap@std@@Vvector@2@V?$basic_string@DU?$char_traits@D@std@@V?$allocator@D@2@@2@_N_J_KNVallocator@2@Uadl_serializer@nlohmann@@V?$vector@EV?$allocator@E@std@@@2@@nlohmann@@U?$less@X@2@V?$allocator@U?$pair@$$CBV?$basic_string@DU?$char_traits@D@std@@V?$allocator@D@2@@std@@V?$basic_json@Vmap@std@@Vvector@2@V?$basic_string@DU?$char_traits@D@std@@V?$allocator@D@2@@2@_N_J_KNVallocator@2@Uadl_serializer@nlohmann@@V?$vector@EV?$allocator@E@std@@@2@@nlohmann@@@std@@@2@$0A@@std@@@std@@QAE?AV?$_Tree_iterator@V?$_Tree_val@U?$_Tree_simple_types@U?$pair@$$CBV?$basic_string@DU?$char_traits@D@std@@V?$allocator@D@2@@std@@V?$basic_json@Vmap@std@@Vvector@2@V?$basic_string@DU?$char_traits@D@std@@V?$allocator@D@2@@2@_N_J_KNVallocator@2@Uadl_serializer@nlohmann@@V?$vector@EV?$allocator@E@std@@@2@@nlohmann@@@std@@@std@@@std@@@1@AAY07$$CBD@Z 0043ee00 f i userprofile.obj
 0001:0003dee0       ??$find@AAY0O@$$CBD@?$basic_json@Vmap@std@@Vvector@2@V?$basic_string@DU?$char_traits@D@std@@V?$allocator@D@2@@2@_N_J_KNVallocator@2@Uadl_serializer@nlohmann@@V?$vector@EV?$allocator@E@std@@@2@@nlohmann@@QBE?AV?$iter_impl@$$CBV?$basic_json@Vmap@std@@Vvector@2@V?$basic_string@DU?$char_traits@D@std@@V?$allocator@D@2@@2@_N_J_KNVallocator@2@Uadl_serializer@nlohmann@@V?$vector@EV?$allocator@E@std@@@2@@nlohmann@@@detail@1@AAY0O@$$CBD@Z 0043eee0 f i userprofile.obj
 0001:0003dfd0       ??$for_each@PBV?$json_ref@V?$basic_json@Vmap@std@@Vvector@2@V?$basic_string@DU?$char_traits@D@std@@V?$allocator@D@2@@2@_N_J_KNVallocator@2@Uadl_serializer@nlohmann@@V?$vector@EV?$allocator@E@std@@@2@@nlohmann@@@detail@nlohmann@@V<lambda_2>@?O@???0?$basic_json@Vmap@std@@Vvector@2@V?$basic_string@DU?$char_traits@D@std@@V?$allocator@D@2@@2@_N_J_KNVallocator@2@Uadl_serializer@nlohmann@@V?$vector@EV?$allocator@E@std@@@2@@3@QAE@V?$initializer_list@V?$json_ref@V?$basic_json@Vmap@std@@Vvector@2@V?$basic_string@DU?$char_traits@D@std@@V?$allocator@D@2@@2@_N_J_KNVallocator@2@Uadl_serializer@nlohmann@@V?$vector@EV?$allocator@E@std@@@2@@nlohmann@@@detail@nlohmann@@@std@@_NW4value_t@23@@Z@@std@@YA?AV<lambda_2>@?O@???0?$basic_json@Vmap@std@@Vvector@2@V?$basic_string@DU?$char_traits@D@std@@V?$allocator@D@2@@2@_N_J_KNVallocator@2@Uadl_serializer@nlohmann@@V?$vector@EV?$allocator@E@std@@@2@@nlohmann@@QAE@V?$initializer_list@V?$json_ref@V?$basic_json@Vmap@std@@Vvector@2@V?$basic_string@DU?$char_traits@D@std@@V?$allocator@D@2@@2@_N_J_KNVallocator@2@Uadl_serializer@nlohmann@@V?$vector@EV?$allocator@E@std@@@2@@nlohmann@@@detail@nlohmann@@@0@_NW4value_t@detail@3@@Z@PBV?$json_ref@V?$basic_json@Vmap@std@@Vvector@2@V?$basic_string@DU?$char_traits@D@std@@V?$allocator@D@2@@2@_N_J_KNVallocator@2@Uadl_serializer@nlohmann@@V?$vector@EV?$allocator@E@std@@@2@@nlohmann@@@63@3V1?O@???023@QAE@012@Z@@Z 0043efd0 f i userprofile.obj
 0001:0003e1a0       ??$from_json@V?$basic_json@Vmap@std@@Vvector@2@V?$basic_string@DU?$char_traits@D@std@@V?$allocator@D@2@@2@_N_J_KNVallocator@2@Uadl_serializer@nlohmann@@V?$vector@EV?$allocator@E@std@@@2@@nlohmann@@@detail@nlohmann@@YAXABV?$basic_json@Vmap@std@@Vvector@2@V?$basic_string@DU?$char_traits@D@std@@V?$allocator@D@2@@2@_N_J_KNVallocator@2@Uadl_serializer@nlohmann@@V?$vector@EV?$allocator@E@std@@@2@@1@AAV?$basic_string@DU?$char_traits@D@std@@V?$allocator@D@2@@std@@@Z 0043f1a0 f i userprofile.obj
 0001:0003e340       ??$get@$0A@V?$iter_impl@$$CBV?$basic_json@Vmap@std@@Vvector@2@V?$basic_string@DU?$char_traits@D@std@@V?$allocator@D@2@@2@_N_J_KNVallocator@2@Uadl_serializer@nlohmann@@V?$vector@EV?$allocator@E@std@@@2@@nlohmann@@@detail@nlohmann@@$0A@@detail@nlohmann@@YAABV?$basic_string@DU?$char_traits@D@std@@V?$allocator@D@2@@std@@ABV?$iteration_proxy_value@V?$iter_impl@$$CBV?$basic_json@Vmap@std@@Vvector@2@V?$basic_string@DU?$char_traits@D@std@@V?$allocator@D@2@@2@_N_J_KNVallocator@2@Uadl_serializer@nlohmann@@V?$vector@EV?$allocator@E@std@@@2@@nlohmann@@@detail@nlohmann@@@01@@Z 0043f340 f i userprofile.obj
 0001:0003e490       ??$get@V?$basic_string@DU?$char_traits@D@std@@V?$allocator@D@2@@std@@V12@$0A@@?$basic_json@Vmap@std@@Vvector@2@V?$basic_string@DU?$char_traits@D@std@@V?$allocator@D@2@@2@_N_J_KNVallocator@2@Uadl_serializer@nlohmann@@V?$vector@EV?$allocator@E@std@@@2@@nlohmann@@QBE?AV?$basic_string@DU?$char_traits@D@std@@V?$allocator@D@2@@std@@XZ 0043f490 f i userprofile.obj
 0001:0003e510       ??$handle_value@$$T@?$json_sax_dom_callback_parser@V?$basic_json@Vmap@std@@Vvector@2@V?$basic_string@DU?$char_traits@D@std@@V?$allocator@D@2@@2@_N_J_KNVallocator@2@Uadl_serializer@nlohmann@@V?$vector@EV?$allocator@E@std@@@2@@nlohmann@@@detail@nlohmann@@AAE?AU?$pair@_NPAV?$basic_json@Vmap@std@@Vvector@2@V?$basic_string@DU?$char_traits@D@std@@V?$allocator@D@2@@2@_N_J_KNVallocator@2@Uadl_serializer@nlohmann@@V?$vector@EV?$allocator@E@std@@@2@@nlohmann@@@std@@$$QA$$T_N@Z 0043f510 f i userprofile.obj
 0001:0003e6b0       ??$handle_value@AAN@?$json_sax_dom_callback_parser@V?$basic_json@Vmap@std@@Vvector@2@V?$basic_string@DU?$char_traits@D@std@@V?$allocator@D@2@@2@_N_J_KNVallocator@2@Uadl_serializer@nlohmann@@V?$vector@EV?$allocator@E@std@@@2@@nlohmann@@@detail@nlohmann@@AAE?AU?$pair@_NPAV?$basic_json@Vmap@std@@Vvector@2@V?$basic_string@DU?$char_traits@D@std@@V?$allocator@D@2@@2@_N_J_KNVallocator@2@Uadl_serializer@nlohmann@@V?$vector@EV?$allocator@E@std@@@2@@nlohmann@@@std@@AAN_N@Z 0043f6b0 f i userprofile.obj
 0001:0003e850       ??$handle_value@AAV?$basic_string@DU?$char_traits@D@std@@V?$allocator@D@2@@std@@@?$json_sax_dom_callback_parser@V?$basic_json@Vmap@std@@Vvector@2@V?$basic_string@DU?$char_traits@D@std@@V?$allocator@D@2@@2@_N_J_KNVallocator@2@Uadl_serializer@nlohmann@@V?$vector@EV?$allocator@E@std@@@2@@nlohmann@@@detail@nlohmann@@AAE?AU?$pair@_NPAV?$basic_json@Vmap@std@@Vvector@2@V?$basic_string@DU?$char_traits@D@std@@V?$allocator@D@2@@2@_N_J_KNVallocator@2@Uadl_serializer@nlohmann@@V?$vector@EV?$allocator@E@std@@@2@@nlohmann@@@std@@AAV?$basic_string@DU?$char_traits@D@std@@V?$allocator@D@2@@4@_N@Z 0043f850 f i userprofile.obj
 0001:0003ea10       ??$handle_value@AA_J@?$json_sax_dom_callback_parser@V?$basic_json@Vmap@std@@Vvector@2@V?$basic_string@DU?$char_traits@D@std@@V?$allocator@D@2@@2@_N_J_KNVallocator@2@Uadl_serializer@nlohmann@@V?$vector@EV?$allocator@E@std@@@2@@nlohmann@@@detail@nlohmann@@AAE?AU?$pair@_NPAV?$basic_json@Vmap@std@@Vvector@2@V?$basic_string@DU?$char_traits@D@std@@V?$allocator@D@2@@2@_N_J_KNVallocator@2@Uadl_serializer@nlohmann@@V?$vector@EV?$allocator@E@std@@@2@@nlohmann@@@std@@AA_J_N@Z 0043fa10 f i userprofile.obj
 0001:0003ebb0       ??$handle_value@AA_K@?$json_sax_dom_callback_parser@V?$basic_json@Vmap@std@@Vvector@2@V?$basic_string@DU?$char_traits@D@std@@V?$allocator@D@2@@2@_N_J_KNVallocator@2@Uadl_serializer@nlohmann@@V?$vector@EV?$allocator@E@std@@@2@@nlohmann@@@detail@nlohmann@@AAE?AU?$pair@_NPAV?$basic_json@Vmap@std@@Vvector@2@V?$basic_string@DU?$char_traits@D@std@@V?$allocator@D@2@@2@_N_J_KNVallocator@2@Uadl_serializer@nlohmann@@V?$vector@EV?$allocator@E@std@@@2@@nlohmann@@@std@@AA_K_N@Z 0043fbb0 f i userprofile.obj
 0001:0003ed60       ??$handle_value@AA_N@?$json_sax_dom_callback_parser@V?$basic_json@Vmap@std@@Vvector@2@V?$basic_string@DU?$char_traits@D@std@@V?$allocator@D@2@@2@_N_J_KNVallocator@2@Uadl_serializer@nlohmann@@V?$vector@EV?$allocator@E@std@@@2@@nlohmann@@@detail@nlohmann@@AAE?AU?$pair@_NPAV?$basic_json@Vmap@std@@Vvector@2@V?$basic_string@DU?$char_traits@D@std@@V?$allocator@D@2@@2@_N_J_KNVallocator@2@Uadl_serializer@nlohmann@@V?$vector@EV?$allocator@E@std@@@2@@nlohmann@@@std@@AA_N_N@Z 0043fd60 f i userprofile.obj
 0001:0003ef10       ??$handle_value@W4value_t@detail@nlohmann@@@?$json_sax_dom_callback_parser@V?$basic_json@Vmap@std@@Vvector@2@V?$basic_string@DU?$char_traits@D@std@@V?$allocator@D@2@@2@_N_J_KNVallocator@2@Uadl_serializer@nlohmann@@V?$vector@EV?$allocator@E@std@@@2@@nlohmann@@@detail@nlohmann@@AAE?AU?$pair@_NPAV?$basic_json@Vmap@std@@Vvector@2@V?$basic_string@DU?$char_traits@D@std@@V?$allocator@D@2@@2@_N_J_KNVallocator@2@Uadl_serializer@nlohmann@@V?$vector@EV?$allocator@E@std@@@2@@nlohmann@@@std@@$$QAW4value_t@12@_N@Z 0043ff10 f i userprofile.obj
 0001:0003f0b0       ??$handle_value@W4value_t@detail@nlohmann@@@?$json_sax_dom_parser@V?$basic_json@Vmap@std@@Vvector@2@V?$basic_string@DU?$char_traits@D@std@@V?$allocator@D@2@@2@_N_J_KNVallocator@2@Uadl_serializer@nlohmann@@V?$vector@EV?$allocator@E@std@@@2@@nlohmann@@@detail@nlohmann@@AAEPAV?$basic_json@Vmap@std@@Vvector@2@V?$basic_string@DU?$char_traits@D@std@@V?$allocator@D@2@@2@_N_J_KNVallocator@2@Uadl_serializer@nlohmann@@V?$vector@EV?$allocator@E@std@@@2@@2@$$QAW4value_t@12@@Z 004400b0 f i userprofile.obj
 0001:0003f1a0       ??$parse@PBD@?$basic_json@Vmap@std@@Vvector@2@V?$basic_string@DU?$char_traits@D@std@@V?$allocator@D@2@@2@_N_J_KNVallocator@2@Uadl_serializer@nlohmann@@V?$vector@EV?$allocator@E@std@@@2@@nlohmann@@SA?AV01@PBD0V?$function@$$A6A_NHW4parse_event_t@detail@nlohmann@@AAV?$basic_json@Vmap@std@@Vvector@2@V?$basic_string@DU?$char_traits@D@std@@V?$allocator@D@2@@2@_N_J_KNVallocator@2@Uadl_serializer@nlohmann@@V?$vector@EV?$allocator@E@std@@@2@@3@@Z@std@@_N2@Z 004401a0 f i userprofile.obj
 0001:0003f2d0       ??$parser@V?$iterator_input_adapter@PBD@detail@nlohmann@@@?$basic_json@Vmap@std@@Vvector@2@V?$basic_string@DU?$char_traits@D@std@@V?$allocator@D@2@@2@_N_J_KNVallocator@2@Uadl_serializer@nlohmann@@V?$vector@EV?$allocator@E@std@@@2@@nlohmann@@CA?AV?$parser@V?$basic_json@Vmap@std@@Vvector@2@V?$basic_string@DU?$char_traits@D@std@@V?$allocator@D@2@@2@_N_J_KNVallocator@2@Uadl_serializer@nlohmann@@V?$vector@EV?$allocator@E@std@@@2@@nlohmann@@V?$iterator_input_adapter@PBD@detail@2@@detail@1@V?$iterator_input_adapter@PBD@31@V?$function@$$A6A_NHW4parse_event_t@detail@nlohmann@@AAV?$basic_json@Vmap@std@@Vvector@2@V?$basic_string@DU?$char_traits@D@std@@V?$allocator@D@2@@2@_N_J_KNVallocator@2@Uadl_serializer@nlohmann@@V?$vector@EV?$allocator@E@std@@@2@@3@@Z@std@@_N2@Z 004402d0 f i userprofile.obj
 0001:0003f490       ??$sax_parse_internal@V?$json_sax_dom_callback_parser@V?$basic_json@Vmap@std@@Vvector@2@V?$basic_string@DU?$char_traits@D@std@@V?$allocator@D@2@@2@_N_J_KNVallocator@2@Uadl_serializer@nlohmann@@V?$vector@EV?$allocator@E@std@@@2@@nlohmann@@@detail@nlohmann@@@?$parser@V?$basic_json@Vmap@std@@Vvector@2@V?$basic_string@DU?$char_traits@D@std@@V?$allocator@D@2@@2@_N_J_KNVallocator@2@Uadl_serializer@nlohmann@@V?$vector@EV?$allocator@E@std@@@2@@nlohmann@@V?$iterator_input_adapter@PBD@detail@2@@detail@nlohmann@@AAE_NPAV?$json_sax_dom_callback_parser@V?$basic_json@Vmap@std@@Vvector@2@V?$basic_string@DU?$char_traits@D@std@@V?$allocator@D@2@@2@_N_J_KNVallocator@2@Uadl_serializer@nlohmann@@V?$vector@EV?$allocator@E@std@@@2@@nlohmann@@@12@@Z 00440490 f i userprofile.obj
 0001:00040600       ??$sax_parse_internal@V?$json_sax_dom_callback_parser@V?$basic_json@Vmap@std@@Vvector@2@V?$basic_string@DU?$char_traits@D@std@@V?$allocator@D@2@@2@_N_J_KNVallocator@2@Uadl_serializer@nlohmann@@V?$vector@EV?$allocator@E@std@@@2@@nlohmann@@@detail@nlohmann@@@?$parser@V?$basic_json@Vmap@std@@Vvector@2@V?$basic_string@DU?$char_traits@D@std@@V?$allocator@D@2@@2@_N_J_KNVallocator@2@Uadl_serializer@nlohmann@@V?$vector@EV?$allocator@E@std@@@2@@nlohmann@@Vinput_stream_adapter@detail@2@@detail@nlohmann@@AAE_NPAV?$json_sax_dom_callback_parser@V?$basic_json@Vmap@std@@Vvector@2@V?$basic_string@DU?$char_traits@D@std@@V?$allocator@D@2@@2@_N_J_KNVallocator@2@Uadl_serializer@nlohmann@@V?$vector@EV?$allocator@E@std@@@2@@nlohmann@@@12@@Z 00441600 f i userprofile.obj
 0001:00041770       ??$sax_parse_internal@V?$json_sax_dom_parser@V?$basic_json@Vmap@std@@Vvector@2@V?$basic_string@DU?$char_traits@D@std@@V?$allocator@D@2@@2@_N_J_KNVallocator@2@Uadl_serializer@nlohmann@@V?$vector@EV?$allocator@E@std@@@2@@nlohmann@@@detail@nlohmann@@@?$parser@V?$basic_json@Vmap@std@@Vvector@2@V?$basic_string@DU?$char_traits@D@std@@V?$allocator@D@2@@2@_N_J_KNVallocator@2@Uadl_serializer@nlohmann@@V?$vector@EV?$allocator@E@std@@@2@@nlohmann@@V?$iterator_input_adapter@PBD@detail@2@@detail@nlohmann@@AAE_NPAV?$json_sax_dom_parser@V?$basic_json@Vmap@std@@Vvector@2@V?$basic_string@DU?$char_traits@D@std@@V?$allocator@D@2@@2@_N_J_KNVallocator@2@Uadl_serializer@nlohmann@@V?$vector@EV?$allocator@E@std@@@2@@nlohmann@@@12@@Z 00442770 f i userprofile.obj
 0001:000427f0       ??$sax_parse_internal@V?$json_sax_dom_parser@V?$basic_json@Vmap@std@@Vvector@2@V?$basic_string@DU?$char_traits@D@std@@V?$allocator@D@2@@2@_N_J_KNVallocator@2@Uadl_serializer@nlohmann@@V?$vector@EV?$allocator@E@std@@@2@@nlohmann@@@detail@nlohmann@@@?$parser@V?$basic_json@Vmap@std@@Vvector@2@V?$basic_string@DU?$char_traits@D@std@@V?$allocator@D@2@@2@_N_J_KNVallocator@2@Uadl_serializer@nlohmann@@V?$vector@EV?$allocator@E@std@@@2@@nlohmann@@Vinput_stream_adapter@detail@2@@detail@nlohmann@@AAE_NPAV?$json_sax_dom_parser@V?$basic_json@Vmap@std@@Vvector@2@V?$basic_string@DU?$char_traits@D@std@@V?$allocator@D@2@@2@_N_J_KNVallocator@2@Uadl_serializer@nlohmann@@V?$vector@EV?$allocator@E@std@@@2@@nlohmann@@@12@@Z 004437f0 f i userprofile.obj
 0001:00043870       ??0?$basic_json@Vmap@std@@Vvector@2@V?$basic_string@DU?$char_traits@D@std@@V?$allocator@D@2@@2@_N_J_KNVallocator@2@Uadl_serializer@nlohmann@@V?$vector@EV?$allocator@E@std@@@2@@nlohmann@@QAE@ABV01@@Z 00444870 f i userprofile.obj
 0001:00043bb0       ??0?$basic_json@Vmap@std@@Vvector@2@V?$basic_string@DU?$char_traits@D@std@@V?$allocator@D@2@@2@_N_J_KNVallocator@2@Uadl_serializer@nlohmann@@V?$vector@EV?$allocator@E@std@@@2@@nlohmann@@QAE@V?$initializer_list@V?$json_ref@V?$basic_json@Vmap@std@@Vvector@2@V?$basic_string@DU?$char_traits@D@std@@V?$allocator@D@2@@2@_N_J_KNVallocator@2@Uadl_serializer@nlohmann@@V?$vector@EV?$allocator@E@std@@@2@@nlohmann@@@detail@nlohmann@@@std@@_NW4value_t@detail@1@@Z 00444bb0 f i userprofile.obj
 0001:00043de0       ??0?$basic_string@DU?$char_traits@D@std@@V?$allocator@D@2@@std@@QAE@$$QAV01@@Z 00444de0 f i userprofile.obj
 0001:00043e30       ??0?$json_sax_dom_callback_parser@V?$basic_json@Vmap@std@@Vvector@2@V?$basic_string@DU?$char_traits@D@std@@V?$allocator@D@2@@2@_N_J_KNVallocator@2@Uadl_serializer@nlohmann@@V?$vector@EV?$allocator@E@std@@@2@@nlohmann@@@detail@nlohmann@@QAE@AAV?$basic_json@Vmap@std@@Vvector@2@V?$basic_string@DU?$char_traits@D@std@@V?$allocator@D@2@@2@_N_J_KNVallocator@2@Uadl_serializer@nlohmann@@V?$vector@EV?$allocator@E@std@@@2@@2@V?$function@$$A6A_NHW4parse_event_t@detail@nlohmann@@AAV?$basic_json@Vmap@std@@Vvector@2@V?$basic_string@DU?$char_traits@D@std@@V?$allocator@D@2@@2@_N_J_KNVallocator@2@Uadl_serializer@nlohmann@@V?$vector@EV?$allocator@E@std@@@2@@3@@Z@std@@_N@Z 00444e30 f i userprofile.obj
 0001:00044190       ??0?$serializer@V?$basic_json@Vmap@std@@Vvector@2@V?$basic_string@DU?$char_traits@D@std@@V?$allocator@D@2@@2@_N_J_KNVallocator@2@Uadl_serializer@nlohmann@@V?$vector@EV?$allocator@E@std@@@2@@nlohmann@@@detail@nlohmann@@QAE@V?$shared_ptr@U?$output_adapter_protocol@D@detail@nlohmann@@@std@@DW4error_handler_t@12@@Z 00445190 f i userprofile.obj
 0001:000442d0       ??0json_value@?$basic_json@Vmap@std@@Vvector@2@V?$basic_string@DU?$char_traits@D@std@@V?$allocator@D@2@@2@_N_J_KNVallocator@2@Uadl_serializer@nlohmann@@V?$vector@EV?$allocator@E@std@@@2@@nlohmann@@QAE@W4value_t@detail@2@@Z 004452d0 f i userprofile.obj
 0001:00044480       ??1?$_Alloc_construct_ptr@V?$allocator@U?$_Tree_node@U?$pair@$$CBV?$basic_string@DU?$char_traits@D@std@@V?$allocator@D@2@@std@@V?$basic_json@Vmap@std@@Vvector@2@V?$basic_string@DU?$char_traits@D@std@@V?$allocator@D@2@@2@_N_J_KNVallocator@2@Uadl_serializer@nlohmann@@V?$vector@EV?$allocator@E@std@@@2@@nlohmann@@@std@@PAX@std@@@std@@@std@@QAE@XZ 00445480 f i userprofile.obj
 0001:00044480       ??1?$_Tree_temp_node_alloc@V?$allocator@U?$_Tree_node@U?$pair@$$CBV?$basic_string@DU?$char_traits@D@std@@V?$allocator@D@2@@std@@V?$basic_json@Vmap@std@@Vvector@2@V?$basic_string@DU?$char_traits@D@std@@V?$allocator@D@2@@2@_N_J_KNVallocator@2@Uadl_serializer@nlohmann@@V?$vector@EV?$allocator@E@std@@@2@@nlohmann@@@std@@PAX@std@@@std@@@std@@QAE@XZ 00445480 f i userprofile.obj
 0001:000444a0       ??1?$_Erase_tree_and_orphan_guard@V?$allocator@U?$_Tree_node@U?$pair@$$CBV?$basic_string@DU?$char_traits@D@std@@V?$allocator@D@2@@std@@V?$basic_json@Vmap@std@@Vvector@2@V?$basic_string@DU?$char_traits@D@std@@V?$allocator@D@2@@2@_N_J_KNVallocator@2@Uadl_serializer@nlohmann@@V?$vector@EV?$allocator@E@std@@@2@@nlohmann@@@std@@PAX@std@@@std@@@?$_Tree_val@U?$_Tree_simple_types@U?$pair@$$CBV?$basic_string@DU?$char_traits@D@std@@V?$allocator@D@2@@std@@V?$basic_json@Vmap@std@@Vvector@2@V?$basic_string@DU?$char_traits@D@std@@V?$allocator@D@2@@2@_N_J_KNVallocator@2@Uadl_serializer@nlohmann@@V?$vector@EV?$allocator@E@std@@@2@@nlohmann@@@std@@@std@@@std@@QAE@XZ 004454a0 f i userprofile.obj
 0001:000444c0       ??1?$_Tidy_guard@V?$vector@V?$basic_json@Vmap@std@@Vvector@2@V?$basic_string@DU?$char_traits@D@std@@V?$allocator@D@2@@2@_N_J_KNVallocator@2@Uadl_serializer@nlohmann@@V?$vector@EV?$allocator@E@std@@@2@@nlohmann@@V?$allocator@V?$basic_json@Vmap@std@@Vvector@2@V?$basic_string@DU?$char_traits@D@std@@V?$allocator@D@2@@2@_N_J_KNVallocator@2@Uadl_serializer@nlohmann@@V?$vector@EV?$allocator@E@std@@@2@@nlohmann@@@std@@@std@@@std@@QAE@XZ 004454c0 f i userprofile.obj
 0001:000444d0       ??1?$_Tree_head_scoped_ptr@V?$allocator@U?$_Tree_node@U?$pair@$$CBV?$basic_string@DU?$char_traits@D@std@@V?$allocator@D@2@@std@@V?$basic_json@Vmap@std@@Vvector@2@V?$basic_string@DU?$char_traits@D@std@@V?$allocator@D@2@@2@_N_J_KNVallocator@2@Uadl_serializer@nlohmann@@V?$vector@EV?$allocator@E@std@@@2@@nlohmann@@@std@@PAX@std@@@std@@V?$_Tree_val@U?$_Tree_simple_types@U?$pair@$$CBV?$basic_string@DU?$char_traits@D@std@@V?$allocator@D@2@@std@@V?$basic_json@Vmap@std@@Vvector@2@V?$basic_string@DU?$char_traits@D@std@@V?$allocator@D@2@@2@_N_J_KNVallocator@2@Uadl_serializer@nlohmann@@V?$vector@EV?$allocator@E@std@@@2@@nlohmann@@@std@@@std@@@2@@std@@QAE@XZ 004454d0 f i userprofile.obj
 0001:00044500       ??1?$_Uninitialized_backout_al@V?$allocator@V?$basic_json@Vmap@std@@Vvector@2@V?$basic_string@DU?$char_traits@D@std@@V?$allocator@D@2@@2@_N_J_KNVallocator@2@Uadl_serializer@nlohmann@@V?$vector@EV?$allocator@E@std@@@2@@nlohmann@@@std@@@std@@QAE@XZ 00445500 f i userprofile.obj
 0001:00044530       ??1?$basic_json@Vmap@std@@Vvector@2@V?$basic_string@DU?$char_traits@D@std@@V?$allocator@D@2@@2@_N_J_KNVallocator@2@Uadl_serializer@nlohmann@@V?$vector@EV?$allocator@E@std@@@2@@nlohmann@@QAE@XZ 00445530 f i userprofile.obj
 0001:00044540       ??1?$json_sax_dom_callback_parser@V?$basic_json@Vmap@std@@Vvector@2@V?$basic_string@DU?$char_traits@D@std@@V?$allocator@D@2@@2@_N_J_KNVallocator@2@Uadl_serializer@nlohmann@@V?$vector@EV?$allocator@E@std@@@2@@nlohmann@@@detail@nlohmann@@QAE@XZ 00445540 f i userprofile.obj
 0001:00044590       ??1?$lexer@V?$basic_json@Vmap@std@@Vvector@2@V?$basic_string@DU?$char_traits@D@std@@V?$allocator@D@2@@2@_N_J_KNVallocator@2@Uadl_serializer@nlohmann@@V?$vector@EV?$allocator@E@std@@@2@@nlohmann@@V?$iterator_input_adapter@PBD@detail@2@@detail@nlohmann@@QAE@XZ 00445590 f i userprofile.obj
 0001:000445b0       ??1?$parser@V?$basic_json@Vmap@std@@Vvector@2@V?$basic_string@DU?$char_traits@D@std@@V?$allocator@D@2@@2@_N_J_KNVallocator@2@Uadl_serializer@nlohmann@@V?$vector@EV?$allocator@E@std@@@2@@nlohmann@@V?$iterator_input_adapter@PBD@detail@2@@detail@nlohmann@@QAE@XZ 004455b0 f i userprofile.obj
 0001:000445f0       ??1?$unique_ptr@V?$map@V?$basic_string@DU?$char_traits@D@std@@V?$allocator@D@2@@std@@V?$basic_json@Vmap@std@@Vvector@2@V?$basic_string@DU?$char_traits@D@std@@V?$allocator@D@2@@2@_N_J_KNVallocator@2@Uadl_serializer@nlohmann@@V?$vector@EV?$allocator@E@std@@@2@@nlohmann@@U?$less@X@2@V?$allocator@U?$pair@$$CBV?$basic_string@DU?$char_traits@D@std@@V?$allocator@D@2@@std@@V?$basic_json@Vmap@std@@Vvector@2@V?$basic_string@DU?$char_traits@D@std@@V?$allocator@D@2@@2@_N_J_KNVallocator@2@Uadl_serializer@nlohmann@@V?$vector@EV?$allocator@E@std@@@2@@nlohmann@@@std@@@2@@std@@V<lambda_1>@?1???$create@V?$map@V?$basic_string@DU?$char_traits@D@std@@V?$allocator@D@2@@std@@V?$basic_json@Vmap@std@@Vvector@2@V?$basic_string@DU?$char_traits@D@std@@V?$allocator@D@2@@2@_N_J_KNVallocator@2@Uadl_serializer@nlohmann@@V?$vector@EV?$allocator@E@std@@@2@@nlohmann@@U?$less@X@2@V?$allocator@U?$pair@$$CBV?$basic_string@DU?$char_traits@D@std@@V?$allocator@D@2@@std@@V?$basic_json@Vmap@std@@Vvector@2@V?$basic_string@DU?$char_traits@D@std@@V?$allocator@D@2@@2@_N_J_KNVallocator@2@Uadl_serializer@nlohmann@@V?$vector@EV?$allocator@E@std@@@2@@nlohmann@@@std@@@2@@std@@$$V@?$basic_json@Vmap@std@@Vvector@2@V?$basic_string@DU?$char_traits@D@std@@V?$allocator@D@2@@2@_N_J_KNVallocator@2@Uadl_serializer@nlohmann@@V?$vector@EV?$allocator@E@std@@@2@@nlohmann@@CAPAV12@XZ@@std@@QAE@XZ 004455f0 f i userprofile.obj
 0001:000445f0       ??1?$unique_ptr@V?$map@V?$basic_string@DU?$char_traits@D@std@@V?$allocator@D@2@@std@@V?$basic_json@Vmap@std@@Vvector@2@V?$basic_string@DU?$char_traits@D@std@@V?$allocator@D@2@@2@_N_J_KNVallocator@2@Uadl_serializer@nlohmann@@V?$vector@EV?$allocator@E@std@@@2@@nlohmann@@U?$less@X@2@V?$allocator@U?$pair@$$CBV?$basic_string@DU?$char_traits@D@std@@V?$allocator@D@2@@std@@V?$basic_json@Vmap@std@@Vvector@2@V?$basic_string@DU?$char_traits@D@std@@V?$allocator@D@2@@2@_N_J_KNVallocator@2@Uadl_serializer@nlohmann@@V?$vector@EV?$allocator@E@std@@@2@@nlohmann@@@std@@@2@@std@@V<lambda_1>@?1???$create@V?$map@V?$basic_string@DU?$char_traits@D@std@@V?$allocator@D@2@@std@@V?$basic_json@Vmap@std@@Vvector@2@V?$basic_string@DU?$char_traits@D@std@@V?$allocator@D@2@@2@_N_J_KNVallocator@2@Uadl_serializer@nlohmann@@V?$vector@EV?$allocator@E@std@@@2@@nlohmann@@U?$less@X@2@V?$allocator@U?$pair@$$CBV?$basic_string@DU?$char_traits@D@std@@V?$allocator@D@2@@std@@V?$basic_json@Vmap@std@@Vvector@2@V?$basic_string@DU?$char_traits@D@std@@V?$allocator@D@2@@2@_N_J_KNVallocator@2@Uadl_serializer@nlohmann@@V?$vector@EV?$allocator@E@std@@@2@@nlohmann@@@std@@@2@@std@@ABV12@@?$basic_json@Vmap@std@@Vvector@2@V?$basic_string@DU?$char_traits@D@std@@V?$allocator@D@2@@2@_N_J_KNVallocator@2@Uadl_serializer@nlohmann@@V?$vector@EV?$allocator@E@std@@@2@@nlohmann@@CAPAV12@ABV12@@Z@@std@@QAE@XZ 004455f0 f i userprofile.obj
 0001:00044610       ??1CComBSTR@ATL@@QAE@XZ    00445610 f i userprofile.obj
 0001:00044620       ??1_Reallocation_guard@?$vector@V?$basic_json@Vmap@std@@Vvector@2@V?$basic_string@DU?$char_traits@D@std@@V?$allocator@D@2@@2@_N_J_KNVallocator@2@Uadl_serializer@nlohmann@@V?$vector@EV?$allocator@E@std@@@2@@nlohmann@@V?$allocator@V?$basic_json@Vmap@std@@Vvector@2@V?$basic_string@DU?$char_traits@D@std@@V?$allocator@D@2@@2@_N_J_KNVallocator@2@Uadl_serializer@nlohmann@@V?$vector@EV?$allocator@E@std@@@2@@nlohmann@@@std@@@std@@QAE@XZ 00445620 f i userprofile.obj
 0001:00044690       ??4?$basic_json@Vmap@std@@Vvector@2@V?$basic_string@DU?$char_traits@D@std@@V?$allocator@D@2@@2@_N_J_KNVallocator@2@Uadl_serializer@nlohmann@@V?$vector@EV?$allocator@E@std@@@2@@nlohmann@@QAEAAV01@V01@@Z 00445690 f i userprofile.obj
 0001:000446e0       ??4?$basic_string@DU?$char_traits@D@std@@V?$allocator@D@2@@std@@QAEAAV01@$$QAV01@@Z 004456e0 f i userprofile.obj
 0001:00044720       ??6nlohmann@@YAAAV?$basic_ostream@DU?$char_traits@D@std@@@std@@AAV12@ABV?$basic_json@Vmap@std@@Vvector@2@V?$basic_string@DU?$char_traits@D@std@@V?$allocator@D@2@@2@_N_J_KNVallocator@2@Uadl_serializer@nlohmann@@V?$vector@EV?$allocator@E@std@@@2@@0@@Z 00445720 f i userprofile.obj
 0001:00044900       ??8?$iter_impl@V?$basic_json@Vmap@std@@Vvector@2@V?$basic_string@DU?$char_traits@D@std@@V?$allocator@D@2@@2@_N_J_KNVallocator@2@Uadl_serializer@nlohmann@@V?$vector@EV?$allocator@E@std@@@2@@nlohmann@@@detail@nlohmann@@QBE_NABV012@@Z 00445900 f i userprofile.obj
 0001:000449b0       ??8nlohmann@@YA_NABV?$basic_json@Vmap@std@@Vvector@2@V?$basic_string@DU?$char_traits@D@std@@V?$allocator@D@2@@2@_N_J_KNVallocator@2@Uadl_serializer@nlohmann@@V?$vector@EV?$allocator@E@std@@@2@@0@0@Z 004459b0 f i userprofile.obj
 0001:00044ca0       ??A?$map@V?$basic_string@DU?$char_traits@D@std@@V?$allocator@D@2@@std@@V?$basic_json@Vmap@std@@Vvector@2@V?$basic_string@DU?$char_traits@D@std@@V?$allocator@D@2@@2@_N_J_KNVallocator@2@Uadl_serializer@nlohmann@@V?$vector@EV?$allocator@E@std@@@2@@nlohmann@@U?$less@X@2@V?$allocator@U?$pair@$$CBV?$basic_string@DU?$char_traits@D@std@@V?$allocator@D@2@@std@@V?$basic_json@Vmap@std@@Vvector@2@V?$basic_string@DU?$char_traits@D@std@@V?$allocator@D@2@@2@_N_J_KNVallocator@2@Uadl_serializer@nlohmann@@V?$vector@EV?$allocator@E@std@@@2@@nlohmann@@@std@@@2@@std@@QAEAAV?$basic_json@Vmap@std@@Vvector@2@V?$basic_string@DU?$char_traits@D@std@@V?$allocator@D@2@@2@_N_J_KNVallocator@2@Uadl_serializer@nlohmann@@V?$vector@EV?$allocator@E@std@@@2@@nlohmann@@ABV?$basic_string@DU?$char_traits@D@std@@V?$allocator@D@2@@1@@Z 00445ca0 f i userprofile.obj
 0001:00044da0       ??C?$iter_impl@$$CBV?$basic_json@Vmap@std@@Vvector@2@V?$basic_string@DU?$char_traits@D@std@@V?$allocator@D@2@@2@_N_J_KNVallocator@2@Uadl_serializer@nlohmann@@V?$vector@EV?$allocator@E@std@@@2@@nlohmann@@@detail@nlohmann@@QBEPBV?$basic_json@Vmap@std@@Vvector@2@V?$basic_string@DU?$char_traits@D@std@@V?$allocator@D@2@@2@_N_J_KNVallocator@2@Uadl_serializer@nlohmann@@V?$vector@EV?$allocator@E@std@@@2@@2@XZ 00445da0 f i userprofile.obj
 0001:00044da0       ??C?$iter_impl@V?$basic_json@Vmap@std@@Vvector@2@V?$basic_string@DU?$char_traits@D@std@@V?$allocator@D@2@@2@_N_J_KNVallocator@2@Uadl_serializer@nlohmann@@V?$vector@EV?$allocator@E@std@@@2@@nlohmann@@@detail@nlohmann@@QBEPAV?$basic_json@Vmap@std@@Vvector@2@V?$basic_string@DU?$char_traits@D@std@@V?$allocator@D@2@@2@_N_J_KNVallocator@2@Uadl_serializer@nlohmann@@V?$vector@EV?$allocator@E@std@@@2@@2@XZ 00445da0 f i userprofile.obj
 0001:00044e40       ??D?$iter_impl@$$CBV?$basic_json@Vmap@std@@Vvector@2@V?$basic_string@DU?$char_traits@D@std@@V?$allocator@D@2@@2@_N_J_KNVallocator@2@Uadl_serializer@nlohmann@@V?$vector@EV?$allocator@E@std@@@2@@nlohmann@@@detail@nlohmann@@QBEABV?$basic_json@Vmap@std@@Vvector@2@V?$basic_string@DU?$char_traits@D@std@@V?$allocator@D@2@@2@_N_J_KNVallocator@2@Uadl_serializer@nlohmann@@V?$vector@EV?$allocator@E@std@@@2@@2@XZ 00445e40 f i userprofile.obj
 0001:00044e40       ??D?$iter_impl@V?$basic_json@Vmap@std@@Vvector@2@V?$basic_string@DU?$char_traits@D@std@@V?$allocator@D@2@@2@_N_J_KNVallocator@2@Uadl_serializer@nlohmann@@V?$vector@EV?$allocator@E@std@@@2@@nlohmann@@@detail@nlohmann@@QBEAAV?$basic_json@Vmap@std@@Vvector@2@V?$basic_string@DU?$char_traits@D@std@@V?$allocator@D@2@@2@_N_J_KNVallocator@2@Uadl_serializer@nlohmann@@V?$vector@EV?$allocator@E@std@@@2@@2@XZ 00445e40 f i userprofile.obj
 0001:00044f20       ??E?$_Tree_unchecked_const_iterator@V?$_Tree_val@U?$_Tree_simple_types@U?$pair@$$CBV?$basic_string@DU?$char_traits@D@std@@V?$allocator@D@2@@std@@V?$basic_json@Vmap@std@@Vvector@2@V?$basic_string@DU?$char_traits@D@std@@V?$allocator@D@2@@2@_N_J_KNVallocator@2@Uadl_serializer@nlohmann@@V?$vector@EV?$allocator@E@std@@@2@@nlohmann@@@std@@@std@@@std@@U_Iterator_base0@2@@std@@QAEAAV01@XZ 00445f20 f i userprofile.obj
 0001:00044f80       ??_E?$_Ref_count_obj2@V?$output_string_adapter@DV?$basic_string@DU?$char_traits@D@std@@V?$allocator@D@2@@std@@@detail@nlohmann@@@std@@UAEPAXI@Z 00445f80 f i userprofile.obj
 0001:00044f80       ??_G?$_Ref_count_obj2@V?$output_string_adapter@DV?$basic_string@DU?$char_traits@D@std@@V?$allocator@D@2@@std@@@detail@nlohmann@@@std@@UAEPAXI@Z 00445f80 f i userprofile.obj
 0001:00045a60       ?GetLocalUpdatedContentAsString@UserProfile@@YA?AV?$basic_string@DU?$char_traits@D@std@@V?$allocator@D@2@@std@@XZ 00446a60 f   userprofile.obj
 0001:00045ad0       ?GetUpdateStatus@UserProfile@@YA?AUUpdateStatus@1@XZ 00446ad0 f   userprofile.obj
 0001:000464c0       ?UpdateContentWithOnlineData@UserProfile@@YA?AUUpdateStatus@1@PBDI@Z 004474c0 f   userprofile.obj
 0001:00047560       ?_Change_array@?$vector@V?$basic_json@Vmap@std@@Vvector@2@V?$basic_string@DU?$char_traits@D@std@@V?$allocator@D@2@@2@_N_J_KNVallocator@2@Uadl_serializer@nlohmann@@V?$vector@EV?$allocator@E@std@@@2@@nlohmann@@V?$allocator@V?$basic_json@Vmap@std@@Vvector@2@V?$basic_string@DU?$char_traits@D@std@@V?$allocator@D@2@@2@_N_J_KNVallocator@2@Uadl_serializer@nlohmann@@V?$vector@EV?$allocator@E@std@@@2@@nlohmann@@@std@@@std@@AAEXQAV?$basic_json@Vmap@std@@Vvector@2@V?$basic_string@DU?$char_traits@D@std@@V?$allocator@D@2@@2@_N_J_KNVallocator@2@Uadl_serializer@nlohmann@@V?$vector@EV?$allocator@E@std@@@2@@nlohmann@@II@Z 00448560 f i userprofile.obj
 0001:000475f0       ?_Extract@?$_Tree_val@U?$_Tree_simple_types@U?$pair@$$CBV?$basic_string@DU?$char_traits@D@std@@V?$allocator@D@2@@std@@V?$basic_json@Vmap@std@@Vvector@2@V?$basic_string@DU?$char_traits@D@std@@V?$allocator@D@2@@2@_N_J_KNVallocator@2@Uadl_serializer@nlohmann@@V?$vector@EV?$allocator@E@std@@@2@@nlohmann@@@std@@@std@@@std@@QAEPAU?$_Tree_node@U?$pair@$$CBV?$basic_string@DU?$char_traits@D@std@@V?$allocator@D@2@@std@@V?$basic_json@Vmap@std@@Vvector@2@V?$basic_string@DU?$char_traits@D@std@@V?$allocator@D@2@@2@_N_J_KNVallocator@2@Uadl_serializer@nlohmann@@V?$vector@EV?$allocator@E@std@@@2@@nlohmann@@@std@@PAX@2@V?$_Tree_unchecked_const_iterator@V?$_Tree_val@U?$_Tree_simple_types@U?$pair@$$CBV?$basic_string@DU?$char_traits@D@std@@V?$allocator@D@2@@std@@V?$basic_json@Vmap@std@@Vvector@2@V?$basic_string@DU?$char_traits@D@std@@V?$allocator@D@2@@2@_N_J_KNVallocator@2@Uadl_serializer@nlohmann@@V?$vector@EV?$allocator@E@std@@@2@@nlohmann@@@std@@@std@@@std@@U_Iterator_base0@2@@2@@Z 004485f0 f i userprofile.obj
 0001:00047910       ?_Insert_node@?$_Tree_val@U?$_Tree_simple_types@U?$pair@$$CBV?$basic_string@DU?$char_traits@D@std@@V?$allocator@D@2@@std@@V?$basic_json@Vmap@std@@Vvector@2@V?$basic_string@DU?$char_traits@D@std@@V?$allocator@D@2@@2@_N_J_KNVallocator@2@Uadl_serializer@nlohmann@@V?$vector@EV?$allocator@E@std@@@2@@nlohmann@@@std@@@std@@@std@@QAEPAU?$_Tree_node@U?$pair@$$CBV?$basic_string@DU?$char_traits@D@std@@V?$allocator@D@2@@std@@V?$basic_json@Vmap@std@@Vvector@2@V?$basic_string@DU?$char_traits@D@std@@V?$allocator@D@2@@2@_N_J_KNVallocator@2@Uadl_serializer@nlohmann@@V?$vector@EV?$allocator@E@std@@@2@@nlohmann@@@std@@PAX@2@U?$_Tree_id@PAU?$_Tree_node@U?$pair@$$CBV?$basic_string@DU?$char_traits@D@std@@V?$allocator@D@2@@std@@V?$basic_json@Vmap@std@@Vvector@2@V?$basic_string@DU?$char_traits@D@std@@V?$allocator@D@2@@2@_N_J_KNVallocator@2@Uadl_serializer@nlohmann@@V?$vector@EV?$allocator@E@std@@@2@@nlohmann@@@std@@PAX@std@@@2@QAU32@@Z 00448910 f i userprofile.obj
 0001:00047b00       ?_Lrotate@?$_Tree_val@U?$_Tree_simple_types@U?$pair@$$CBV?$basic_string@DU?$char_traits@D@std@@V?$allocator@D@2@@std@@V?$basic_json@Vmap@std@@Vvector@2@V?$basic_string@DU?$char_traits@D@std@@V?$allocator@D@2@@2@_N_J_KNVallocator@2@Uadl_serializer@nlohmann@@V?$vector@EV?$allocator@E@std@@@2@@nlohmann@@@std@@@std@@@std@@QAEXPAU?$_Tree_node@U?$pair@$$CBV?$basic_string@DU?$char_traits@D@std@@V?$allocator@D@2@@std@@V?$basic_json@Vmap@std@@Vvector@2@V?$basic_string@DU?$char_traits@D@std@@V?$allocator@D@2@@2@_N_J_KNVallocator@2@Uadl_serializer@nlohmann@@V?$vector@EV?$allocator@E@std@@@2@@nlohmann@@@std@@PAX@2@@Z 00448b00 f i userprofile.obj
 0001:00047b60       ?_Rrotate@?$_Tree_val@U?$_Tree_simple_types@U?$pair@$$CBV?$basic_string@DU?$char_traits@D@std@@V?$allocator@D@2@@std@@V?$basic_json@Vmap@std@@Vvector@2@V?$basic_string@DU?$char_traits@D@std@@V?$allocator@D@2@@2@_N_J_KNVallocator@2@Uadl_serializer@nlohmann@@V?$vector@EV?$allocator@E@std@@@2@@nlohmann@@@std@@@std@@@std@@QAEXPAU?$_Tree_node@U?$pair@$$CBV?$basic_string@DU?$char_traits@D@std@@V?$allocator@D@2@@std@@V?$basic_json@Vmap@std@@Vvector@2@V?$basic_string@DU?$char_traits@D@std@@V?$allocator@D@2@@2@_N_J_KNVallocator@2@Uadl_serializer@nlohmann@@V?$vector@EV?$allocator@E@std@@@2@@nlohmann@@@std@@PAX@2@@Z 00448b60 f i userprofile.obj
 0001:00047bc0       ?_Throw_tree_length_error@std@@YAXXZ 00448bc0 f i userprofile.obj
 0001:00047bd0       ?_Tidy@?$vector@V?$basic_json@Vmap@std@@Vvector@2@V?$basic_string@DU?$char_traits@D@std@@V?$allocator@D@2@@2@_N_J_KNVallocator@2@Uadl_serializer@nlohmann@@V?$vector@EV?$allocator@E@std@@@2@@nlohmann@@V?$allocator@V?$basic_json@Vmap@std@@Vvector@2@V?$basic_string@DU?$char_traits@D@std@@V?$allocator@D@2@@2@_N_J_KNVallocator@2@Uadl_serializer@nlohmann@@V?$vector@EV?$allocator@E@std@@@2@@nlohmann@@@std@@@std@@AAEXXZ 00448bd0 f i userprofile.obj
 0001:00047c50       ?at@?$basic_json@Vmap@std@@Vvector@2@V?$basic_string@DU?$char_traits@D@std@@V?$allocator@D@2@@2@_N_J_KNVallocator@2@Uadl_serializer@nlohmann@@V?$vector@EV?$allocator@E@std@@@2@@nlohmann@@QBEABV12@ABV?$basic_string@DU?$char_traits@D@std@@V?$allocator@D@2@@std@@@Z 00448c50 f i userprofile.obj
 0001:00047da0       ?begin@?$iteration_proxy@V?$iter_impl@$$CBV?$basic_json@Vmap@std@@Vvector@2@V?$basic_string@DU?$char_traits@D@std@@V?$allocator@D@2@@2@_N_J_KNVallocator@2@Uadl_serializer@nlohmann@@V?$vector@EV?$allocator@E@std@@@2@@nlohmann@@@detail@nlohmann@@@detail@nlohmann@@QAE?AV?$iteration_proxy_value@V?$iter_impl@$$CBV?$basic_json@Vmap@std@@Vvector@2@V?$basic_string@DU?$char_traits@D@std@@V?$allocator@D@2@@2@_N_J_KNVallocator@2@Uadl_serializer@nlohmann@@V?$vector@EV?$allocator@E@std@@@2@@nlohmann@@@detail@nlohmann@@@23@XZ 00448da0 f i userprofile.obj
 0001:00047ea0       ?boolean@?$json_sax_dom_parser@V?$basic_json@Vmap@std@@Vvector@2@V?$basic_string@DU?$char_traits@D@std@@V?$allocator@D@2@@2@_N_J_KNVallocator@2@Uadl_serializer@nlohmann@@V?$vector@EV?$allocator@E@std@@@2@@nlohmann@@@detail@nlohmann@@QAE_N_N@Z 00448ea0 f i userprofile.obj
 0001:00047f20       ?cend@?$basic_json@Vmap@std@@Vvector@2@V?$basic_string@DU?$char_traits@D@std@@V?$allocator@D@2@@2@_N_J_KNVallocator@2@Uadl_serializer@nlohmann@@V?$vector@EV?$allocator@E@std@@@2@@nlohmann@@QBE?AV?$iter_impl@$$CBV?$basic_json@Vmap@std@@Vvector@2@V?$basic_string@DU?$char_traits@D@std@@V?$allocator@D@2@@2@_N_J_KNVallocator@2@Uadl_serializer@nlohmann@@V?$vector@EV?$allocator@E@std@@@2@@nlohmann@@@detail@2@XZ 00448f20 f i userprofile.obj
 0001:00047f20       ?end@?$basic_json@Vmap@std@@Vvector@2@V?$basic_string@DU?$char_traits@D@std@@V?$allocator@D@2@@2@_N_J_KNVallocator@2@Uadl_serializer@nlohmann@@V?$vector@EV?$allocator@E@std@@@2@@nlohmann@@QAE?AV?$iter_impl@V?$basic_json@Vmap@std@@Vvector@2@V?$basic_string@DU?$char_traits@D@std@@V?$allocator@D@2@@2@_N_J_KNVallocator@2@Uadl_serializer@nlohmann@@V?$vector@EV?$allocator@E@std@@@2@@nlohmann@@@detail@2@XZ 00448f20 f i userprofile.obj
 0001:00047f90       ?destroy@json_value@?$basic_json@Vmap@std@@Vvector@2@V?$basic_string@DU?$char_traits@D@std@@V?$allocator@D@2@@2@_N_J_KNVallocator@2@Uadl_serializer@nlohmann@@V?$vector@EV?$allocator@E@std@@@2@@nlohmann@@QAEXW4value_t@detail@3@@Z 00448f90 f i userprofile.obj
 0001:00048460       ?dump@?$basic_json@Vmap@std@@Vvector@2@V?$basic_string@DU?$char_traits@D@std@@V?$allocator@D@2@@2@_N_J_KNVallocator@2@Uadl_serializer@nlohmann@@V?$vector@EV?$allocator@E@std@@@2@@nlohmann@@QBE?AV?$basic_string@DU?$char_traits@D@std@@V?$allocator@D@2@@std@@HD_NW4error_handler_t@detail@2@@Z 00449460 f i userprofile.obj
 0001:00048640       ?dump@?$serializer@V?$basic_json@Vmap@std@@Vvector@2@V?$basic_string@DU?$char_traits@D@std@@V?$allocator@D@2@@2@_N_J_KNVallocator@2@Uadl_serializer@nlohmann@@V?$vector@EV?$allocator@E@std@@@2@@nlohmann@@@detail@nlohmann@@QAEXABV?$basic_json@Vmap@std@@Vvector@2@V?$basic_string@DU?$char_traits@D@std@@V?$allocator@D@2@@2@_N_J_KNVallocator@2@Uadl_serializer@nlohmann@@V?$vector@EV?$allocator@E@std@@@2@@3@_N1II@Z 00449640 f i userprofile.obj
 0001:00049100       ?dump_escaped@?$serializer@V?$basic_json@Vmap@std@@Vvector@2@V?$basic_string@DU?$char_traits@D@std@@V?$allocator@D@2@@2@_N_J_KNVallocator@2@Uadl_serializer@nlohmann@@V?$vector@EV?$allocator@E@std@@@2@@nlohmann@@@detail@nlohmann@@AAEXABV?$basic_string@DU?$char_traits@D@std@@V?$allocator@D@2@@std@@_N@Z 0044a100 f i userprofile.obj
 0001:00049640       ?end@?$iteration_proxy@V?$iter_impl@$$CBV?$basic_json@Vmap@std@@Vvector@2@V?$basic_string@DU?$char_traits@D@std@@V?$allocator@D@2@@2@_N_J_KNVallocator@2@Uadl_serializer@nlohmann@@V?$vector@EV?$allocator@E@std@@@2@@nlohmann@@@detail@nlohmann@@@detail@nlohmann@@QAE?AV?$iteration_proxy_value@V?$iter_impl@$$CBV?$basic_json@Vmap@std@@Vvector@2@V?$basic_string@DU?$char_traits@D@std@@V?$allocator@D@2@@2@_N_J_KNVallocator@2@Uadl_serializer@nlohmann@@V?$vector@EV?$allocator@E@std@@@2@@nlohmann@@@detail@nlohmann@@@23@XZ 0044a640 f i userprofile.obj
 0001:000496e0       ?end_array@?$json_sax_dom_callback_parser@V?$basic_json@Vmap@std@@Vvector@2@V?$basic_string@DU?$char_traits@D@std@@V?$allocator@D@2@@2@_N_J_KNVallocator@2@Uadl_serializer@nlohmann@@V?$vector@EV?$allocator@E@std@@@2@@nlohmann@@@detail@nlohmann@@QAE_NXZ 0044a6e0 f i userprofile.obj
 0001:000497c0       ?end_object@?$json_sax_dom_callback_parser@V?$basic_json@Vmap@std@@Vvector@2@V?$basic_string@DU?$char_traits@D@std@@V?$allocator@D@2@@2@_N_J_KNVallocator@2@Uadl_serializer@nlohmann@@V?$vector@EV?$allocator@E@std@@@2@@nlohmann@@@detail@nlohmann@@QAE_NXZ 0044a7c0 f i userprofile.obj
 0001:000499a0       ?get@?$lexer@V?$basic_json@Vmap@std@@Vvector@2@V?$basic_string@DU?$char_traits@D@std@@V?$allocator@D@2@@2@_N_J_KNVallocator@2@Uadl_serializer@nlohmann@@V?$vector@EV?$allocator@E@std@@@2@@nlohmann@@V?$iterator_input_adapter@PBD@detail@2@@detail@nlohmann@@AAEHXZ 0044a9a0 f i userprofile.obj
 0001:00049a00       ?get_codepoint@?$lexer@V?$basic_json@Vmap@std@@Vvector@2@V?$basic_string@DU?$char_traits@D@std@@V?$allocator@D@2@@2@_N_J_KNVallocator@2@Uadl_serializer@nlohmann@@V?$vector@EV?$allocator@E@std@@@2@@nlohmann@@V?$iterator_input_adapter@PBD@detail@2@@detail@nlohmann@@AAEHXZ 0044aa00 f i userprofile.obj
 0001:00049ae0       ?key@?$json_sax_dom_callback_parser@V?$basic_json@Vmap@std@@Vvector@2@V?$basic_string@DU?$char_traits@D@std@@V?$allocator@D@2@@2@_N_J_KNVallocator@2@Uadl_serializer@nlohmann@@V?$vector@EV?$allocator@E@std@@@2@@nlohmann@@@detail@nlohmann@@QAE_NAAV?$basic_string@DU?$char_traits@D@std@@V?$allocator@D@2@@std@@@Z 0044aae0 f i userprofile.obj
 0001:00049c20       ?max_size@?$basic_json@Vmap@std@@Vvector@2@V?$basic_string@DU?$char_traits@D@std@@V?$allocator@D@2@@2@_N_J_KNVallocator@2@Uadl_serializer@nlohmann@@V?$vector@EV?$allocator@E@std@@@2@@nlohmann@@QBEIXZ 0044ac20 f i userprofile.obj
 0001:00049c70       ?next_byte_in_range@?$lexer@V?$basic_json@Vmap@std@@Vvector@2@V?$basic_string@DU?$char_traits@D@std@@V?$allocator@D@2@@2@_N_J_KNVallocator@2@Uadl_serializer@nlohmann@@V?$vector@EV?$allocator@E@std@@@2@@nlohmann@@V?$iterator_input_adapter@PBD@detail@2@@detail@nlohmann@@AAE_NV?$initializer_list@H@std@@@Z 0044ac70 f i userprofile.obj
 0001:00049d20       ?null@?$json_sax_dom_parser@V?$basic_json@Vmap@std@@Vvector@2@V?$basic_string@DU?$char_traits@D@std@@V?$allocator@D@2@@2@_N_J_KNVallocator@2@Uadl_serializer@nlohmann@@V?$vector@EV?$allocator@E@std@@@2@@nlohmann@@@detail@nlohmann@@QAE_NXZ 0044ad20 f i userprofile.obj
 0001:00049e00       ?number_float@?$json_sax_dom_parser@V?$basic_json@Vmap@std@@Vvector@2@V?$basic_string@DU?$char_traits@D@std@@V?$allocator@D@2@@2@_N_J_KNVallocator@2@Uadl_serializer@nlohmann@@V?$vector@EV?$allocator@E@std@@@2@@nlohmann@@@detail@nlohmann@@QAE_NNABV?$basic_string@DU?$char_traits@D@std@@V?$allocator@D@2@@std@@@Z 0044ae00 f i userprofile.obj
 0001:00049e90       ?number_integer@?$json_sax_dom_parser@V?$basic_json@Vmap@std@@Vvector@2@V?$basic_string@DU?$char_traits@D@std@@V?$allocator@D@2@@2@_N_J_KNVallocator@2@Uadl_serializer@nlohmann@@V?$vector@EV?$allocator@E@std@@@2@@nlohmann@@@detail@nlohmann@@QAE_N_J@Z 0044ae90 f i userprofile.obj
 0001:00049f10       ?number_unsigned@?$json_sax_dom_parser@V?$basic_json@Vmap@std@@Vvector@2@V?$basic_string@DU?$char_traits@D@std@@V?$allocator@D@2@@2@_N_J_KNVallocator@2@Uadl_serializer@nlohmann@@V?$vector@EV?$allocator@E@std@@@2@@nlohmann@@@detail@nlohmann@@QAE_N_K@Z 0044af10 f i userprofile.obj
 0001:00049f90       ?parse@?$parser@V?$basic_json@Vmap@std@@Vvector@2@V?$basic_string@DU?$char_traits@D@std@@V?$allocator@D@2@@2@_N_J_KNVallocator@2@Uadl_serializer@nlohmann@@V?$vector@EV?$allocator@E@std@@@2@@nlohmann@@V?$iterator_input_adapter@PBD@detail@2@@detail@nlohmann@@QAEX_NAAV?$basic_json@Vmap@std@@Vvector@2@V?$basic_string@DU?$char_traits@D@std@@V?$allocator@D@2@@2@_N_J_KNVallocator@2@Uadl_serializer@nlohmann@@V?$vector@EV?$allocator@E@std@@@2@@3@@Z 0044af90 f i userprofile.obj
 0001:0004a5b0       ?parse@?$parser@V?$basic_json@Vmap@std@@Vvector@2@V?$basic_string@DU?$char_traits@D@std@@V?$allocator@D@2@@2@_N_J_KNVallocator@2@Uadl_serializer@nlohmann@@V?$vector@EV?$allocator@E@std@@@2@@nlohmann@@Vinput_stream_adapter@detail@2@@detail@nlohmann@@QAEX_NAAV?$basic_json@Vmap@std@@Vvector@2@V?$basic_string@DU?$char_traits@D@std@@V?$allocator@D@2@@2@_N_J_KNVallocator@2@Uadl_serializer@nlohmann@@V?$vector@EV?$allocator@E@std@@@2@@3@@Z 0044b5b0 f i userprofile.obj
 0001:0004abd0       ?push_back@?$vector@V?$basic_json@Vmap@std@@Vvector@2@V?$basic_string@DU?$char_traits@D@std@@V?$allocator@D@2@@2@_N_J_KNVallocator@2@Uadl_serializer@nlohmann@@V?$vector@EV?$allocator@E@std@@@2@@nlohmann@@V?$allocator@V?$basic_json@Vmap@std@@Vvector@2@V?$basic_string@DU?$char_traits@D@std@@V?$allocator@D@2@@2@_N_J_KNVallocator@2@Uadl_serializer@nlohmann@@V?$vector@EV?$allocator@E@std@@@2@@nlohmann@@@std@@@std@@QAEX$$QAV?$basic_json@Vmap@std@@Vvector@2@V?$basic_string@DU?$char_traits@D@std@@V?$allocator@D@2@@2@_N_J_KNVallocator@2@Uadl_serializer@nlohmann@@V?$vector@EV?$allocator@E@std@@@2@@nlohmann@@@Z 0044bbd0 f i userprofile.obj
 0001:0004ad10       ?reserve@?$vector@V?$basic_json@Vmap@std@@Vvector@2@V?$basic_string@DU?$char_traits@D@std@@V?$allocator@D@2@@2@_N_J_KNVallocator@2@Uadl_serializer@nlohmann@@V?$vector@EV?$allocator@E@std@@@2@@nlohmann@@V?$allocator@V?$basic_json@Vmap@std@@Vvector@2@V?$basic_string@DU?$char_traits@D@std@@V?$allocator@D@2@@2@_N_J_KNVallocator@2@Uadl_serializer@nlohmann@@V?$vector@EV?$allocator@E@std@@@2@@nlohmann@@@std@@@std@@QAEXI@Z 0044bd10 f i userprofile.obj
 0001:0004ad70       ?scan@?$lexer@V?$basic_json@Vmap@std@@Vvector@2@V?$basic_string@DU?$char_traits@D@std@@V?$allocator@D@2@@2@_N_J_KNVallocator@2@Uadl_serializer@nlohmann@@V?$vector@EV?$allocator@E@std@@@2@@nlohmann@@V?$iterator_input_adapter@PBD@detail@2@@detail@nlohmann@@QAE?AW4token_type@?$lexer_base@V?$basic_json@Vmap@std@@Vvector@2@V?$basic_string@DU?$char_traits@D@std@@V?$allocator@D@2@@2@_N_J_KNVallocator@2@Uadl_serializer@nlohmann@@V?$vector@EV?$allocator@E@std@@@2@@nlohmann@@@23@XZ 0044bd70 f i userprofile.obj
 0001:0004b130       ?scan_comment@?$lexer@V?$basic_json@Vmap@std@@Vvector@2@V?$basic_string@DU?$char_traits@D@std@@V?$allocator@D@2@@2@_N_J_KNVallocator@2@Uadl_serializer@nlohmann@@V?$vector@EV?$allocator@E@std@@@2@@nlohmann@@V?$iterator_input_adapter@PBD@detail@2@@detail@nlohmann@@AAE_NXZ 0044c130 f i userprofile.obj
 0001:0004b2e0       ?scan_literal@?$lexer@V?$basic_json@Vmap@std@@Vvector@2@V?$basic_string@DU?$char_traits@D@std@@V?$allocator@D@2@@2@_N_J_KNVallocator@2@Uadl_serializer@nlohmann@@V?$vector@EV?$allocator@E@std@@@2@@nlohmann@@V?$iterator_input_adapter@PBD@detail@2@@detail@nlohmann@@AAE?AW4token_type@?$lexer_base@V?$basic_json@Vmap@std@@Vvector@2@V?$basic_string@DU?$char_traits@D@std@@V?$allocator@D@2@@2@_N_J_KNVallocator@2@Uadl_serializer@nlohmann@@V?$vector@EV?$allocator@E@std@@@2@@nlohmann@@@23@PBDIW44523@@Z 0044c2e0 f i userprofile.obj
 0001:0004b380       ?scan_number@?$lexer@V?$basic_json@Vmap@std@@Vvector@2@V?$basic_string@DU?$char_traits@D@std@@V?$allocator@D@2@@2@_N_J_KNVallocator@2@Uadl_serializer@nlohmann@@V?$vector@EV?$allocator@E@std@@@2@@nlohmann@@V?$iterator_input_adapter@PBD@detail@2@@detail@nlohmann@@AAE?AW4token_type@?$lexer_base@V?$basic_json@Vmap@std@@Vvector@2@V?$basic_string@DU?$char_traits@D@std@@V?$allocator@D@2@@2@_N_J_KNVallocator@2@Uadl_serializer@nlohmann@@V?$vector@EV?$allocator@E@std@@@2@@nlohmann@@@23@XZ 0044c380 f i userprofile.obj
 0001:0004ba80       ?scan_string@?$lexer@V?$basic_json@Vmap@std@@Vvector@2@V?$basic_string@DU?$char_traits@D@std@@V?$allocator@D@2@@2@_N_J_KNVallocator@2@Uadl_serializer@nlohmann@@V?$vector@EV?$allocator@E@std@@@2@@nlohmann@@V?$iterator_input_adapter@PBD@detail@2@@detail@nlohmann@@AAE?AW4token_type@?$lexer_base@V?$basic_json@Vmap@std@@Vvector@2@V?$basic_string@DU?$char_traits@D@std@@V?$allocator@D@2@@2@_N_J_KNVallocator@2@Uadl_serializer@nlohmann@@V?$vector@EV?$allocator@E@std@@@2@@nlohmann@@@23@XZ 0044ca80 f i userprofile.obj
 0001:0004c320       ?skip_whitespace@?$lexer@V?$basic_json@Vmap@std@@Vvector@2@V?$basic_string@DU?$char_traits@D@std@@V?$allocator@D@2@@2@_N_J_KNVallocator@2@Uadl_serializer@nlohmann@@V?$vector@EV?$allocator@E@std@@@2@@nlohmann@@V?$iterator_input_adapter@PBD@detail@2@@detail@nlohmann@@QAEXXZ 0044d320 f i userprofile.obj
 0001:0004c3a0       ?start_array@?$json_sax_dom_callback_parser@V?$basic_json@Vmap@std@@Vvector@2@V?$basic_string@DU?$char_traits@D@std@@V?$allocator@D@2@@2@_N_J_KNVallocator@2@Uadl_serializer@nlohmann@@V?$vector@EV?$allocator@E@std@@@2@@nlohmann@@@detail@nlohmann@@QAE_NI@Z 0044d3a0 f i userprofile.obj
 0001:0004c4b0       ?start_array@?$json_sax_dom_parser@V?$basic_json@Vmap@std@@Vvector@2@V?$basic_string@DU?$char_traits@D@std@@V?$allocator@D@2@@2@_N_J_KNVallocator@2@Uadl_serializer@nlohmann@@V?$vector@EV?$allocator@E@std@@@2@@nlohmann@@@detail@nlohmann@@QAE_NI@Z 0044d4b0 f i userprofile.obj
 0001:0004c580       ?start_object@?$json_sax_dom_callback_parser@V?$basic_json@Vmap@std@@Vvector@2@V?$basic_string@DU?$char_traits@D@std@@V?$allocator@D@2@@2@_N_J_KNVallocator@2@Uadl_serializer@nlohmann@@V?$vector@EV?$allocator@E@std@@@2@@nlohmann@@@detail@nlohmann@@QAE_NI@Z 0044d580 f i userprofile.obj
 0001:0004c690       ?start_object@?$json_sax_dom_parser@V?$basic_json@Vmap@std@@Vvector@2@V?$basic_string@DU?$char_traits@D@std@@V?$allocator@D@2@@2@_N_J_KNVallocator@2@Uadl_serializer@nlohmann@@V?$vector@EV?$allocator@E@std@@@2@@nlohmann@@@detail@nlohmann@@QAE_NI@Z 0044d690 f i userprofile.obj
 0001:0004c760       ?string@?$json_sax_dom_parser@V?$basic_json@Vmap@std@@Vvector@2@V?$basic_string@DU?$char_traits@D@std@@V?$allocator@D@2@@2@_N_J_KNVallocator@2@Uadl_serializer@nlohmann@@V?$vector@EV?$allocator@E@std@@@2@@nlohmann@@@detail@nlohmann@@QAE_NAAV?$basic_string@DU?$char_traits@D@std@@V?$allocator@D@2@@std@@@Z 0044d760 f i userprofile.obj
 0001:0004c8a0       ?to_string@std@@YA?AV?$basic_string@DU?$char_traits@D@std@@V?$allocator@D@2@@1@K@Z 0044d8a0 f i userprofile.obj
 0001:0004ca70       ?write_character@?$output_string_adapter@DV?$basic_string@DU?$char_traits@D@std@@V?$allocator@D@2@@std@@@detail@nlohmann@@UAEXD@Z 0044da70 f i userprofile.obj
 0001:0004ca80       ?write_characters@?$output_string_adapter@DV?$basic_string@DU?$char_traits@D@std@@V?$allocator@D@2@@std@@@detail@nlohmann@@UAEXPBDI@Z 0044da80 f i userprofile.obj
 0001:0004ca90       ??0CToolkitDlg@@QAE@UDialogOptions@0@@Z 0044da90 f   toolkit_dlg.obj
 0001:0004caf0       ??_ECToolkitDlg@@UAEPAXI@Z 0044daf0 f i toolkit_dlg.obj
 0001:0004caf0       ??_GCToolkitDlg@@UAEPAXI@Z 0044daf0 f i toolkit_dlg.obj
 0001:0004cce0       ?LoadLanguageStrings@CToolkitDlg@@QAEXXZ 0044dce0 f   toolkit_dlg.obj
 0001:0004cf40       ?OnFinalMessage@CToolkitDlg@@UAEXPAUHWND__@@@Z 0044df40 f   toolkit_dlg.obj
 0001:0004cf70       ?ProcessWindowMessage@CToolkitDlg@@UAEHPAUHWND__@@IIJAAJK@Z 0044df70 f i toolkit_dlg.obj
 0001:0004cfa0       ?_ProcessWindowMessage@CToolkitDlg@@QAEHPAUHWND__@@IIJAAJK@Z 0044dfa0 f i toolkit_dlg.obj
 0001:0004d296       _CreateEnvironmentBlock@12 0044e296 f   userenv:USERENV.dll
 0001:0004d29c       _DestroyEnvironmentBlock@4 0044e29c f   userenv:USERENV.dll
 0001:0004d2a2       _EvtClose@4                0044e2a2 f   wevtapi:wevtapi.dll
 0001:0004d2a8       _EvtNext@24                0044e2a8 f   wevtapi:wevtapi.dll
 0001:0004d2ae       _EvtSubscribe@32           0044e2ae f   wevtapi:wevtapi.dll
 0001:0004d2b4       _EvtCreateRenderContext@12 0044e2b4 f   wevtapi:wevtapi.dll
 0001:0004d2ba       _EvtRender@28              0044e2ba f   wevtapi:wevtapi.dll
 0001:0004d2c0       _WTSEnumerateSessionsW@20  0044e2c0 f   wtsapi32:WTSAPI32.dll
 0001:0004d2c6       _WTSQuerySessionInformationW@20 0044e2c6 f   wtsapi32:WTSAPI32.dll
 0001:0004d2cc       _WTSFreeMemory@4           0044e2cc f   wtsapi32:WTSAPI32.dll
 0001:0004d2d2       _WTSQueryUserToken@8       0044e2d2 f   wtsapi32:WTSAPI32.dll
 0001:0004d2d8       _CreateToolhelp32Snapshot@8 0044e2d8 f   kernel32:KERNEL32.dll
 0001:0004d2de       _Process32FirstW@8         0044e2de f   kernel32:KERNEL32.dll
 0001:0004d2e4       _Process32NextW@8          0044e2e4 f   kernel32:KERNEL32.dll
 0001:0004d2ea       _K32GetModuleFileNameExW@16 0044e2ea f   kernel32:KERNEL32.dll
 0001:0004d2f0       _ConvertStringSecurityDescriptorToSecurityDescriptorW@16 0044e2f0 f   advapi32:ADVAPI32.dll
 0001:0004d2f6       _VarDecCmp@8               0044e2f6 f   oleaut32:OLEAUT32.dll
 0001:0004d2fc       ??0CAtlBaseModule@ATL@@QAE@XZ 0044e2fc f   atls:atlbase.obj
 0001:0004d34f       ??0_ATL_BASE_MODULE70@ATL@@QAE@XZ 0044e34f f i atls:atlbase.obj
 0001:0004d372       ??1CAtlBaseModule@ATL@@QAE@XZ 0044e372 f   atls:atlbase.obj
 0001:0004d388       ??A?$CSimpleArray@PAUHINSTANCE__@@V?$CSimpleArrayEqualHelper@PAUHINSTANCE__@@@ATL@@@ATL@@QAEAAPAUHINSTANCE__@@H@Z 0044e388 f i atls:atlbase.obj
 0001:0004d3ab       ?GetHInstanceAt@CAtlBaseModule@ATL@@QAEPAUHINSTANCE__@@H@Z 0044e3ab f   atls:atlbase.obj
 0001:0004d3f0       ?Init@CComCriticalSection@ATL@@QAEJXZ 0044e3f0 f i atls:atlbase.obj
 0001:0004d41a       ?RemoveAll@?$CSimpleArray@PAUHINSTANCE__@@V?$CSimpleArrayEqualHelper@PAUHINSTANCE__@@@ATL@@@ATL@@QAEXXZ 0044e41a f i atls:atlbase.obj
 0001:0004d517       ?Init@_stdcallthunk@ATL@@QAEHKPAX@Z 0044e517 f i atls:atlthunk.obj
 0001:0004d54c       ?__AllocStdCallThunk_cmn@@YAPAXXZ 0044e54c f   atls:atlthunk.obj
 0001:0004d612       ?__FreeStdCallThunk_cmn@@YAXPAX@Z 0044e612 f   atls:atlthunk.obj
 0001:0004d6ae       _AtlThunk_AllocateData@0   0044e6ae f   atls:atlthunk.obj
 0001:0004d713       _AtlThunk_DataToCode@4     0044e713 f   atls:atlthunk.obj
 0001:0004d75a       _AtlThunk_FreeData@4       0044e75a f   atls:atlthunk.obj
 0001:0004d7b0       _AtlThunk_InitData@12      0044e7b0 f   atls:atlthunk.obj
 0001:0004d7ff       ??0bad_alloc@std@@QAE@XZ   0044e7ff f i libcpmt:xthrow.obj
 0001:0004d81d       ??0bad_function_call@std@@QAE@ABV01@@Z 0044e81d f i libcpmt:xthrow.obj
 0001:0004d838       ??0bad_function_call@std@@QAE@XZ 0044e838 f i libcpmt:xthrow.obj
 0001:0004d84f       ??0exception@std@@QAE@QBD@Z 0044e84f f i libcpmt:xthrow.obj
 0001:0004d88a       ??0length_error@std@@QAE@ABV01@@Z 0044e88a f i libcpmt:xthrow.obj
 0001:0004d8a5       ??0length_error@std@@QAE@PBD@Z 0044e8a5 f i libcpmt:xthrow.obj
 0001:0004d8c4       ??0out_of_range@std@@QAE@ABV01@@Z 0044e8c4 f i libcpmt:xthrow.obj
 0001:0004d8df       ??0out_of_range@std@@QAE@PBD@Z 0044e8df f i libcpmt:xthrow.obj
 0001:0004d8fe       ??_Ebad_exception@std@@UAEPAXI@Z 0044e8fe f i libvcruntime:frame.obj
 0001:0004d8fe       ??_Ebad_function_call@std@@UAEPAXI@Z 0044e8fe f i libcpmt:xthrow.obj
 0001:0004d8fe       ??_Elength_error@std@@UAEPAXI@Z 0044e8fe f i libcpmt:xthrow.obj
 0001:0004d8fe       ??_Eout_of_range@std@@UAEPAXI@Z 0044e8fe f i libcpmt:xthrow.obj
 0001:0004d8fe       ??_Gbad_exception@std@@UAEPAXI@Z 0044e8fe f i libvcruntime:frame.obj
 0001:0004d8fe       ??_Gbad_function_call@std@@UAEPAXI@Z 0044e8fe f i libcpmt:xthrow.obj
 0001:0004d8fe       ??_Glength_error@std@@UAEPAXI@Z 0044e8fe f i libcpmt:xthrow.obj
 0001:0004d8fe       ??_Gout_of_range@std@@UAEPAXI@Z 0044e8fe f i libcpmt:xthrow.obj
 0001:0004d92b       ?_Xbad_alloc@std@@YAXXZ    0044e92b f   libcpmt:xthrow.obj
 0001:0004d92b       ?__scrt_throw_std_bad_alloc@@YAXXZ 0044e92b f   LIBCMT:throw_bad_alloc.obj
 0001:0004d948       ?_Xbad_function_call@std@@YAXXZ 0044e948 f   libcpmt:xthrow.obj
 0001:0004d965       ?_Xinvalid_argument@std@@YAXPBD@Z 0044e965 f   libcpmt:xthrow.obj
 0001:0004d985       ?_Xlength_error@std@@YAXPBD@Z 0044e985 f   libcpmt:xthrow.obj
 0001:0004d9a5       ?_Xout_of_range@std@@YAXPBD@Z 0044e9a5 f   libcpmt:xthrow.obj
 0001:0004d9c5       ?_Xruntime_error@std@@YAXPBD@Z 0044e9c5 f   libcpmt:xthrow.obj
 0001:0004d9e5       ?what@bad_function_call@std@@UBEPBDXZ 0044e9e5 f i libcpmt:xthrow.obj
 0001:0004eaf0       ___std_find_end_2@16       0044faf0 f   libcpmt:vector_algorithms.obj
 0001:0004eb00       ___std_find_first_of_trivial_pos_2@16 0044fb00 f   libcpmt:vector_algorithms.obj
 0001:0004eb20       ___std_find_trivial_2@12   0044fb20 f   libcpmt:vector_algorithms.obj
 0001:0004eb30       ___std_search_2@16         0044fb30 f   libcpmt:vector_algorithms.obj
 0001:0004eb39       ___std_get_string_size_without_trailing_whitespace@8 0044fb39 f   libcpmt:syserror_import_lib.obj
 0001:0004eb5d       ___std_system_error_allocate_message@8 0044fb5d f   libcpmt:syserror_import_lib.obj
 0001:0004ebd7       ___std_system_error_deallocate_message@4 0044fbd7 f   libcpmt:syserror_import_lib.obj
 0001:0004ebdd       ?_Syserror_map@std@@YAPBDH@Z 0044fbdd f   libcpmt:syserror.obj
 0001:0004ec02       ?_Winerror_map@std@@YAHH@Z 0044fc02 f   libcpmt:syserror.obj
 0001:0004ed07       ___std_fs_close_handle@4   0044fd07 f   libcpmt:filesystem.obj
 0001:0004ed27       ___std_fs_code_page@0      0044fd27 f   libcpmt:filesystem.obj
 0001:0004ed44       ___std_fs_convert_narrow_to_wide@20 0044fd44 f   libcpmt:filesystem.obj
 0001:0004ed78       ___std_fs_convert_wide_to_narrow_replace_chars@20 0044fd78 f   libcpmt:filesystem.obj
 0001:0004ede7       ___std_fs_create_directory@4 0044fde7 f   libcpmt:filesystem.obj
 0001:0004ee45       ___std_fs_directory_iterator_advance@8 0044fe45 f   libcpmt:filesystem.obj
 0001:0004ee66       ___std_fs_directory_iterator_close@4 0044fe66 f   libcpmt:filesystem.obj
 0001:0004ee86       ___std_fs_directory_iterator_open@12 0044fe86 f   libcpmt:filesystem.obj
 0001:0004eebd       ___std_fs_equivalent@8     0044febd f   libcpmt:filesystem.obj
 0001:0004ef96       ___std_fs_get_stats@16     0044ff96 f   libcpmt:filesystem.obj
 0001:0004f220       ___std_fs_open_handle@16   00450220 f   libcpmt:filesystem.obj
 0001:0004f254       ___std_fs_remove@4         00450254 f   libcpmt:filesystem.obj
 0001:0004f400       ??0_Init_locks@std@@QAE@XZ 00450400 f   libcpmt:xlock.obj
 0001:0004f42d       ??0_Lockit@std@@QAE@H@Z    0045042d f   libcpmt:xlock.obj
 0001:0004f45e       ??1_Init_locks@std@@QAE@XZ 0045045e f   libcpmt:xlock.obj
 0001:0004f485       ??1_Lockit@std@@QAE@XZ     00450485 f   libcpmt:xlock.obj
 0001:0004f4a4       ?uncaught_exceptions@std@@YAHXZ 004504a4 f   libcpmt:uncaught_exceptions.obj
 0001:0004f4a9       ??0_Locimp@locale@std@@AAE@_N@Z 004504a9 f i libcpmt:locale0.obj
 0001:0004f4ea       ??1_Fac_node@std@@QAE@XZ   004504ea f i libcpmt:locale0.obj
 0001:0004f51b       ??1_Fac_tidy_reg_t@std@@QAE@XZ 0045051b f i libcpmt:locale0.obj
 0001:0004f53f       ??1_Locimp@locale@std@@MAE@XZ 0045053f f i libcpmt:locale0.obj
 0001:0004f55f       ??4?$_Yarn@D@std@@QAEAAV01@PBD@Z 0045055f f i libcpmt:locale0.obj
 0001:0004f5a8       ??_E_Locimp@locale@std@@MAEPAXI@Z 004505a8 f i libcpmt:locale0.obj
 0001:0004f5a8       ??_G_Locimp@locale@std@@MAEPAXI@Z 004505a8 f i libcpmt:locale0.obj
 0001:0004f5ca       ?_Facet_Register@std@@YAXPAV_Facet_base@1@@Z 004505ca f   libcpmt:locale0.obj
 0001:0004f5f7       ?_Getgloballocale@locale@std@@CAPAV_Locimp@12@XZ 004505f7 f   libcpmt:locale0.obj
 0001:0004f5fd       ?_Init@locale@std@@CAPAV_Locimp@12@_N@Z 004505fd f   libcpmt:locale0.obj
 0001:0004f68a       ?_Locimp_dtor@_Locimp@locale@std@@CAXPAV123@@Z 0045068a f   libcpmt:locale0.obj
 0001:0004f6fb       ?_Locinfo_ctor@_Locinfo@std@@SAXPAV12@PBD@Z 004506fb f   libcpmt:locale0.obj
 0001:0004f747       ?_Locinfo_dtor@_Locinfo@std@@SAXPAV12@@Z 00450747 f   libcpmt:locale0.obj
 0001:0004f761       ?_New_Locimp@_Locimp@locale@std@@CAPAV123@_N@Z 00450761 f   libcpmt:locale0.obj
 0001:0004f784       ?_Setgloballocale@locale@std@@CAXPAX@Z 00450784 f   libcpmt:locale0.obj
 0001:0004f7ac       ?_Tidy@?$_Yarn@D@std@@AAEXXZ 004507ac f i libcpmt:locale0.obj
 0001:0004f7c4       __Deletegloballocale       004507c4 f   libcpmt:locale0.obj
 0001:0004f82c       __Getctype                 0045082c f   libcpmt:_tolower.obj
 0001:0004f89a       __Tolower                  0045089a f   libcpmt:_tolower.obj
 0001:0004f986       __Toupper                  00450986 f   libcpmt:_toupper.obj
 0001:0004fa72       ?_Addstd@ios_base@std@@SAXPAV12@@Z 00450a72 f   libcpmt:ios.obj
 0001:0004fabe       ?_Callfns@ios_base@std@@AAEXW4event@12@@Z 00450abe f i libcpmt:ios.obj
 0001:0004faf1       ?_Ios_base_dtor@ios_base@std@@CAXPAV12@@Z 00450af1 f   libcpmt:ios.obj
 0001:0004fb31       ?_Tidy@ios_base@std@@AAEXXZ 00450b31 f i libcpmt:ios.obj
 0001:0004fbb2       ?setw@std@@YA?AU?$_Smanip@_J@1@_J@Z 00450bb2 f   libcpmt:iomanip.obj
 0001:0004fc65       ?_Fiopen@std@@YAPAU_iobuf@@PB_WHH@Z 00450c65 f   libcpmt:fiopen.obj
 0001:0004fc6e       __Mtx_lock                 00450c6e f   libcpmt:mutex.obj
 0001:0004fc7f       __Mtx_unlock               00450c7f f   libcpmt:mutex.obj
 0001:0004fdcd       ??0system_error@std@@QAE@HABVerror_category@1@PBD@Z 00450dcd f i libcpmt:thread0.obj
 0001:0004fe1d       ?_Throw_Cpp_error@std@@YAXH@Z 00450e1d f   libcpmt:thread0.obj
 0001:0004fe52       ?generic_category@std@@YAABVerror_category@1@XZ 00450e52 f i libcpmt:thread0.obj
 0001:0004fe58       __Mtxdst                   00450e58 f   libcpmt:xmtx.obj
 0001:0004fe66       __Mtxinit                  00450e66 f   libcpmt:xmtx.obj
 0001:0004fe7b       __Mtxlock                  00450e7b f   libcpmt:xmtx.obj
 0001:0004fe89       __Mtxunlock                00450e89 f   libcpmt:xmtx.obj
 0001:0004fe97       ??1_Init_atexit@@QAE@XZ    00450e97 f i libcpmt:iosptrs.obj
 0001:0004feff       ?_Atexit@@YAXP6AXXZ@Z      00450eff f   libcpmt:iosptrs.obj
 0001:0004ff2e       ??1?$__crt_scoped_stack_ptr@_W@@QAE@XZ 00450f2e f i libcpmt:StlLCMapStringA.obj
 0001:0004ff47       ___crtLCMapStringA         00450f47 f   libcpmt:StlLCMapStringA.obj
 0001:00050117       __freea_crt                00451117 f i libcpmt:StlLCMapStringA.obj
 0001:00050135       __Timespec64_get_sys       00451135 f   libcpmt:xtime.obj
 0001:00050173       __Xtime_get_ticks          00451173 f   libcpmt:xtime.obj
 0001:000501ce       ___crtGetSystemTimePreciseAsFileTime 004511ce f   libcpmt:winapisupp.obj
 0001:00050223       ___raise_securityfailure   00451223 f   LIBCMT:gs_report.obj
 0001:0005024b       ___report_gsfailure        0045124b f   LIBCMT:gs_report.obj
 0001:00050346       ___report_rangecheckfailure 00451346 f   LIBCMT:gs_report.obj
 0001:00050353       ___report_securityfailure  00451353 f   LIBCMT:gs_report.obj
 0001:00050423       @__security_check_cookie@4 00451423 f   LIBCMT:secchk.obj
 0001:00050431       ??3@YAXPAX@Z               00451431 f   LIBCMT:delete_scalar.obj
 0001:00050436       ??2@YAPAXI@Z               00451436 f   LIBCMT:new_scalar.obj
 0001:00050466       ??3@YAXPAXI@Z              00451466 f   LIBCMT:delete_scalar_size.obj
 0001:00050480       __alloca_probe             00451480 f   LIBCMT:chkstk.obj
 0001:00050480       __chkstk                   00451480 f   LIBCMT:chkstk.obj
 0001:000504ab       ??_Etype_info@@UAEPAXI@Z   004514ab f i LIBCMT:std_type_info_static.obj
 0001:000504ab       ??_Gtype_info@@UAEPAXI@Z   004514ab f i LIBCMT:std_type_info_static.obj
 0001:000504ce       __Init_thread_abort        004514ce f   LIBCMT:thread_safe_statics.obj
 0001:000504fc       __Init_thread_footer       004514fc f   LIBCMT:thread_safe_statics.obj
 0001:0005054d       __Init_thread_header       0045154d f   LIBCMT:thread_safe_statics.obj
 0001:0005059f       __Init_thread_wait_v2      0045159f f   LIBCMT:thread_safe_statics.obj
 0001:000505b4       ??_L@YGXPAXIIP6EX0@Z1@Z    004515b4 f   LIBCMT:ehvecctr.obj
 0001:00050628       ??_M@YGXPAXIIP6EX0@Z@Z     00451628 f   LIBCMT:ehvecdtr.obj
 0001:000506b0       ?__ArrayUnwind@@YGXPAXIIP6EX0@Z@Z 004516b0 f   LIBCMT:ehvecdtr.obj
 0001:00050740       ??_V@YAXPAX@Z              00451740 f   LIBCMT:delete_array.obj
 0001:00050787       ___scrt_acquire_startup_lock 00451787 f   LIBCMT:utility.obj
 0001:000507b9       ___scrt_initialize_crt     004517b9 f   LIBCMT:utility.obj
 0001:000507f2       ___scrt_initialize_onexit_tables 004517f2 f   LIBCMT:utility.obj
 0001:00050879       ___scrt_is_nonwritable_in_current_image 00451879 f   LIBCMT:utility.obj
 0001:00050910       ___scrt_release_startup_lock 00451910 f   LIBCMT:utility.obj
 0001:0005092d       ___scrt_uninitialize_crt   0045192d f   LIBCMT:utility.obj
 0001:00050955       __onexit                   00451955 f   LIBCMT:utility.obj
 0001:00050983       _atexit                    00451983 f   LIBCMT:utility.obj
 0001:00050998       ??_U@YAPAXIABUnothrow_t@std@@@Z 00451998 f   LIBCMT:new_array_nothrow.obj
 0001:000509f0       __ftol3                    004519f0 f   LIBCMT:ftol3.obj
 0001:00050a60       __dtol3                    00451a60 f   LIBCMT:ftol3.obj
 0001:00050b10       __ultod3                   00451b10 f   LIBCMT:ftol3.obj
 0001:00050b60       __ltod3                    00451b60 f   LIBCMT:ftol3.obj
 0001:00050ba2       ??_U@YAPAXI@Z              00451ba2 f   LIBCMT:new_array.obj
 0001:00050bb0       __allrem                   00451bb0 f   LIBCMT:llrem.obj
 0001:00050c70       __allmul                   00451c70 f   LIBCMT:llmul.obj
 0001:00050cb0       __allshl                   00451cb0 f   LIBCMT:llshl.obj
 0001:00050cd0       __aullshr                  00451cd0 f   LIBCMT:ullshr.obj
 0001:00050f33       _wWinMainCRTStartup        00451f33 f   LIBCMT:exe_wwinmain.obj
 0001:00050f3d       ___isa_available_init      00451f3d f   LIBCMT:cpu_disp.obj
 0001:00051257       __EH_epilog3               00452257 f   LIBCMT:ehprolg3.obj
 0001:0005126b       __EH_epilog3_GS            0045226b f   LIBCMT:ehprolg3.obj
 0001:0005127a       __EH_prolog3               0045227a f   LIBCMT:ehprolg3.obj
 0001:000512ad       __EH_prolog3_GS            004522ad f   LIBCMT:ehprolg3.obj
 0001:000512e3       __EH_prolog3_catch         004522e3 f   LIBCMT:ehprolg3.obj
 0001:00051320       __alloca_probe_16          00452320 f   LIBCMT:alloca16.obj
 0001:00051336       __alloca_probe_8           00452336     LIBCMT:alloca16.obj
 0001:00051350       __aulldiv                  00452350 f   LIBCMT:ulldiv.obj
 0001:000513c0       __aullrem                  004523c0 f   LIBCMT:ullrem.obj
 0001:00051440       __SEH_prolog4              00452440 f   LIBCMT:sehprolg4.obj
 0001:00051485       __get_startup_argv_mode    00452485 f   LIBCMT:argv_mode.obj
 0001:00051489       ___scrt_is_ucrt_dll_in_use 00452489 f   LIBCMT:ucrt_detection.obj
 0001:00051495       ___scrt_fastfail           00452495 f   LIBCMT:utility_desktop.obj
 0001:000515aa       ___scrt_get_show_window_mode 004525aa f   LIBCMT:utility_desktop.obj
 0001:000515da       ___scrt_initialize_mta     004525da f   LIBCMT:utility_desktop.obj
 0001:000515df       ___scrt_is_managed_app     004525df f   LIBCMT:utility_desktop.obj
 0001:00051621       ___scrt_set_unhandled_exception_filter 00452621 f   LIBCMT:utility_desktop.obj
 0001:0005162d       ___scrt_unhandled_exception_filter@4 0045262d f   LIBCMT:utility_desktop.obj
 0001:00051683       __crt_debugger_hook        00452683 f   LIBCMT:utility_desktop.obj
 0001:000516db       ___security_init_cookie    004526db f   LIBCMT:gs_support.obj
 0001:00051726       __get_startup_file_mode    00452726 f   LIBCMT:file_mode.obj
 0001:0005172c       ?__scrt_initialize_type_info@@YAXXZ 0045272c f   LIBCMT:tncleanup.obj
 0001:00051738       __initialize_default_precision 00452738 f   LIBCMT:default_precision.obj
 0001:00051759       ___local_stdio_scanf_options 00452759 f i LIBCMT:default_local_stdio_options.obj
 0001:0005175f       ___scrt_initialize_default_local_stdio_options 0045275f f   LIBCMT:default_local_stdio_options.obj
 0001:0005177c       ___scrt_is_user_matherr_present 0045277c f   LIBCMT:matherr_detection.obj
 0001:00051788       ___scrt_get_dyn_tls_init_callback 00452788 f   LIBCMT:dyn_tls_init.obj
 0001:0005178e       ___scrt_get_dyn_tls_dtor_callback 0045278e f   LIBCMT:dyn_tls_dtor.obj
 0001:00051794       __RTC_Initialize           00452794 f   LIBCMT:initsect.obj
 0001:000517c0       __RTC_Terminate            004527c0 f   LIBCMT:initsect.obj
 0001:000517ec       __get_purecall_handler     004527ec f   libvcruntime:purevirt.obj
 0001:000517f3       __purecall                 004527f3 f   libvcruntime:purevirt.obj
 0001:0005180f       ___DestructExceptionObject 0045280f f   libvcruntime:ehhelpers.obj
 0001:000518b7       ?_CallMemberFunction0@@YGXQAX0@Z 004528b7 f i libvcruntime:ehhelpers.obj
 0001:0005191c       __IsExceptionObjectToBeDestroyed 0045291c f   libvcruntime:ehhelpers.obj
 0001:00051942       ___AdjustPointer           00452942 f   libvcruntime:ehhelpers.obj
 0001:00051967       ___FrameUnwindFilter       00452967 f   libvcruntime:ehhelpers.obj
 0001:000519bd       ___current_exception       004529bd f   libvcruntime:ehhelpers.obj
 0001:000519c6       ___current_exception_context 004529c6 f   libvcruntime:ehhelpers.obj
 0001:000519cf       ___std_terminate           004529cf f   libvcruntime:ehhelpers.obj
 0001:000519d4       ___std_exception_copy      004529d4 f   libvcruntime:std_exception.obj
 0001:00051a37       ___std_exception_destroy   00452a37 f   libvcruntime:std_exception.obj
 0001:00051a59       __CxxThrowException@8      00452a59 f   libvcruntime:throw.obj
 0001:00051ac6       ?GetRangeOfTrysToCheck@__FrameHandler3@@SA?AU?$pair@Viterator@TryBlockMap@__FrameHandler3@@V123@@std@@AAVTryBlockMap@1@HPAXPBU_s_FuncInfo@@H@Z 00452ac6 f   libvcruntime:trnsctrl.obj
 0001:00051b35       ?_CallCatchBlock2@@YAPAXPAUEHRegistrationNode@@PBU_s_FuncInfo@@PAXHK@Z 00452b35 f   libvcruntime:trnsctrl.obj
 0001:00051b95       ?_CallSETranslator@@YAHPAUEHExceptionRecord@@PAUEHRegistrationNode@@PAX2PBU_s_FuncInfo@@H1@Z 00452b95 f   libvcruntime:trnsctrl.obj
 0001:00051c94       ?_JumpToContinuation@@YGXPAXPAUEHRegistrationNode@@@Z 00452c94 f   libvcruntime:trnsctrl.obj
 0001:00051cc4       ?_UnwindNestedFrames@@YGXPAUEHRegistrationNode@@PAUEHExceptionRecord@@@Z 00452cc4 f   libvcruntime:trnsctrl.obj
 0001:00051d18       __CatchGuardHandler        00452d18 f   libvcruntime:trnsctrl.obj
 0001:00051d49       __CreateFrameInfo          00452d49 f   libvcruntime:trnsctrl.obj
 0001:00051d6d       __FindAndUnlinkFrame       00452d6d f   libvcruntime:trnsctrl.obj
 0001:00051db5       __TranslatorGuardHandler   00452db5 f   libvcruntime:trnsctrl.obj
 0001:00051e54       ___CxxFrameHandler3        00452e54 f   libvcruntime:trnsctrl.obj
 0001:00051e90       _memcpy                    00452e90 f   libvcruntime:memcpy.obj
 0001:00051e90       _memmove                   00452e90 f   libvcruntime:memmove.obj
 0001:00052410       _memset                    00453410 f   libvcruntime:memset.obj
 0001:0005256a       _wcsstr                    0045356a f   libvcruntime:wcsstr.obj
 0001:00052800       ___uncaught_exceptions     00453800 f   libvcruntime:uncaught_exceptions.obj
 0001:00052810       _memcmp                    00453810 f   libvcruntime:memcmp.obj
 0001:00053c20       __except_handler4          00454c20 f   libvcruntime:chandler4.obj
 0001:00053d7e       ___vcrt_initialize         00454d7e f   libvcruntime:initialization.obj
 0001:00053d9d       ___vcrt_uninitialize       00454d9d f   libvcruntime:initialization.obj
 0001:00053db4       ___std_type_info_compare   00454db4 f   libvcruntime:std_type_info.obj
 0001:00053df0       ___vcrt_freefls@4          00454df0 f   libvcruntime:per_thread_data.obj
 0001:00053e0c       ___vcrt_getptd             00454e0c f   libvcruntime:per_thread_data.obj
 0001:00053e1a       ___vcrt_getptd_noexit      00454e1a f   libvcruntime:per_thread_data.obj
 0001:00053eac       ___vcrt_getptd_noinit      00454eac f   libvcruntime:per_thread_data.obj
 0001:00053ee4       ___vcrt_initialize_ptd     00454ee4 f   libvcruntime:per_thread_data.obj
 0001:00053f17       ___vcrt_uninitialize_ptd   00454f17 f   libvcruntime:per_thread_data.obj
 0001:00054669       ??$TypeMatchHelper@V__FrameHandler3@@@@YAHPBU_s_HandlerType@@PBU_s_CatchableType@@PBU_s_ThrowInfo@@@Z 00455669 f i libvcruntime:frame.obj
 0001:000546f7       ??$__InternalCxxFrameHandler@V__FrameHandler3@@@@YA?AW4_EXCEPTION_DISPOSITION@@PAUEHExceptionRecord@@PAUEHRegistrationNode@@PAU_CONTEXT@@PAXPBU_s_FuncInfo@@H1E@Z 004556f7 f i libvcruntime:frame.obj
 0001:000547f9       ??$__InternalCxxFrameHandlerWrapper@V__FrameHandler3@@@@YA?AW4_EXCEPTION_DISPOSITION@@PAUEHExceptionRecord@@PAUEHRegistrationNode@@PAU_CONTEXT@@PAXPBU_s_FuncInfo@@H1E@Z 004557f9 f i libvcruntime:frame.obj
 0001:00054802       ??0bad_exception@std@@QAE@ABV01@@Z 00455802 f i libvcruntime:frame.obj
 0001:0005481d       ??0bad_exception@std@@QAE@XZ 0045581d f i libvcruntime:frame.obj
 0001:0005483b       ??8type_info@@QBE_NABV0@@Z 0045583b f i libvcruntime:frame.obj
 0001:00054ab5       ?FrameUnwindToEmptyState@__FrameHandler3@@SAXPAUEHRegistrationNode@@PAXPBU_s_FuncInfo@@@Z 00455ab5 f   libvcruntime:frame.obj
 0001:00054acd       ?FrameUnwindToState@__FrameHandler3@@SAXPAUEHRegistrationNode@@PAXPBU_s_FuncInfo@@H@Z 00455acd f   libvcruntime:frame.obj
 0001:00054c55       ?_CallMemberFunction1@@YGXQAX00@Z 00455c55 f i libvcruntime:frame.obj
 0001:00054c65       ?_CallMemberFunction2@@YGXQAX00H@Z 00455c65 f i libvcruntime:frame.obj
 0001:00054c78       ?getESTypes@__FrameHandler3@@SAPBU_s_ESTypeList@@PBU_s_FuncInfo@@@Z 00455c78 f i libvcruntime:frame.obj
 0001:00054c90       __CallSettingFrame@12      00455c90 f   libvcruntime:lowhelpr.obj
 0001:00054cb7       __NLG_Return               00455cb7     libvcruntime:lowhelpr.obj
 0001:00054cdc       ___except_validate_context_record 00455cdc f   libvcruntime:jbcxrval.obj
 0001:00054d10       __local_unwind4            00455d10 f   libvcruntime:exsup4.obj
 0001:00054e00       @_EH4_CallFilterFunc@8     00455e00 f   libvcruntime:exsup4.obj
 0001:00054e20       @_EH4_TransferToHandler@8  00455e20 f   libvcruntime:exsup4.obj
 0001:00054e40       @_EH4_GlobalUnwind2@8      00455e40 f   libvcruntime:exsup4.obj
 0001:00054e60       @_EH4_LocalUnwind@16       00455e60 f   libvcruntime:exsup4.obj
 0001:00054e77       ___vcrt_initialize_locks   00455e77 f   libvcruntime:locks.obj
 0001:00054eb3       ___vcrt_uninitialize_locks 00455eb3 f   libvcruntime:locks.obj
 0001:00054fcd       ___vcrt_FlsAlloc           00455fcd f   libvcruntime:winapi_downlevel.obj
 0001:00055008       ___vcrt_FlsFree            00456008 f   libvcruntime:winapi_downlevel.obj
 0001:00055043       ___vcrt_FlsGetValue        00456043 f   libvcruntime:winapi_downlevel.obj
 0001:0005507e       ___vcrt_FlsSetValue        0045607e f   libvcruntime:winapi_downlevel.obj
 0001:000550bc       ___vcrt_InitializeCriticalSectionEx 004560bc f   libvcruntime:winapi_downlevel.obj
 0001:00055103       _unexpected                00456103 f   libvcruntime:unexpected.obj
 0001:00055120       ?GetCurrentState@__FrameHandler3@@SAHPAUEHRegistrationNode@@PAXPBU_s_FuncInfo@@@Z 00456120 f   libvcruntime:ehstate.obj
 0001:0005513d       ?SetState@__FrameHandler3@@SAXPAUEHRegistrationNode@@PBU_s_FuncInfo@@H@Z 0045613d f   libvcruntime:ehstate.obj
 0001:00055150       __NLG_Notify1              00456150 f   libvcruntime:exsup.obj
 0001:00055160       __NLG_Notify               00456160 f   libvcruntime:exsup.obj
 0001:00055177       __NLG_Dispatch             00456177     libvcruntime:exsup.obj
 0001:00055177       __NLG_Dispatch2            00456177     libvcruntime:exsup.obj
 0001:00055180       __NLG_Call                 00456180 f   libvcruntime:exsup.obj
 0001:00055182       __NLG_Return2              00456182     libvcruntime:exsup.obj
 0001:000557a9       ??$count@D@formatting_buffer@__crt_stdio_output@@QBEIXZ 004567a9 f i libucrt:output.obj
 0001:000557c1       ??$count@_W@formatting_buffer@__crt_stdio_output@@QBEIXZ 004567c1 f i libucrt:output.obj
 0001:000557da       ??$ensure_buffer_is_big_enough@D@formatting_buffer@__crt_stdio_output@@QAE_NIAAV__crt_cached_ptd_host@@@Z 004567da f i libucrt:output.obj
 0001:0005585a       ??$ensure_buffer_is_big_enough@_W@formatting_buffer@__crt_stdio_output@@QAE_NIAAV__crt_cached_ptd_host@@@Z 0045685a f i libucrt:output.obj
 0001:000558db       ??$is_overflow_condition@K@__crt_strtox@@YA_NIK@Z 004568db f i libucrt:output.obj
 0001:0005590f       ??$is_wide_character_specifier@D@__crt_stdio_output@@YA_N_KDW4length_modifier@0@@Z 0045690f f i libucrt:output.obj
 0001:00055940       ??$is_wide_character_specifier@_W@__crt_stdio_output@@YA_N_K_WW4length_modifier@0@@Z 00456940 f i libucrt:output.obj
 0001:0005598e       ??$make_c_string_character_source@DPAPAD@__crt_strtox@@YA?AV?$c_string_character_source@D@0@QBDQAPAD@Z 0045698e f i libucrt:output.obj
 0001:0005598e       ??$make_c_string_character_source@_WPAPA_W@__crt_strtox@@YA?AV?$c_string_character_source@_W@0@QB_WQAPA_W@Z 0045698e f i libucrt:output.obj
 0001:000559a9       ??$parse_integer@KV?$c_string_character_source@D@__crt_strtox@@$0A@@__crt_strtox@@YAKAAV__crt_cached_ptd_host@@V?$c_string_character_source@D@0@H_N@Z 004569a9 f i libucrt:output.obj
 0001:00055bbc       ??$parse_integer@KV?$c_string_character_source@_W@__crt_strtox@@$0A@@__crt_strtox@@YAKAAV__crt_cached_ptd_host@@V?$c_string_character_source@_W@0@H_N@Z 00456bbc f i libucrt:output.obj
 0001:000561a0       ??$scratch_data@D@formatting_buffer@__crt_stdio_output@@QAEPADXZ 004571a0 f i libucrt:output.obj
 0001:000561be       ??$type_case_integer@$07@?$output_processor@DV?$string_output_adapter@D@__crt_stdio_output@@V?$standard_base@DV?$string_output_adapter@D@__crt_stdio_output@@@2@@__crt_stdio_output@@AAE_N_N@Z 004571be f i libucrt:output.obj
 0001:0005634b       ??$type_case_integer@$07@?$output_processor@_WV?$string_output_adapter@_W@__crt_stdio_output@@V?$format_validation_base@_WV?$string_output_adapter@_W@__crt_stdio_output@@@2@@__crt_stdio_output@@AAE_N_N@Z 0045734b f i libucrt:output.obj
 0001:0005634b       ??$type_case_integer@$07@?$output_processor@_WV?$string_output_adapter@_W@__crt_stdio_output@@V?$standard_base@_WV?$string_output_adapter@_W@__crt_stdio_output@@@2@@__crt_stdio_output@@AAE_N_N@Z 0045734b f i libucrt:output.obj
 0001:000564dd       ??$type_case_integer@$09@?$output_processor@DV?$string_output_adapter@D@__crt_stdio_output@@V?$standard_base@DV?$string_output_adapter@D@__crt_stdio_output@@@2@@__crt_stdio_output@@AAE_N_N@Z 004574dd f i libucrt:output.obj
 0001:0005666a       ??$type_case_integer@$09@?$output_processor@_WV?$string_output_adapter@_W@__crt_stdio_output@@V?$format_validation_base@_WV?$string_output_adapter@_W@__crt_stdio_output@@@2@@__crt_stdio_output@@AAE_N_N@Z 0045766a f i libucrt:output.obj
 0001:0005666a       ??$type_case_integer@$09@?$output_processor@_WV?$string_output_adapter@_W@__crt_stdio_output@@V?$standard_base@_WV?$string_output_adapter@_W@__crt_stdio_output@@@2@@__crt_stdio_output@@AAE_N_N@Z 0045766a f i libucrt:output.obj
 0001:000567fc       ??$type_case_integer@$0BA@@?$output_processor@DV?$string_output_adapter@D@__crt_stdio_output@@V?$standard_base@DV?$string_output_adapter@D@__crt_stdio_output@@@2@@__crt_stdio_output@@AAE_N_N@Z 004577fc f i libucrt:output.obj
 0001:00056989       ??$type_case_integer@$0BA@@?$output_processor@_WV?$string_output_adapter@_W@__crt_stdio_output@@V?$format_validation_base@_WV?$string_output_adapter@_W@__crt_stdio_output@@@2@@__crt_stdio_output@@AAE_N_N@Z 00457989 f i libucrt:output.obj
 0001:00056989       ??$type_case_integer@$0BA@@?$output_processor@_WV?$string_output_adapter@_W@__crt_stdio_output@@V?$standard_base@_WV?$string_output_adapter@_W@__crt_stdio_output@@@2@@__crt_stdio_output@@AAE_N_N@Z 00457989 f i libucrt:output.obj
 0001:00056b1b       ??$type_case_integer_parse_into_buffer@I$07@?$output_processor@DV?$string_output_adapter@D@__crt_stdio_output@@V?$standard_base@DV?$string_output_adapter@D@__crt_stdio_output@@@2@@__crt_stdio_output@@AAEXI_N@Z 00457b1b f i libucrt:output.obj
 0001:00056b7d       ??$type_case_integer_parse_into_buffer@I$07@?$output_processor@_WV?$string_output_adapter@_W@__crt_stdio_output@@V?$format_validation_base@_WV?$string_output_adapter@_W@__crt_stdio_output@@@2@@__crt_stdio_output@@AAEXI_N@Z 00457b7d f i libucrt:output.obj
 0001:00056b7d       ??$type_case_integer_parse_into_buffer@I$07@?$output_processor@_WV?$string_output_adapter@_W@__crt_stdio_output@@V?$standard_base@_WV?$string_output_adapter@_W@__crt_stdio_output@@@2@@__crt_stdio_output@@AAEXI_N@Z 00457b7d f i libucrt:output.obj
 0001:00056bee       ??$type_case_integer_parse_into_buffer@I$09@?$output_processor@DV?$string_output_adapter@D@__crt_stdio_output@@V?$standard_base@DV?$string_output_adapter@D@__crt_stdio_output@@@2@@__crt_stdio_output@@AAEXI_N@Z 00457bee f i libucrt:output.obj
 0001:00056c6d       ??$type_case_integer_parse_into_buffer@I$09@?$output_processor@_WV?$string_output_adapter@_W@__crt_stdio_output@@V?$format_validation_base@_WV?$string_output_adapter@_W@__crt_stdio_output@@@2@@__crt_stdio_output@@AAEXI_N@Z 00457c6d f i libucrt:output.obj
 0001:00056c6d       ??$type_case_integer_parse_into_buffer@I$09@?$output_processor@_WV?$string_output_adapter@_W@__crt_stdio_output@@V?$standard_base@_WV?$string_output_adapter@_W@__crt_stdio_output@@@2@@__crt_stdio_output@@AAEXI_N@Z 00457c6d f i libucrt:output.obj
 0001:00056d02       ??$type_case_integer_parse_into_buffer@I$0BA@@?$output_processor@DV?$string_output_adapter@D@__crt_stdio_output@@V?$standard_base@DV?$string_output_adapter@D@__crt_stdio_output@@@2@@__crt_stdio_output@@AAEXI_N@Z 00457d02 f i libucrt:output.obj
 0001:00056d7e       ??$type_case_integer_parse_into_buffer@I$0BA@@?$output_processor@_WV?$string_output_adapter@_W@__crt_stdio_output@@V?$format_validation_base@_WV?$string_output_adapter@_W@__crt_stdio_output@@@2@@__crt_stdio_output@@AAEXI_N@Z 00457d7e f i libucrt:output.obj
 0001:00056d7e       ??$type_case_integer_parse_into_buffer@I$0BA@@?$output_processor@_WV?$string_output_adapter@_W@__crt_stdio_output@@V?$standard_base@_WV?$string_output_adapter@_W@__crt_stdio_output@@@2@@__crt_stdio_output@@AAEXI_N@Z 00457d7e f i libucrt:output.obj
 0001:00056e09       ??$type_case_integer_parse_into_buffer@_K$07@?$output_processor@DV?$string_output_adapter@D@__crt_stdio_output@@V?$standard_base@DV?$string_output_adapter@D@__crt_stdio_output@@@2@@__crt_stdio_output@@AAEX_K_N@Z 00457e09 f i libucrt:output.obj
 0001:00056e7d       ??$type_case_integer_parse_into_buffer@_K$07@?$output_processor@_WV?$string_output_adapter@_W@__crt_stdio_output@@V?$format_validation_base@_WV?$string_output_adapter@_W@__crt_stdio_output@@@2@@__crt_stdio_output@@AAEX_K_N@Z 00457e7d f i libucrt:output.obj
 0001:00056e7d       ??$type_case_integer_parse_into_buffer@_K$07@?$output_processor@_WV?$string_output_adapter@_W@__crt_stdio_output@@V?$standard_base@_WV?$string_output_adapter@_W@__crt_stdio_output@@@2@@__crt_stdio_output@@AAEX_K_N@Z 00457e7d f i libucrt:output.obj
 0001:00056efd       ??$type_case_integer_parse_into_buffer@_K$09@?$output_processor@DV?$string_output_adapter@D@__crt_stdio_output@@V?$standard_base@DV?$string_output_adapter@D@__crt_stdio_output@@@2@@__crt_stdio_output@@AAEX_K_N@Z 00457efd f i libucrt:output.obj
 0001:00056f8f       ??$type_case_integer_parse_into_buffer@_K$09@?$output_processor@_WV?$string_output_adapter@_W@__crt_stdio_output@@V?$format_validation_base@_WV?$string_output_adapter@_W@__crt_stdio_output@@@2@@__crt_stdio_output@@AAEX_K_N@Z 00457f8f f i libucrt:output.obj
 0001:00056f8f       ??$type_case_integer_parse_into_buffer@_K$09@?$output_processor@_WV?$string_output_adapter@_W@__crt_stdio_output@@V?$standard_base@_WV?$string_output_adapter@_W@__crt_stdio_output@@@2@@__crt_stdio_output@@AAEX_K_N@Z 00457f8f f i libucrt:output.obj
 0001:00057034       ??$type_case_integer_parse_into_buffer@_K$0BA@@?$output_processor@DV?$string_output_adapter@D@__crt_stdio_output@@V?$standard_base@DV?$string_output_adapter@D@__crt_stdio_output@@@2@@__crt_stdio_output@@AAEX_K_N@Z 00458034 f i libucrt:output.obj
 0001:000570ba       ??$type_case_integer_parse_into_buffer@_K$0BA@@?$output_processor@_WV?$string_output_adapter@_W@__crt_stdio_output@@V?$format_validation_base@_WV?$string_output_adapter@_W@__crt_stdio_output@@@2@@__crt_stdio_output@@AAEX_K_N@Z 004580ba f i libucrt:output.obj
 0001:000570ba       ??$type_case_integer_parse_into_buffer@_K$0BA@@?$output_processor@_WV?$string_output_adapter@_W@__crt_stdio_output@@V?$standard_base@_WV?$string_output_adapter@_W@__crt_stdio_output@@@2@@__crt_stdio_output@@AAEX_K_N@Z 004580ba f i libucrt:output.obj
 0001:0005714c       ??0?$output_adapter_data@DV?$string_output_adapter@D@__crt_stdio_output@@@__crt_stdio_output@@IAE@ABV?$string_output_adapter@D@1@_KQBDAAV__crt_cached_ptd_host@@QAD@Z 0045814c f i libucrt:output.obj
 0001:000571b3       ??0?$output_adapter_data@_WV?$string_output_adapter@_W@__crt_stdio_output@@@__crt_stdio_output@@IAE@ABV?$string_output_adapter@_W@1@_KQB_WAAV__crt_cached_ptd_host@@QAD@Z 004581b3 f i libucrt:output.obj
 0001:00057220       ??0__crt_cached_ptd_host@@QAE@QAU__crt_locale_pointers@@@Z 00458220 f i libucrt:output.obj
 0001:00057280       ??1__crt_cached_ptd_host@@QAE@XZ 00458280 f i libucrt:output.obj
 0001:000572bc       ??1formatting_buffer@__crt_stdio_output@@QAE@XZ 004582bc f i libucrt:output.obj
 0001:000572d6       ??4?$__crt_unique_heap_ptr@DU__crt_internal_free_policy@@@@QAEAAV0@$$QAV0@@Z 004582d6 f i libucrt:output.obj
 0001:000572fa       ?crop_zeroes@__crt_stdio_output@@YAXPADQAU__crt_locale_pointers@@@Z 004582fa f i libucrt:output.obj
 0001:00057364       ?find_next_state@?$output_processor@DV?$string_output_adapter@D@__crt_stdio_output@@V?$standard_base@DV?$string_output_adapter@D@__crt_stdio_output@@@2@@__crt_stdio_output@@ABE?AW4state@2@DW432@@Z 00458364 f i libucrt:output.obj
 0001:0005739f       ?find_next_state@?$output_processor@_WV?$string_output_adapter@_W@__crt_stdio_output@@V?$format_validation_base@_WV?$string_output_adapter@_W@__crt_stdio_output@@@2@@__crt_stdio_output@@ABE?AW4state@2@_WW432@@Z 0045839f f i libucrt:output.obj
 0001:000573db       ?find_next_state@?$output_processor@_WV?$string_output_adapter@_W@__crt_stdio_output@@V?$standard_base@_WV?$string_output_adapter@_W@__crt_stdio_output@@@2@@__crt_stdio_output@@ABE?AW4state@2@_WW432@@Z 004583db f i libucrt:output.obj
 0001:00057415       ?force_decimal_point@__crt_stdio_output@@YAXPADQAU__crt_locale_pointers@@@Z 00458415 f i libucrt:output.obj
 0001:00057480       ?force_synchronize_per_thread_data@__crt_cached_ptd_host@@AAEPAU__acrt_ptd@@XZ 00458480 f i libucrt:output.obj
 0001:000574d0       ?get_raw_ptd@__crt_cached_ptd_host@@QAEPAU__acrt_ptd@@XZ 004584d0 f i libucrt:output.obj
 0001:0005752c       ?parse_int_from_format_string@?$output_processor@DV?$string_output_adapter@D@__crt_stdio_output@@V?$standard_base@DV?$string_output_adapter@D@__crt_stdio_output@@@2@@__crt_stdio_output@@AAE_NQAH@Z 0045852c f i libucrt:output.obj
 0001:000575a4       ?parse_int_from_format_string@?$output_processor@_WV?$string_output_adapter@_W@__crt_stdio_output@@V?$format_validation_base@_WV?$string_output_adapter@_W@__crt_stdio_output@@@2@@__crt_stdio_output@@AAE_NQAH@Z 004585a4 f i libucrt:output.obj
 0001:000575a4       ?parse_int_from_format_string@?$output_processor@_WV?$string_output_adapter@_W@__crt_stdio_output@@V?$standard_base@_WV?$string_output_adapter@_W@__crt_stdio_output@@@2@@__crt_stdio_output@@AAE_NQAH@Z 004585a4 f i libucrt:output.obj
 0001:0005761e       ?process@?$output_processor@DV?$string_output_adapter@D@__crt_stdio_output@@V?$standard_base@DV?$string_output_adapter@D@__crt_stdio_output@@@2@@__crt_stdio_output@@QAEHXZ 0045861e f i libucrt:output.obj
 0001:000578f2       ?process@?$output_processor@_WV?$string_output_adapter@_W@__crt_stdio_output@@V?$format_validation_base@_WV?$string_output_adapter@_W@__crt_stdio_output@@@2@@__crt_stdio_output@@QAEHXZ 004588f2 f i libucrt:output.obj
 0001:00057b4a       ?process@?$output_processor@_WV?$string_output_adapter@_W@__crt_stdio_output@@V?$standard_base@_WV?$string_output_adapter@_W@__crt_stdio_output@@@2@@__crt_stdio_output@@QAEHXZ 00458b4a f i libucrt:output.obj
 0001:00057d86       ?state_case_size@?$output_processor@DV?$string_output_adapter@D@__crt_stdio_output@@V?$standard_base@DV?$string_output_adapter@D@__crt_stdio_output@@@2@@__crt_stdio_output@@AAE_NXZ 00458d86 f i libucrt:output.obj
 0001:00057edf       ?state_case_size@?$output_processor@_WV?$string_output_adapter@_W@__crt_stdio_output@@V?$format_validation_base@_WV?$string_output_adapter@_W@__crt_stdio_output@@@2@@__crt_stdio_output@@AAE_NXZ 00458edf f i libucrt:output.obj
 0001:00057edf       ?state_case_size@?$output_processor@_WV?$string_output_adapter@_W@__crt_stdio_output@@V?$standard_base@_WV?$string_output_adapter@_W@__crt_stdio_output@@@2@@__crt_stdio_output@@AAE_NXZ 00458edf f i libucrt:output.obj
 0001:00058069       ?state_case_type@?$output_processor@DV?$string_output_adapter@D@__crt_stdio_output@@V?$standard_base@DV?$string_output_adapter@D@__crt_stdio_output@@@2@@__crt_stdio_output@@AAE_NXZ 00459069 f i libucrt:output.obj
 0001:000584a8       ?state_case_type@?$output_processor@_WV?$string_output_adapter@_W@__crt_stdio_output@@V?$format_validation_base@_WV?$string_output_adapter@_W@__crt_stdio_output@@@2@@__crt_stdio_output@@AAE_NXZ 004594a8 f i libucrt:output.obj
 0001:000584a8       ?state_case_type@?$output_processor@_WV?$string_output_adapter@_W@__crt_stdio_output@@V?$standard_base@_WV?$string_output_adapter@_W@__crt_stdio_output@@@2@@__crt_stdio_output@@AAE_NXZ 004594a8 f i libucrt:output.obj
 0001:000589be       ?to_integer_size@__crt_stdio_output@@YAIW4length_modifier@1@@Z 004599be f i libucrt:output.obj
 0001:00058a12       ?type_case_Z@?$output_processor@DV?$string_output_adapter@D@__crt_stdio_output@@V?$standard_base@DV?$string_output_adapter@D@__crt_stdio_output@@@2@@__crt_stdio_output@@AAE_NXZ 00459a12 f i libucrt:output.obj
 0001:00058a85       ?type_case_Z@?$output_processor@_WV?$string_output_adapter@_W@__crt_stdio_output@@V?$format_validation_base@_WV?$string_output_adapter@_W@__crt_stdio_output@@@2@@__crt_stdio_output@@AAE_NXZ 00459a85 f i libucrt:output.obj
 0001:00058a85       ?type_case_Z@?$output_processor@_WV?$string_output_adapter@_W@__crt_stdio_output@@V?$standard_base@_WV?$string_output_adapter@_W@__crt_stdio_output@@@2@@__crt_stdio_output@@AAE_NXZ 00459a85 f i libucrt:output.obj
 0001:00058af9       ?type_case_a@?$output_processor@DV?$string_output_adapter@D@__crt_stdio_output@@V?$standard_base@DV?$string_output_adapter@D@__crt_stdio_output@@@2@@__crt_stdio_output@@AAE_NXZ 00459af9 f i libucrt:output.obj
 0001:00058cb0       ?type_case_a@?$output_processor@_WV?$string_output_adapter@_W@__crt_stdio_output@@V?$format_validation_base@_WV?$string_output_adapter@_W@__crt_stdio_output@@@2@@__crt_stdio_output@@AAE_NXZ 00459cb0 f i libucrt:output.obj
 0001:00058cb0       ?type_case_a@?$output_processor@_WV?$string_output_adapter@_W@__crt_stdio_output@@V?$standard_base@_WV?$string_output_adapter@_W@__crt_stdio_output@@@2@@__crt_stdio_output@@AAE_NXZ 00459cb0 f i libucrt:output.obj
 0001:00058e7d       ?type_case_c_tchar@?$output_processor@DV?$string_output_adapter@D@__crt_stdio_output@@V?$standard_base@DV?$string_output_adapter@D@__crt_stdio_output@@@2@@__crt_stdio_output@@AAE_ND@Z 00459e7d f i libucrt:output.obj
 0001:00058f09       ?type_case_c_tchar@?$output_processor@_WV?$string_output_adapter@_W@__crt_stdio_output@@V?$format_validation_base@_WV?$string_output_adapter@_W@__crt_stdio_output@@@2@@__crt_stdio_output@@AAE_N_W@Z 00459f09 f i libucrt:output.obj
 0001:00058f09       ?type_case_c_tchar@?$output_processor@_WV?$string_output_adapter@_W@__crt_stdio_output@@V?$standard_base@_WV?$string_output_adapter@_W@__crt_stdio_output@@@2@@__crt_stdio_output@@AAE_N_W@Z 00459f09 f i libucrt:output.obj
 0001:00058fae       ?type_case_n@?$output_processor@DV?$string_output_adapter@D@__crt_stdio_output@@V?$standard_base@DV?$string_output_adapter@D@__crt_stdio_output@@@2@@__crt_stdio_output@@AAE_NXZ 00459fae f i libucrt:output.obj
 0001:00058fae       ?type_case_n@?$output_processor@_WV?$string_output_adapter@_W@__crt_stdio_output@@V?$format_validation_base@_WV?$string_output_adapter@_W@__crt_stdio_output@@@2@@__crt_stdio_output@@AAE_NXZ 00459fae f i libucrt:output.obj
 0001:00058fae       ?type_case_n@?$output_processor@_WV?$string_output_adapter@_W@__crt_stdio_output@@V?$standard_base@_WV?$string_output_adapter@_W@__crt_stdio_output@@@2@@__crt_stdio_output@@AAE_NXZ 00459fae f i libucrt:output.obj
 0001:00059033       ?type_case_o@?$output_processor@DV?$string_output_adapter@D@__crt_stdio_output@@V?$standard_base@DV?$string_output_adapter@D@__crt_stdio_output@@@2@@__crt_stdio_output@@AAE_NXZ 0045a033 f i libucrt:output.obj
 0001:00059050       ?type_case_o@?$output_processor@_WV?$string_output_adapter@_W@__crt_stdio_output@@V?$format_validation_base@_WV?$string_output_adapter@_W@__crt_stdio_output@@@2@@__crt_stdio_output@@AAE_NXZ 0045a050 f i libucrt:output.obj
 0001:00059050       ?type_case_o@?$output_processor@_WV?$string_output_adapter@_W@__crt_stdio_output@@V?$standard_base@_WV?$string_output_adapter@_W@__crt_stdio_output@@@2@@__crt_stdio_output@@AAE_NXZ 0045a050 f i libucrt:output.obj
 0001:0005906d       ?type_case_p@?$output_processor@DV?$string_output_adapter@D@__crt_stdio_output@@V?$standard_base@DV?$string_output_adapter@D@__crt_stdio_output@@@2@@__crt_stdio_output@@AAE_NXZ 0045a06d f i libucrt:output.obj
 0001:00059083       ?type_case_p@?$output_processor@_WV?$string_output_adapter@_W@__crt_stdio_output@@V?$format_validation_base@_WV?$string_output_adapter@_W@__crt_stdio_output@@@2@@__crt_stdio_output@@AAE_NXZ 0045a083 f i libucrt:output.obj
 0001:00059083       ?type_case_p@?$output_processor@_WV?$string_output_adapter@_W@__crt_stdio_output@@V?$standard_base@_WV?$string_output_adapter@_W@__crt_stdio_output@@@2@@__crt_stdio_output@@AAE_NXZ 0045a083 f i libucrt:output.obj
 0001:00059099       ?type_case_s@?$output_processor@DV?$string_output_adapter@D@__crt_stdio_output@@V?$standard_base@DV?$string_output_adapter@D@__crt_stdio_output@@@2@@__crt_stdio_output@@AAE_NXZ 0045a099 f i libucrt:output.obj
 0001:0005910c       ?type_case_s@?$output_processor@_WV?$string_output_adapter@_W@__crt_stdio_output@@V?$format_validation_base@_WV?$string_output_adapter@_W@__crt_stdio_output@@@2@@__crt_stdio_output@@AAE_NXZ 0045a10c f i libucrt:output.obj
 0001:0005910c       ?type_case_s@?$output_processor@_WV?$string_output_adapter@_W@__crt_stdio_output@@V?$standard_base@_WV?$string_output_adapter@_W@__crt_stdio_output@@@2@@__crt_stdio_output@@AAE_NXZ 0045a10c f i libucrt:output.obj
 0001:00059181       ?type_case_s_compute_narrow_string_length@?$output_processor@_WV?$string_output_adapter@_W@__crt_stdio_output@@V?$format_validation_base@_WV?$string_output_adapter@_W@__crt_stdio_output@@@2@@__crt_stdio_output@@AAEHH_W@Z 0045a181 f i libucrt:output.obj
 0001:00059181       ?type_case_s_compute_narrow_string_length@?$output_processor@_WV?$string_output_adapter@_W@__crt_stdio_output@@V?$standard_base@_WV?$string_output_adapter@_W@__crt_stdio_output@@@2@@__crt_stdio_output@@AAEHH_W@Z 0045a181 f i libucrt:output.obj
 0001:00059247       ?unget@?$c_string_character_source@D@__crt_strtox@@QAEXD@Z 0045a247 f i libucrt:output.obj
 0001:00059270       ?unget@?$c_string_character_source@_W@__crt_strtox@@QAEX_W@Z 0045a270 f i libucrt:output.obj
 0001:000592a0       ?update_locale_slow@__crt_cached_ptd_host@@AAEXXZ 0045a2a0 f i libucrt:output.obj
 0001:000592fb       ?validate@?$c_string_character_source@D@__crt_strtox@@QBE_NXZ 0045a2fb f i libucrt:output.obj
 0001:000592fb       ?validate@?$c_string_character_source@_W@__crt_strtox@@QBE_NXZ 0045a2fb f i libucrt:output.obj
 0001:00059316       ?validate@?$string_output_adapter@D@__crt_stdio_output@@QBE_NAAV__crt_cached_ptd_host@@@Z 0045a316 f i libucrt:output.obj
 0001:00059316       ?validate@?$string_output_adapter@_W@__crt_stdio_output@@QBE_NAAV__crt_cached_ptd_host@@@Z 0045a316 f i libucrt:output.obj
 0001:00059347       ?write_string@?$string_output_adapter@D@__crt_stdio_output@@QBEXQBDHQAHAAV__crt_cached_ptd_host@@@Z 0045a347 f i libucrt:output.obj
 0001:000593b6       ?write_string@?$string_output_adapter@_W@__crt_stdio_output@@QBEXQB_WHQAHAAV__crt_cached_ptd_host@@@Z 0045a3b6 f i libucrt:output.obj
 0001:0005942f       ___acrt_locale_get_ctype_array_value 0045a42f f i libucrt:output.obj
 0001:00059451       ___stdio_common_vsnwprintf_s 0045a451 f   libucrt:output.obj
 0001:00059495       ___stdio_common_vsprintf   0045a495 f   libucrt:output.obj
 0001:000594d6       ___stdio_common_vswprintf  0045a4d6 f   libucrt:output.obj
 0001:00059517       ___stdio_common_vswprintf_s 0045a517 f   libucrt:output.obj
 0001:00059558       ?check_synchronize_global_state_index@__crt_cached_ptd_host@@AAEIXZ 0045a558 f i libucrt:invalid_parameter.obj
 0001:00059581       ___acrt_call_reportfault   0045a581 f   libucrt:invalid_parameter.obj
 0001:000596ba       ___acrt_initialize_invalid_parameter_handler 0045a6ba f   libucrt:invalid_parameter.obj
 0001:000596c9       __invalid_parameter        0045a6c9 f   libucrt:invalid_parameter.obj
 0001:00059700       __invalid_parameter_internal 0045a700 f   libucrt:invalid_parameter.obj
 0001:0005977d       __invalid_parameter_noinfo 0045a77d f   libucrt:invalid_parameter.obj
 0001:0005978d       __invoke_watson            0045a78d f   libucrt:invalid_parameter.obj
 0001:00059840       ___acrt_errno_from_os_error 0045a840 f   libucrt:errno.obj
 0001:0005989f       ___acrt_errno_map_os_error 0045a89f f   libucrt:errno.obj
 0001:000598c2       ___acrt_errno_map_os_error_ptd 0045a8c2 f   libucrt:errno.obj
 0001:000598e6       ___doserrno                0045a8e6 f   libucrt:errno.obj
 0001:000598fb       __errno                    0045a8fb f   libucrt:errno.obj
 0001:00059910       ??$is_overflow_condition@_K@__crt_strtox@@YA_NI_K@Z 0045a910 f i libucrt:strtox.obj
 0001:00059951       ??$parse_integer@KV?$c_string_character_source@_W@__crt_strtox@@$00@__crt_strtox@@YAKAAV__crt_cached_ptd_host@@V?$c_string_character_source@_W@0@H_N@Z 0045a951 f i libucrt:strtox.obj
 0001:00059f74       ??$parse_integer@_KV?$c_string_character_source@D@__crt_strtox@@$00@__crt_strtox@@YA_KAAV__crt_cached_ptd_host@@V?$c_string_character_source@D@0@H_N@Z 0045af74 f i libucrt:strtox.obj
 0001:0005a224       ??$parse_integer@_KV?$c_string_character_source@_W@__crt_strtox@@$00@__crt_strtox@@YA_KAAV__crt_cached_ptd_host@@V?$c_string_character_source@_W@0@H_N@Z 0045b224 f i libucrt:strtox.obj
 0001:0005a7f3       __ischartype_l             0045b7f3 f i libucrt:strtox.obj
 0001:0005a84a       _strtoll                   0045b84a f   libucrt:strtox.obj
 0001:0005a896       _strtoull                  0045b896 f   libucrt:strtox.obj
 0001:0005a8e2       _wcstol                    0045b8e2 f   libucrt:strtox.obj
 0001:0005a928       _wcstoul                   0045b928 f   libucrt:strtox.obj
 0001:0005a96e       _wcstoull                  0045b96e f   libucrt:strtox.obj
 0001:0005a9c0       _free                      0045b9c0 f   libucrt:free.obj
 0001:0005a9d0       _malloc                    0045b9d0 f   libucrt:malloc.obj
 0001:0005a9e0       __recalloc_base            0045b9e0 f   libucrt:recalloc.obj
 0001:0005aa60       __recalloc                 0045ba60 f   libucrt:recalloc.obj
 0001:0005aa6b       __wtoi                     0045ba6b f   libucrt:atox.obj
 0001:0005aa6b       __wtol                     0045ba6b f   libucrt:atox.obj
 0001:0005aaaa       __wtoi64                   0045baaa f   libucrt:atox.obj
 0001:0005aaef       ___acrt_initialize_command_line 0045baef f   libucrt:argv_data.obj
 0001:0005ab08       ___p___argc                0045bb08 f   libucrt:argv_data.obj
 0001:0005ab0e       ___p___wargv               0045bb0e f   libucrt:argv_data.obj
 0001:0005ab20       _wcsncpy_s                 0045bb20 f   libucrt:wcsncpy_s.obj
 0001:0005ac30       _strnlen                   0045bc30 f   libucrt:strnlen.obj
 0001:0005ad90       _wcsnlen                   0045bd90 f   libucrt:strnlen.obj
 0001:0005af70       ??0_LocaleUpdate@@QAE@QAU__crt_locale_pointers@@@Z 0045bf70 f i libucrt:wcsicmp.obj
 0001:0005b040       ___ascii_wcsicmp           0045c040 f   libucrt:wcsicmp.obj
 0001:0005b090       __wcsicmp                  0045c090 f   libucrt:wcsicmp.obj
 0001:0005b0e0       __wcsicmp_l                0045c0e0 f   libucrt:wcsicmp.obj
 0001:0005b290       _wmemcpy_s                 0045c290 f   libucrt:wmemcpy_s.obj
 0001:0005b330       __ceil_no_sse41            0045c330 f   libucrt:ceil_pentium4.obj
 0001:0005b370       _ceil                      0045c370 f   libucrt:ceil_pentium4.obj
 0001:0005b390       __ceil_pentium4            0045c390 f   libucrt:ceil_pentium4.obj
 0001:0005b470       _wcscpy_s                  0045c470 f   libucrt:wcscpy_s.obj
 0001:0005b505       ??$assemble_floating_point_snan@N@__crt_strtox@@YAX_NAAN@Z 0045c505 f i libucrt:strtod.obj
 0001:0005b526       ??$assemble_floating_point_value_t@M@__crt_strtox@@YA?AW4SLD_STATUS@@_NH_KAAM@Z 0045c526 f i libucrt:strtod.obj
 0001:0005b565       ??$assemble_floating_point_value_t@N@__crt_strtox@@YA?AW4SLD_STATUS@@_NH_KAAN@Z 0045c565 f i libucrt:strtod.obj
 0001:0005b63d       ??$convert_decimal_string_to_floating_type@N@__crt_strtox@@YA?AW4SLD_STATUS@@ABUfloating_point_string@0@AAN@Z 0045c63d f i libucrt:strtod.obj
 0001:0005b65e       ??$convert_hexadecimal_string_to_floating_type@N@__crt_strtox@@YA?AW4SLD_STATUS@@ABUfloating_point_string@0@AAN@Z 0045c65e f i libucrt:strtod.obj
 0001:0005b67f       ??$parse_floating_point@V?$c_string_character_source@D@__crt_strtox@@N@__crt_strtox@@YA?AW4SLD_STATUS@@QAU__crt_locale_pointers@@V?$c_string_character_source@D@0@QAN@Z 0045c67f f i libucrt:strtod.obj
 0001:0005b6ff       ??$parse_floating_point_from_source@V?$c_string_character_source@D@__crt_strtox@@@__crt_strtox@@YA?AW4floating_point_parse_result@0@QAU__crt_locale_pointers@@AAV?$c_string_character_source@D@0@AAUfloating_point_string@0@@Z 0045c6ff f i libucrt:strtod.obj
 0001:0005bb27       ??$parse_floating_point_possible_infinity@DV?$c_string_character_source@D@__crt_strtox@@PBD@__crt_strtox@@YA?AW4floating_point_parse_result@0@AADAAV?$c_string_character_source@D@0@PBD@Z 0045cb27 f i libucrt:strtod.obj
 0001:0005bbd9       ??$parse_floating_point_possible_nan@DV?$c_string_character_source@D@__crt_strtox@@PBD@__crt_strtox@@YA?AW4floating_point_parse_result@0@AADAAV?$c_string_character_source@D@0@PBD@Z 0045cbd9 f i libucrt:strtod.obj
 0001:0005bcdd       ??$parse_floating_point_possible_nan_is_ind@DV?$c_string_character_source@D@__crt_strtox@@@__crt_strtox@@YA_NAADAAV?$c_string_character_source@D@0@@Z 0045ccdd f i libucrt:strtod.obj
 0001:0005bd19       ??$parse_floating_point_possible_nan_is_snan@DV?$c_string_character_source@D@__crt_strtox@@@__crt_strtox@@YA_NAADAAV?$c_string_character_source@D@0@@Z 0045cd19 f i libucrt:strtod.obj
 0001:0005bd55       ??$parse_floating_point_write_result@N@__crt_strtox@@YA?AW4SLD_STATUS@@W4floating_point_parse_result@0@ABUfloating_point_string@0@QAN@Z 0045cd55 f i libucrt:strtod.obj
 0001:0005be79       ??R<lambda_32aa245da1b5b882fa96db788295c8b2>@@QBE@XZ 0045ce79 f i libucrt:strtod.obj
 0001:0005be79       ??R<lambda_690cf26ff5d754c94c32cf642e9f01bc>@@QBE@XZ 0045ce79 f i libucrt:strtod.obj
 0001:0005be79       ??R<lambda_e51f7abad2595a5950d3223319845217>@@QBE@XZ 0045ce79 f i libucrt:strtod.obj
 0001:0005be9f       ?as_double@floating_point_value@__crt_strtox@@QBEAANXZ 0045ce9f f i libucrt:strtod.obj
 0001:0005bec4       ?as_float@floating_point_value@__crt_strtox@@QBEAAMXZ 0045cec4 f i libucrt:strtod.obj
 0001:0005bee9       ?assemble_floating_point_infinity@__crt_strtox@@YAX_NABVfloating_point_value@1@@Z 0045cee9 f i libucrt:strtod.obj
 0001:0005bf29       ?assemble_floating_point_value@__crt_strtox@@YA?AW4SLD_STATUS@@_KH_N1ABVfloating_point_value@1@@Z 0045cf29 f i libucrt:strtod.obj
 0001:0005c2c2       ?assemble_floating_point_value_from_big_integer@__crt_strtox@@YA?AW4SLD_STATUS@@ABUbig_integer@1@I_N1ABVfloating_point_value@1@@Z 0045d2c2 f i libucrt:strtod.obj
 0001:0005c45f       ?assemble_floating_point_zero@__crt_strtox@@YAX_NABVfloating_point_value@1@@Z 0045d45f f i libucrt:strtod.obj
 0001:0005c494       ?convert_decimal_string_to_floating_type_common@__crt_strtox@@YA?AW4SLD_STATUS@@ABUfloating_point_string@1@ABVfloating_point_value@1@@Z 0045d494 f i libucrt:strtod.obj
 0001:0005e193       ?convert_hexadecimal_string_to_floating_type_common@__crt_strtox@@YA?AW4SLD_STATUS@@ABUfloating_point_string@1@ABVfloating_point_value@1@@Z 0045f193 f i libucrt:strtod.obj
 0001:0005e244       ?denormal_mantissa_mask@floating_point_value@__crt_strtox@@QBE_KXZ 0045f244 f i libucrt:strtod.obj
 0001:0005e260       ?divide@__crt_strtox@@YA_KAAUbig_integer@1@ABU21@@Z 0045f260 f i libucrt:strtod.obj
 0001:0005e737       ?normal_mantissa_mask@floating_point_value@__crt_strtox@@QBE_KXZ 0045f737 f i libucrt:strtod.obj
 0001:0005e7cf       _strtod                    0045f7cf f   libucrt:strtod.obj
 0001:0005e7e6       ___acrt_initialize_stdio   0045f7e6 f   libucrt:_file.obj
 0001:0005e8ae       ___acrt_iob_func           0045f8ae f   libucrt:_file.obj
 0001:0005e8be       ___acrt_uninitialize_stdio 0045f8be f   libucrt:_file.obj
 0001:0005e90a       __get_stream_buffer_pointers 0045f90a f   libucrt:_file.obj
 0001:0005e950       __lock_file                0045f950 f   libucrt:_file.obj
 0001:0005e964       __unlock_file              0045f964 f   libucrt:_file.obj
 0001:0005ea9d       _fclose                    0045fa9d f   libucrt:fclose.obj
 0001:0005ed05       ___acrt_stdio_flush_nolock 0045fd05 f   libucrt:fflush.obj
 0001:0005ed6e       __fflush_nolock            0045fd6e f   libucrt:fflush.obj
 0001:0005edd3       __flushall                 0045fdd3 f   libucrt:fflush.obj
 0001:0005eddc       _fflush                    0045fddc f   libucrt:fflush.obj
 0001:0005ee2f       __fgetc_nolock             0045fe2f f   libucrt:fgetc.obj
 0001:0005ee6b       _fgetc                     0045fe6b f   libucrt:fgetc.obj
 0001:0005ef84       _fgetpos                   0045ff84 f   libucrt:fgetpos.obj
 0001:0005f111       __fputc_nolock_internal    00460111 f   libucrt:fputc.obj
 0001:0005f13e       _fputc                     0046013e f   libucrt:fputc.obj
 0001:0005f172       __fread_nolock_s           00460172 f   libucrt:fread.obj
 0001:0005f346       _fread                     00460346 f   libucrt:fread.obj
 0001:0005f363       _fread_s                   00460363 f   libucrt:fread.obj
 0001:0005f400       _fsetpos                   00460400 f   libucrt:fsetpos.obj
 0001:0005f43b       ?LongLongSub@@YAJ_J0PA_J@Z 0046043b f i libucrt:fseek.obj
 0001:0005f72c       __fseeki64                 0046072c f   libucrt:fseek.obj
 0001:0005f766       _fseek                     00460766 f   libucrt:fseek.obj
 0001:0005f847       __fwrite_internal          00460847 f   libucrt:fwrite.obj
 0001:0005f8be       __fwrite_nolock_internal   004608be f   libucrt:fwrite.obj
 0001:0005fa52       _fwrite                    00460a52 f   libucrt:fwrite.obj
 0001:0005fc50       _setvbuf                   00460c50 f   libucrt:setvbuf.obj
 0001:0005fc8a       __ungetc_nolock            00460c8a f   libucrt:ungetc.obj
 0001:0005fd7e       _ungetc                    00460d7e f   libucrt:ungetc.obj
 0001:0005fe00       __dclass                   00460e00 f i libucrt:nan.obj
 0001:0005fe20       __dsign                    00460e20 f i libucrt:nan.obj
 0001:0005fe2d       _localeconv                00460e2d f   libucrt:localeconv.obj
 0001:0005fe55       ____lc_codepage_func       00460e55 f   libucrt:initctype.obj
 0001:0005fe7a       ____lc_locale_name_func    00460e7a f   libucrt:initctype.obj
 0001:0005fea1       ___acrt_locale_initialize_ctype 00460ea1 f   libucrt:initctype.obj
 0001:00060305       _abort                     00461305 f   libucrt:abort.obj
 0001:00060349       ___acrt_initialize_locks   00461349 f   libucrt:locks.obj
 0001:0006038a       ___acrt_lock               0046138a f   libucrt:locks.obj
 0001:000603a1       ___acrt_uninitialize_locks 004613a1 f   libucrt:locks.obj
 0001:000603d2       ___acrt_unlock             004613d2 f   libucrt:locks.obj
 0001:000603e9       __lock_locales             004613e9 f   libucrt:locks.obj
 0001:000603f7       __unlock_locales           004613f7 f   libucrt:locks.obj
 0001:00060655       _setlocale                 00461655 f   libucrt:setlocale.obj
 0001:0006068d       ___pctype_func             0046168d f   libucrt:ctype.obj
 0001:000606c0       _islower                   004616c0 f   libucrt:_ctype.obj
 0001:00060750       _isupper                   00461750 f   libucrt:_ctype.obj
 0001:000607e0       _calloc                    004617e0 f   libucrt:calloc.obj
 0001:000607f0       __wcsdup                   004617f0 f   libucrt:wcsdup.obj
 0001:0006090b       __wfsopen                  0046190b f   libucrt:fopen.obj
 0001:00060920       __decomp                   00461920 f i libucrt:frexp.obj
 0001:00060a30       __sptype                   00461a30 f i libucrt:frexp.obj
 0001:00060ab0       _realloc                   00461ab0 f   libucrt:realloc.obj
 0001:00060ac0       _strcspn                   00461ac0 f   libucrt:strcspn.obj
 0001:00060b10       ___strncnt                 00461b10 f   libucrt:strncnt.obj
 0001:00060b30       __callnewh                 00461b30 f   libucrt:new_handler.obj
 0001:00060b70       ___acrt_initialize_new_handler 00461b70 f   libucrt:new_handler.obj
 0001:00060b90       __query_new_handler        00461b90 f   libucrt:new_handler.obj
 0001:00060bf0       __set_new_handler          00461bf0 f   libucrt:new_handler.obj
 0001:00060c60       ?_set_new_handler@@YAP6AHI@ZH@Z 00461c60 f   libucrt:new_handler.obj
 0001:00060c6d       ??$__crt_fast_decode_pointer@P6AHI@Z@@YAP6AHI@ZQ6AHI@Z@Z 00461c6d f i libucrt:new_handler.obj
 0001:00060c6d       ??$__crt_fast_decode_pointer@P6AXH@Z@@YAP6AXH@ZQ6AXH@Z@Z 00461c6d f i libucrt:signal.obj
 0001:00060c6d       ??$__crt_fast_decode_pointer@P6GXPAXK0@Z@@YAP6GXPAXK0@ZQ6GX0K0@Z@Z 00461c6d f i libucrt:exit.obj
 0001:00060c88       ??$__crt_fast_encode_pointer@P6AHI@Z@@YAP6AHI@ZQ6AHI@Z@Z 00461c88 f i libucrt:new_handler.obj
 0001:00060c88       ??$__crt_fast_encode_pointer@P6AHXZ@@YAP6AHXZQ6AHXZ@Z 00461c88 f i libucrt:onexit.obj
 0001:00060c88       ??$__crt_fast_encode_pointer@P6GXPAXK0@Z@@YAP6GXPAXK0@ZQ6GX0K0@Z@Z 00461c88 f i libucrt:exit.obj
 0001:00060c88       ??$__crt_fast_encode_pointer@PAP6AXXZ@@YAPAP6AXXZQAP6AXXZ@Z 00461c88 f i libucrt:onexit.obj
 0001:00060ca7       _terminate                 00461ca7 f   libucrt:terminate.obj
 0001:00060ce3       __seh_filter_exe           00461ce3 f   libucrt:exception_filter.obj
 0001:000610cc       ___acrt_initialize_thread_local_exit_callback 004620cc f   libucrt:exit.obj
 0001:000610db       __c_exit                   004620db f   libucrt:exit.obj
 0001:000610ea       __cexit                    004620ea f   libucrt:exit.obj
 0001:000610f9       __exit                     004620f9 f   libucrt:exit.obj
 0001:0006110f       __register_thread_local_exe_atexit_callback 0046210f f   libucrt:exit.obj
 0001:00061135       _exit                      00462135 f   libucrt:exit.obj
 0001:00061422       ___acrt_allocate_buffer_for_argv 00462422 f   libucrt:argv_parsing.obj
 0001:00061471       __configure_wide_argv      00462471 f   libucrt:argv_parsing.obj
 0001:00061659       ___dcrt_uninitialize_environments_nolock 00462659 f   libucrt:environment_initialization.obj
 0001:000616aa       __initialize_wide_environment 004626aa f   libucrt:environment_initialization.obj
 0001:00061952       __crt_atexit               00462952 f   libucrt:onexit.obj
 0001:00061968       __execute_onexit_table     00462968 f   libucrt:onexit.obj
 0001:000619a6       __initialize_onexit_table  004629a6 f   libucrt:onexit.obj
 0001:000619cf       __register_onexit_function 004629cf f   libucrt:onexit.obj
 0001:00061afd       ___acrt_initialize         00462afd f   libucrt:initialization.obj
 0001:00061b0f       ___acrt_uninitialize       00462b0f f   libucrt:initialization.obj
 0001:00061b40       __except1                  00462b40 f   libucrt:fpexcept.obj
 0001:00061c80       __handle_exc               00462c80 f   libucrt:fpexcept.obj
 0001:00061fb0       __raise_exc                00462fb0 f   libucrt:fpexcept.obj
 0001:00061fe0       __raise_exc_ex             00462fe0 f   libucrt:fpexcept.obj
 0001:00062310       __set_errno_from_matherr   00463310 f   libucrt:fpexcept.obj
 0001:00062350       __umatherr                 00463350 f   libucrt:fpexcept.obj
 0001:0006244f       __query_app_type           0046344f f   libucrt:report_runtime_error.obj
 0001:00062455       __set_app_type             00463455 f   libucrt:report_runtime_error.obj
 0001:00062470       ___acrt_has_user_matherr   00463470 f   libucrt:matherr.obj
 0001:00062490       ___acrt_initialize_user_matherr 00463490 f   libucrt:matherr.obj
 0001:000624a0       ___acrt_invoke_user_matherr 004634a0 f   libucrt:matherr.obj
 0001:000624e0       ___setusermatherr          004634e0 f   libucrt:matherr.obj
 0001:00062506       __get_wide_winmain_command_line 00463506 f   libucrt:argv_winmain.obj
 0001:00062551       __initterm                 00463551 f   libucrt:initterm.obj
 0001:0006257c       __initterm_e               0046357c f   libucrt:initterm.obj
 0001:000625aa       __get_fmode                004635aa f   libucrt:setmode.obj
 0001:000625d7       __set_fmode                004635d7 f   libucrt:setmode.obj
 0001:00062614       __setmode_nolock           00463614 f   libucrt:setmode.obj
 0001:000627e5       ??0_expandlocale_locale_name_cache@@QAE@QA_WIQAU__crt_qualified_locale_data@@@Z 004637e5 f i libucrt:wsetlocale.obj
 0001:0006282f       ??1_expandlocale_locale_name_cache@@QAE@XZ 0046382f f i libucrt:wsetlocale.obj
 0001:000629c7       ?commit_locale_name@_expandlocale_locale_name_cache@@QAEXQB_WI@Z 004639c7 f i libucrt:wsetlocale.obj
 0001:00062a0b       ?commit_locale_name_cache_already_updated@_expandlocale_locale_name_cache@@QAEXQB_WI@Z 00463a0b f i libucrt:wsetlocale.obj
 0001:00062a40       ___acrt_copy_locale_name   00463a40 f   libucrt:wsetlocale.obj
 0001:00062aa0       ___acrt_set_locale_changed 00463aa0 f   libucrt:wsetlocale.obj
 0001:00062aab       ___acrt_uninitialize_locale 00463aab f   libucrt:wsetlocale.obj
 0001:00062ad2       ___lc_lctowcs              00463ad2 f   libucrt:wsetlocale.obj
 0001:00062b42       ___lc_wcstolc              00463b42 f   libucrt:wsetlocale.obj
 0001:00062c7f       __configthreadlocale       00463c7f f   libucrt:wsetlocale.obj
 0001:000630e6       __wcscats                  004640e6 f   libucrt:wsetlocale.obj
 0001:00063127       __wsetlocale               00464127 f   libucrt:wsetlocale.obj
 0001:00063e10       __query_new_mode           00464e10 f   libucrt:new_mode.obj
 0001:00063e20       __set_new_mode             00464e20 f   libucrt:new_mode.obj
 0001:00063e4f       ___p__commode              00464e4f f   libucrt:ncommode.obj
 0001:00063e60       __controlfp_s              00464e60 f   libucrt:contrlfp.obj
 0001:00063ed0       _strcpy_s                  00464ed0 f   libucrt:strcpy_s.obj
 0001:00063f60       @_guard_check_icall@4      00464f60 f i libucrt:checkcfg.obj
 0001:00063f70       _strncmp                   00464f70 f   libucrt:strncmp.obj
 0001:00063ff0       _wcsncmp                   00464ff0 f   libucrt:wcsncmp.obj
 0001:00064040       __free_base                00465040 f   libucrt:free_base.obj
 0001:00064090       __malloc_base              00465090 f   libucrt:malloc_base.obj
 0001:000640e1       ___acrt_update_locale_info 004650e1 f   libucrt:locale_update.obj
 0001:0006410e       ___acrt_update_locale_info_explicit 0046510e f   libucrt:locale_update.obj
 0001:0006413f       ___acrt_update_multibyte_info 0046513f f   libucrt:locale_update.obj
 0001:0006416c       ___acrt_update_multibyte_info_explicit 0046516c f   libucrt:locale_update.obj
 0001:0006419d       ?__acrt_fp_classify@@YA?AW4__acrt_fp_class@@ABN@Z 0046519d f i libucrt:cvt.obj
 0001:00064b4c       ___acrt_fp_format          00465b4c f   libucrt:cvt.obj
 0001:00064ccc       __wctomb_internal          00465ccc f   libucrt:wctomb.obj
 0001:00064e30       __mbtowc_internal          00465e30 f   libucrt:mbtowc.obj
 0001:00064f60       ?__mblen_utf8@__crt_mbstring@@YAHPBD@Z 00465f60 f   libucrt:mbrtoc32.obj
 0001:00064fa1       ?__mbrtoc32_utf8@__crt_mbstring@@YAIPA_UPBDIPAU_Mbstatet@@AAV__crt_cached_ptd_host@@@Z 00465fa1 f   libucrt:mbrtoc32.obj
 0001:0006515a       ?__c16rtomb_utf8@__crt_mbstring@@YAIPAD_SPAU_Mbstatet@@AAV__crt_cached_ptd_host@@@Z 0046615a f   libucrt:c16rtomb.obj
 0001:00065231       ?__mbrtowc_utf8@__crt_mbstring@@YAIPA_WPBDIPAU_Mbstatet@@AAV__crt_cached_ptd_host@@@Z 00466231 f   libucrt:mbrtowc.obj
 0001:00065274       ?__mbsrtowcs_utf8@__crt_mbstring@@YAIPA_WPAPBDIPAU_Mbstatet@@AAV__crt_cached_ptd_host@@@Z 00466274 f   libucrt:mbrtowc.obj
 0001:00065387       __fileno                   00466387 f   libucrt:fileno.obj
 0001:000653ae       __get_printf_count_output  004663ae f   libucrt:printf_count_output.obj
 0001:000653c3       ___acrt_should_use_temporary_buffer 004663c3 f   libucrt:_sftbuf.obj
 0001:00065401       ___acrt_stdio_begin_temporary_buffering_nolock 00466401 f   libucrt:_sftbuf.obj
 0001:000654ac       ___acrt_stdio_end_temporary_buffering_nolock 004664ac f   libucrt:_sftbuf.obj
 0001:000657dd       ?internal_get_ptd_head_slow@@YAPAU__acrt_ptd@@XZ 004667dd f   libucrt:per_thread_data.obj
 0001:000658d0       ___acrt_getptd             004668d0 f   libucrt:per_thread_data.obj
 0001:000658de       ___acrt_getptd_head        004668de f   libucrt:per_thread_data.obj
 0001:00065921       ___acrt_getptd_noexit      00466921 f   libucrt:per_thread_data.obj
 0001:000659ad       ___acrt_getptd_noexit_explicit 004669ad f   libucrt:per_thread_data.obj
 0001:000659f6       ___acrt_initialize_ptd     004669f6 f   libucrt:per_thread_data.obj
 0001:00065a2c       ___acrt_uninitialize_ptd   00466a2c f   libucrt:per_thread_data.obj
 0001:00065ba6       ___acrt_initialize_lowio   00466ba6 f   libucrt:ioinit.obj
 0001:00065c06       ___acrt_uninitialize_lowio 00466c06 f   libucrt:ioinit.obj
 0001:00065c32       _iswctype                  00466c32 f   libucrt:iswctype.obj
 0001:00065c9b       __isctype_l                00466c9b f   libucrt:isctype.obj
 0001:00065d70       __msize_base               00466d70 f   libucrt:msize.obj
 0001:00065db0       __msize                    00466db0 f   libucrt:msize.obj
 0001:00065dc0       __realloc_base             00466dc0 f   libucrt:realloc_base.obj
 0001:00065e29       __towlower_l               00466e29 f   libucrt:towlower.obj
 0001:00065f00       ___libm_error_support      00466f00 f   libucrt:libm_error.obj
 0001:000661a0       ___acrt_initialize_sse2    004671a0 f   libucrt:mathfcns.obj
 0001:000661b0       __ceil_default             004671b0 f   libucrt:ceil.obj
 0001:000662b0       _fegetround                004672b0 f   libucrt:fegetround.obj
 0001:000662c0       __calloc_base              004672c0 f   libucrt:calloc_base.obj
 0001:000666bd       ___acrt_AppPolicyGetProcessTerminationMethodInternal@4 004676bd f   libucrt:winapi_thunks.obj
 0001:0006670c       ___acrt_EnumSystemLocalesEx@16 0046770c f   libucrt:winapi_thunks.obj
 0001:00066760       ___acrt_FlsAlloc@4         00467760 f   libucrt:winapi_thunks.obj
 0001:0006676c       ___acrt_FlsFree@4          0046776c f   libucrt:winapi_thunks.obj
 0001:00066778       ___acrt_FlsGetValue2@4     00467778 f   libucrt:winapi_thunks.obj
 0001:00066785       ___acrt_FlsGetValue@4      00467785 f   libucrt:winapi_thunks.obj
 0001:00066791       ___acrt_FlsSetValue@8      00467791 f   libucrt:winapi_thunks.obj
 0001:0006679d       ___acrt_GetLocaleInfoEx@16 0046779d f   libucrt:winapi_thunks.obj
 0001:000667dc       ___acrt_GetUserDefaultLocaleName@8 004677dc f   libucrt:winapi_thunks.obj
 0001:00066818       ___acrt_InitializeCriticalSectionEx@12 00467818 f   libucrt:winapi_thunks.obj
 0001:00066824       ___acrt_IsValidLocaleName@4 00467824 f   libucrt:winapi_thunks.obj
 0001:0006685c       ___acrt_LCIDToLocaleName@16 0046785c f   libucrt:winapi_thunks.obj
 0001:0006689b       ___acrt_LCMapStringEx@36   0046789b f   libucrt:winapi_thunks.obj
 0001:000668f8       ___acrt_LocaleNameToLCID@8 004678f8 f   libucrt:winapi_thunks.obj
 0001:00066929       ___acrt_can_use_vista_locale_apis 00467929 f   libucrt:winapi_thunks.obj
 0001:00066934       ___acrt_eagerly_load_locale_apis 00467934 f   libucrt:winapi_thunks.obj
 0001:0006696b       ___acrt_initialize_winapi_thunks 0046796b f   libucrt:winapi_thunks.obj
 0001:0006698e       ___acrt_tls2_supported     0046798e f   libucrt:winapi_thunks.obj
 0001:000669bf       ___acrt_uninitialize_winapi_thunks 004679bf f   libucrt:winapi_thunks.obj
 0001:000669f5       __fcloseall                004679f5 f   libucrt:closeall.obj
 0001:00066aa0       ___acrt_stdio_free_buffer_nolock 00467aa0 f   libucrt:_freebuf.obj
 0001:00066b71       __close_internal           00467b71 f   libucrt:close.obj
 0001:00066c14       __close_nolock             00467c14 f   libucrt:close.obj
 0001:00066c44       __close_nolock_internal    00467c44 f   libucrt:close.obj
 0001:00066ce4       ?__acrt_stdio_allocate_stream@@YA?AV__crt_stdio_stream@@XZ 00467ce4 f   libucrt:stream.obj
 0001:00066d4d       ?__acrt_stdio_free_stream@@YAXV__crt_stdio_stream@@@Z 00467d4d f   libucrt:stream.obj
 0001:00066eec       __commit                   00467eec f   libucrt:commit.obj
 0001:0006770f       __write                    0046870f f   libucrt:write.obj
 0001:00067746       __write_internal           00468746 f   libucrt:write.obj
 0001:00067857       __write_nolock             00468857 f   libucrt:write.obj
 0001:00067bfe       ___acrt_stdio_refill_and_read_narrow_nolock 00468bfe f   libucrt:_filbuf.obj
 0001:00068237       __ftelli64                 00469237 f   libucrt:ftell.obj
 0001:0006826d       __ftelli64_nolock_internal 0046926d f   libucrt:ftell.obj
 0001:000684cf       ___acrt_stdio_flush_and_write_narrow_nolock 004694cf f   libucrt:_flsbuf.obj
 0001:000689c1       __read                     004699c1 f   libucrt:read.obj
 0001:00068ada       __read_nolock              00469ada f   libucrt:read.obj
 0001:0006900e       __lseeki64                 0046a00e f   libucrt:lseek.obj
 0001:0006904e       __lseeki64_internal        0046a04e f   libucrt:lseek.obj
 0001:0006906c       __lseeki64_nolock          0046a06c f   libucrt:lseek.obj
 0001:000690ac       __lseeki64_nolock_internal 0046a0ac f   libucrt:lseek.obj
 0001:000690ca       ___acrt_stdio_allocate_buffer_nolock 0046a0ca f   libucrt:_getbuf.obj
 0001:00069130       __dtest_inline             0046a130 f i libucrt:_test.obj
 0001:0006927a       ___acrt_GetLocaleInfoA     0046a27a f   libucrt:getlocaleinfoa.obj
 0001:0006942a       ___acrt_GetStringTypeA     0046a42a f   libucrt:getstringtypea.obj
 0001:00069715       ___acrt_LCMapStringA       0046a715 f   libucrt:lcmapstringa.obj
 0001:00069830       ___acrt_get_sigabrt_handler 0046a830 f   libucrt:signal.obj
 0001:00069857       ___acrt_initialize_signal_handlers 0046a857 f   libucrt:signal.obj
 0001:00069875       _raise                     0046a875 f   libucrt:signal.obj
 0001:00069d0d       _mbstowcs_s                0046ad0d f   libucrt:mbstowcs.obj
 0001:0006a0c1       __wcstombs_s_l             0046b0c1 f   libucrt:wcstombs.obj
 0001:0006a0ff       ??$__acrt_stdio_parse_mode@_W@@YA?AU__acrt_stdio_stream_mode@@QB_W@Z 0046b0ff f i libucrt:openfile.obj
 0001:0006a414       ?__acrt_stdio_parse_mode_D@@YA_NAAU__acrt_stdio_stream_mode@@@Z 0046b414 f i libucrt:openfile.obj
 0001:0006a42f       ?__acrt_stdio_parse_mode_T@@YA_NAAU__acrt_stdio_stream_mode@@@Z 0046b42f f i libucrt:openfile.obj
 0001:0006a44e       ?__acrt_stdio_parse_mode_b@@YA_NAAU__acrt_stdio_stream_mode@@@Z 0046b44e f i libucrt:openfile.obj
 0001:0006a46e       ?__acrt_stdio_parse_mode_c@@YA_NAAU__acrt_stdio_stream_mode@@AA_N@Z 0046b46e f i libucrt:openfile.obj
 0001:0006a490       ?__acrt_stdio_parse_mode_n@@YA_NAAU__acrt_stdio_stream_mode@@AA_N@Z 0046b490 f i libucrt:openfile.obj
 0001:0006a4b2       ?__acrt_stdio_parse_mode_plus@@YA_NAAU__acrt_stdio_stream_mode@@AA_N@Z 0046b4b2 f i libucrt:openfile.obj
 0001:0006a4e8       ?__acrt_stdio_parse_mode_t@@YA_NAAU__acrt_stdio_stream_mode@@@Z 0046b4e8 f i libucrt:openfile.obj
 0001:0006a508       ?__acrt_stdio_parse_mode_x@@YA_NAAU__acrt_stdio_stream_mode@@@Z 0046b508 f i libucrt:openfile.obj
 0001:0006a528       __wopenfile                0046b528 f   libucrt:openfile.obj
 0001:0006a540       ___set_fpsr_sse2           0046b540 f   libucrt:fpctrl.obj
 0001:0006a620       __clrfp                    0046b620 f   libucrt:fpctrl.obj
 0001:0006a640       __ctrlfp                   0046b640 f   libucrt:fpctrl.obj
 0001:0006a670       __set_statfp               0046b670 f   libucrt:fpctrl.obj
 0001:0006a6d0       __statfp                   0046b6d0 f   libucrt:fpctrl.obj
 0001:0006a77a       ___acrt_MultiByteToWideChar 0046b77a f   libucrt:multibytetowidechar.obj
 0001:0006a834       ___acrt_WideCharToMultiByte 0046b834 f   libucrt:widechartomultibyte.obj
 0001:0006a89e       ___acrt_initialize_timeset 0046b89e f   libucrt:timeset.obj
 0001:0006a8d3       ___acrt_app_verifier_enabled 0046b8d3 f   libucrt:peb_access.obj
 0001:0006a8e5       ___acrt_is_secure_process  0046b8e5 f   libucrt:peb_access.obj
 0001:0006a8f8       ___acrt_get_process_end_policy 0046b8f8 f   libucrt:win_policies.obj
 0001:0006ade7       ___acrt_expand_wide_argv_wildcards 0046bde7 f   libucrt:argv_wildcards.obj
 0001:0006b36e       ___acrt_initialize_multibyte 0046c36e f   libucrt:mbctype.obj
 0001:0006b3b6       ___acrt_update_thread_multibyte_data 0046c3b6 f   libucrt:mbctype.obj
 0001:0006b3c9       __setmbcp_nolock           0046c3c9 f   libucrt:mbctype.obj
 0001:0006b605       ___dcrt_get_wide_environment_from_os 0046c605 f   libucrt:get_environment_from_os.obj
 0001:0006b660       __get_heap_handle          0046c660 f   libucrt:heap_handle.obj
 0001:0006b670       ___acrt_initialize_heap    0046c670 f   libucrt:heap_handle.obj
 0001:0006b690       ___acrt_uninitialize_heap  0046c690 f   libucrt:heap_handle.obj
 0001:0006b6a0       ___acrt_getheap            0046c6a0 f   libucrt:heap_handle.obj
 0001:0006b6a6       ___acrt_execute_initializers 0046c6a6 f   libucrt:shared_initialization.obj
 0001:0006b70e       ___acrt_execute_uninitializers 0046c70e f   libucrt:shared_initialization.obj
 0001:0006b740       ___acrt_fenv_get_common_round_control 0046c740 f   libucrt:_fenvutils.obj
 0001:0006b770       ___acrt_fenv_get_control   0046c770 f   libucrt:_fenvutils.obj
 0001:0006b950       ___acrt_fenv_get_status    0046c950 f   libucrt:_fenvutils.obj
 0001:0006ba00       ___acrt_fenv_set_control   0046ca00 f   libucrt:_fenvutils.obj
 0001:0006bc50       ___acrt_fenv_set_status    0046cc50 f   libucrt:_fenvutils.obj
 0001:0006bd60       _wcscat_s                  0046cd60 f   libucrt:wcscat_s.obj
 0001:0006be01       ___acrt_lowio_create_handle_array 0046ce01 f   libucrt:osfinfo.obj
 0001:0006be7c       ___acrt_lowio_destroy_handle_array 0046ce7c f   libucrt:osfinfo.obj
 0001:0006beb1       ___acrt_lowio_ensure_fh_exists 0046ceb1 f   libucrt:osfinfo.obj
 0001:0006bf4f       ___acrt_lowio_lock_fh      0046cf4f f   libucrt:osfinfo.obj
 0001:0006bf72       ___acrt_lowio_set_os_handle 0046cf72 f   libucrt:osfinfo.obj
 0001:0006c004       ___acrt_lowio_unlock_fh    0046d004 f   libucrt:osfinfo.obj
 0001:0006c027       __alloc_osfhnd             0046d027 f   libucrt:osfinfo.obj
 0001:0006c13a       __free_osfhnd              0046d13a f   libucrt:osfinfo.obj
 0001:0006c1cb       __get_osfhandle            0046d1cb f   libucrt:osfinfo.obj
 0001:0006c235       ___acrt_initialize_fmode   0046d235 f   libucrt:txtmode.obj
 0001:0006c24b       ___acrt_locale_free_monetary 0046d24b f   libucrt:initmon.obj
 0001:0006c349       ___acrt_locale_initialize_monetary 0046d349 f   libucrt:initmon.obj
 0001:0006c6aa       ___acrt_locale_free_numeric 0046d6aa f   libucrt:initnum.obj
 0001:0006c713       ___acrt_locale_initialize_numeric 0046d713 f   libucrt:initnum.obj
 0001:0006cbd1       ___acrt_locale_free_time   0046dbd1 f   libucrt:inittime.obj
 0001:0006ccb5       ___acrt_locale_initialize_time 0046dcb5 f   libucrt:inittime.obj
 0001:0006cd30       _wcsncat_s                 0046dd30 f   libucrt:wcsncat_s.obj
 0001:0006ce60       _wcscspn                   0046de60 f   libucrt:wcscspn.obj
 0001:0006ceb0       _wcspbrk                   0046deb0 f   libucrt:wcspbrk.obj
 0001:0006ceef       ___acrt_add_locale_ref     0046deef f   libucrt:locale_refcounting.obj
 0001:0006cf6c       ___acrt_free_locale        0046df6c f   libucrt:locale_refcounting.obj
 0001:0006d0b4       ___acrt_locale_add_lc_time_reference 0046e0b4 f   libucrt:locale_refcounting.obj
 0001:0006d0dd       ___acrt_locale_free_lc_time_if_unreferenced 0046e0dd f   libucrt:locale_refcounting.obj
 0001:0006d10e       ___acrt_locale_release_lc_time_reference 0046e10e f   libucrt:locale_refcounting.obj
 0001:0006d137       ___acrt_release_locale_ref 0046e137 f   libucrt:locale_refcounting.obj
 0001:0006d1b8       ___acrt_update_thread_locale_data 0046e1b8 f   libucrt:locale_refcounting.obj
 0001:0006d239       __updatetlocinfoEx_nolock  0046e239 f   libucrt:locale_refcounting.obj
 0001:0006d97a       ___acrt_get_qualified_locale 0046e97a f   libucrt:get_qualified_locale.obj
 0001:0006e2fb       ___acrt_get_qualified_locale_downlevel 0046f2fb f   libucrt:getqloc_downlevel.obj
 0001:0006e5c0       __clearfp                  0046f5c0 f   libucrt:ieee87.obj
 0001:0006e6e0       __control87                0046f6e0 f   libucrt:ieee87.obj
 0001:0006ec13       ___acrt_fp_strflt_to_string 0046fc13 f   libucrt:_fptostr.obj
 0001:0006ed0c       ___acrt_fltout             0046fd0c f   libucrt:cfout.obj
 0001:000701da       ?__c32rtomb_utf8@__crt_mbstring@@YAIPAD_UPAU_Mbstatet@@AAV__crt_cached_ptd_host@@@Z 004711da f   libucrt:c32rtomb.obj
 0001:00070288       ?reset_and_return@__crt_mbstring@@YAIIPAU_Mbstatet@@@Z 00471288 f   libucrt:common_utf8.obj
 0001:0007029c       ?return_illegal_sequence@__crt_mbstring@@YAIPAU_Mbstatet@@AAV__crt_cached_ptd_host@@@Z 0047129c f   libucrt:common_utf8.obj
 0001:000702be       __isatty                   004712be f   libucrt:isatty.obj
 0001:00070314       ___acrt_GetStringTypeW     00471314 f   libucrt:getstringtypew.obj
 0001:0007032d       ___acrt_LCMapStringW       0047132d f   libucrt:lcmapstringw.obj
 0001:00070370       __frnd                     00471370 f   libucrt:frnd.obj
 0001:0007041e       ___acrt_DownlevelLCIDToLocaleName 0047141e f   libucrt:lcidtoname_downlevel.obj
 0001:0007049c       ___acrt_DownlevelLocaleNameToLCID 0047149c f   libucrt:lcidtoname_downlevel.obj
 0001:000704c8       __putwch_nolock            004714c8 f   libucrt:putwch.obj
 0001:00070500       _strncpy_s                 00471500 f   libucrt:strncpy_s.obj
 0001:000705f2       ?__wcsrtombs_utf8@__crt_mbstring@@YAIPADPAPB_WIPAU_Mbstatet@@AAV__crt_cached_ptd_host@@@Z 004715f2 f   libucrt:wcrtomb.obj
 0001:00070700       ___ascii_wcsnicmp          00471700 f   libucrt:wcsnicmp.obj
 0001:00070770       __wcsnicmp                 00471770 f   libucrt:wcsnicmp.obj
 0001:000707c0       __wcsnicmp_l               004717c0 f   libucrt:wcsnicmp.obj
 0001:00070f5e       __wsopen_nolock            00471f5e f   libucrt:open.obj
 0001:00071289       __wsopen_s                 00472289 f   libucrt:open.obj
 0001:000712b0       _qsort                     004722b0 f   libucrt:qsort.obj
 0001:000716f0       _strpbrk                   004726f0 f   libucrt:strpbrk.obj
 0001:00071860       __itow_s                   00472860 f   libucrt:xtoa.obj
 0001:000718a0       _fegetenv                  004728a0 f   libucrt:fegetenv.obj
 0001:000718c0       _fesetenv                  004728c0 f   libucrt:fesetenv.obj
 0001:00071920       _feholdexcept              00472920 f   libucrt:feholdexcept.obj
 0001:00071980       __libm_sse2_log10_precise  00472980 f   libucrt:log10_sse2_precise.obj
 0001:00071c4f       ___dcrt_lowio_ensure_console_output_initialized 00472c4f f   libucrt:initcon.obj
 0001:00071c6e       ___dcrt_terminate_console_output 00472c6e f   libucrt:initcon.obj
 0001:00071c85       ___dcrt_write_console      00472c85 f   libucrt:initcon.obj
 0001:00071ce0       ___ascii_strnicmp          00472ce0 f   libucrt:_strnicm.obj
 0001:00071d41       ??0__crt_seek_guard@@QAE@H_J@Z 00472d41 f i libucrt:chsize.obj
 0001:00071d8e       __chsize_nolock            00472d8e f   libucrt:chsize.obj
 0001:00071dc5       __chsize_nolock_internal   00472dc5 f   libucrt:chsize.obj
 0001:00071f60       __CIlog10                  00472f60 f   libucrt:log10_impl.obj
 0001:00071f9b       __CIlog10_default          00472f9b f   libucrt:log10_impl.obj
 0001:00071faf       __log10_default            00472faf     libucrt:log10_impl.obj
 0001:00072070       __CIlog10_pentium4         00473070 f   libucrt:log10_pentium4.obj
 0001:00072088       __log10_pentium4           00473088     libucrt:log10_pentium4.obj
 0001:00072320       __fFEXP                    00473320 f   libucrt:87tran.obj
 0001:00072377       __rtinfpopse               00473377     libucrt:87tran.obj
 0001:00072379       __rtinfnpopse              00473379     libucrt:87tran.obj
 0001:00072389       __fFLN                     00473389     libucrt:87tran.obj
 0001:0007243e       __rtinfpop                 0047343e     libucrt:87tran.obj
 0001:00072440       __rtinfnpop                00473440     libucrt:87tran.obj
 0001:00072450       __rtforexpinf              00473450 f   libucrt:87tran.obj
 0001:0007245d       __ffexpm1                  0047345d     libucrt:87tran.obj
 0001:00072510       __trandisp1                00473510 f   libucrt:87disp.obj
 0001:00072585       __trandisp2                00473585 f   libucrt:87disp.obj
 0001:0007261f       __rttospopde               0047361f     libucrt:87disp.obj
 0001:00072624       __rttospop                 00473624     libucrt:87disp.obj
 0001:00072630       __rtnospop                 00473630 f   libucrt:87disp.obj
 0001:00072640       __rttosnpop                00473640 f   libucrt:87disp.obj
 0001:00072641       __rtnospopde               00473641     libucrt:87disp.obj
 0001:00072648       __rtzeropop                00473648     libucrt:87disp.obj
 0001:0007264a       __rtzeronpop               0047364a     libucrt:87disp.obj
 0001:00072650       __rtzerospop               00473650 f   libucrt:87disp.obj
 0001:0007265d       __rtonepop                 0047365d     libucrt:87disp.obj
 0001:00072660       __rtonenpop                00473660 f   libucrt:87disp.obj
 0001:00072670       __tosnan1                  00473670 f   libucrt:87disp.obj
 0001:000726a0       __nosnan2                  004736a0 f   libucrt:87disp.obj
 0001:000726b0       __tosnan2                  004736b0 f   libucrt:87disp.obj
 0001:000726e0       __nan2                     004736e0 f   libucrt:87disp.obj
 0001:00072720       __rtindfpop                00473720 f   libucrt:87disp.obj
 0001:00072722       __rtindfnpop               00473722     libucrt:87disp.obj
 0001:00072733       __rttosnpopde              00473733     libucrt:87disp.obj
 0001:00072740       __rtatan2inf               00473740 f   libucrt:87disp.obj
 0001:0007275d       __rtchsifneg               0047375d     libucrt:87disp.obj
 0001:00072770       __twoToTOS                 00473770 f   libucrt:common.obj
 0001:00072785       __load_CW                  00473785 f   libucrt:common.obj
 0001:0007279c       __convertTOStoQNaN         0047379c f   libucrt:common.obj
 0001:000727b5       __fload_withFB             004737b5 f   libucrt:common.obj
 0001:000727f8       __checkTOS_withFB          004737f8 f   libucrt:common.obj
 0001:0007280e       __fast_exit                0047380e f   libucrt:common.obj
 0001:0007281b       __math_exit                0047381b f   libucrt:common.obj
 0001:00072845       __check_overflow_exit      00473845 f   libucrt:common.obj
 0001:00072859       __check_range_exit         00473859 f   libucrt:common.obj
 0001:00072900       __startTwoArgErrorHandling 00473900 f   libucrt:genexcep.obj
 0001:00072917       __startOneArgErrorHandling 00473917 f   libucrt:genexcep.obj
 0001:00072960       __powhlp                   00473960 f   libucrt:powhlp.obj
 0001:00072b60       __87except                 00473b60 f   libucrt:87except.obj
 0001:00072ca0       __fpclass                  00473ca0 f   libucrt:ieeemisc.obj
 0001:00072d70       __FindPESection            00473d70 f   LIBCMT:pesect.obj
 0001:00072dc0       __IsNonwritableInCurrentImage 00473dc0 f   LIBCMT:pesect.obj
 0001:00072e80       __ValidateImageBase        00473e80 f   LIBCMT:pesect.obj
 0001:00072ec0       __aulldvrm                 00473ec0 f   LIBCMT:ulldvrm.obj
 0001:00072f60       __alldiv                   00473f60 f   LIBCMT:lldiv.obj
 0001:00073010       __alldvrm                  00474010 f   LIBCMT:lldvrm.obj
 0001:000730f0       _strrchr                   004740f0 f   libvcruntime:strrchr.obj
 0001:00073230       _wcschr                    00474230 f   libvcruntime:wcschr.obj
 0001:000732ca       __filter_x86_sse2_floating_point_exception 004742ca f   LIBCMT:x86_exception_filter.obj
 0001:000732ca       __filter_x86_sse2_floating_point_exception_default 004742ca f   LIBCMT:x86_exception_filter.obj
 0001:00078c80       ??__FstrHeap@?1??GetInstance@CAtlStringMgr@ATL@@SAPAUIAtlStringMgr@2@XZ@YAXXZ 00479c80 f i app.obj
 0001:00078cb0       ??__FstrMgr@?1??GetInstance@CAtlStringMgr@ATL@@SAPAUIAtlStringMgr@2@XZ@YAXXZ 00479cb0 f i app.obj
 0002:00000000       __imp__FreeSid@4           0047a000     advapi32:ADVAPI32.dll
 0002:00000004       __imp__RegFlushKey@4       0047a004     advapi32:ADVAPI32.dll
 0002:00000008       __imp__StartServiceW@12    0047a008     advapi32:ADVAPI32.dll
 0002:0000000c       __imp__StartServiceCtrlDispatcherW@4 0047a00c     advapi32:ADVAPI32.dll
 0002:00000010       __imp__SetServiceStatus@8  0047a010     advapi32:ADVAPI32.dll
 0002:00000014       __imp__RegisterServiceCtrlHandlerExW@12 0047a014     advapi32:ADVAPI32.dll
 0002:00000018       __imp__QueryServiceStatusEx@20 0047a018     advapi32:ADVAPI32.dll
 0002:0000001c       __imp__OpenServiceW@12     0047a01c     advapi32:ADVAPI32.dll
 0002:00000020       __imp__OpenSCManagerW@12   0047a020     advapi32:ADVAPI32.dll
 0002:00000024       __imp__ControlService@12   0047a024     advapi32:ADVAPI32.dll
 0002:00000028       __imp__CloseServiceHandle@4 0047a028     advapi32:ADVAPI32.dll
 0002:0000002c       __imp__ChangeServiceConfigW@44 0047a02c     advapi32:ADVAPI32.dll
 0002:00000030       __imp__CreateProcessAsUserW@44 0047a030     advapi32:ADVAPI32.dll
 0002:00000034       __imp__ConvertStringSecurityDescriptorToSecurityDescriptorW@16 0047a034     advapi32:ADVAPI32.dll
 0002:00000038       __imp__LookupPrivilegeValueW@12 0047a038     advapi32:ADVAPI32.dll
 0002:0000003c       __imp__RegCloseKey@4       0047a03c     advapi32:ADVAPI32.dll
 0002:00000040       __imp__CheckTokenMembership@12 0047a040     advapi32:ADVAPI32.dll
 0002:00000044       __imp__AllocateAndInitializeSid@44 0047a044     advapi32:ADVAPI32.dll
 0002:00000048       __imp__AdjustTokenPrivileges@24 0047a048     advapi32:ADVAPI32.dll
 0002:0000004c       __imp__OpenProcessToken@12 0047a04c     advapi32:ADVAPI32.dll
 0002:00000050       __imp__RegOpenKeyExW@20    0047a050     advapi32:ADVAPI32.dll
 0002:00000054       __imp__RegEnumKeyExW@32    0047a054     advapi32:ADVAPI32.dll
 0002:00000058       __imp__RegDeleteKeyW@8     0047a058     advapi32:ADVAPI32.dll
 0002:0000005c       __imp__RegSetValueExW@24   0047a05c     advapi32:ADVAPI32.dll
 0002:00000060       __imp__RegQueryValueExW@24 0047a060     advapi32:ADVAPI32.dll
 0002:00000064       __imp__RegQueryInfoKeyW@48 0047a064     advapi32:ADVAPI32.dll
 0002:00000068       __imp__RegEnumValueW@32    0047a068     advapi32:ADVAPI32.dll
 0002:0000006c       __imp__RegDeleteValueW@8   0047a06c     advapi32:ADVAPI32.dll
 0002:00000070       __imp__RegCreateKeyExW@36  0047a070     advapi32:ADVAPI32.dll
 0002:00000074       \177ADVAPI32_NULL_THUNK_DATA 0047a074     advapi32:ADVAPI32.dll
 0002:00000078       __imp__LoadIconWithScaleDown@20 0047a078     comctl32:COMCTL32.dll
 0002:0000007c       __imp__TaskDialogIndirect@16 0047a07c     comctl32:COMCTL32.dll
 0002:00000080       \177COMCTL32_NULL_THUNK_DATA 0047a080     comctl32:COMCTL32.dll
 0002:00000084       __imp__SelectObject@8      0047a084     gdi32:GDI32.dll
 0002:00000088       __imp__DeleteObject@4      0047a088     gdi32:GDI32.dll
 0002:0000008c       __imp__CreatePen@12        0047a08c     gdi32:GDI32.dll
 0002:00000090       __imp__CreateCompatibleDC@4 0047a090     gdi32:GDI32.dll
 0002:00000094       __imp__CreateCompatibleBitmap@12 0047a094     gdi32:GDI32.dll
 0002:00000098       __imp__GetDeviceCaps@8     0047a098     gdi32:GDI32.dll
 0002:0000009c       __imp__DeleteDC@4          0047a09c     gdi32:GDI32.dll
 0002:000000a0       __imp__Polygon@12          0047a0a0     gdi32:GDI32.dll
 0002:000000a4       \177GDI32_NULL_THUNK_DATA  0047a0a4     gdi32:GDI32.dll
 0002:000000a8       __imp__CreateMutexW@12     0047a0a8     kernel32:KERNEL32.dll
 0002:000000ac       __imp__OpenEventW@12       0047a0ac     kernel32:KERNEL32.dll
 0002:000000b0       __imp__Sleep@4             0047a0b0     kernel32:KERNEL32.dll
 0002:000000b4       __imp__WaitForMultipleObjects@16 0047a0b4     kernel32:KERNEL32.dll
 0002:000000b8       __imp__GetCurrentProcess@0 0047a0b8     kernel32:KERNEL32.dll
 0002:000000bc       __imp__GetCurrentProcessId@0 0047a0bc     kernel32:KERNEL32.dll
 0002:000000c0       __imp__CreateProcessW@40   0047a0c0     kernel32:KERNEL32.dll
 0002:000000c4       __imp__OpenProcess@12      0047a0c4     kernel32:KERNEL32.dll
 0002:000000c8       __imp__GetTickCount@0      0047a0c8     kernel32:KERNEL32.dll
 0002:000000cc       __imp__GetTickCount64@0    0047a0cc     kernel32:KERNEL32.dll
 0002:000000d0       __imp__FindResourceExW@16  0047a0d0     kernel32:KERNEL32.dll
 0002:000000d4       __imp__FreeLibrary@4       0047a0d4     kernel32:KERNEL32.dll
 0002:000000d8       __imp__GetModuleFileNameW@12 0047a0d8     kernel32:KERNEL32.dll
 0002:000000dc       __imp__GetModuleHandleW@4  0047a0dc     kernel32:KERNEL32.dll
 0002:000000e0       __imp__GetProcAddress@8    0047a0e0     kernel32:KERNEL32.dll
 0002:000000e4       __imp__LoadLibraryExW@12   0047a0e4     kernel32:KERNEL32.dll
 0002:000000e8       __imp__LoadResource@8      0047a0e8     kernel32:KERNEL32.dll
 0002:000000ec       __imp__LockResource@4      0047a0ec     kernel32:KERNEL32.dll
 0002:000000f0       __imp__SizeofResource@8    0047a0f0     kernel32:KERNEL32.dll
 0002:000000f4       __imp__FindResourceW@12    0047a0f4     kernel32:KERNEL32.dll
 0002:000000f8       __imp__lstrcmpiW@8         0047a0f8     kernel32:KERNEL32.dll
 0002:000000fc       __imp__QueryFullProcessImageNameW@16 0047a0fc     kernel32:KERNEL32.dll
 0002:00000100       __imp__MultiByteToWideChar@24 0047a100     kernel32:KERNEL32.dll
 0002:00000104       __imp__CreateToolhelp32Snapshot@8 0047a104     kernel32:KERNEL32.dll
 0002:00000108       __imp__Process32FirstW@8   0047a108     kernel32:KERNEL32.dll
 0002:0000010c       __imp__Process32NextW@8    0047a10c     kernel32:KERNEL32.dll
 0002:00000110       __imp__K32GetModuleFileNameExW@16 0047a110     kernel32:KERNEL32.dll
 0002:00000114       __imp__LoadLibraryW@4      0047a114     kernel32:KERNEL32.dll
 0002:00000118       __imp__ResetEvent@4        0047a118     kernel32:KERNEL32.dll
 0002:0000011c       __imp__CreateEventW@16     0047a11c     kernel32:KERNEL32.dll
 0002:00000120       __imp__LCMapStringEx@36    0047a120     kernel32:KERNEL32.dll
 0002:00000124       __imp__GetVersionExW@4     0047a124     kernel32:KERNEL32.dll
 0002:00000128       __imp__IsWow64Process@8    0047a128     kernel32:KERNEL32.dll
 0002:0000012c       __imp__LocalFree@4         0047a12c     kernel32:KERNEL32.dll
 0002:00000130       __imp__OpenMutexW@12       0047a130     kernel32:KERNEL32.dll
 0002:00000134       __imp__GetProcessTimes@20  0047a134     kernel32:KERNEL32.dll
 0002:00000138       __imp__ProcessIdToSessionId@8 0047a138     kernel32:KERNEL32.dll
 0002:0000013c       __imp__GetSystemTimeAsFileTime@4 0047a13c     kernel32:KERNEL32.dll
 0002:00000140       __imp__GetWindowsDirectoryW@8 0047a140     kernel32:KERNEL32.dll
 0002:00000144       __imp__OpenFileMappingW@12 0047a144     kernel32:KERNEL32.dll
 0002:00000148       __imp__MapViewOfFile@20    0047a148     kernel32:KERNEL32.dll
 0002:0000014c       __imp__UnmapViewOfFile@4   0047a14c     kernel32:KERNEL32.dll
 0002:00000150       __imp__LocaleNameToLCID@8  0047a150     kernel32:KERNEL32.dll
 0002:00000154       __imp__SetThreadUILanguage@4 0047a154     kernel32:KERNEL32.dll
 0002:00000158       __imp__GetThreadUILanguage@0 0047a158     kernel32:KERNEL32.dll
 0002:0000015c       __imp__WaitForMultipleObjectsEx@20 0047a15c     kernel32:KERNEL32.dll
 0002:00000160       __imp__CreateFileMappingW@24 0047a160     kernel32:KERNEL32.dll
 0002:00000164       __imp__DebugBreak@0        0047a164     kernel32:KERNEL32.dll
 0002:00000168       __imp__ReleaseSemaphore@12 0047a168     kernel32:KERNEL32.dll
 0002:0000016c       __imp__WaitForSingleObjectEx@12 0047a16c     kernel32:KERNEL32.dll
 0002:00000170       __imp__OpenSemaphoreW@12   0047a170     kernel32:KERNEL32.dll
 0002:00000174       __imp__CreateMutexExW@16   0047a174     kernel32:KERNEL32.dll
 0002:00000178       __imp__CreateSemaphoreExW@24 0047a178     kernel32:KERNEL32.dll
 0002:0000017c       __imp__GetModuleFileNameA@12 0047a17c     kernel32:KERNEL32.dll
 0002:00000180       __imp__GetModuleHandleExW@12 0047a180     kernel32:KERNEL32.dll
 0002:00000184       __imp__WideCharToMultiByte@32 0047a184     kernel32:KERNEL32.dll
 0002:00000188       __imp__ExpandEnvironmentStringsW@12 0047a188     kernel32:KERNEL32.dll
 0002:0000018c       __imp__FindFirstChangeNotificationW@12 0047a18c     kernel32:KERNEL32.dll
 0002:00000190       __imp__FindNextChangeNotification@4 0047a190     kernel32:KERNEL32.dll
 0002:00000194       __imp__GetFileSizeEx@8     0047a194     kernel32:KERNEL32.dll
 0002:00000198       __imp__GetFileTime@16      0047a198     kernel32:KERNEL32.dll
 0002:0000019c       __imp__MulDiv@12           0047a19c     kernel32:KERNEL32.dll
 0002:000001a0       __imp__lstrcmpW@8          0047a1a0     kernel32:KERNEL32.dll
 0002:000001a4       __imp__SetEnvironmentVariableW@8 0047a1a4     kernel32:KERNEL32.dll
 0002:000001a8       __imp__GetFileAttributesW@4 0047a1a8     kernel32:KERNEL32.dll
 0002:000001ac       __imp__GetFileSize@8       0047a1ac     kernel32:KERNEL32.dll
 0002:000001b0       __imp__SetEndOfFile@4      0047a1b0     kernel32:KERNEL32.dll
 0002:000001b4       __imp__SetFilePointer@16   0047a1b4     kernel32:KERNEL32.dll
 0002:000001b8       __imp__WakeAllConditionVariable@4 0047a1b8     kernel32:KERNEL32.dll
 0002:000001bc       __imp__TerminateProcess@8  0047a1bc     kernel32:KERNEL32.dll
 0002:000001c0       __imp__SetUnhandledExceptionFilter@4 0047a1c0     kernel32:KERNEL32.dll
 0002:000001c4       __imp__UnhandledExceptionFilter@4 0047a1c4     kernel32:KERNEL32.dll
 0002:000001c8       __imp__HeapReAlloc@16      0047a1c8     kernel32:KERNEL32.dll
 0002:000001cc       __imp__WaitForSingleObject@8 0047a1cc     kernel32:KERNEL32.dll
 0002:000001d0       __imp__GetStringTypeW@16   0047a1d0     kernel32:KERNEL32.dll
 0002:000001d4       __imp__QueryPerformanceCounter@4 0047a1d4     kernel32:KERNEL32.dll
 0002:000001d8       __imp__TryAcquireSRWLockExclusive@4 0047a1d8     kernel32:KERNEL32.dll
 0002:000001dc       __imp__AcquireSRWLockExclusive@4 0047a1dc     kernel32:KERNEL32.dll
 0002:000001e0       __imp__ReleaseSRWLockExclusive@4 0047a1e0     kernel32:KERNEL32.dll
 0002:000001e4       __imp__GetFileInformationByHandleEx@16 0047a1e4     kernel32:KERNEL32.dll
 0002:000001e8       __imp__AreFileApisANSI@0   0047a1e8     kernel32:KERNEL32.dll
 0002:000001ec       __imp__SetFileInformationByHandle@16 0047a1ec     kernel32:KERNEL32.dll
 0002:000001f0       __imp__GetFileInformationByHandle@8 0047a1f0     kernel32:KERNEL32.dll
 0002:000001f4       __imp__GetFileAttributesExW@12 0047a1f4     kernel32:KERNEL32.dll
 0002:000001f8       __imp__FindNextFileW@8     0047a1f8     kernel32:KERNEL32.dll
 0002:000001fc       __imp__FindFirstFileExW@24 0047a1fc     kernel32:KERNEL32.dll
 0002:00000200       __imp__FindFirstFileW@8    0047a200     kernel32:KERNEL32.dll
 0002:00000204       __imp__FindClose@4         0047a204     kernel32:KERNEL32.dll
 0002:00000208       __imp__CreateDirectoryW@8  0047a208     kernel32:KERNEL32.dll
 0002:0000020c       __imp__GetLocaleInfoEx@16  0047a20c     kernel32:KERNEL32.dll
 0002:00000210       __imp__FormatMessageA@28   0047a210     kernel32:KERNEL32.dll
 0002:00000214       __imp__LoadLibraryExA@12   0047a214     kernel32:KERNEL32.dll
 0002:00000218       __imp__VirtualFree@12      0047a218     kernel32:KERNEL32.dll
 0002:0000021c       __imp__VirtualAlloc@16     0047a21c     kernel32:KERNEL32.dll
 0002:00000220       __imp__IsProcessorFeaturePresent@4 0047a220     kernel32:KERNEL32.dll
 0002:00000224       __imp__FlushInstructionCache@12 0047a224     kernel32:KERNEL32.dll
 0002:00000228       __imp__InterlockedPushEntrySList@8 0047a228     kernel32:KERNEL32.dll
 0002:0000022c       __imp__InterlockedPopEntrySList@4 0047a22c     kernel32:KERNEL32.dll
 0002:00000230       __imp__InitializeSListHead@4 0047a230     kernel32:KERNEL32.dll
 0002:00000234       __imp__SleepConditionVariableSRW@16 0047a234     kernel32:KERNEL32.dll
 0002:00000238       __imp__EncodePointer@4     0047a238     kernel32:KERNEL32.dll
 0002:0000023c       __imp__GetStartupInfoW@4   0047a23c     kernel32:KERNEL32.dll
 0002:00000240       __imp__RtlUnwind@16        0047a240     kernel32:KERNEL32.dll
 0002:00000244       __imp__InitializeCriticalSectionAndSpinCount@8 0047a244     kernel32:KERNEL32.dll
 0002:00000248       __imp__TlsAlloc@0          0047a248     kernel32:KERNEL32.dll
 0002:0000024c       __imp__TlsGetValue@4       0047a24c     kernel32:KERNEL32.dll
 0002:00000250       __imp__TlsSetValue@8       0047a250     kernel32:KERNEL32.dll
 0002:00000254       __imp__TlsFree@4           0047a254     kernel32:KERNEL32.dll
 0002:00000258       __imp__GetCommandLineA@0   0047a258     kernel32:KERNEL32.dll
 0002:0000025c       __imp__GetCommandLineW@0   0047a25c     kernel32:KERNEL32.dll
 0002:00000260       __imp__ExitProcess@4       0047a260     kernel32:KERNEL32.dll
 0002:00000264       __imp__GetStdHandle@4      0047a264     kernel32:KERNEL32.dll
 0002:00000268       __imp__GetFileType@4       0047a268     kernel32:KERNEL32.dll
 0002:0000026c       __imp__FlsAlloc@4          0047a26c     kernel32:KERNEL32.dll
 0002:00000270       __imp__FlsGetValue@4       0047a270     kernel32:KERNEL32.dll
 0002:00000274       __imp__FlsSetValue@8       0047a274     kernel32:KERNEL32.dll
 0002:00000278       __imp__FlsFree@4           0047a278     kernel32:KERNEL32.dll
 0002:0000027c       __imp__ReleaseMutex@4      0047a27c     kernel32:KERNEL32.dll
 0002:00000280       __imp__HeapAlloc@12        0047a280     kernel32:KERNEL32.dll
 0002:00000284       __imp__SetEvent@4          0047a284     kernel32:KERNEL32.dll
 0002:00000288       __imp__DeleteCriticalSection@4 0047a288     kernel32:KERNEL32.dll
 0002:0000028c       __imp__InitializeCriticalSectionEx@12 0047a28c     kernel32:KERNEL32.dll
 0002:00000290       __imp__LeaveCriticalSection@4 0047a290     kernel32:KERNEL32.dll
 0002:00000294       __imp__EnterCriticalSection@4 0047a294     kernel32:KERNEL32.dll
 0002:00000298       __imp__GetProcessHeap@0    0047a298     kernel32:KERNEL32.dll
 0002:0000029c       __imp__HeapSize@12         0047a29c     kernel32:KERNEL32.dll
 0002:000002a0       __imp__HeapFree@12         0047a2a0     kernel32:KERNEL32.dll
 0002:000002a4       __imp__HeapDestroy@4       0047a2a4     kernel32:KERNEL32.dll
 0002:000002a8       __imp__RaiseException@16   0047a2a8     kernel32:KERNEL32.dll
 0002:000002ac       __imp__DecodePointer@4     0047a2ac     kernel32:KERNEL32.dll
 0002:000002b0       __imp__ReadFile@20         0047a2b0     kernel32:KERNEL32.dll
 0002:000002b4       __imp__FindCloseChangeNotification@4 0047a2b4     kernel32:KERNEL32.dll
 0002:000002b8       __imp__DeleteFileW@4       0047a2b8     kernel32:KERNEL32.dll
 0002:000002bc       __imp__WritePrivateProfileStringW@16 0047a2bc     kernel32:KERNEL32.dll
 0002:000002c0       __imp__GetPrivateProfileStringW@24 0047a2c0     kernel32:KERNEL32.dll
 0002:000002c4       __imp__FormatMessageW@28   0047a2c4     kernel32:KERNEL32.dll
 0002:000002c8       __imp__GetCurrentThreadId@0 0047a2c8     kernel32:KERNEL32.dll
 0002:000002cc       __imp__SetLastError@4      0047a2cc     kernel32:KERNEL32.dll
 0002:000002d0       __imp__GetLastError@0      0047a2d0     kernel32:KERNEL32.dll
 0002:000002d4       __imp__CloseHandle@4       0047a2d4     kernel32:KERNEL32.dll
 0002:000002d8       __imp__IsDebuggerPresent@0 0047a2d8     kernel32:KERNEL32.dll
 0002:000002dc       __imp__WriteFile@20        0047a2dc     kernel32:KERNEL32.dll
 0002:000002e0       __imp__CreateFileW@28      0047a2e0     kernel32:KERNEL32.dll
 0002:000002e4       __imp__OutputDebugStringW@4 0047a2e4     kernel32:KERNEL32.dll
 0002:000002e8       __imp__FlushFileBuffers@4  0047a2e8     kernel32:KERNEL32.dll
 0002:000002ec       __imp__GetConsoleOutputCP@0 0047a2ec     kernel32:KERNEL32.dll
 0002:000002f0       __imp__GetConsoleMode@8    0047a2f0     kernel32:KERNEL32.dll
 0002:000002f4       __imp__SetFilePointerEx@20 0047a2f4     kernel32:KERNEL32.dll
 0002:000002f8       __imp__ReadConsoleW@20     0047a2f8     kernel32:KERNEL32.dll
 0002:000002fc       __imp__IsValidCodePage@4   0047a2fc     kernel32:KERNEL32.dll
 0002:00000300       __imp__GetACP@0            0047a300     kernel32:KERNEL32.dll
 0002:00000304       __imp__GetOEMCP@0          0047a304     kernel32:KERNEL32.dll
 0002:00000308       __imp__GetEnvironmentStringsW@0 0047a308     kernel32:KERNEL32.dll
 0002:0000030c       __imp__FreeEnvironmentStringsW@4 0047a30c     kernel32:KERNEL32.dll
 0002:00000310       __imp__SetStdHandle@8      0047a310     kernel32:KERNEL32.dll
 0002:00000314       __imp__GetCPInfo@8         0047a314     kernel32:KERNEL32.dll
 0002:00000318       __imp__WriteConsoleW@20    0047a318     kernel32:KERNEL32.dll
 0002:0000031c       __imp__VirtualProtect@16   0047a31c     kernel32:KERNEL32.dll
 0002:00000320       __imp__EnumSystemLocalesW@8 0047a320     kernel32:KERNEL32.dll
 0002:00000324       __imp__GetUserDefaultLCID@0 0047a324     kernel32:KERNEL32.dll
 0002:00000328       __imp__IsValidLocale@8     0047a328     kernel32:KERNEL32.dll
 0002:0000032c       __imp__GetLocaleInfoW@16   0047a32c     kernel32:KERNEL32.dll
 0002:00000330       __imp__LCMapStringW@24     0047a330     kernel32:KERNEL32.dll
 0002:00000334       \177KERNEL32_NULL_THUNK_DATA 0047a334     kernel32:KERNEL32.dll
 0002:00000338       __imp__VariantClear@4      0047a338     oleaut32:OLEAUT32.dll
 0002:0000033c       __imp__VariantInit@4       0047a33c     oleaut32:OLEAUT32.dll
 0002:00000340       __imp__SysAllocString@4    0047a340     oleaut32:OLEAUT32.dll
 0002:00000344       __imp__VarUI4FromStr@16    0047a344     oleaut32:OLEAUT32.dll
 0002:00000348       __imp__SysFreeString@4     0047a348     oleaut32:OLEAUT32.dll
 0002:0000034c       __imp__VarI4FromStr@16     0047a34c     oleaut32:OLEAUT32.dll
 0002:00000350       __imp__VarR8FromStr@16     0047a350     oleaut32:OLEAUT32.dll
 0002:00000354       __imp__VarDateFromStr@16   0047a354     oleaut32:OLEAUT32.dll
 0002:00000358       __imp__VarDecFromStr@16    0047a358     oleaut32:OLEAUT32.dll
 0002:0000035c       __imp__VarDecCmp@8         0047a35c     oleaut32:OLEAUT32.dll
 0002:00000360       \177OLEAUT32_NULL_THUNK_DATA 0047a360     oleaut32:OLEAUT32.dll
 0002:00000364       __imp__Shell_NotifyIconW@8 0047a364     shell32:SHELL32.dll
 0002:00000368       __imp__SHQueryUserNotificationState@4 0047a368     shell32:SHELL32.dll
 0002:0000036c       __imp__ShellExecuteW@24    0047a36c     shell32:SHELL32.dll
 0002:00000370       __imp__SetCurrentProcessExplicitAppUserModelID@4 0047a370     shell32:SHELL32.dll
 0002:00000374       \177SHELL32_NULL_THUNK_DATA 0047a374     shell32:SHELL32.dll
 0002:00000378       __imp__GetWindowTextLengthW@4 0047a378     user32:USER32.dll
 0002:0000037c       __imp__GetWindowTextW@12   0047a37c     user32:USER32.dll
 0002:00000380       __imp__DrawTextW@20        0047a380     user32:USER32.dll
 0002:00000384       __imp__EnumWindows@8       0047a384     user32:USER32.dll
 0002:00000388       __imp__IsIconic@4          0047a388     user32:USER32.dll
 0002:0000038c       __imp__MonitorFromWindow@8 0047a38c     user32:USER32.dll
 0002:00000390       __imp__SystemParametersInfoW@16 0047a390     user32:USER32.dll
 0002:00000394       __imp__LoadImageW@24       0047a394     user32:USER32.dll
 0002:00000398       __imp__GetWindow@8         0047a398     user32:USER32.dll
 0002:0000039c       __imp__GetDesktopWindow@0  0047a39c     user32:USER32.dll
 0002:000003a0       __imp__FillRect@12         0047a3a0     user32:USER32.dll
 0002:000003a4       __imp__GetSysColorBrush@4  0047a3a4     user32:USER32.dll
 0002:000003a8       __imp__GetSysColor@4       0047a3a8     user32:USER32.dll
 0002:000003ac       __imp__SetCursor@4         0047a3ac     user32:USER32.dll
 0002:000003b0       __imp__SetWindowTextW@8    0047a3b0     user32:USER32.dll
 0002:000003b4       __imp__RedrawWindow@16     0047a3b4     user32:USER32.dll
 0002:000003b8       __imp__ReleaseDC@8         0047a3b8     user32:USER32.dll
 0002:000003bc       __imp__GetDlgCtrlID@4      0047a3bc     user32:USER32.dll
 0002:000003c0       __imp__SetDlgItemTextW@12  0047a3c0     user32:USER32.dll
 0002:000003c4       __imp__GetDlgItem@8        0047a3c4     user32:USER32.dll
 0002:000003c8       __imp__IsWindow@4          0047a3c8     user32:USER32.dll
 0002:000003cc       __imp__ChangeWindowMessageFilterEx@16 0047a3cc     user32:USER32.dll
 0002:000003d0       __imp__GetMonitorInfoW@8   0047a3d0     user32:USER32.dll
 0002:000003d4       __imp__MonitorFromPoint@12 0047a3d4     user32:USER32.dll
 0002:000003d8       __imp__IsDialogMessageW@8  0047a3d8     user32:USER32.dll
 0002:000003dc       __imp__GetLastActivePopup@4 0047a3dc     user32:USER32.dll
 0002:000003e0       __imp__GetCursorPos@4      0047a3e0     user32:USER32.dll
 0002:000003e4       __imp__SetForegroundWindow@4 0047a3e4     user32:USER32.dll
 0002:000003e8       __imp__TrackPopupMenu@28   0047a3e8     user32:USER32.dll
 0002:000003ec       __imp__AppendMenuW@16      0047a3ec     user32:USER32.dll
 0002:000003f0       __imp__DestroyMenu@4       0047a3f0     user32:USER32.dll
 0002:000003f4       __imp__CreatePopupMenu@0   0047a3f4     user32:USER32.dll
 0002:000003f8       __imp__KillTimer@8         0047a3f8     user32:USER32.dll
 0002:000003fc       __imp__SetTimer@16         0047a3fc     user32:USER32.dll
 0002:00000400       __imp__MsgWaitForMultipleObjectsEx@20 0047a400     user32:USER32.dll
 0002:00000404       __imp__CreateDialogParamW@20 0047a404     user32:USER32.dll
 0002:00000408       __imp__ShowWindow@8        0047a408     user32:USER32.dll
 0002:0000040c       __imp__CallWindowProcW@20  0047a40c     user32:USER32.dll
 0002:00000410       __imp__PostQuitMessage@4   0047a410     user32:USER32.dll
 0002:00000414       __imp__DefWindowProcW@16   0047a414     user32:USER32.dll
 0002:00000418       __imp__SendMessageW@16     0047a418     user32:USER32.dll
 0002:0000041c       __imp__UnregisterHotKey@8  0047a41c     user32:USER32.dll
 0002:00000420       __imp__RegisterHotKey@16   0047a420     user32:USER32.dll
 0002:00000424       __imp__RegisterWindowMessageW@4 0047a424     user32:USER32.dll
 0002:00000428       __imp__GetClassNameW@12    0047a428     user32:USER32.dll
 0002:0000042c       __imp__EnumChildWindows@12 0047a42c     user32:USER32.dll
 0002:00000430       __imp__GetParent@4         0047a430     user32:USER32.dll
 0002:00000434       __imp__GetWindowLongW@8    0047a434     user32:USER32.dll
 0002:00000438       __imp__MapWindowPoints@16  0047a438     user32:USER32.dll
 0002:0000043c       __imp__GetWindowRect@8     0047a43c     user32:USER32.dll
 0002:00000440       __imp__GetClientRect@8     0047a440     user32:USER32.dll
 0002:00000444       __imp__InvalidateRect@12   0047a444     user32:USER32.dll
 0002:00000448       __imp__GetDC@4             0047a448     user32:USER32.dll
 0002:0000044c       __imp__SetWindowPos@28     0047a44c     user32:USER32.dll
 0002:00000450       __imp__LoadStringW@16      0047a450     user32:USER32.dll
 0002:00000454       __imp__DestroyIcon@4       0047a454     user32:USER32.dll
 0002:00000458       __imp__LoadCursorW@8       0047a458     user32:USER32.dll
 0002:0000045c       __imp__GetWindowThreadProcessId@8 0047a45c     user32:USER32.dll
 0002:00000460       __imp__FindWindowW@8       0047a460     user32:USER32.dll
 0002:00000464       __imp__SetWindowLongW@12   0047a464     user32:USER32.dll
 0002:00000468       __imp__MessageBoxW@16      0047a468     user32:USER32.dll
 0002:0000046c       __imp__MessageBoxA@16      0047a46c     user32:USER32.dll
 0002:00000470       __imp__AllowSetForegroundWindow@4 0047a470     user32:USER32.dll
 0002:00000474       __imp__GetSystemMetrics@4  0047a474     user32:USER32.dll
 0002:00000478       __imp__EnableWindow@8      0047a478     user32:USER32.dll
 0002:0000047c       __imp__CharNextW@4         0047a47c     user32:USER32.dll
 0002:00000480       __imp__DestroyWindow@4     0047a480     user32:USER32.dll
 0002:00000484       __imp__CreateWindowExW@48  0047a484     user32:USER32.dll
 0002:00000488       __imp__GetClassInfoExW@12  0047a488     user32:USER32.dll
 0002:0000048c       __imp__RegisterClassExW@4  0047a48c     user32:USER32.dll
 0002:00000490       __imp__UnregisterClassW@8  0047a490     user32:USER32.dll
 0002:00000494       __imp__PostMessageW@16     0047a494     user32:USER32.dll
 0002:00000498       __imp__PeekMessageW@20     0047a498     user32:USER32.dll
 0002:0000049c       __imp__DispatchMessageW@4  0047a49c     user32:USER32.dll
 0002:000004a0       __imp__TranslateMessage@4  0047a4a0     user32:USER32.dll
 0002:000004a4       __imp__GetMessageW@16      0047a4a4     user32:USER32.dll
 0002:000004a8       __imp__SetUserObjectInformationW@16 0047a4a8     user32:USER32.dll
 0002:000004ac       __imp__IsWindowVisible@4   0047a4ac     user32:USER32.dll
 0002:000004b0       \177USER32_NULL_THUNK_DATA 0047a4b0     user32:USER32.dll
 0002:000004b4       __imp__DestroyEnvironmentBlock@4 0047a4b4     userenv:USERENV.dll
 0002:000004b8       __imp__CreateEnvironmentBlock@12 0047a4b8     userenv:USERENV.dll
 0002:000004bc       \177USERENV_NULL_THUNK_DATA 0047a4bc     userenv:USERENV.dll
 0002:000004c0       __imp__SetWindowTheme@12   0047a4c0     uxtheme:UxTheme.dll
 0002:000004c4       \177UxTheme_NULL_THUNK_DATA 0047a4c4     uxtheme:UxTheme.dll
 0002:000004c8       __imp__WinHttpOpen@20      0047a4c8     Winhttp:WINHTTP.dll
 0002:000004cc       __imp__WinHttpCrackUrl@16  0047a4cc     Winhttp:WINHTTP.dll
 0002:000004d0       __imp__WinHttpQueryHeaders@24 0047a4d0     Winhttp:WINHTTP.dll
 0002:000004d4       __imp__WinHttpReceiveResponse@8 0047a4d4     Winhttp:WINHTTP.dll
 0002:000004d8       __imp__WinHttpQueryAuthSchemes@16 0047a4d8     Winhttp:WINHTTP.dll
 0002:000004dc       __imp__WinHttpConnect@16   0047a4dc     Winhttp:WINHTTP.dll
 0002:000004e0       __imp__WinHttpSendRequest@28 0047a4e0     Winhttp:WINHTTP.dll
 0002:000004e4       __imp__WinHttpWriteData@16 0047a4e4     Winhttp:WINHTTP.dll
 0002:000004e8       __imp__WinHttpReadData@16  0047a4e8     Winhttp:WINHTTP.dll
 0002:000004ec       __imp__WinHttpCloseHandle@4 0047a4ec     Winhttp:WINHTTP.dll
 0002:000004f0       __imp__WinHttpSetStatusCallback@16 0047a4f0     Winhttp:WINHTTP.dll
 0002:000004f4       __imp__WinHttpOpenRequest@28 0047a4f4     Winhttp:WINHTTP.dll
 0002:000004f8       __imp__WinHttpSetOption@16 0047a4f8     Winhttp:WINHTTP.dll
 0002:000004fc       __imp__WinHttpAddRequestHeaders@16 0047a4fc     Winhttp:WINHTTP.dll
 0002:00000500       __imp__WinHttpSetCredentials@24 0047a500     Winhttp:WINHTTP.dll
 0002:00000504       \177WINHTTP_NULL_THUNK_DATA 0047a504     Winhttp:WINHTTP.dll
 0002:00000508       __imp__WTSQuerySessionInformationW@20 0047a508     wtsapi32:WTSAPI32.dll
 0002:0000050c       __imp__WTSFreeMemory@4     0047a50c     wtsapi32:WTSAPI32.dll
 0002:00000510       __imp__WTSQueryUserToken@8 0047a510     wtsapi32:WTSAPI32.dll
 0002:00000514       __imp__WTSEnumerateSessionsW@20 0047a514     wtsapi32:WTSAPI32.dll
 0002:00000518       \177WTSAPI32_NULL_THUNK_DATA 0047a518     wtsapi32:WTSAPI32.dll
 0002:0000051c       __imp__CoTaskMemRealloc@8  0047a51c     ole32:ole32.dll
 0002:00000520       __imp__CoCreateInstance@20 0047a520     ole32:ole32.dll
 0002:00000524       __imp__CoTaskMemFree@4     0047a524     ole32:ole32.dll
 0002:00000528       __imp__CoInitialize@4      0047a528     ole32:ole32.dll
 0002:0000052c       __imp__StringFromGUID2@12  0047a52c     ole32:ole32.dll
 0002:00000530       __imp__CoUninitialize@0    0047a530     ole32:ole32.dll
 0002:00000534       __imp__CoTaskMemAlloc@4    0047a534     ole32:ole32.dll
 0002:00000538       __imp__CoCreateGuid@4      0047a538     ole32:ole32.dll
 0002:0000053c       __imp__IIDFromString@8     0047a53c     ole32:ole32.dll
 0002:00000540       \177ole32_NULL_THUNK_DATA  0047a540     ole32:ole32.dll
 0002:00000544       __imp__EvtNext@24          0047a544     wevtapi:wevtapi.dll
 0002:00000548       __imp__EvtClose@4          0047a548     wevtapi:wevtapi.dll
 0002:0000054c       __imp__EvtSubscribe@32     0047a54c     wevtapi:wevtapi.dll
 0002:00000550       __imp__EvtCreateRenderContext@12 0047a550     wevtapi:wevtapi.dll
 0002:00000554       __imp__EvtRender@28        0047a554     wevtapi:wevtapi.dll
 0002:00000558       \177wevtapi_NULL_THUNK_DATA 0047a558     wevtapi:wevtapi.dll
 0002:0000055c       ___guard_check_icall_fptr  0047a55c     LIBCMT:guard_support.obj
 0002:00000560       ___castguard_check_failure_os_handled_fptr 0047a560     LIBCMT:guard_support.obj
 0002:00000564       ___xc_a                    0047a564     LIBCMT:initializers.obj
 0002:000005b4       ___xc_z                    0047a5b4     LIBCMT:initializers.obj
 0002:000005b8       ___xi_a                    0047a5b8     LIBCMT:initializers.obj
 0002:000005c8       ___acrt_stdio_initializer  0047a5c8     libucrt:stdio_initializer.obj
 0002:000005cc       ___acrt_tran_sse2_initializer 0047a5cc     libucrt:sse2_initializer.obj
 0002:000005d0       ___acrt_timeset_initializer 0047a5d0     libucrt:timeset_initializer.obj
 0002:000005d4       ___acrt_multibyte_initializer 0047a5d4     libucrt:multibyte_initializer.obj
 0002:000005d8       ___acrt_fmode_initializer  0047a5d8     libucrt:fmode_initializer.obj
 0002:000005dc       ___xi_z                    0047a5dc     LIBCMT:initializers.obj
 0002:000005e0       ___xl_a                    0047a5e0     LIBCMT:tlssup.obj
 0002:000005e4       ___xl_z                    0047a5e4     LIBCMT:tlssup.obj
 0002:000005e8       ___xp_a                    0047a5e8     LIBCMT:initializers.obj
 0002:000005ec       ___acrt_locale_terminator  0047a5ec     libucrt:locale_initializer.obj
 0002:000005f0       ___dcrt_console_output_terminator 0047a5f0     libucrt:console_output_initializer.obj
 0002:000005f4       ___acrt_stdio_terminator   0047a5f4     libucrt:stdio_initializer.obj
 0002:000005f8       ___xp_z                    0047a5f8     LIBCMT:initializers.obj
 0002:000005fc       ___xt_a                    0047a5fc     LIBCMT:initializers.obj
 0002:00000600       ___xt_z                    0047a600     LIBCMT:initializers.obj
 0002:00000624       ??_7exception@std@@6B@     0047a624     portable_settings.obj
 0002:0000062c       ??_C@_0BC@EOODALEL@Unknown?5exception@ 0047a62c     portable_settings.obj
 0002:00000644       ??_7bad_alloc@std@@6B@     0047a644     portable_settings.obj
 0002:00000650       ??_7bad_array_new_length@std@@6B@ 0047a650     portable_settings.obj
 0002:00000658       ??_C@_0BF@KINCDENJ@bad?5array?5new?5length@ 0047a658     portable_settings.obj
 0002:00000670       ??_C@_0BA@JFNIOLAK@string?5too?5long@ 0047a670     portable_settings.obj
 0002:00000684       ??_7logic_error@std@@6B@   0047a684     portable_settings.obj
 0002:00000690       ??_7invalid_argument@std@@6B@ 0047a690     portable_settings.obj
 0002:00000698       ??_C@_00CNPNBAHC@@         0047a698     portable_settings.obj
 0002:0000069c       ??_C@_0BG@HBEOPAA@invalid?5stol?5argument@ 0047a69c     portable_settings.obj
 0002:000006b4       ??_C@_0BL@CNHODNBK@stol?5argument?5out?5of?5range@ 0047a6b4     portable_settings.obj
 0002:000006d0       ??_C@_09FBNMMHMJ@Exception@ 0047a6d0     portable_settings.obj
 0002:000006dc       ??_C@_08PHCNGLJD@ReturnNt@ 0047a6dc     portable_settings.obj
 0002:000006e8       ??_C@_08KFPKLAKH@ReturnHr@ 0047a6e8     portable_settings.obj
 0002:000006f4       ??_C@_05LKGDKHFF@LogNt@    0047a6f4     portable_settings.obj
 0002:000006fc       ??_C@_05OILEHMGB@LogHr@    0047a6fc     portable_settings.obj
 0002:00000704       ??_C@_08IAOKKAJK@FailFast@ 0047a704     portable_settings.obj
 0002:00000710       ??_C@_1CC@NCIPMFAO@?$AA?$CF?$AAh?$AAs?$AA?$CI?$AA?$CF?$AAu?$AA?$CJ?$AA?2?$AA?$CF?$AAh?$AAs?$AA?$CB?$AA?$CF?$AAp?$AA?3@ 0047a710     portable_settings.obj
 0002:00000734       ??_C@_1BC@HOGHCIFF@?$AA?$CF?$AAh?$AAs?$AA?$CB?$AA?$CF?$AAp?$AA?3?$AA?5@ 0047a734     portable_settings.obj
 0002:00000748       ??_C@_1BM@EAHLIJPA@?$AA?$CI?$AAc?$AAa?$AAl?$AAl?$AAe?$AAr?$AA?3?$AA?5?$AA?$CF?$AAp?$AA?$CJ?$AA?5@ 0047a748     portable_settings.obj
 0002:00000764       ??_C@_1DC@MFHOKFOG@?$AA?$CF?$AAh?$AAs?$AA?$CI?$AA?$CF?$AAd?$AA?$CJ?$AA?5?$AAt?$AAi?$AAd?$AA?$CI?$AA?$CF?$AAx?$AA?$CJ@ 0047a764     portable_settings.obj
 0002:00000798       ??_C@_19NMAFMAH@?$AA?5?$AA?5?$AA?5?$AA?5@ 0047a798     portable_settings.obj
 0002:000007a4       ??_C@_1BG@MCLOHHAM@?$AAM?$AAs?$AAg?$AA?3?$AA?$FL?$AA?$CF?$AAw?$AAs?$AA?$FN?$AA?5@ 0047a7a4     portable_settings.obj
 0002:000007bc       ??_C@_1CG@CGJKEFKG@?$AAC?$AAa?$AAl?$AAl?$AAC?$AAo?$AAn?$AAt?$AAe?$AAx?$AAt?$AA?3?$AA?$FL?$AA?$CF?$AAh@ 0047a7bc     portable_settings.obj
 0002:000007e4       ??_C@_1BI@PKOCHLJN@?$AA?$FL?$AA?$CF?$AAh?$AAs?$AA?$CI?$AA?$CF?$AAh?$AAs?$AA?$CJ?$AA?$FN?$AA?6@ 0047a7e4     portable_settings.obj
 0002:000007fc       ??_C@_1O@PJKHPDBK@?$AA?$FL?$AA?$CF?$AAh?$AAs?$AA?$FN?$AA?6@ 0047a7fc     portable_settings.obj
 0002:0000080c       ??_C@_13LBAGMAIH@?$AA?6@   0047a80c     portable_settings.obj
 0002:00000810       ??_C@_0BA@FOIKENOD@vector?5too?5long@ 0047a810     portable_settings.obj
 0002:00000820       ??_C@_0BI@CFPLBAOH@invalid?5string?5position@ 0047a820     portable_settings.obj
 0002:0000083c       ??_7RegistrySettings@@6B@  0047a83c     portable_settings.obj
 0002:00000868       ??_7IniFileSettings@@6B@   0047a868     portable_settings.obj
 0002:00000894       ??_7?$EnumIteratorImpl@H@@6B@ 0047a894     portable_settings.obj
 0002:000008a4       ??_7?$EnumIteratorRegistryBase@H@@6B@ 0047a8a4     portable_settings.obj
 0002:000008b4       ??_7EnumIteratorRegistryInt@@6B@ 0047a8b4     portable_settings.obj
 0002:000008c4       ??_7?$EnumIteratorImpl@V?$basic_string@_WU?$char_traits@_W@std@@V?$allocator@_W@2@@std@@@@6B@ 0047a8c4     portable_settings.obj
 0002:000008d4       ??_7?$EnumIteratorRegistryBase@V?$basic_string@_WU?$char_traits@_W@std@@V?$allocator@_W@2@@std@@@@6B@ 0047a8d4     portable_settings.obj
 0002:000008e4       ??_7EnumIteratorRegistryString@@6B@ 0047a8e4     portable_settings.obj
 0002:000008f0       ??_C@_0BN@PIGJJKFN@shared?2portable_settings?4cpp@ 0047a8f0     portable_settings.obj
 0002:00000910       ??_C@_0BC@IJHGPFDC@invalid?5hex?5digit@ 0047a910     portable_settings.obj
 0002:00000928       ??_7?$EnumIteratorIniFileBase@H@@6B@ 0047a928     portable_settings.obj
 0002:00000938       ??_7EnumIteratorIniFileInt@@6B@ 0047a938     portable_settings.obj
 0002:00000948       ??_7?$EnumIteratorIniFileBase@V?$basic_string@_WU?$char_traits@_W@std@@V?$allocator@_W@2@@std@@@@6B@ 0047a948     portable_settings.obj
 0002:00000958       ??_7EnumIteratorIniFileString@@6B@ 0047a958     portable_settings.obj
 0002:00000964       ??_C@_02DEBJNODD@?$PP?$PO@ 0047a964     portable_settings.obj
 0002:00000968       ??_C@_15JNBOKNOG@?$AA?$AN?$AA?6@ 0047a968     portable_settings.obj
 0002:00000970       ??_C@_0L@BNKBKFNE@odd?5length@ 0047a970     portable_settings.obj
 0002:000009a0       ??_C@_1BK@BIGILECK@?$AAA?$AAd?$AAv?$AAa?$AAp?$AAi?$AA3?$AA2?$AA?4?$AAd?$AAl?$AAl@ 0047a9a0     app.obj
 0002:000009bc       ??_C@_0BG@EKFFMJIO@RegOpenKeyTransactedW@ 0047a9bc     app.obj
 0002:000009d4       ??_C@_0BI@MNCFCPFK@RegCreateKeyTransactedW@ 0047a9d4     app.obj
 0002:000009ec       ??_C@_0BI@HAKLOOGP@RegDeleteKeyTransactedW@ 0047a9ec     app.obj
 0002:00000a08       ??_7CAtlStringMgr@ATL@@6B@ 0047aa08     app.obj
 0002:00000a20       __GUID_00000146_0000_0000_c000_000000000046 0047aa20     app.obj
 0002:00000a34       ??_7CComModule@ATL@@6B@    0047aa34     app.obj
 0002:00000a5c       ??_C@_0BA@LILAPHGE@RegDeleteKeyExW@ 0047aa5c     app.obj
 0002:00000a70       ??_7CAppModule@WTL@@6B@    0047aa70     app.obj
 0002:00000a98       ??_C@_1M@PPPPCDEP@?$AAA?$AAP?$AAP?$AAI?$AAD@ 0047aa98     app.obj
 0002:00000aa4       ??_C@_1M@KANJNLFF@?$AAC?$AAL?$AAS?$AAI?$AAD@ 0047aaa4     app.obj
 0002:00000ab0       ??_C@_1M@EJNEECMJ@?$AAA?$AAp?$AAp?$AAI?$AAD@ 0047aab0     app.obj
 0002:00000abc       ??_C@_13HADIAKP@?$AAS@     0047aabc     app.obj
 0002:00000ac0       ??_C@_13LHMFKAAD@?$AAM@    0047aac0     app.obj
 0002:00000ac4       ??_C@_13MKMNOPIJ@?$AAD@    0047aac4     app.obj
 0002:00000ac8       ??_C@_13OPKGLAFF@?$AAB@    0047aac8     app.obj
 0002:00000acc       ??_C@_17LLMMEOJD@?$AAV?$AAa?$AAl@ 0047aacc     app.obj
 0002:00000ad4       ??_C@_1BI@JFAIJMHL@?$AAF?$AAo?$AAr?$AAc?$AAe?$AAR?$AAe?$AAm?$AAo?$AAv?$AAe@ 0047aad4     app.obj
 0002:00000aec       ??_C@_1BC@GCKHIPE@?$AAN?$AAo?$AAR?$AAe?$AAm?$AAo?$AAv?$AAe@ 0047aaec     app.obj
 0002:00000b00       ??_C@_1O@JDLOHAN@?$AAD?$AAe?$AAl?$AAe?$AAt?$AAe@ 0047ab00     app.obj
 0002:00000b10       ?rgszNeverDelete@CRegParser@ATL@@1QBQB_WB 0047ab10     app.obj
 0002:00000b44       ??_7CRegObject@ATL@@6B@    0047ab44     app.obj
 0002:00000b5c       ??_C@_1CK@OEKPKBNA@?$AAC?$AAo?$AAm?$AAp?$AAo?$AAn?$AAe?$AAn?$AAt?$AA?5?$AAC?$AAa?$AAt?$AAe?$AAg@ 0047ab5c     app.obj
 0002:00000b88       ??_C@_1BC@NKMMNMGL@?$AAF?$AAi?$AAl?$AAe?$AAT?$AAy?$AAp?$AAe@ 0047ab88     app.obj
 0002:00000b9c       ??_C@_1BE@EKPAFMCP@?$AAI?$AAn?$AAt?$AAe?$AAr?$AAf?$AAa?$AAc?$AAe@ 0047ab9c     app.obj
 0002:00000bb0       ??_C@_1BC@MAICEHGI@?$AAH?$AAa?$AAr?$AAd?$AAw?$AAa?$AAr?$AAe@ 0047abb0     app.obj
 0002:00000bc4       ??_C@_19HLLLM@?$AAM?$AAi?$AAm?$AAe@ 0047abc4     app.obj
 0002:00000bd0       ??_C@_17OMAOINJK@?$AAS?$AAA?$AAM@ 0047abd0     app.obj
 0002:00000bd8       ??_C@_1BC@IBECJAAI@?$AAS?$AAE?$AAC?$AAU?$AAR?$AAI?$AAT?$AAY@ 0047abd8     app.obj
 0002:00000bec       ??_C@_1O@GBFINDKL@?$AAS?$AAY?$AAS?$AAT?$AAE?$AAM@ 0047abec     app.obj
 0002:00000bfc       ??_C@_1BC@EAHCMADO@?$AAS?$AAo?$AAf?$AAt?$AAw?$AAa?$AAr?$AAe@ 0047abfc     app.obj
 0002:00000c10       ??_C@_1BA@JIHHIEDE@?$AAT?$AAy?$AAp?$AAe?$AAL?$AAi?$AAb@ 0047ac10     app.obj
 0002:00000c20       ?map@?1??HKeyFromString@CRegParser@ATL@@KAPAUHKEY__@@PA_W@Z@4QBUkeymap@?1??123@KAPAU4@0@Z@B 0047ac20     app.obj
 0002:00000c90       ??_C@_19NCHLBIN@?$AAH?$AAK?$AAC?$AAR@ 0047ac90     app.obj
 0002:00000c9c       ??_C@_19JAPAIJDE@?$AAH?$AAK?$AAC?$AAU@ 0047ac9c     app.obj
 0002:00000ca8       ??_C@_19PEALEEJB@?$AAH?$AAK?$AAL?$AAM@ 0047aca8     app.obj
 0002:00000cb4       ??_C@_17PJOJPMPB@?$AAH?$AAK?$AAU@ 0047acb4     app.obj
 0002:00000cbc       ??_C@_19PNBHMJPL@?$AAH?$AAK?$AAP?$AAD@ 0047acbc     app.obj
 0002:00000cc8       ??_C@_19GFFAIJHG@?$AAH?$AAK?$AAD?$AAD@ 0047acc8     app.obj
 0002:00000cd4       ??_C@_19OFICIBHH@?$AAH?$AAK?$AAC?$AAC@ 0047acd4     app.obj
 0002:00000ce0       ??_C@_1CE@PACHPJFI@?$AAH?$AAK?$AAE?$AAY?$AA_?$AAC?$AAL?$AAA?$AAS?$AAS?$AAE?$AAS?$AA_?$AAR?$AAO@ 0047ace0     app.obj
 0002:00000d04       ??_C@_1CE@HLHNCBPM@?$AAH?$AAK?$AAE?$AAY?$AA_?$AAC?$AAU?$AAR?$AAR?$AAE?$AAN?$AAT?$AA_?$AAU?$AAS@ 0047ad04     app.obj
 0002:00000d28       ??_C@_1CG@GFBEANJL@?$AAH?$AAK?$AAE?$AAY?$AA_?$AAL?$AAO?$AAC?$AAA?$AAL?$AA_?$AAM?$AAA?$AAC?$AAH@ 0047ad28     app.obj
 0002:00000d50       ??_C@_1BG@BGODANIO@?$AAH?$AAK?$AAE?$AAY?$AA_?$AAU?$AAS?$AAE?$AAR?$AAS@ 0047ad50     app.obj
 0002:00000d68       ??_C@_1CM@KHNNAOIC@?$AAH?$AAK?$AAE?$AAY?$AA_?$AAP?$AAE?$AAR?$AAF?$AAO?$AAR?$AAM?$AAA?$AAN?$AAC@ 0047ad68     app.obj
 0002:00000d94       ??_C@_1BM@HAGMMHIA@?$AAH?$AAK?$AAE?$AAY?$AA_?$AAD?$AAY?$AAN?$AA_?$AAD?$AAA?$AAT?$AAA@ 0047ad94     app.obj
 0002:00000db0       ??_C@_1CI@BBJOACGG@?$AAH?$AAK?$AAE?$AAY?$AA_?$AAC?$AAU?$AAR?$AAR?$AAE?$AAN?$AAT?$AA_?$AAC?$AAO@ 0047adb0     app.obj
 0002:00000dd8       ??_C@_1EA@NHKLICFA@?$AAH?$AAK?$AAC?$AAU?$AA?$AN?$AA?6?$AA?$HL?$AA?7?$AAS?$AAo?$AAf?$AAt?$AAw?$AAa?$AAr@ 0047add8     app.obj
 0002:00000e18       ??_C@_1BE@LJOLIMEM@?$AA?$AN?$AA?6?$AA?7?$AA?$HN?$AA?$AN?$AA?6?$AA?$HN?$AA?$AN?$AA?6@ 0047ae18     app.obj
 0002:00000e2c       ??_C@_1O@MNLDABAF@?$AAM?$AAo?$AAd?$AAu?$AAl?$AAe@ 0047ae2c     app.obj
 0002:00000e3c       ??_C@_1BG@JBACFMF@?$AAM?$AAo?$AAd?$AAu?$AAl?$AAe?$AA_?$AAR?$AAa?$AAw@ 0047ae3c     app.obj
 0002:00000e54       ??_C@_1BC@KAILKFFG@?$AAR?$AAE?$AAG?$AAI?$AAS?$AAT?$AAR?$AAY@ 0047ae54     app.obj
 0002:00000e68       ??_C@_11LOCGONAA@@         0047ae68     app.obj
 0002:00000e70       ??_7CWin32Heap@ATL@@6B@    0047ae70     app.obj
 0002:00000e88       ??_7CMessageLoop@WTL@@6B@  0047ae88     app.obj
 0002:00000e98       ??_C@_1O@GBFKGNEO@?$AAA?$AAT?$AAL?$AA?3?$AA?$CF?$AAp@ 0047ae98     app.obj
 0002:00000eac       ??_7bad_optional_access@std@@6B@ 0047aeac     app.obj
 0002:00000eb4       ??_C@_0BE@LMOOKEAD@Bad?5optional?5access@ 0047aeb4     app.obj
 0002:00000ecc       ??_7CHandle@WinHTTPWrappers@@6B@ 0047aecc     app.obj
 0002:00000edc       ??_7CAsyncDownloader@WinHTTPWrappers@@6B@ 0047aedc     app.obj
 0002:00000f20       ??_C@_1CM@KBGJEPPN@?$AAR?$AAa?$AAn?$AAg?$AAe?$AA?3?$AA?5?$AAb?$AAy?$AAt?$AAe?$AAs?$AA?$DN?$AA?$CF?$AAI@ 0047af20     app.obj
 0002:00000f4c       ??_C@_1DA@DEIBDDLO@?$AAC?$AAo?$AAn?$AAt?$AAe?$AAn?$AAt?$AA?9?$AAL?$AAe?$AAn?$AAg?$AAt?$AAh?$AA?3@ 0047af4c     app.obj
 0002:00000f7c       ??_C@_03KGBNGMMC@wil@      0047af7c     app.obj
 0002:00000f80       ??_C@_0CA@IMBMGMGL@shared?2libraries?2wil?2resource?4h@ 0047af80     app.obj
 0002:00000fa0       ??_C@_0CF@JDAAONOL@shared?2libraries?2wil?2win32_help@ 0047afa0     app.obj
 0002:00000fcc       ??_7?$__base@$$A6AJPA_WIPAI@Z@__function@wistd@@6B@ 0047afcc     app.obj
 0002:00000fe4       ??_7CSimpleWinHTTPDownloader@CWinHTTPSimple@@6B@ 0047afe4     app.obj
 0002:00001030       ??_C@_1BO@KKGOJFAG@?$AAW?$AAi?$AAn?$AAd?$AAh?$AAa?$AAw?$AAk?$AAD?$AAa?$AAe?$AAm?$AAo?$AAn@ 0047b030     app.obj
 0002:00001050       ??_C@_1CO@CLMDEAOO@?$AAR?$AAa?$AAm?$AAe?$AAn?$AAS?$AAo?$AAf?$AAt?$AAw?$AAa?$AAr?$AAe?$AA?4?$AAW@ 0047b050     app.obj
 0002:00001080       ??_C@_1BC@LGMDIKCH@?$AA?9?$AAs?$AAe?$AAr?$AAv?$AAi?$AAc?$AAe@ 0047b080     app.obj
 0002:00001094       ??_C@_1BO@DJAPBGJI@?$AA?9?$AAs?$AAe?$AAr?$AAv?$AAi?$AAc?$AAe?$AA?9?$AAs?$AAt?$AAa?$AAr?$AAt@ 0047b094     app.obj
 0002:000010b4       ??_C@_1BM@MIBBMOMC@?$AA?9?$AAs?$AAe?$AAr?$AAv?$AAi?$AAc?$AAe?$AA?9?$AAs?$AAt?$AAo?$AAp@ 0047b0b4     app.obj
 0002:000010d0       ??_C@_1BA@KEFGLDN@?$AA?9?$AAr?$AAu?$AAn?$AA?9?$AAu?$AAi@ 0047b0d0     app.obj
 0002:000010e0       ??_C@_1CC@IJBKPGPH@?$AA?9?$AAr?$AAu?$AAn?$AA?9?$AAu?$AAi?$AA?9?$AAa?$AAs?$AA?9?$AAa?$AAd?$AAm?$AAi@ 0047b0e0     app.obj
 0002:00001104       ??_C@_1CK@LHLJGAJN@?$AA?9?$AAr?$AAu?$AAn?$AA?9?$AAu?$AAi?$AA?9?$AAi?$AAn?$AA?9?$AAs?$AAa?$AAf?$AAe@ 0047b104     app.obj
 0002:00001130       ??_C@_1DE@CHAFANIF@?$AA?9?$AAs?$AAe?$AAr?$AAv?$AAi?$AAc?$AAe?$AA?9?$AAs?$AAt?$AAa?$AAr?$AAt?$AA?9@ 0047b130     app.obj
 0002:00001164       ??_C@_1CG@OFIGKCNI@?$AA?9?$AAc?$AAh?$AAe?$AAc?$AAk?$AA?9?$AAf?$AAo?$AAr?$AA?9?$AAu?$AAp?$AAd?$AAa@ 0047b164     app.obj
 0002:0000118c       ??_C@_1CG@HJKEMCPE@?$AA?9?$AAn?$AAe?$AAw?$AA?9?$AAu?$AAp?$AAd?$AAa?$AAt?$AAe?$AAs?$AA?9?$AAf?$AAo@ 0047b18c     app.obj
 0002:000011b4       ??_C@_1CM@ICBEJPC@?$AA?9?$AAa?$AAp?$AAp?$AA?9?$AAs?$AAe?$AAt?$AAt?$AAi?$AAn?$AAg?$AAs?$AA?9?$AAc@ 0047b1b4     app.obj
 0002:000011e0       ??_C@_1M@IBGJMPMO@?$AA?9?$AAe?$AAx?$AAi?$AAt@ 0047b1e0     app.obj
 0002:000011ec       ??_C@_1BC@HEDBHNJF@?$AA?9?$AAr?$AAe?$AAs?$AAt?$AAa?$AAr?$AAt@ 0047b1ec     app.obj
 0002:00001200       ??_C@_1BI@NGDIOKKK@?$AA?9?$AAr?$AAe?$AAs?$AAt?$AAa?$AAr?$AAt?$AA?9?$AAb?$AAg@ 0047b200     app.obj
 0002:00001218       ??_C@_0P@IGCNAHKG@Windhawk?5error@ 0047b218     app.obj
 0002:00001228       ??_C@_08GBIGGCJG@wWinMain@ 0047b228     app.obj
 0002:00001234       ??_C@_1BO@CJDPGKLP@?$AA?$FL?$AAW?$AAH?$AA?$FN?$AA?5?$AA?$FL?$AA?$CF?$AAS?$AA?$FN?$AA?3?$AA?5?$AA?$CF?$AAS?$AA?6@ 0047b234     app.obj
 0002:00001254       ??_C@_0BL@GGDFKNOH@?$GAanonymous?9namespace?8?3?3Run@ 0047b254     app.obj
 0002:00001270       ??_C@_1DI@DBPFOKN@?$AA?$FL?$AAW?$AAH?$AA?$FN?$AA?5?$AA?$FL?$AA?$CF?$AAS?$AA?$FN?$AA?3?$AA?5?$AAR?$AAu?$AAn?$AAn@ 0047b270     app.obj
 0002:000012a8       ??_C@_1DK@JABKOGNM@?$AA?$FL?$AAW?$AAH?$AA?$FN?$AA?5?$AA?$FL?$AA?$CF?$AAS?$AA?$FN?$AA?3?$AA?5?$AAS?$AAt?$AAa?$AAr@ 0047b2a8     app.obj
 0002:000012e4       ??_C@_1DK@EEFHPHND@?$AA?$FL?$AAW?$AAH?$AA?$FN?$AA?5?$AA?$FL?$AA?$CF?$AAS?$AA?$FN?$AA?3?$AA?5?$AAS?$AAt?$AAo?$AAp@ 0047b2e4     app.obj
 0002:00001320       ??_C@_1CG@KOICNEAN@?$AA?9?$AAa?$AAl?$AAs?$AAo?$AA?9?$AAn?$AAo?$AA?9?$AAa?$AAu?$AAt?$AAo?$AAs?$AAt@ 0047b320     app.obj
 0002:00001348       ??_C@_1EA@BLJOGHIO@?$AA?$FL?$AAW?$AAH?$AA?$FN?$AA?5?$AA?$FL?$AA?$CF?$AAS?$AA?$FN?$AA?3?$AA?5?$AAR?$AAu?$AAn?$AAn@ 0047b348     app.obj
 0002:00001388       ??_C@_1CO@NGEIJKBJ@?$AA?$FL?$AAW?$AAH?$AA?$FN?$AA?5?$AA?$FL?$AA?$CF?$AAS?$AA?$FN?$AA?3?$AA?5?$AAR?$AAu?$AAn?$AAn@ 0047b388     app.obj
 0002:000013b8       ??_C@_1EI@GEFIMBPJ@?$AA?$FL?$AAW?$AAH?$AA?$FN?$AA?5?$AA?$FL?$AA?$CF?$AAS?$AA?$FN?$AA?3?$AA?5?$AAR?$AAu?$AAn?$AAn@ 0047b3b8     app.obj
 0002:00001400       ??_C@_1FI@LMBBEHCP@?$AA?$FL?$AAW?$AAH?$AA?$FN?$AA?5?$AA?$FL?$AA?$CF?$AAS?$AA?$FN?$AA?3?$AA?5?$AAS?$AAt?$AAa?$AAr@ 0047b400     app.obj
 0002:00001458       ??_C@_1EC@NKIDBMMH@?$AA?$FL?$AAW?$AAH?$AA?$FN?$AA?5?$AA?$FL?$AA?$CF?$AAS?$AA?$FN?$AA?3?$AA?5?$AAC?$AAh?$AAe?$AAc@ 0047b458     app.obj
 0002:000014a0       ??_C@_1FM@KEJCMOOO@?$AA?$FL?$AAW?$AAH?$AA?$FN?$AA?5?$AA?$FL?$AA?$CF?$AAS?$AA?$FN?$AA?3?$AA?5?$AAN?$AAo?$AAt?$AAi@ 0047b4a0     app.obj
 0002:00001500       ??_C@_1GC@PADBGAGF@?$AA?$FL?$AAW?$AAH?$AA?$FN?$AA?5?$AA?$FL?$AA?$CF?$AAS?$AA?$FN?$AA?3?$AA?5?$AAN?$AAo?$AAt?$AAi@ 0047b500     app.obj
 0002:00001564       ??_C@_1DA@CPPBHDBO@?$AA?$FL?$AAW?$AAH?$AA?$FN?$AA?5?$AA?$FL?$AA?$CF?$AAS?$AA?$FN?$AA?3?$AA?5?$AAE?$AAx?$AAi?$AAt@ 0047b564     app.obj
 0002:00001594       ??_C@_1BC@CIJPHDOC@?$AA?9?$AAt?$AAi?$AAm?$AAe?$AAo?$AAu?$AAt@ 0047b594     app.obj
 0002:000015a8       ??_C@_1M@MBMGLEBL@?$AA?9?$AAw?$AAa?$AAi?$AAt@ 0047b5a8     app.obj
 0002:000015b4       ??_C@_1DG@HMJEBOAL@?$AA?$FL?$AAW?$AAH?$AA?$FN?$AA?5?$AA?$FL?$AA?$CF?$AAS?$AA?$FN?$AA?3?$AA?5?$AAR?$AAe?$AAs?$AAt@ 0047b5b4     app.obj
 0002:000015ec       ??_C@_1BG@LJBCAFPA@?$AA?9?$AAt?$AAr?$AAa?$AAy?$AA?9?$AAo?$AAn?$AAl?$AAy@ 0047b5ec     app.obj
 0002:00001608       ??_C@_1EM@CDCLKDOP@?$AA?$FL?$AAW?$AAH?$AA?$FN?$AA?5?$AA?$FL?$AA?$CF?$AAS?$AA?$FN?$AA?3?$AA?5?$AAR?$AAe?$AAs?$AAt@ 0047b608     app.obj
 0002:00001658       ??_C@_1EI@NEDOINAG@?$AA?$FL?$AAW?$AAH?$AA?$FN?$AA?5?$AA?$FL?$AA?$CF?$AAS?$AA?$FN?$AA?3?$AA?5?$AAR?$AAu?$AAn?$AAn@ 0047b658     app.obj
 0002:000016b4       ??_C@_1BG@BDAOMNME@?$AA?9?$AAs?$AAa?$AAf?$AAe?$AA?9?$AAm?$AAo?$AAd?$AAe@ 0047b6b4     app.obj
 0002:000016cc       ??_C@_0M@HMHHNJBP@app?2app?4cpp@ 0047b6cc     app.obj
 0002:000016d8       ??_C@_0CB@FLNOFPFO@?$GAanonymous?9namespace?8?3?3RunDaemo@ 0047b6d8     app.obj
 0002:00001700       ??_C@_1GG@HBCOGFGK@?$AA?$FL?$AAW?$AAH?$AA?$FN?$AA?5?$AA?$FL?$AA?$CF?$AAS?$AA?$FN?$AA?3?$AA?5?$AAS?$AAe?$AAt?$AAD@ 0047b700     app.obj
 0002:00001768       ??_C@_1GI@HNPCDBCF@?$AAG?$AAl?$AAo?$AAb?$AAa?$AAl?$AA?2?$AAW?$AAi?$AAn?$AAd?$AAh?$AAa?$AAw?$AAk@ 0047b768     app.obj
 0002:000017d0       ??_C@_1EO@MFHDMJMB@?$AAW?$AAi?$AAn?$AAd?$AAh?$AAa?$AAw?$AAk?$AAA?$AAp?$AAp?$AAS?$AAe?$AAt?$AAt@ 0047b7d0     app.obj
 0002:00001820       ??_C@_1GO@OLBNLJOG@?$AAG?$AAl?$AAo?$AAb?$AAa?$AAl?$AA?2?$AAW?$AAi?$AAn?$AAd?$AAh?$AAa?$AAw?$AAk@ 0047b820     app.obj
 0002:00001890       ??_C@_1BC@PFDDLKEP@?$AAS?$AAe?$AAt?$AAt?$AAi?$AAn?$AAg?$AAs@ 0047b890     app.obj
 0002:000018a4       ??_C@_1BC@EIJJHGED@?$AAS?$AAa?$AAf?$AAe?$AAM?$AAo?$AAd?$AAe@ 0047b8a4     app.obj
 0002:000018b8       ??_C@_1BK@JJOCIDHP@?$AAw?$AAi?$AAn?$AAd?$AAh?$AAa?$AAw?$AAk?$AA?4?$AAe?$AAx?$AAe@ 0047b8b8     app.obj
 0002:000018d4       ??_C@_1BM@IHCPGAAE@?$AAu?$AAn?$AAi?$AAn?$AAs?$AAt?$AAa?$AAl?$AAl?$AA?4?$AAe?$AAx?$AAe@ 0047b8d4     app.obj
 0002:000018f0       ??_C@_0DK@LHHIFILO@?$GAanonymous?9namespace?8?3?3WaitForR@ 0047b8f0     app.obj
 0002:00001930       ??_C@_1EA@DGBGJDFI@?$AA?$FL?$AAW?$AAH?$AA?$FN?$AA?5?$AA?$FL?$AA?$CF?$AAS?$AA?$FN?$AA?3?$AA?5?$AAW?$AAa?$AAi?$AAt@ 0047b930     app.obj
 0002:00001970       ??_C@_1JG@PGAEFOON@?$AA?$FL?$AAW?$AAH?$AA?$FN?$AA?5?$AA?$FL?$AA?$CF?$AAS?$AA?$FN?$AA?3?$AA?5?$AAQ?$AAu?$AAe?$AAr@ 0047b970     app.obj
 0002:00001a08       ??_C@_1HC@OEBKPNPF@?$AA?$FL?$AAW?$AAH?$AA?$FN?$AA?5?$AA?$FL?$AA?$CF?$AAS?$AA?$FN?$AA?3?$AA?5?$AAO?$AAp?$AAe?$AAn@ 0047ba08     app.obj
 0002:00001a80       ??_C@_1EK@MAEIPMPF@?$AA?$FL?$AAW?$AAH?$AA?$FN?$AA?5?$AA?$FL?$AA?$CF?$AAS?$AA?$FN?$AA?3?$AA?5?$AAW?$AAa?$AAi?$AAt@ 0047ba80     app.obj
 0002:00001acc       ??_C@_13NEIAEHFG@?$AA?$CC@ 0047bacc     app.obj
 0002:00001ad0       ??_C@_1M@CDHIAJCD@?$AAr?$AAu?$AAn?$AAa?$AAs@ 0047bad0     app.obj
 0002:00001ae0       ??_7?$__func@V<lambda_1>@?1???$QueryFullProcessImageNameW@V?$basic_string@_WU?$char_traits@_W@std@@V?$allocator@_W@2@@std@@$0BAA@@wil@@YAJPAXKAAV?$basic_string@_WU?$char_traits@_W@std@@V?$allocator@_W@2@@std@@@Z@$$A6AJPA_WIPAI@Z@__function@wistd@@6B@ 0047bae0     app.obj
 0002:00001af8       ??_7?$__func@V<lambda_1>@?1???$K32GetModuleFileNameExW@V?$basic_string@_WU?$char_traits@_W@std@@V?$allocator@_W@2@@std@@$0IA@@wil@@YAJPAXPAUHINSTANCE__@@AAV?$basic_string@_WU?$char_traits@_W@std@@V?$allocator@_W@2@@std@@@Z@$$A6AJPA_WIPAI@Z@__function@wistd@@6B@ 0047baf8     app.obj
 0002:00001b10       ??_7runtime_error@std@@6B@ 0047bb10     engine_control.obj
 0002:00001b18       ??_C@_17LGGGMOOB@?$AA?$CF?$AAh?$AAs@ 0047bb18     engine_control.obj
 0002:00001b20       ??_C@_1BK@LAAHIMOG@?$AAw?$AAi?$AAn?$AAd?$AAh?$AAa?$AAw?$AAk?$AA?4?$AAd?$AAl?$AAl@ 0047bb20     engine_control.obj
 0002:00001b40       ??_C@_0GP@FABDJMMA@Failed?5to?5load?5engine?5library?3?5@ 0047bb40     engine_control.obj
 0002:00001bb0       ??_C@_0BH@HPBEGPLI@app?2engine_control?4cpp@ 0047bbb0     engine_control.obj
 0002:00001bc8       ??_C@_0BH@EIGCDCIG@GlobalHookSessionStart@ 0047bbc8     engine_control.obj
 0002:00001be0       ??_C@_0CE@NPJNBBHL@GlobalHookSessionHandleNewProce@ 0047bbe0     engine_control.obj
 0002:00001c04       ??_C@_0BF@MDGEJKCB@GlobalHookSessionEnd@ 0047bc04     engine_control.obj
 0002:00001c1c       ??_C@_0CL@PDFKHMNP@Failed?5to?5start?5the?5global?5hook@ 0047bc1c     engine_control.obj
 0002:00001c48       ??_C@_0CD@JGPFFIMJ@app?2event_viewer_crash_monitor?4@ 0047bc48     event_viewer_crash_monitor.obj
 0002:00001c6c       ??_C@_1BI@JBDNBBGL@?$AAA?$AAp?$AAp?$AAl?$AAi?$AAc?$AAa?$AAt?$AAi?$AAo?$AAn@ 0047bc6c     event_viewer_crash_monitor.obj
 0002:00001c88       ??_C@_1GK@MHCIIJJ@?$AAE?$AAv?$AAe?$AAn?$AAt?$AA?1?$AAS?$AAy?$AAs?$AAt?$AAe?$AAm?$AA?$FL?$AAL?$AAe@ 0047bc88     event_viewer_crash_monitor.obj
 0002:00001cf4       ??_C@_0CO@FAHHGJJL@EventViewerCrashMonitor?3?3GetAmo@ 0047bcf4     event_viewer_crash_monitor.obj
 0002:00001d24       ??_C@_0CB@IJHIHLLO@Unexpected?5result?5from?5EvtRende@ 0047bd24     event_viewer_crash_monitor.obj
 0002:00001d48       ??_C@_0CI@PDLCCDIE@EventViewerCrashMonitor?3?3DoesEv@ 0047bd48     event_viewer_crash_monitor.obj
 0002:00001d70       ??_C@_1FI@LLBKBDGN@?$AA?$FL?$AAW?$AAH?$AA?$FN?$AA?5?$AA?$FL?$AA?$CF?$AAS?$AA?$FN?$AA?3?$AA?5?$AAN?$AAo?$AAt?$AA?5@ 0047bd70     event_viewer_crash_monitor.obj
 0002:00001dc8       ??_C@_1GA@HCOOCIGC@?$AA?$FL?$AAW?$AAH?$AA?$FN?$AA?5?$AA?$FL?$AA?$CF?$AAS?$AA?$FN?$AA?3?$AA?5?$AAU?$AAn?$AAe?$AAx@ 0047bdc8     event_viewer_crash_monitor.obj
 0002:00001e28       ??_C@_0CA@DKOHHGJO@shared?2libraries?2wil?2safecast?4h@ 0047be28     event_viewer_crash_monitor.obj
 0002:00001e48       ??_C@_1BK@MGMFAEKH@?$AAk?$AAe?$AAr?$AAn?$AAe?$AAl?$AA3?$AA2?$AA?4?$AAd?$AAl?$AAl@ 0047be48     functions.obj
 0002:00001e64       ??_C@_1BE@GJOFHIHD@?$AAn?$AAt?$AAd?$AAl?$AAl?$AA?4?$AAd?$AAl?$AAl@ 0047be64     functions.obj
 0002:00001e78       ??_C@_0BN@OFDOGPDL@invalid?5string_view?5position@ 0047be78     functions.obj
 0002:00001e98       ??_C@_0BD@EJALDNPB@NtPowerInformation@ 0047be98     functions.obj
 0002:00001eac       ??_C@_1CC@DMDJMJLM@?$AAS?$AAe?$AAD?$AAe?$AAb?$AAu?$AAg?$AAP?$AAr?$AAi?$AAv?$AAi?$AAl?$AAe?$AAg@ 0047beac     functions.obj
 0002:00001ed0       ??_C@_1EE@OFOCIELB@?$AAD?$AA?3?$AA?$CI?$AAA?$AA?$DL?$AA?$DL?$AA0?$AAx?$AA0?$AA0?$AA0?$AA2?$AA?$DL?$AA?$DL?$AA?$DL@ 0047bed0     functions.obj
 0002:00001f14       ??_C@_1DE@DPPEFADK@?$AA?$CI?$AAC?$AAo?$AAu?$AAl?$AAd?$AA?5?$AAn?$AAo?$AAt?$AA?5?$AAl?$AAo?$AAa?$AAd@ 0047bf14     functions.obj
 0002:00001f48       ??_C@_1BG@OILDLIOJ@?$AAu?$AAs?$AAe?$AAr?$AA3?$AA2?$AA?4?$AAd?$AAl?$AAl@ 0047bf48     functions.obj
 0002:00001f60       ??_C@_0BA@LGGPEDOH@GetDpiForWindow@ 0047bf60     functions.obj
 0002:00001f70       ??_C@_0BH@HPKNFNCE@GetSystemMetricsForDpi@ 0047bf70     functions.obj
 0002:00001f88       ??_C@_0BK@EGDDIFMK@NtQueryInformationProcess@ 0047bf88     functions.obj
 0002:00001fa4       ??_C@_0BH@OLGOMKMH@RtlGetNtVersionNumbers@ 0047bfa4     functions.obj
 0002:00001fbc       ??_C@_19PLOBJMHF@?$AAE?$AAd?$AAi?$AAt@ 0047bfbc     functions.obj
 0002:00001fc8       ??_C@_1CC@EPFAMDMB@?$AAL?$AAo?$AAg?$AAg?$AAi?$AAn?$AAg?$AAV?$AAe?$AAr?$AAb?$AAo?$AAs?$AAi?$AAt@ 0047bfc8     logger.obj
 0002:00002124       ??_7CMainWindow@@6B?$CWindowImpl@VCMainWindow@@VCWindow@ATL@@V?$CWinTraits@$0A@$0A@@3@@ATL@@@ 0047c124     main_window.obj
 0002:00002138       ??_7CMainWindow@@6BCMessageFilter@WTL@@@ 0047c138     main_window.obj
 0002:00002140       ??_7CMainWindow@@6BCIdleHandler@WTL@@@ 0047c140     main_window.obj
 0002:00002144       ??_C@_1BM@GLLFNEEF@?$AAS?$AAh?$AAe?$AAl?$AAl?$AA_?$AAT?$AAr?$AAa?$AAy?$AAW?$AAn?$AAd@ 0047c144     main_window.obj
 0002:00002160       ??_C@_1BO@NBGJACOC@?$AAT?$AAa?$AAs?$AAk?$AAb?$AAa?$AAr?$AAC?$AAr?$AAe?$AAa?$AAt?$AAe?$AAd@ 0047c160     main_window.obj
 0002:00002180       ??_C@_0BE@LLPFFMLJ@CMainWindow?3?3OnIdle@ 0047c180     main_window.obj
 0002:00002198       ??_C@_1GA@FGKJMJLJ@?$AA?$FL?$AAW?$AAH?$AA?$FN?$AA?5?$AA?$FL?$AA?$CF?$AAS?$AA?$FN?$AA?3?$AA?5?$AAT?$AAa?$AAs?$AAk@ 0047c198     main_window.obj
 0002:000021f8       ??_C@_1GG@EAFNOKAA@?$AA?$FL?$AAW?$AAH?$AA?$FN?$AA?5?$AA?$FL?$AA?$CF?$AAS?$AA?$FN?$AA?3?$AA?5?$AAS?$AAt?$AAa?$AAt@ 0047c1f8     main_window.obj
 0002:00002260       ??_C@_1FM@PFGJDFPA@?$AA?$FL?$AAW?$AAH?$AA?$FN?$AA?5?$AA?$FL?$AA?$CF?$AAS?$AA?$FN?$AA?3?$AA?5?$AAE?$AAx?$AAp?$AAl@ 0047c260     main_window.obj
 0002:000022c0       ??_C@_1FO@HHBHIIPC@?$AA?$FL?$AAW?$AAH?$AA?$FN?$AA?5?$AA?$FL?$AA?$CF?$AAS?$AA?$FN?$AA?3?$AA?5?$AAE?$AAx?$AAp?$AAl@ 0047c2c0     main_window.obj
 0002:00002320       ??_C@_0BO@EDNAMAKI@Could?5not?5initialize?5Windhawk@ 0047c320     main_window.obj
 0002:00002340       ??_C@_1BC@KKLCINDK@?$AAm?$AAo?$AAd?$AA?9?$AAt?$AAa?$AAs?$AAk@ 0047c340     main_window.obj
 0002:00002354       ??_C@_0BG@OPCFKHFL@CMainWindow?3?3OnCreate@ 0047c354     main_window.obj
 0002:00002370       ??_C@_1GA@NAPCPPN@?$AA?$FL?$AAW?$AAH?$AA?$FN?$AA?5?$AA?$FL?$AA?$CF?$AAS?$AA?$FN?$AA?3?$AA?5?$AAT?$AAa?$AAs?$AAk@ 0047c370     main_window.obj
 0002:000023d0       ??_C@_1EM@BELCHACH@?$AA?$FL?$AAW?$AAH?$AA?$FN?$AA?5?$AA?$FL?$AA?$CF?$AAS?$AA?$FN?$AA?3?$AA?5?$AAR?$AAe?$AAg?$AAi@ 0047c3d0     main_window.obj
 0002:0000241c       ??_C@_0BF@FAGLFHJB@CMainWindow?3?3OnTimer@ 0047c41c     main_window.obj
 0002:00002438       ??_C@_1EK@JLNFBILD@?$AA?$FL?$AAW?$AAH?$AA?$FN?$AA?5?$AA?$FL?$AA?$CF?$AAS?$AA?$FN?$AA?3?$AA?5?$AAU?$AAp?$AAd?$AAa@ 0047c438     main_window.obj
 0002:00002484       ??_C@_1CA@CJFAGNJ@?$AAL?$AAa?$AAs?$AAt?$AAU?$AAp?$AAd?$AAa?$AAt?$AAe?$AAC?$AAh?$AAe?$AAc?$AAk@ 0047c484     main_window.obj
 0002:000024a4       ??_C@_13COJANIEC@?$AA0@    0047c4a4     main_window.obj
 0002:000024a8       ??_C@_0BO@EIENCBKH@CMainWindow?3?3OnPowerBroadcast@ 0047c4a8     main_window.obj
 0002:000024c8       ??_C@_1FO@GKIOHAHF@?$AA?$FL?$AAW?$AAH?$AA?$FN?$AA?5?$AA?$FL?$AA?$CF?$AAS?$AA?$FN?$AA?3?$AA?5?$AAG?$AAe?$AAt?$AAt@ 0047c4c8     main_window.obj
 0002:00002528       ??_C@_1BI@DGENFMEP@?$AA?7?$AAC?$AAt?$AAr?$AAl?$AA?$CL?$AAW?$AAi?$AAn?$AA?$CL?$AAW@ 0047c528     main_window.obj
 0002:00002540       ??_C@_0BE@PKMBHJEG@app?2main_window?4cpp@ 0047c540     main_window.obj
 0002:00002554       ??_C@_0CH@EAGACODJ@CMainWindow?3?3InitForNonPortable@ 0047c554     main_window.obj
 0002:00002580       ??_C@_1GO@FEJINGBJ@?$AA?$FL?$AAW?$AAH?$AA?$FN?$AA?5?$AA?$FL?$AA?$CF?$AAS?$AA?$FN?$AA?3?$AA?5?$AAV?$AAe?$AAr?$AAs@ 0047c580     main_window.obj
 0002:000025f0       ??_C@_1BC@KHBNKMMK@?$AAL?$AAa?$AAn?$AAg?$AAu?$AAa?$AAg?$AAe@ 0047c5f0     main_window.obj
 0002:00002604       ??_C@_15MNPNEAIF@?$AAe?$AAn@ 0047c604     main_window.obj
 0002:0000260c       ??_C@_1BK@CBNNFKLB@?$AAH?$AAi?$AAd?$AAe?$AAT?$AAr?$AAa?$AAy?$AAI?$AAc?$AAo?$AAn@ 0047c60c     main_window.obj
 0002:00002628       ??_C@_1CG@HLCPILOC@?$AAD?$AAi?$AAs?$AAa?$AAb?$AAl?$AAe?$AAU?$AAp?$AAd?$AAa?$AAt?$AAe?$AAC?$AAh@ 0047c628     main_window.obj
 0002:00002650       ??_C@_1CI@CABPFAEL@?$AAD?$AAo?$AAn?$AAt?$AAA?$AAu?$AAt?$AAo?$AAS?$AAh?$AAo?$AAw?$AAT?$AAo?$AAo@ 0047c650     main_window.obj
 0002:00002678       ??_C@_1CK@DKGHDNON@?$AAD?$AAi?$AAs?$AAa?$AAb?$AAl?$AAe?$AAT?$AAo?$AAo?$AAl?$AAk?$AAi?$AAt?$AAH@ 0047c678     main_window.obj
 0002:000026a4       ??_C@_1CI@MBJFOMAF@?$AAM?$AAo?$AAd?$AAT?$AAa?$AAs?$AAk?$AAs?$AAD?$AAi?$AAa?$AAl?$AAo?$AAg?$AAD@ 0047c6a4     main_window.obj
 0002:000026cc       ??_C@_0BI@GEMMIMIP@Could?5not?5load?5settings@ 0047c6cc     main_window.obj
 0002:000026e4       ??_C@_1BM@ENECIFHC@?$AA?2?$AAe?$AAx?$AAp?$AAl?$AAo?$AAr?$AAe?$AAr?$AA?4?$AAe?$AAx?$AAe@ 0047c6e4     main_window.obj
 0002:00002700       ??_C@_0BK@NNOIAPFA@CMainWindow?3?3LoadSettings@ 0047c700     main_window.obj
 0002:00002720       ??_C@_1EC@PJIKGFPK@?$AA?9?$AAs?$AAe?$AAr?$AAv?$AAi?$AAc?$AAe?$AA?9?$AAs?$AAt?$AAo?$AAp?$AA?5?$AA?9@ 0047c720     main_window.obj
 0002:00002768       ??_C@_0JG@DOIHEHOE@Exiting?5failed?5with?5the?5error?5b@ 0047c768     main_window.obj
 0002:00002800       ??_C@_0P@CBOLDCK@Exiting?5failed@ 0047c800     main_window.obj
 0002:00002810       ??_C@_05NAOIJFC@Error@     0047c810     main_window.obj
 0002:00002818       ??_C@_0CA@EFHAENNF@Could?5not?5launch?5the?5UI?5process@ 0047c818     main_window.obj
 0002:00002838       ??_C@_0BF@JNLAJPN@CMainWindow?3?3CloseUI@ 0047c838     main_window.obj
 0002:00002850       ??_C@_1DO@OBKPMLAI@?$AA?$FL?$AAW?$AAH?$AA?$FN?$AA?5?$AA?$FL?$AA?$CF?$AAS?$AA?$FN?$AA?3?$AA?5?$AAC?$AAl?$AAo?$AAs@ 0047c850     main_window.obj
 0002:00002890       ??_C@_0BP@BNMBOFCJ@CMainWindow?3?3SetLastUpdateTime@ 0047c890     main_window.obj
 0002:000028b0       ??_C@_0CB@KGLIAGPC@CMainWindow?3?3ResetLastUpdateTim@ 0047c8b0     main_window.obj
 0002:000028d8       ??_C@_1FI@IHAGCAKG@?$AAh?$AAt?$AAt?$AAp?$AAs?$AA?3?$AA?1?$AA?1?$AAw?$AAi?$AAn?$AAd?$AAh?$AAa?$AAw@ 0047c8d8     main_window.obj
 0002:00002930       ??_C@_1M@ILHOPKA@?$AAE?$AAr?$AAr?$AAo?$AAr@ 0047c930     main_window.obj
 0002:00002940       ??_C@_1IA@MIKEAAPJ@?$AAC?$AAo?$AAu?$AAl?$AAd?$AA?5?$AAn?$AAo?$AAt?$AA?5?$AAo?$AAp?$AAe?$AAn?$AA?5@ 0047c940     main_window.obj
 0002:000029c0       ??_C@_1BG@MDFIMHKE@?$AAm?$AAo?$AAd?$AA?9?$AAs?$AAt?$AAa?$AAt?$AAu?$AAs@ 0047c9c0     main_window.obj
 0002:000029d8       ??_C@_0CC@IDJAMJAO@CMainWindow?3?3ShowLoadedModsDial@ 0047c9d8     main_window.obj
 0002:00002a00       ??_C@_1GG@BLPLAMEE@?$AA?$FL?$AAW?$AAH?$AA?$FN?$AA?5?$AA?$FL?$AA?$CF?$AAS?$AA?$FN?$AA?3?$AA?5?$AAS?$AAt?$AAa?$AAt@ 0047ca00     main_window.obj
 0002:00002a68       ??_C@_1BA@LFDBPOH@?$AA?$CC?$AA?5?$AA?9?$AAw?$AAa?$AAi?$AAt@ 0047ca68     main_window.obj
 0002:00002a78       ??_C@_0BO@GPJEIOI@CMainWindow?3?3SwitchToSafeMode@ 0047ca78     main_window.obj
 0002:00002a98       ??_C@_0CB@LNDNOIBE@CMainWindow?3?3HandleExplorerCras@ 0047ca98     main_window.obj
 0002:00002ac0       ??_C@_1FC@ICNIGCAD@?$AA?$FL?$AAW?$AAH?$AA?$FN?$AA?5?$AA?$FL?$AA?$CF?$AAS?$AA?$FN?$AA?3?$AA?5?$AAD?$AAe?$AAt?$AAe@ 0047cac0     main_window.obj
 0002:00002b18       ??_C@_1IG@CCDGNLKG@?$AA?$FL?$AAW?$AAH?$AA?$FN?$AA?5?$AA?$FL?$AA?$CF?$AAS?$AA?$FN?$AA?3?$AA?5?$AAT?$AAa?$AAs?$AAk@ 0047cb18     main_window.obj
 0002:00002cbc       ??_7?$__func@V<lambda_1>@?1???$GetWindowsDirectoryW@V?$basic_string@_WU?$char_traits@_W@std@@V?$allocator@_W@2@@std@@$0BAA@@wil@@YAJAAV?$basic_string@_WU?$char_traits@_W@std@@V?$allocator@_W@2@@std@@@Z@$$A6AJPA_WIPAI@Z@__function@wistd@@6B@ 0047ccbc     main_window.obj
 0002:00002e58       ??_C@_1EE@DOCGNLJK@?$AAD?$AA?3?$AA?$CI?$AAA?$AA?$DL?$AA?$DL?$AA0?$AAx?$AA0?$AA0?$AA0?$AA4?$AA?$DL?$AA?$DL?$AA?$DL@ 0047ce58     service.obj
 0002:00002e9c       ??_C@_0BA@PJFDGCHE@app?2service?4cpp@ 0047ce9c     service.obj
 0002:00002eb0       ??_C@_1EM@KPBAOFKJ@?$AAD?$AA?3?$AA?$CI?$AAA?$AA?$DL?$AA?$DL?$AA0?$AAx?$AA0?$AA0?$AA1?$AA0?$AA0?$AA0?$AA0@ 0047ceb0     service.obj
 0002:00002efc       ??_C@_0BJ@JOAPGADM@ServiceInstance?3?3SvcMain@ 0047cefc     service.obj
 0002:00002f18       ??_C@_1DI@LHCAMOBB@?$AA?$FL?$AAW?$AAH?$AA?$FN?$AA?5?$AA?$FL?$AA?$CF?$AAS?$AA?$FN?$AA?3?$AA?5?$AAR?$AAu?$AAn?$AAn@ 0047cf18     service.obj
 0002:00002f50       ??_C@_1DO@BCFBKLHE@?$AA?$FL?$AAW?$AAH?$AA?$FN?$AA?5?$AA?$FL?$AA?$CF?$AAS?$AA?$FN?$AA?3?$AA?5?$AAS?$AAv?$AAc?$AAI@ 0047cf50     service.obj
 0002:00002f90       ??_C@_1DG@NCMIIJHK@?$AA?$FL?$AAW?$AAH?$AA?$FN?$AA?5?$AA?$FL?$AA?$CF?$AAS?$AA?$FN?$AA?3?$AA?5?$AAR?$AAu?$AAn?$AAn@ 0047cf90     service.obj
 0002:00002fc8       ??_C@_1DM@KMNOEKPB@?$AA?$FL?$AAW?$AAH?$AA?$FN?$AA?5?$AA?$FL?$AA?$CF?$AAS?$AA?$FN?$AA?3?$AA?5?$AAS?$AAv?$AAc?$AAR@ 0047cfc8     service.obj
 0002:00003008       ??_C@_1EM@GBKOAALO@?$AA?$FL?$AAW?$AAH?$AA?$FN?$AA?5?$AA?$FL?$AA?$CF?$AAS?$AA?$FN?$AA?3?$AA?5?$AAR?$AAe?$AAp?$AAo@ 0047d008     service.obj
 0002:00003054       ??_C@_0BJ@IDMBCMHB@ServiceInstance?3?3SvcInit@ 0047d054     service.obj
 0002:00003070       ??_C@_1BK@NKJOAPIG@?$AA?$CC?$AA?5?$AA?9?$AAt?$AAr?$AAa?$AAy?$AA?9?$AAo?$AAn?$AAl?$AAy@ 0047d070     service.obj
 0002:0000308c       ??_C@_0BI@JNOLAJPK@ServiceInstance?3?3SvcRun@ 0047d08c     service.obj
 0002:000030a8       ??_C@_1GE@FHPJPPLE@?$AA?$FL?$AAW?$AAH?$AA?$FN?$AA?5?$AA?$FL?$AA?$CF?$AAS?$AA?$FN?$AA?3?$AA?5?$AAC?$AAr?$AAe?$AAa@ 0047d0a8     service.obj
 0002:00003110       ??_C@_1EA@FPKNEOLI@?$AA?$FL?$AAW?$AAH?$AA?$FN?$AA?5?$AA?$FL?$AA?$CF?$AAS?$AA?$FN?$AA?3?$AA?5?$AAR?$AAe?$AAc?$AAe@ 0047d110     service.obj
 0002:00003150       ??_C@_1FM@LEDKMGBE@?$AA?$FL?$AAW?$AAH?$AA?$FN?$AA?5?$AA?$FL?$AA?$CF?$AAS?$AA?$FN?$AA?3?$AA?5?$AAR?$AAe?$AAc?$AAe@ 0047d150     service.obj
 0002:000031b0       ??_C@_1FE@KNFBFPEM@?$AA?$FL?$AAW?$AAH?$AA?$FN?$AA?5?$AA?$FL?$AA?$CF?$AAS?$AA?$FN?$AA?3?$AA?5?$AAR?$AAe?$AAc?$AAe@ 0047d1b0     service.obj
 0002:00003208       ??_C@_1FE@DDOCJJFC@?$AA?$FL?$AAW?$AAH?$AA?$FN?$AA?5?$AA?$FL?$AA?$CF?$AAS?$AA?$FN?$AA?3?$AA?5?$AAR?$AAe?$AAc?$AAe@ 0047d208     service.obj
 0002:00003260       ??_C@_1EM@DACMBBBG@?$AA?$FL?$AAW?$AAH?$AA?$FN?$AA?5?$AA?$FL?$AA?$CF?$AAS?$AA?$FN?$AA?3?$AA?5?$AAR?$AAe?$AAc?$AAe@ 0047d260     service.obj
 0002:000032ac       ??_C@_0CC@IMBHMPMP@ServiceInstance?3?3SvcCtrlHandler@ 0047d2ac     service.obj
 0002:000032d0       ??_C@_1FE@EJLDIAIP@?$AA?$FL?$AAW?$AAH?$AA?$FN?$AA?5?$AA?$FL?$AA?$CF?$AAS?$AA?$FN?$AA?3?$AA?5?$AAH?$AAa?$AAn?$AAd@ 0047d2d0     service.obj
 0002:00003328       ??_C@_1EO@KEIJONPD@?$AA?$FL?$AAW?$AAH?$AA?$FN?$AA?5?$AA?$FL?$AA?$CF?$AAS?$AA?$FN?$AA?3?$AA?5?$AAH?$AAa?$AAn?$AAd@ 0047d328     service.obj
 0002:00003378       ??_C@_1GC@BNIHGILH@?$AA?$FL?$AAW?$AAH?$AA?$FN?$AA?5?$AA?$FL?$AA?$CF?$AAS?$AA?$FN?$AA?3?$AA?5?$AAW?$AAT?$AAS?$AA_@ 0047d378     service.obj
 0002:000033dc       ??_C@_07NPCNPGEO@SvcMain@  0047d3dc     service.obj
 0002:000033e4       ??_C@_1DO@MOECAKGP@?$AA?$FL?$AAW?$AAH?$AA?$FN?$AA?5?$AA?$FL?$AA?$CF?$AAS?$AA?$FN?$AA?3?$AA?5?$AAS?$AAv?$AAc?$AAM@ 0047d3e4     service.obj
 0002:00003424       ??_C@_0BO@ELAFCPOP@RtlDisownModuleHeapAllocation@ 0047d424     stdafx.obj
 0002:00003444       ??_C@_1BO@MFOKJHPK@?$AAk?$AAe?$AAr?$AAn?$AAe?$AAl?$AAb?$AAa?$AAs?$AAe?$AA?4?$AAd?$AAl?$AAl@ 0047d444     stdafx.obj
 0002:00003464       ??_C@_0BH@EEDPADAA@RaiseFailFastException@ 0047d464     stdafx.obj
 0002:0000347c       ??_C@_1CM@DFICJNGJ@?$AAL?$AAo?$AAc?$AAa?$AAl?$AA?2?$AAS?$AAM?$AA0?$AA?3?$AA?$CF?$AAl?$AAu?$AA?3?$AA?$CF@ 0047d47c     stdafx.obj
 0002:000034ac       ??_7ResultException@wil@@6B@ 0047d4ac     stdafx.obj
 0002:000034b4       ??_C@_0O@KIMGFJMA@WIL?5Exception@ 0047d4b4     stdafx.obj
 0002:000034c4       ??_C@_1CI@KEGLKJIE@?$AAs?$AAt?$AAd?$AA?3?$AA?3?$AAe?$AAx?$AAc?$AAe?$AAp?$AAt?$AAi?$AAo?$AAn?$AA?3@ 0047d4c4     stdafx.obj
 0002:000034ec       ??_C@_17ONNCDEJM@?$AA_?$AAp?$AA0@ 0047d4ec     stdafx.obj
 0002:000034f4       ??_C@_13CACJPPAP@?$AAh@    0047d4f4     stdafx.obj
 0002:000034f8       ?value@?$static_const@Uto_json_fn@detail@nlohmann@@@detail@nlohmann@@2Uto_json_fn@23@B 0047d4f8     stdafx.obj
 0002:000034fc       ??_C@_0M@BENCEGID@WilError_03@ 0047d4fc     stdafx.obj
 0002:0000350c       ??_7bad_variant_access@std@@6B@ 0047d50c     storage_manager.obj
 0002:00003514       ??_C@_0BD@FGIAGBIG@bad?5variant?5access@ 0047d514     storage_manager.obj
 0002:0000352c       ??_7_System_error@std@@6B@ 0047d52c     storage_manager.obj
 0002:00003534       ??_C@_02LMMGGCAJ@?3?5@     0047d534     storage_manager.obj
 0002:0000353c       ??_7system_error@std@@6B@  0047d53c     storage_manager.obj
 0002:00003548       ??_7_Generic_error_category@std@@6B@ 0047d548     storage_manager.obj
 0002:00003560       ??_C@_07DCLBNMLN@generic@  0047d560     storage_manager.obj
 0002:0000356c       ??_7_System_error_category@std@@6B@ 0047d56c     storage_manager.obj
 0002:00003584       ??_C@_06FHFOAHML@system@   0047d584     storage_manager.obj
 0002:0000358c       ?_Unknown_error@?6??message@_System_error_category@std@@UBE?AV?$basic_string@DU?$char_traits@D@std@@V?$allocator@D@2@@3@H@Z@4QBDB 0047d58c     storage_manager.obj
 0002:0000359c       ??_C@_13JOFGPIOO@?$AA?4@   0047d59c     storage_manager.obj
 0002:000035a0       ??_C@_15DDHGOCBH@?$AA?4?$AA?4@ 0047d5a0     storage_manager.obj
 0002:000035ac       ??_7filesystem_error@filesystem@std@@6B@ 0047d5ac     storage_manager.obj
 0002:000035b4       ??_C@_03NONCDIOG@?3?5?$CC@ 0047d5b4     storage_manager.obj
 0002:000035b8       ??_C@_04PHMHGEMA@?$CC?0?5?$CC@ 0047d5b8     storage_manager.obj
 0002:000035c0       ??_C@_06DJIHEMFI@status@   0047d5c0     storage_manager.obj
 0002:000035c8       ??_C@_0BF@GMINJHOM@Missing?5path?5value?3?5@ 0047d5c8     storage_manager.obj
 0002:000035e0       ??_C@_1BO@HNKIOGCF@?$AA?$CF?$AAP?$AAr?$AAo?$AAg?$AAr?$AAa?$AAm?$AAW?$AA6?$AA4?$AA3?$AA2?$AA?$CF@ 0047d5e0     storage_manager.obj
 0002:00003600       ??_C@_1BO@DFHEBLHG@?$AA?$CF?$AAP?$AAr?$AAo?$AAg?$AAr?$AAa?$AAm?$AAF?$AAi?$AAl?$AAe?$AAs?$AA?$CF@ 0047d600     storage_manager.obj
 0002:00003620       ??_C@_1BK@LOEJHKPH@?$AAM?$AAo?$AAd?$AAs?$AAW?$AAr?$AAi?$AAt?$AAa?$AAb?$AAl?$AAe@ 0047d620     storage_manager.obj
 0002:0000363c       ??_C@_15JGPBBLHF@?$AA3?$AA2@ 0047d63c     storage_manager.obj
 0002:00003644       ??_C@_15ODFHNFBK@?$AA6?$AA4@ 0047d644     storage_manager.obj
 0002:0000364c       ??_C@_1M@CDOFHCHO@?$AAa?$AAr?$AAm?$AA6?$AA4@ 0047d64c     storage_manager.obj
 0002:00003658       ??_C@_0BF@PAAHKDFF@Unknown?5architecture@ 0047d658     storage_manager.obj
 0002:00003670       ??_C@_1O@LIBPHGOH@?$AAU?$AAI?$AAD?$AAa?$AAt?$AAa@ 0047d670     storage_manager.obj
 0002:00003680       ??_C@_1CA@PMIJDFKD@?$AAE?$AAd?$AAi?$AAt?$AAo?$AAr?$AAW?$AAo?$AAr?$AAk?$AAs?$AAp?$AAa?$AAc?$AAe@ 0047d680     storage_manager.obj
 0002:000036a0       ??_C@_1CC@IGHEDKD@?$AAu?$AAs?$AAe?$AAr?$AAp?$AAr?$AAo?$AAf?$AAi?$AAl?$AAe?$AA?4?$AAj?$AAs?$AAo@ 0047d6a0     storage_manager.obj
 0002:000036c4       ??_C@_03GOODKOKO@ini@      0047d6c4     storage_manager.obj
 0002:000036c8       ??_C@_1BA@KMCEMKEI@?$AAS?$AAt?$AAo?$AAr?$AAa?$AAg?$AAe@ 0047d6c8     storage_manager.obj
 0002:000036d8       ??_C@_1BG@DOPBBHOI@?$AAE?$AAn?$AAg?$AAi?$AAn?$AAe?$AAP?$AAa?$AAt?$AAh@ 0047d6d8     storage_manager.obj
 0002:000036f0       ??_C@_1O@OLFCBIPP@?$AAU?$AAI?$AAP?$AAa?$AAt?$AAh@ 0047d6f0     storage_manager.obj
 0002:00003700       ??_C@_1BK@KIIIDJGH@?$AAC?$AAo?$AAm?$AAp?$AAi?$AAl?$AAe?$AAr?$AAP?$AAa?$AAt?$AAh@ 0047d700     storage_manager.obj
 0002:0000371c       ??_C@_1BI@HCGPBLCP@?$AAA?$AAp?$AAp?$AAD?$AAa?$AAt?$AAa?$AAP?$AAa?$AAt?$AAh@ 0047d71c     storage_manager.obj
 0002:00003734       ??_C@_1BC@EIAJDLIM@?$AAP?$AAo?$AAr?$AAt?$AAa?$AAb?$AAl?$AAe@ 0047d734     storage_manager.obj
 0002:00003748       ??_C@_1BK@BDLHIEGA@?$AAs?$AAe?$AAt?$AAt?$AAi?$AAn?$AAg?$AAs?$AA?4?$AAi?$AAn?$AAi@ 0047d748     storage_manager.obj
 0002:00003764       ??_C@_1BI@PJNLJJGH@?$AAR?$AAe?$AAg?$AAi?$AAs?$AAt?$AAr?$AAy?$AAK?$AAe?$AAy@ 0047d764     storage_manager.obj
 0002:0000377c       ??_C@_0BK@LMMIEMIN@Missing?5RegistryKey?5value@ 0047d77c     storage_manager.obj
 0002:00003798       ??_C@_0BK@NBAMLEHE@Invalid?5RegistryKey?5value@ 0047d798     storage_manager.obj
 0002:000037b4       ??_C@_0BO@LNGLPCAK@Unsupported?5RegistryKey?5value@ 0047d7b4     storage_manager.obj
 0002:000037d4       ??_C@_1O@OIKEGNDA@?$AAE?$AAn?$AAg?$AAi?$AAn?$AAe@ 0047d7d4     storage_manager.obj
 0002:000037e4       ??_C@_0BI@JCHAIIDN@app?2storage_manager?4cpp@ 0047d7e4     storage_manager.obj
 0002:00003800       ??_7?$__func@V<lambda_1>@?1???$ExpandEnvironmentStringsW@V?$basic_string@_WU?$char_traits@_W@std@@V?$allocator@_W@2@@std@@$0BAA@@wil@@YAJPB_WAAV?$basic_string@_WU?$char_traits@_W@std@@V?$allocator@_W@2@@std@@@Z@$$A6AJPA_WIPAI@Z@__function@wistd@@6B@ 0047d800     storage_manager.obj
 0002:00003814       ??_C@_0O@OGDGDABE@DllGetVersion@ 0047d814     task_manager_dlg.obj
 0002:00003824       ??_C@_1BK@JKBHGHPP@?$AAc?$AAo?$AAm?$AAc?$AAt?$AAl?$AA3?$AA2?$AA?4?$AAd?$AAl?$AAl@ 0047d824     task_manager_dlg.obj
 0002:00003840       ??_C@_1BI@BNFKGMFK@?$AAs?$AAh?$AAe?$AAl?$AAl?$AA3?$AA2?$AA?4?$AAd?$AAl?$AAl@ 0047d840     task_manager_dlg.obj
 0002:0000385c       ??_7CSortListViewCtrl@WTL@@6B@ 0047d85c     task_manager_dlg.obj
 0002:0000386c       ??_C@_0BH@DPNNDOEK@invalid?5stoul?5argument@ 0047d86c     task_manager_dlg.obj
 0002:00003884       ??_C@_0BM@MOLGGFGJ@stoul?5argument?5out?5of?5range@ 0047d884     task_manager_dlg.obj
 0002:000038a0       ??_C@_0BI@DIFNIIHI@invalid?5stoull?5argument@ 0047d8a0     task_manager_dlg.obj
 0002:000038b8       ??_C@_0BN@NGMOKJGA@stoull?5argument?5out?5of?5range@ 0047d8b8     task_manager_dlg.obj
 0002:000038d8       ??_C@_0BI@LBKDNGFK@directory_entry?3?3status@ 0047d8d8     task_manager_dlg.obj
 0002:000038f0       ??_C@_13BBDEGPLJ@?$AA?$CK@ 0047d8f0     task_manager_dlg.obj
 0002:000038f4       ??_C@_0CH@GANCNKKD@directory_iterator?3?3directory_i@ 0047d8f4     task_manager_dlg.obj
 0002:0000391c       ??_C@_0BP@DPMCMHCK@directory_iterator?3?3operator?$CL?$CL@ 0047d91c     task_manager_dlg.obj
 0002:0000393c       ??_C@_06OGCODMJI@exists@   0047d93c     task_manager_dlg.obj
 0002:00003948       ??_7?$_Ref_count_obj2@U_Dir_enum_impl@filesystem@std@@@std@@6B@ 0047d948     task_manager_dlg.obj
 0002:0000395c       ??_7CTaskManagerDlg@@6B@   0047d95c     task_manager_dlg.obj
 0002:0000396c       ?theMap@?1??GetDlgResizeMap@CTaskManagerDlg@@SAPBU_AtlDlgResizeMap@WTL@@XZ@4QBU34@B 0047d96c     task_manager_dlg.obj
 0002:00003984       ??_C@_0BJ@POIAOFFH@app?2task_manager_dlg?4cpp@ 0047d984     task_manager_dlg.obj
 0002:000039a0       ??_C@_1BG@GCBDAABL@?$AAP?$AAe?$AAn?$AAd?$AAi?$AAn?$AAg?$AA?4?$AA?4?$AA?4@ 0047d9a0     task_manager_dlg.obj
 0002:000039b8       ??_C@_1BG@IPGMPLAM@?$AAL?$AAo?$AAa?$AAd?$AAi?$AAn?$AAg?$AA?4?$AA?4?$AA?4@ 0047d9b8     task_manager_dlg.obj
 0002:000039d0       ??_C@_1O@JJDHCMCP@?$AAL?$AAo?$AAa?$AAd?$AAe?$AAd@ 0047d9d0     task_manager_dlg.obj
 0002:000039e0       ??_C@_1BC@ILOENEMO@?$AAU?$AAn?$AAl?$AAo?$AAa?$AAd?$AAe?$AAd@ 0047d9e0     task_manager_dlg.obj
 0002:000039f4       ??_C@_1CA@CPAJBOA@?$AAI?$AAn?$AAi?$AAt?$AAi?$AAa?$AAl?$AAi?$AAz?$AAi?$AAn?$AAg?$AA?4?$AA?4?$AA?4@ 0047d9f4     task_manager_dlg.obj
 0002:00003a14       ??_C@_1CE@MNKCPMGJ@?$AAU?$AAn?$AAi?$AAn?$AAi?$AAt?$AAi?$AAa?$AAl?$AAi?$AAz?$AAi?$AAn?$AAg?$AA?4@ 0047da14     task_manager_dlg.obj
 0002:00003a38       ??_C@_1CG@GFPINLC@?$AAL?$AAo?$AAa?$AAd?$AAi?$AAn?$AAg?$AA?5?$AAs?$AAy?$AAm?$AAb?$AAo?$AAl?$AAs@ 0047da38     task_manager_dlg.obj
 0002:00003a60       ??_C@_1CO@BDIADPMN@?$AAW?$AAa?$AAi?$AAt?$AAi?$AAn?$AAg?$AA?5?$AAf?$AAo?$AAr?$AA?5?$AAs?$AAy?$AAm@ 0047da60     task_manager_dlg.obj
 0002:00003a90       ??_C@_1BC@EBLNLBPD@?$AAW?$AAi?$AAn?$AAd?$AAh?$AAa?$AAw?$AAk@ 0047da90     task_manager_dlg.obj
 0002:00003aa4       ??_C@_1BM@BKHOCPPO@?$AA?$CF?$AAs?$AA?5?$AA?9?$AA?5?$AAW?$AAi?$AAn?$AAd?$AAh?$AAa?$AAw?$AAk@ 0047daa4     task_manager_dlg.obj
 0002:00003ac0       ??_C@_0BK@GKDNNIAN@Failed?5to?5initialize?5data@ 0047dac0     task_manager_dlg.obj
 0002:00003adc       ??_C@_1BC@PKEHKAEB@?$AAE?$AAx?$AAp?$AAl?$AAo?$AAr?$AAe?$AAr@ 0047dadc     task_manager_dlg.obj
 0002:00003af0       ??_C@_17GFKDCKHB@?$AAM?$AAo?$AAd@ 0047daf0     task_manager_dlg.obj
 0002:00003af8       ??_C@_1BA@NMDNJJOO@?$AAP?$AAr?$AAo?$AAc?$AAe?$AAs?$AAs@ 0047daf8     task_manager_dlg.obj
 0002:00003b08       ??_C@_17PDNKEHJO@?$AAP?$AAI?$AAD@ 0047db08     task_manager_dlg.obj
 0002:00003b10       ??_C@_1O@GGDILBNB@?$AAS?$AAt?$AAa?$AAt?$AAu?$AAs@ 0047db10     task_manager_dlg.obj
 0002:00003b20       ??_C@_0BO@FDIJOGHP@CTaskManagerDlg?3?3LoadTaskList@ 0047db20     task_manager_dlg.obj
 0002:00003b40       ??_C@_1DG@MMCMAG@?$AA?$FL?$AAW?$AAH?$AA?$FN?$AA?5?$AA?$FL?$AA?$CF?$AAS?$AA?$FN?$AA?3?$AA?5?$AAD?$AAi?$AAd?$AAn@ 0047db40     task_manager_dlg.obj
 0002:00003b78       ??_C@_1EE@JKLPPILI@?$AA?$FL?$AAW?$AAH?$AA?$FN?$AA?5?$AA?$FL?$AA?$CF?$AAS?$AA?$FN?$AA?3?$AA?5?$AAE?$AAr?$AAr?$AAo@ 0047db78     task_manager_dlg.obj
 0002:00003bbc       ??_C@_0BP@JJHLPBGN@CTaskManagerDlg?3?3AddItemToList@ 0047dbbc     task_manager_dlg.obj
 0002:00003be0       ??_C@_1HM@CNOPFBI@?$AA?$FL?$AAW?$AAH?$AA?$FN?$AA?5?$AA?$FL?$AA?$CF?$AAS?$AA?$FN?$AA?3?$AA?5?$AAF?$AAa?$AAi?$AAl@ 0047dbe0     task_manager_dlg.obj
 0002:00003c5c       ??_C@_0BG@FJECJBNG@Failed?5to?5update?5data@ 0047dc5c     task_manager_dlg.obj
 0002:00003c74       ??_C@_0CB@MAHLEBIN@CTaskManagerDlg?3?3RefreshTaskLis@ 0047dc74     task_manager_dlg.obj
 0002:00003c98       ??_C@_1BE@PNDFOHKG@?$AAS?$AAC?$AAR?$AAO?$AAL?$AAL?$AAB?$AAA?$AAR@ 0047dc98     task_manager_dlg.obj
 0002:00003cac       ??_C@_0BL@GOIGLPKN@unordered_map?1set?5too?5long@ 0047dcac     task_manager_dlg.obj
 0002:00003cc8       ??_C@_0BK@OGNNAFAB@invalid?5hash?5bucket?5count@ 0047dcc8     task_manager_dlg.obj
 0002:00003cf0       __xmm@00000009000000020000000400000007 0047dcf0     task_manager_dlg.obj
 0002:00003d00       __xmm@00000009000000070000000400000002 0047dd00     task_manager_dlg.obj
 0002:00003d10       __xmm@0000000f000000100000000000000000 0047dd10     task_manager_dlg.obj
 0002:00003d20       __xmm@000000c2000000c1000000c0000000bf 0047dd20     task_manager_dlg.obj
 0002:00003d30       __xmm@41f00000000000000000000000000000 0047dd30     task_manager_dlg.obj
 0002:00003d40       ??_C@_0BJ@PGBLBGEK@telemetry?4telemetryLevel@ 0047dd40     ui_control.obj
 0002:00003d5c       ??_C@_03MCADLMAF@off@      0047dd5c     ui_control.obj
 0002:00003d60       ??_C@_0M@MMHEJMLD@update?4mode@ 0047dd60     ui_control.obj
 0002:00003d6c       ??_C@_04CGFJFPFD@none@     0047dd6c     ui_control.obj
 0002:00003d74       ??_C@_0BI@HIFFHBC@update?4showReleaseNotes@ 0047dd74     ui_control.obj
 0002:00003d8c       ??_C@_0BM@BLMFDDMA@extensions?4autoCheckUpdates@ 0047dd8c     ui_control.obj
 0002:00003da8       ??_C@_0BG@PGIPKGDN@extensions?4autoUpdate@ 0047dda8     ui_control.obj
 0002:00003dc0       ??_C@_0P@ICHNIPJF@files?4autoSave@ 0047ddc0     ui_control.obj
 0002:00003dd0       ??_C@_0L@JEGLBFIM@afterDelay@ 0047ddd0     ui_control.obj
 0002:00003ddc       ??_C@_0N@FLBPNILH@window?4title@ 0047dddc     ui_control.obj
 0002:00003dec       ??_C@_0DD@PNNFOIAP@$?$HLdirty?$HN$?$HLactiveEditorShort?$HN$?$HLs@ 0047ddec     ui_control.obj
 0002:00003e20       ??_C@_0BM@LDEMFJAC@workbench?4enableExperiments@ 0047de20     ui_control.obj
 0002:00003e3c       ??_C@_0CP@PGOAIKEJ@workbench?4settings?4enableNatura@ 0047de3c     ui_control.obj
 0002:00003e6c       ??_C@_0CC@HOBMJPBK@workbench?4editor?4restoreViewSta@ 0047de6c     ui_control.obj
 0002:00003e90       ??_C@_0BH@DMPKJFHH@workbench?4tips?4enabled@ 0047de90     ui_control.obj
 0002:00003ea8       ??_C@_0BI@LJPNMOFJ@workbench?4startupEditor@ 0047dea8     ui_control.obj
 0002:00003ec0       ??_C@_0CA@DHHAGNBL@workbench?4layoutControl?4enabled@ 0047dec0     ui_control.obj
 0002:00003ee0       ??_C@_0CB@PIBIPPH@security?4workspace?4trust?4enable@ 0047dee0     ui_control.obj
 0002:00003f04       ??_C@_0BK@MOGLOCBB@editor?4inlayHints?4enabled@ 0047df04     ui_control.obj
 0002:00003f20       ??_C@_0P@CBPLAKIJ@editor?4tabSize@ 0047df20     ui_control.obj
 0002:00003f30       ??_C@_0BE@FBCOHNCN@editor?4insertSpaces@ 0047df30     ui_control.obj
 0002:00003f44       ??_C@_0BJ@FHGCPIJO@editor?4detectIndentation@ 0047df44     ui_control.obj
 0002:00003f60       ??_C@_0M@DHEJECHH@clangd?4path@ 0047df60     ui_control.obj
 0002:00003f6c       ??_C@_0CN@JDAGHHNA@$?$HLenv?3WINDHAWK_COMPILER_PATH?$HN?2b@ 0047df6c     ui_control.obj
 0002:00003f9c       ??_C@_0BB@FFBEGLIG@clangd?4arguments@ 0047df9c     ui_control.obj
 0002:00003fb0       ??_C@_0BI@DKAKOGEF@?9header?9insertion?$DNnever@ 0047dfb0     ui_control.obj
 0002:00003fc8       ??_C@_0BE@PLFHOGOG@clangd?4checkUpdates@ 0047dfc8     ui_control.obj
 0002:00003fdc       ??_C@_0BJ@HMIBANDA@window?4menuBarVisibility@ 0047dfdc     ui_control.obj
 0002:00003ff8       ??_C@_07HGKHBOGE@compact@  0047dff8     ui_control.obj
 0002:00004000       ??_C@_0BO@BICJBGPI@workbench?4activityBar?4visible@ 0047e000     ui_control.obj
 0002:00004020       ??_C@_0BK@LCHNPMBN@workbench?4editor?4showTabs@ 0047e020     ui_control.obj
 0002:0000403c       ??_C@_0BM@MJHMCILM@workbench?4statusBar?4visible@ 0047e03c     ui_control.obj
 0002:00004058       ??_C@_0M@BLENOGBP@git?4enabled@ 0047e058     ui_control.obj
 0002:00004064       ??_C@_0BB@NMDMFOLN@git?4showProgress@ 0047e064     ui_control.obj
 0002:00004078       ??_C@_0BI@NNKGMFCJ@git?4decorations?4enabled@ 0047e078     ui_control.obj
 0002:00004090       ??_C@_0BM@NBKFPGAL@git?4ignoreMissingGitWarning@ 0047e090     ui_control.obj
 0002:000040ac       ??_C@_0BI@KBHMFGCG@git?4ignoreLegacyWarning@ 0047e0ac     ui_control.obj
 0002:000040c4       ??_C@_0BO@GEMOAFBI@git?4ignoreWindowsGit27Warning@ 0047e0c4     ui_control.obj
 0002:000040e8       ??_C@_0EO@MCPBOCMC@$?$HLenv?3WINDHAWK_UI_PATH?$HN?2resourc@ 0047e0e8     ui_control.obj
 0002:00004138       ??_C@_13FPGAJAPJ@?$AA?2@   0047e138     ui_control.obj
 0002:00004140       ??_7_Iostream_error_category2@std@@6B@ 0047e140     ui_control.obj
 0002:00004158       ??_C@_08LLGCOLLL@iostream@ 0047e158     ui_control.obj
 0002:00004164       ?_Iostream_error@?4??message@_Iostream_error_category2@std@@UBE?AV?$basic_string@DU?$char_traits@D@std@@V?$allocator@D@2@@3@H@Z@4QBDB 0047e164     ui_control.obj
 0002:00004180       ??_7_Facet_base@std@@6B@   0047e180     ui_control.obj
 0002:0000418c       ??_C@_0BA@ELKIONDK@bad?5locale?5name@ 0047e18c     ui_control.obj
 0002:0000419c       ??_C@_05LAPONLG@false@     0047e19c     ui_control.obj
 0002:000041a4       ??_C@_04LOAJBDKD@true@     0047e1a4     ui_control.obj
 0002:000041b0       ??_7?$ctype@D@std@@6B@     0047e1b0     ui_control.obj
 0002:000041e0       ??_7failure@ios_base@std@@6B@ 0047e1e0     ui_control.obj
 0002:000041ec       ??_7ios_base@std@@6B@      0047e1ec     ui_control.obj
 0002:000041f0       ??_C@_0BF@PHHKMMFD@ios_base?3?3badbit?5set@ 0047e1f0     ui_control.obj
 0002:00004208       ??_C@_0BG@FMKFHCIL@ios_base?3?3failbit?5set@ 0047e208     ui_control.obj
 0002:00004220       ??_C@_0BF@OOHOMBOF@ios_base?3?3eofbit?5set@ 0047e220     ui_control.obj
 0002:00004238       ??_C@_01LFCBOECM@?4@       0047e238     ui_control.obj
 0002:00004240       ??_7?$basic_ios@DU?$char_traits@D@std@@@std@@6B@ 0047e240     ui_control.obj
 0002:00004248       ??_7?$basic_ostream@DU?$char_traits@D@std@@@std@@6B@ 0047e248     ui_control.obj
 0002:00004250       ??_7?$basic_streambuf@DU?$char_traits@D@std@@@std@@6B@ 0047e250     ui_control.obj
 0002:0000428c       ??_C@_0BD@EPABGGCG@create_directories@ 0047e28c     ui_control.obj
 0002:000042a4       ??_7exception@detail@nlohmann@@6B@ 0047e2a4     ui_control.obj
 0002:000042ac       ??_C@_02PBFOLPKM@?$FN?5@   0047e2ac     ui_control.obj
 0002:000042b0       ??_C@_0BB@DHAIOKED@?$FLjson?4exception?4@ 0047e2b0     ui_control.obj
 0002:000042c8       ??_7parse_error@detail@nlohmann@@6B@ 0047e2c8     ui_control.obj
 0002:000042d0       ??_C@_0M@BJIBBOFC@parse?5error@ 0047e2d0     ui_control.obj
 0002:000042dc       ??_C@_0M@DKBLOJA@parse_error@ 0047e2dc     ui_control.obj
 0002:000042e8       ??_C@_09LIPKCAOI@?0?5column?5@ 0047e2e8     ui_control.obj
 0002:000042f4       ??_C@_09BEOCNAAM@?5at?5line?5@ 0047e2f4     ui_control.obj
 0002:00004304       ??_7invalid_iterator@detail@nlohmann@@6B@ 0047e304     ui_control.obj
 0002:0000430c       ??_C@_0BB@NIGHFCLN@invalid_iterator@ 0047e30c     ui_control.obj
 0002:00004324       ??_7type_error@detail@nlohmann@@6B@ 0047e324     ui_control.obj
 0002:0000432c       ??_C@_0L@CJHFOHFM@type_error@ 0047e32c     ui_control.obj
 0002:0000433c       ??_7out_of_range@detail@nlohmann@@6B@ 0047e33c     ui_control.obj
 0002:00004344       ??_C@_0N@EPJFPCBB@out_of_range@ 0047e344     ui_control.obj
 0002:00004358       ??_7other_error@detail@nlohmann@@6B@ 0047e358     ui_control.obj
 0002:00004360       ??_C@_0M@DLKELGHM@other_error@ 0047e360     ui_control.obj
 0002:00004370       ??_7?$basic_istream@DU?$char_traits@D@std@@@std@@6B@ 0047e370     ui_control.obj
 0002:00004378       ?kCachedPowers@?1??get_cached_power_for_binary_exponent@dtoa_impl@detail@nlohmann@@YA?AUcached_power@234@H@Z@4V?$array@Ucached_power@dtoa_impl@detail@nlohmann@@$0EP@@std@@B 0047e378     ui_control.obj
 0002:00004868       ??_C@_0CF@GKBMNDBC@shared?2libraries?2wil?2result_mac@ 0047e868     ui_control.obj
 0002:00004890       ??_C@_05MFEJDJP@value@     0047e890     ui_control.obj
 0002:00004898       ??_C@_0BB@GBBPBDAB@cannot?5get?5value@ 0047e898     ui_control.obj
 0002:000048ac       ??_C@_01GEODFPGF@?8@       0047e8ac     ui_control.obj
 0002:000048b0       ??_C@_0L@GEOKNAJI@object?5key@ 0047e8b0     ui_control.obj
 0002:000048bc       ??_C@_0BB@NAEMOGCE@object?5separator@ 0047e8bc     ui_control.obj
 0002:000048d0       ??_C@_0BK@GBHGKIGD@number?5overflow?5parsing?5?8@ 0047e8d0     ui_control.obj
 0002:000048ec       ??_C@_05HIFJDKLD@array@    0047e8ec     ui_control.obj
 0002:000048f4       ??_C@_06IEOJBDIK@object@   0047e8f4     ui_control.obj
 0002:000048fc       ??_C@_08HEDMEGDA@?$DMU?$CL?$CF?44X?$DO@ 0047e8fc     ui_control.obj
 0002:00004908       ??_C@_0O@DLFJJHJG@syntax?5error?5@ 0047e908     ui_control.obj
 0002:00004918       ??_C@_01CLKCMJKC@?5@       0047e918     ui_control.obj
 0002:0000491c       ??_C@_0P@ENHBMBLC@while?5parsing?5@ 0047e91c     ui_control.obj
 0002:0000492c       ??_C@_02KFKPNHPM@?9?5@     0047e92c     ui_control.obj
 0002:00004930       ??_C@_0P@CPMJEHAD@?$DL?5last?5read?3?5?8@ 0047e930     ui_control.obj
 0002:00004940       ??_C@_0M@GHJKFFPF@unexpected?5@ 0047e940     ui_control.obj
 0002:0000494c       ??_C@_0M@DKPGADPC@?$DL?5expected?5@ 0047e94c     ui_control.obj
 0002:00004958       ??_C@_0CK@IFEIPALN@cannot?5use?5key?$CI?$CJ?5for?5non?9object@ 0047e958     ui_control.obj
 0002:00004984       ??_C@_0DB@MMKEGCHK@cannot?5compare?5iterators?5of?5dif@ 0047e984     ui_control.obj
 0002:000049b8       ??_C@_04MLLLIHIP@null@     0047e9b8     ui_control.obj
 0002:000049c0       ??_C@_06ICGJLFIM@string@   0047e9c0     ui_control.obj
 0002:000049c8       ??_C@_07GOBOHMJA@boolean@  0047e9c8     ui_control.obj
 0002:000049d0       ??_C@_06FNFBAEBE@binary@   0047e9d0     ui_control.obj
 0002:000049d8       ??_C@_09BHELGMBL@discarded@ 0047e9d8     ui_control.obj
 0002:000049e4       ??_C@_06EBGNBFIA@number@   0047e9e4     ui_control.obj
 0002:000049ec       ??_C@_0BH@FCBMNGHJ@excessive?5array?5size?3?5@ 0047e9ec     ui_control.obj
 0002:00004a04       ??_C@_0BI@JLEGJFPM@excessive?5object?5size?3?5@ 0047ea04     ui_control.obj
 0002:00004a1c       ??_C@_0CN@IONLHPJF@invalid?5BOM?$DL?5must?5be?50xEF?50xBB?5@ 0047ea1c     ui_control.obj
 0002:00004a4c       ??_C@_0BA@NMKHNIFD@invalid?5literal@ 0047ea4c     ui_control.obj
 0002:00004a5c       ??_C@_0CP@HEACOJGN@961c151d2e87f2686a955a9be24d316@ 0047ea5c     ui_control.obj
 0002:00004a8c       ??_C@_0BA@JFDABGPH@?$DMuninitialized?$DO@ 0047ea8c     ui_control.obj
 0002:00004a9c       ??_C@_0N@GBJNOFKB@true?5literal@ 0047ea9c     ui_control.obj
 0002:00004aac       ??_C@_0O@GPPJPPBD@false?5literal@ 0047eaac     ui_control.obj
 0002:00004abc       ??_C@_0N@LCPDBNFG@null?5literal@ 0047eabc     ui_control.obj
 0002:00004acc       ??_C@_0P@JJFCJNC@string?5literal@ 0047eacc     ui_control.obj
 0002:00004adc       ??_C@_0P@CMLFDPOO@number?5literal@ 0047eadc     ui_control.obj
 0002:00004aec       ??_C@_03FJHCMEFA@?8?$FL?8@ 0047eaec     ui_control.obj
 0002:00004af0       ??_C@_03GBDPICLA@?8?$HL?8@ 0047eaf0     ui_control.obj
 0002:00004af4       ??_C@_03FNPPLIOC@?8?$FN?8@ 0047eaf4     ui_control.obj
 0002:00004af8       ??_C@_03GFLCPOAC@?8?$HN?8@ 0047eaf8     ui_control.obj
 0002:00004afc       ??_C@_03BAGHGFEH@?8?3?8@   0047eafc     ui_control.obj
 0002:00004b00       ??_C@_03IMMLKIF@?8?0?8@    0047eb00     ui_control.obj
 0002:00004b04       ??_C@_0O@JLFFEAGH@?$DMparse?5error?$DO@ 0047eb04     ui_control.obj
 0002:00004b14       ??_C@_0N@KMCIHGPC@end?5of?5input@ 0047eb14     ui_control.obj
 0002:00004b24       ??_C@_0BH@EOPOIFBB@?8?$FL?8?0?5?8?$HL?8?0?5or?5a?5literal@ 0047eb24     ui_control.obj
 0002:00004b3c       ??_C@_0O@IDJJBCJJ@unknown?5token@ 0047eb3c     ui_control.obj
 0002:00004b4c       ??_C@_0CE@BGJPELCC@iterator?5does?5not?5fit?5current?5v@ 0047eb4c     ui_control.obj
 0002:00004b70       ??_C@_0BG@OAOABPIO@iterator?5out?5of?5range@ 0047eb70     ui_control.obj
 0002:00004b88       ??_C@_0BJ@NPKCAHHP@cannot?5use?5erase?$CI?$CJ?5with?5@ 0047eb88     ui_control.obj
 0002:00004ba4       ??_C@_0CJ@CDLKIENK@invalid?5number?$DL?5expected?5digit?5@ 0047eba4     ui_control.obj
 0002:00004bd0       ??_C@_0CJ@CBPMDKID@invalid?5number?$DL?5expected?5digit?5@ 0047ebd0     ui_control.obj
 0002:00004bfc       ??_C@_0DL@FABMJCCP@invalid?5number?$DL?5expected?5?8?$CL?8?0?5?8@ 0047ebfc     ui_control.obj
 0002:00004c38       ??_C@_0DD@LINOMLFL@invalid?5number?$DL?5expected?5digit?5@ 0047ec38     ui_control.obj
 0002:00004c6c       ??_C@_0CG@NNDMIEDH@invalid?5comment?$DL?5missing?5closin@ 0047ec6c     ui_control.obj
 0002:00004c94       ??_C@_0DA@PAGCIHNF@invalid?5comment?$DL?5expecting?5?8?1?8?5@ 0047ec94     ui_control.obj
 0002:00004cc4       ??_C@_0CG@MLGKFPBE@invalid?5string?3?5missing?5closing@ 0047ecc4     ui_control.obj
 0002:00004cec       ??_C@_0DG@LMKKCLLH@invalid?5string?3?5?8?2u?8?5must?5be?5fo@ 0047ecec     ui_control.obj
 0002:00004d28       ??_C@_0EM@NBBIGKDA@invalid?5string?3?5surrogate?5U?$CLD80@ 0047ed28     ui_control.obj
 0002:00004d78       ??_C@_0EE@JEFCKMMK@invalid?5string?3?5surrogate?5U?$CLDC0@ 0047ed78     ui_control.obj
 0002:00004dbc       ??_C@_0DE@FDKDLPFL@invalid?5string?3?5forbidden?5chara@ 0047edbc     ui_control.obj
 0002:00004df0       ??_C@_0EJ@NABLKLLF@invalid?5string?3?5control?5charact@ 0047edf0     ui_control.obj
 0002:00004e40       ??_C@_0EJ@CGIOMNAN@invalid?5string?3?5control?5charact@ 0047ee40     ui_control.obj
 0002:00004e90       ??_C@_0EJ@OKNGOHIK@invalid?5string?3?5control?5charact@ 0047ee90     ui_control.obj
 0002:00004ee0       ??_C@_0EJ@BPGBHIAL@invalid?5string?3?5control?5charact@ 0047eee0     ui_control.obj
 0002:00004f30       ??_C@_0EJ@FKCGPJCG@invalid?5string?3?5control?5charact@ 0047ef30     ui_control.obj
 0002:00004f80       ??_C@_0EJ@GPLGMBKM@invalid?5string?3?5control?5charact@ 0047ef80     ui_control.obj
 0002:00004fd0       ??_C@_0EJ@JAMEJLH@invalid?5string?3?5control?5charact@ 0047efd0     ui_control.obj
 0002:00005020       ??_C@_0EJ@FMJJFDDO@invalid?5string?3?5control?5charact@ 0047f020     ui_control.obj
 0002:00005070       ??_C@_0EO@HAMNCDCJ@invalid?5string?3?5control?5charact@ 0047f070     ui_control.obj
 0002:000050c0       ??_C@_0EO@GMAPOODH@invalid?5string?3?5control?5charact@ 0047f0c0     ui_control.obj
 0002:00005110       ??_C@_0EO@BDKKLBCN@invalid?5string?3?5control?5charact@ 0047f110     ui_control.obj
 0002:00005160       ??_C@_0EI@DPPPKLPC@invalid?5string?3?5control?5charact@ 0047f160     ui_control.obj
 0002:000051a8       ??_C@_0EO@IFHEDFEP@invalid?5string?3?5control?5charact@ 0047f1a8     ui_control.obj
 0002:000051f8       ??_C@_0EO@PJJBEEPG@invalid?5string?3?5control?5charact@ 0047f1f8     ui_control.obj
 0002:00005248       ??_C@_0EI@LAJMIDAP@invalid?5string?3?5control?5charact@ 0047f248     ui_control.obj
 0002:00005290       ??_C@_0EI@FBMHLBEA@invalid?5string?3?5control?5charact@ 0047f290     ui_control.obj
 0002:000052d8       ??_C@_0EJ@MNJGJMON@invalid?5string?3?5control?5charact@ 0047f2d8     ui_control.obj
 0002:00005328       ??_C@_0EJ@MKMIGOL@invalid?5string?3?5control?5charact@ 0047f328     ui_control.obj
 0002:00005378       ??_C@_0EJ@OPAPENBO@invalid?5string?3?5control?5charact@ 0047f378     ui_control.obj
 0002:000053c8       ??_C@_0EJ@LBJBPEEN@invalid?5string?3?5control?5charact@ 0047f3c8     ui_control.obj
 0002:00005418       ??_C@_0EJ@PDDJNMLF@invalid?5string?3?5control?5charact@ 0047f418     ui_control.obj
 0002:00005468       ??_C@_0EJ@KGLCIOHO@invalid?5string?3?5control?5charact@ 0047f468     ui_control.obj
 0002:000054b8       ??_C@_0EJ@DANDDHBM@invalid?5string?3?5control?5charact@ 0047f4b8     ui_control.obj
 0002:00005508       ??_C@_0EJ@MJEDHOMH@invalid?5string?3?5control?5charact@ 0047f508     ui_control.obj
 0002:00005558       ??_C@_0EJ@CMNKNMME@invalid?5string?3?5control?5charact@ 0047f558     ui_control.obj
 0002:000055a8       ??_C@_0EI@PODKIIEG@invalid?5string?3?5control?5charact@ 0047f5a8     ui_control.obj
 0002:000055f0       ??_C@_0EJ@GHGHBGJE@invalid?5string?3?5control?5charact@ 0047f5f0     ui_control.obj
 0002:00005640       ??_C@_0EJ@DKHNKOP@invalid?5string?3?5control?5charact@ 0047f640     ui_control.obj
 0002:00005690       ??_C@_0EI@LHNMAEPO@invalid?5string?3?5control?5charact@ 0047f690     ui_control.obj
 0002:000056d8       ??_C@_0EI@EECAIDOI@invalid?5string?3?5control?5charact@ 0047f6d8     ui_control.obj
 0002:00005720       ??_C@_0EI@NGMGHBHA@invalid?5string?3?5control?5charact@ 0047f720     ui_control.obj
 0002:00005768       ??_C@_0EI@BDNODKJO@invalid?5string?3?5control?5charact@ 0047f768     ui_control.obj
 0002:000057b0       ??_C@_0CG@DBODJMKB@invalid?5string?3?5ill?9formed?5UTF?9@ 0047f7b0     ui_control.obj
 0002:000057d8       ??_C@_0BG@EOMJEIFA@vector?$DMbool?$DO?5too?5long@ 0047f7d8     ui_control.obj
 0002:000057f4       ??_7?$basic_filebuf@DU?$char_traits@D@std@@@std@@6B@ 0047f7f4     ui_control.obj
 0002:00005834       ??_7?$basic_ifstream@DU?$char_traits@D@std@@@std@@6B@ 0047f834     ui_control.obj
 0002:00005838       ??_8?$basic_ifstream@DU?$char_traits@D@std@@@std@@7B@ 0047f838     ui_control.obj
 0002:00005844       ??_7?$basic_ofstream@DU?$char_traits@D@std@@@std@@6B@ 0047f844     ui_control.obj
 0002:00005848       ??_8?$basic_ofstream@DU?$char_traits@D@std@@@std@@7B@ 0047f848     ui_control.obj
 0002:00005850       ??_C@_19PIJILKAI@?$AAU?$AAs?$AAe?$AAr@ 0047f850     ui_control.obj
 0002:0000585c       ??_C@_1BE@COGPIAIO@?$AAu?$AAs?$AAe?$AAr?$AA?9?$AAd?$AAa?$AAt?$AAa@ 0047f85c     ui_control.obj
 0002:00005870       ??_C@_1BM@IOABMDPN@?$AAs?$AAe?$AAt?$AAt?$AAi?$AAn?$AAg?$AAs?$AA?4?$AAj?$AAs?$AAo?$AAn@ 0047f870     ui_control.obj
 0002:0000588c       ??_C@_0CJ@DOKNNELK@?$GAanonymous?9namespace?8?3?3PrepareU@ 0047f88c     ui_control.obj
 0002:000058b8       ??_C@_1FK@IMAJPNNI@?$AA?$FL?$AAW?$AAH?$AA?$FN?$AA?5?$AA?$FL?$AA?$CF?$AAS?$AA?$FN?$AA?3?$AA?5?$AAP?$AAa?$AAr?$AAs@ 0047f8b8     ui_control.obj
 0002:00005914       ??_C@_0BA@JBBGLKFP@IsWow64Process2@ 0047f914     ui_control.obj
 0002:00005924       ??_C@_1CA@KJBFCFLP@?$AAV?$AAS?$AAC?$AAO?$AAD?$AAE?$AA_?$AAP?$AAO?$AAR?$AAT?$AAA?$AAB?$AAL?$AAE@ 0047f924     ui_control.obj
 0002:00005944       ??_C@_1CC@IELEFHGN@?$AAW?$AAI?$AAN?$AAD?$AAH?$AAA?$AAW?$AAK?$AA_?$AAU?$AAI?$AA_?$AAP?$AAA?$AAT@ 0047f944     ui_control.obj
 0002:00005968       ??_C@_1CO@GMMELMOG@?$AAW?$AAI?$AAN?$AAD?$AAH?$AAA?$AAW?$AAK?$AA_?$AAC?$AAO?$AAM?$AAP?$AAI?$AAL@ 0047f968     ui_control.obj
 0002:00005998       ??_C@_13JGCMLPCH@?$AA1@    0047f998     ui_control.obj
 0002:0000599c       ??_C@_1CO@EDKHIOBL@?$AAW?$AAI?$AAN?$AAD?$AAH?$AAA?$AAW?$AAK?$AA_?$AAA?$AAR?$AAM?$AA6?$AA4?$AA_@ 0047f99c     ui_control.obj
 0002:000059cc       ??_C@_1BK@FCDPLLNM@?$AAV?$AAS?$AAC?$AAo?$AAd?$AAi?$AAu?$AAm?$AA?4?$AAe?$AAx?$AAe@ 0047f9cc     ui_control.obj
 0002:000059e8       ??_C@_1BC@HINCHJAG@?$AAC?$AAo?$AAd?$AAe?$AA?4?$AAe?$AAx?$AAe@ 0047f9e8     ui_control.obj
 0002:000059fc       ??_C@_0BD@FMAEFMJL@app?2ui_control?4cpp@ 0047f9fc     ui_control.obj
 0002:00005a10       ??_C@_1GC@LAJHLGAA@?$AA?$CC?$AA?5?$AA?9?$AA?9?$AAl?$AAo?$AAc?$AAa?$AAl?$AAe?$AA?$DN?$AAe?$AAn?$AA?5?$AA?9@ 0047fa10     ui_control.obj
 0002:00005a74       ??_C@_17CMBJCHDO@?$AA?$CC?$AA?5?$AA?$CC@ 0047fa74     ui_control.obj
 0002:00005a7c       ??_C@_1CE@LGBOBMIL@?$AAW?$AAi?$AAn?$AAd?$AAh?$AAa?$AAw?$AAk?$AAR?$AAu?$AAn?$AAU?$AAI?$AAT?$AAa@ 0047fa7c     ui_control.obj
 0002:00005aa0       ??_C@_1CG@JLODHMDF@?$AAC?$AAh?$AAr?$AAo?$AAm?$AAe?$AA_?$AAW?$AAi?$AAd?$AAg?$AAe?$AAt?$AAW?$AAi@ 0047faa0     ui_control.obj
 0002:00005ac8       ??_C@_0DF@NOFIFNJC@UIControl?3?3GetOpenUIWindows?3?3?$DMl@ 0047fac8     ui_control.obj
 0002:00005b00       ??_C@_1HI@PANMPPBF@?$AA?$FL?$AAW?$AAH?$AA?$FN?$AA?5?$AA?$FL?$AA?$CF?$AAS?$AA?$FN?$AA?3?$AA?5?$AAE?$AAn?$AAu?$AAm@ 0047fb00     ui_control.obj
 0002:00005b78       ??_C@_0BP@KCJIFGG@UIControl?3?3RunUIOrBringToFront@ 0047fb78     ui_control.obj
 0002:00005b98       ??_C@_1FA@GJOGPHGK@?$AA?$FL?$AAW?$AAH?$AA?$FN?$AA?5?$AA?$FL?$AA?$CF?$AAS?$AA?$FN?$AA?3?$AA?5?$AAR?$AAu?$AAn?$AAU@ 0047fb98     ui_control.obj
 0002:00005be8       __GUID_2faba4c7_4da9_4013_9697_20cc3fd40f85 0047fbe8     ui_control.obj
 0002:00005bf8       ??_C@_0DD@MKOBOCJE@cannot?5use?5operator?$FL?$FN?5with?5a?5st@ 0047fbf8     ui_control.obj
 0002:00005c2c       ??_C@_0CL@PMFMHANH@cannot?5create?5object?5from?5initi@ 0047fc2c     ui_control.obj
 0002:00005c5c       ??_7?$codecvt@DDU_Mbstatet@@@std@@6B@ 0047fc5c     ui_control.obj
 0002:00005c84       ??_C@_02MCILKGOH@?$HL?$HN@ 0047fc84     ui_control.obj
 0002:00005c88       ??_C@_02KCPFEJNG@?$HL?6@   0047fc88     ui_control.obj
 0002:00005c8c       ??_C@_03GIPIADLC@?$CC?3?5@ 0047fc8c     ui_control.obj
 0002:00005c90       ??_C@_02MLAGHBOD@?0?6@     0047fc90     ui_control.obj
 0002:00005c94       ??_C@_02BONOGKBK@?$CC?3@   0047fc94     ui_control.obj
 0002:00005c98       ??_C@_02GPECMEKF@?$FL?$FN@ 0047fc98     ui_control.obj
 0002:00005c9c       ??_C@_02JKLIAPDG@?$FL?6@   0047fc9c     ui_control.obj
 0002:00005ca0       ??_C@_0L@PKCNPMFP@?$CCbytes?$CC?3?5?$FL@ 0047fca0     ui_control.obj
 0002:00005cac       ??_C@_02KEGNLNML@?0?5@     0047fcac     ui_control.obj
 0002:00005cb0       ??_C@_03CMGEKAJC@?$FN?0?6@ 0047fcb0     ui_control.obj
 0002:00005cb4       ??_C@_0M@MIEMHDME@?$CCsubtype?$CC?3?5@ 0047fcb4     ui_control.obj
 0002:00005cc0       ??_C@_0L@EHLNBIHC@?$HL?$CCbytes?$CC?3?$FL@ 0047fcc0     ui_control.obj
 0002:00005ccc       ??_C@_0N@JHCCFCOC@?$FN?0?$CCsubtype?$CC?3@ 0047fccc     ui_control.obj
 0002:00005cdc       ??_C@_05OHFNCCIN@null?$HN@ 0047fcdc     ui_control.obj
 0002:00005ce4       ??_C@_0M@MKMGJFPL@?$DMdiscarded?$DO@ 0047fce4     ui_control.obj
 0002:00005cf4       ??_7?$output_stream_adapter@D@detail@nlohmann@@6B@ 0047fcf4     ui_control.obj
 0002:00005d00       ?digits_to_99@?1???$dump_integer@E$0A@@?$serializer@V?$basic_json@Uordered_map@nlohmann@@Vvector@std@@V?$basic_string@DU?$char_traits@D@std@@V?$allocator@D@2@@4@_N_J_KNVallocator@4@Uadl_serializer@2@V?$vector@EV?$allocator@E@std@@@4@@nlohmann@@@detail@nlohmann@@AAEXE@Z@4V?$array@V?$array@D$01@std@@$0GE@@std@@B 0047fd00     ui_control.obj
 0002:00005dc8       ?digits_to_99@?1???$dump_integer@_J$0A@@?$serializer@V?$basic_json@Uordered_map@nlohmann@@Vvector@std@@V?$basic_string@DU?$char_traits@D@std@@V?$allocator@D@2@@4@_N_J_KNVallocator@4@Uadl_serializer@2@V?$vector@EV?$allocator@E@std@@@4@@nlohmann@@@detail@nlohmann@@AAEX_J@Z@4V?$array@V?$array@D$01@std@@$0GE@@std@@B 0047fdc8     ui_control.obj
 0002:00005e90       ?digits_to_99@?1???$dump_integer@_K$0A@@?$serializer@V?$basic_json@Uordered_map@nlohmann@@Vvector@std@@V?$basic_string@DU?$char_traits@D@std@@V?$allocator@D@2@@4@_N_J_KNVallocator@4@Uadl_serializer@2@V?$vector@EV?$allocator@E@std@@@4@@nlohmann@@@detail@nlohmann@@AAEX_K@Z@4V?$array@V?$array@D$01@std@@$0GE@@std@@B 0047fe90     ui_control.obj
 0002:00005f5c       ??_7?$_Ref_count_obj2@V?$output_stream_adapter@D@detail@nlohmann@@@std@@6B@ 0047ff5c     ui_control.obj
 0002:00005f6c       ??_C@_06OAIHNJFH@?2u?$CF04x@ 0047ff6c     ui_control.obj
 0002:00005f74       ??_C@_0N@MOBGICJD@?2u?$CF04x?2u?$CF04x@ 0047ff74     ui_control.obj
 0002:00005f84       ??_C@_04CFJMJGDJ@?$CF?42X@ 0047ff84     ui_control.obj
 0002:00005f8c       ??_C@_04LBPDBBJF@?3?50x@   0047ff8c     ui_control.obj
 0002:00005f94       ??_C@_0BN@FGKMDFDN@invalid?5UTF?98?5byte?5at?5index?5@ 0047ff94     ui_control.obj
 0002:00005fb4       ??_C@_0CH@OBGEFBNA@incomplete?5UTF?98?5string?$DL?5last?5b@ 0047ffb4     ui_control.obj
 0002:00005fdc       ??_C@_06JIPNAMDD@?2ufffd@  0047ffdc     ui_control.obj
 0002:00005fe4       ??_C@_03MPMOBIFF@?o?$LP?$LN@ 0047ffe4     ui_control.obj
 0002:00005fe8       ?utf8d@?1??decode@?$serializer@V?$basic_json@Uordered_map@nlohmann@@Vvector@std@@V?$basic_string@DU?$char_traits@D@std@@V?$allocator@D@2@@4@_N_J_KNVallocator@4@Uadl_serializer@2@V?$vector@EV?$allocator@E@std@@@4@@nlohmann@@@detail@nlohmann@@CAEAAEAAIE@Z@4V?$array@E$0BJA@@std@@B 0047ffe8     ui_control.obj
 0002:00006178       __real@0000000000000000    00480178     ui_control.obj
 0002:00006180       __xmm@000000bf000000800000008f00000080 00480180     ui_control.obj
 0002:00006190       __xmm@000000bf000000800000009f00000080 00480190     ui_control.obj
 0002:000061a0       __xmm@000000bf00000080000000bf00000080 004801a0     ui_control.obj
 0002:000061b0       __xmm@000000bf00000080000000bf00000090 004801b0     ui_control.obj
 0002:000061c0       __xmm@000000bf00000080000000bf000000a0 004801c0     ui_control.obj
 0002:000061d0       __xmm@80000000000000008000000000000000 004801d0     ui_control.obj
 0002:000061e0       ??_C@_0BG@GBJCDJOP@CreateFileTransactedW@ 004801e0     update_checker.obj
 0002:000061fc       ??_7CSession@WinHTTPWrappers@@6B@ 004801fc     update_checker.obj
 0002:0000620c       ??_7CConnection@WinHTTPWrappers@@6B@ 0048020c     update_checker.obj
 0002:00006218       ??_C@_1FE@CMMDNGN@?$AAh?$AAt?$AAt?$AAp?$AAs?$AA?3?$AA?1?$AA?1?$AAu?$AAp?$AAd?$AAa?$AAt?$AAe?$AA?4@ 00480218     update_checker.obj
 0002:0000626c       ??_C@_1CC@MEDHCMFN@?$AAW?$AAi?$AAn?$AAd?$AAh?$AAa?$AAw?$AAk?$AA?1?$AA1?$AA?4?$AA7?$AA?4?$AA3?$AA?5@ 0048026c     update_checker.obj
 0002:00006290       ??_C@_1BG@GBNCPONI@?$AA?$DL?$AA?5?$AAp?$AAo?$AAr?$AAt?$AAa?$AAb?$AAl?$AAe@ 00480290     update_checker.obj
 0002:000062a8       ??_C@_13DIBMAFH@?$AA?$CJ@  004802a8     update_checker.obj
 0002:000062ac       ??_C@_19JLKJCDCM@?$AAP?$AAO?$AAS?$AAT@ 004802ac     update_checker.obj
 0002:000062b8       ??_C@_1DO@PAKGOMDL@?$AAC?$AAo?$AAn?$AAt?$AAe?$AAn?$AAt?$AA?9?$AAT?$AAy?$AAp?$AAe?$AA?3?$AA?5?$AAa@ 004802b8     update_checker.obj
 0002:000062f8       ??_C@_0BH@LPBOOLNI@app?2update_checker?4cpp@ 004802f8     update_checker.obj
 0002:00006310       ??_C@_0BO@BHEJDDPC@UpdateChecker?3?3HandleResponse@ 00480310     update_checker.obj
 0002:00006330       ??_C@_1GA@NBKIFCFA@?$AA?$FL?$AAW?$AAH?$AA?$FN?$AA?5?$AA?$FL?$AA?$CF?$AAS?$AA?$FN?$AA?3?$AA?5?$AAH?$AAa?$AAn?$AAd@ 00480330     update_checker.obj
 0002:00006390       ??_C@_0BN@PBOPNPGJ@UpdateChecker?3?3OnRequestDone@ 00480390     update_checker.obj
 0002:000063b0       ??_C@_1EG@LADFGPFO@?$AA?$FL?$AAW?$AAH?$AA?$FN?$AA?5?$AA?$FL?$AA?$CF?$AAS?$AA?$FN?$AA?3?$AA?5?$AAG?$AAe?$AAt?$AA?5@ 004803b0     update_checker.obj
 0002:00006430       ??_C@_0BB@GCADKGJO@map?1set?5too?5long@ 00480430     userprofile.obj
 0002:00006444       ??_C@_0DD@IDPNBBOI@?$GAanonymous?9namespace?8?3?3ReadUser@ 00480444     userprofile.obj
 0002:00006478       ??_C@_1GA@PPOIJFEC@?$AA?$FL?$AAW?$AAH?$AA?$FN?$AA?5?$AA?$FL?$AA?$CF?$AAS?$AA?$FN?$AA?3?$AA?5?$AAP?$AAa?$AAr?$AAs@ 00480478     userprofile.obj
 0002:000064d8       ??_C@_02EGCJHIOB@id@       004804d8     userprofile.obj
 0002:000064dc       ??_C@_02EHCHIAMF@os@       004804dc     userprofile.obj
 0002:000064e0       ??_C@_03CGOPKBCD@app@      004804e0     userprofile.obj
 0002:000064e4       ??_C@_07CPCPJPKL@version@  004804e4     userprofile.obj
 0002:000064ec       ??_C@_05FEKONFPD@1?47?43@  004804ec     userprofile.obj
 0002:000064f4       ??_C@_0CO@LPLFOLPH@?$GAanonymous?9namespace?8?3?3GetLocal@ 004804f4     userprofile.obj
 0002:00006528       ??_C@_1GE@HOHMOANL@?$AA?$FL?$AAW?$AAH?$AA?$FN?$AA?5?$AA?$FL?$AA?$CF?$AAS?$AA?$FN?$AA?3?$AA?5?$AAU?$AAp?$AAd?$AAa@ 00480528     userprofile.obj
 0002:0000658c       ??_C@_0O@KBHDGKDP@latestVersion@ 0048058c     userprofile.obj
 0002:0000659c       ??_C@_04HAPGBFIC@mods@     0048059c     userprofile.obj
 0002:000065a4       ??_C@_0CJ@NCGEAAJD@UserProfile?3?3UpdateContentWithO@ 004805a4     userprofile.obj
 0002:000065d0       ??_C@_0M@BPLKEMIM@?8?5not?5found@ 004805d0     userprofile.obj
 0002:000065dc       ??_C@_05IJGDECGL@key?5?8@  004805dc     userprofile.obj
 0002:000065e4       ??_C@_0BG@GLMDJNDN@cannot?5use?5at?$CI?$CJ?5with?5@ 004805e4     userprofile.obj
 0002:000065fc       ??_C@_0BG@BBKNOMOH@invalid?5map?$DMK?0?5T?$DO?5key@ 004805fc     userprofile.obj
 0002:00006618       ??_7?$output_string_adapter@DV?$basic_string@DU?$char_traits@D@std@@V?$allocator@D@2@@std@@@detail@nlohmann@@6B@ 00480618     userprofile.obj
 0002:00006628       ?digits_to_99@?1???$dump_integer@E$0A@@?$serializer@V?$basic_json@Vmap@std@@Vvector@2@V?$basic_string@DU?$char_traits@D@std@@V?$allocator@D@2@@2@_N_J_KNVallocator@2@Uadl_serializer@nlohmann@@V?$vector@EV?$allocator@E@std@@@2@@nlohmann@@@detail@nlohmann@@AAEXE@Z@4V?$array@V?$array@D$01@std@@$0GE@@std@@B 00480628     userprofile.obj
 0002:000066f0       ?digits_to_99@?1???$dump_integer@_J$0A@@?$serializer@V?$basic_json@Vmap@std@@Vvector@2@V?$basic_string@DU?$char_traits@D@std@@V?$allocator@D@2@@2@_N_J_KNVallocator@2@Uadl_serializer@nlohmann@@V?$vector@EV?$allocator@E@std@@@2@@nlohmann@@@detail@nlohmann@@AAEX_J@Z@4V?$array@V?$array@D$01@std@@$0GE@@std@@B 004806f0     userprofile.obj
 0002:000067b8       ?digits_to_99@?1???$dump_integer@_K$0A@@?$serializer@V?$basic_json@Vmap@std@@Vvector@2@V?$basic_string@DU?$char_traits@D@std@@V?$allocator@D@2@@2@_N_J_KNVallocator@2@Uadl_serializer@nlohmann@@V?$vector@EV?$allocator@E@std@@@2@@nlohmann@@@detail@nlohmann@@AAEX_K@Z@4V?$array@V?$array@D$01@std@@$0GE@@std@@B 004807b8     userprofile.obj
 0002:00006884       ??_7?$_Ref_count_obj2@V?$output_string_adapter@DV?$basic_string@DU?$char_traits@D@std@@V?$allocator@D@2@@std@@@detail@nlohmann@@@std@@6B@ 00480884     userprofile.obj
 0002:00006894       ??_C@_0BN@GPCBHMHC@type?5must?5be?5string?0?5but?5is?5@ 00480894     userprofile.obj
 0002:000068b8       ?utf8d@?1??decode@?$serializer@V?$basic_json@Vmap@std@@Vvector@2@V?$basic_string@DU?$char_traits@D@std@@V?$allocator@D@2@@2@_N_J_KNVallocator@2@Uadl_serializer@nlohmann@@V?$vector@EV?$allocator@E@std@@@2@@nlohmann@@@detail@nlohmann@@CAEAAEAAIE@Z@4V?$array@E$0BJA@@std@@B 004808b8     userprofile.obj
 0002:00006a4c       ??_7CToolkitDlg@@6B@       00480a4c     toolkit_dlg.obj
 0002:00006a60       __xmm@000003ee000003ed000003ec000003eb 00480a60     toolkit_dlg.obj
 0002:00006a70       _CLSID_TaskScheduler       00480a70     taskschd:taskschd.obj
 0002:00006a80       _CLSID_StdGlobalInterfaceTable 00480a80     uuid:cguid_i.obj
 0002:00006a90       _GUID_ATLVer110            00480a90     atls:atlbase.obj
 0002:00006aa0       ??_C@_1IC@ONKHOIDK@?$AAE?$AAR?$AAR?$AAO?$AAR?$AA?5?$AA?3?$AA?5?$AAU?$AAn?$AAa?$AAb?$AAl?$AAe?$AA?5@ 00480aa0     atls:atlbase.obj
 0002:00006b24       ??_C@_0N@FJEPLCIH@atlthunk?4dll@ 00480b24     atls:atlthunk.obj
 0002:00006b34       ??_C@_0BG@GAKFHCBM@AtlThunk_AllocateData@ 00480b34     atls:atlthunk.obj
 0002:00006b4c       ??_C@_0BC@JKONFIAH@AtlThunk_InitData@ 00480b4c     atls:atlthunk.obj
 0002:00006b60       ??_C@_0BE@IAOEELAK@AtlThunk_DataToCode@ 00480b60     atls:atlthunk.obj
 0002:00006b74       ??_C@_0BC@GBGKAIPI@AtlThunk_FreeData@ 00480b74     atls:atlthunk.obj
 0002:00006b88       ??_C@_0P@GHFPNOJB@bad?5allocation@ 00480b88     libcpmt:xthrow.obj
 0002:00006b9c       ??_7bad_function_call@std@@6B@ 00480b9c     libcpmt:xthrow.obj
 0002:00006ba4       ??_C@_0BC@DPJNKNAF@bad?5function?5call@ 00480ba4     libcpmt:xthrow.obj
 0002:00006bbc       ??_7length_error@std@@6B@  00480bbc     libcpmt:xthrow.obj
 0002:00006bc8       ??_7out_of_range@std@@6B@  00480bc8     libcpmt:xthrow.obj
 0002:00009120       __xmm@ff00ff00ff00ff00ff00ff00ff00ff00 00483120     libcpmt:vector_algorithms.obj
 0002:00009140       __ymm@0000001f0000001f0000001f0000001f0000001f0000001f0000001f0000001f 00483140     libcpmt:vector_algorithms.obj
 0002:00009160       __ymm@ffffff00ffffff00ffffff00ffffff00ffffff00ffffff00ffffff00ffffff00 00483160     libcpmt:vector_algorithms.obj
 0002:00009180       ?nothrow@std@@3Unothrow_t@1@B 00483180     libcpmt:nothrow.obj
 0002:00009288       ??_C@_1CM@BFAMBNFD@?$AA?$CB?$AAx?$AA?9?$AAs?$AAy?$AAs?$AA?9?$AAd?$AAe?$AAf?$AAa?$AAu?$AAl?$AAt?$AA?9@ 00483288     libcpmt:syserror_import_lib.obj
 0002:000097d0       ??_C@_07IPNMCAN@success@   004837d0     libcpmt:syserror.obj
 0002:000097d8       ??_C@_0BN@LKKBCCDB@address?5family?5not?5supported@ 004837d8     libcpmt:syserror.obj
 0002:000097f8       ??_C@_0P@LDMLAFHI@address?5in?5use@ 004837f8     libcpmt:syserror.obj
 0002:00009808       ??_C@_0BG@DHPCNBJB@address?5not?5available@ 00483808     libcpmt:syserror.obj
 0002:00009820       ??_C@_0BC@DFIBIBIL@already?5connected@ 00483820     libcpmt:syserror.obj
 0002:00009834       ??_C@_0BH@CAKOHOMI@argument?5list?5too?5long@ 00483834     libcpmt:syserror.obj
 0002:0000984c       ??_C@_0BH@CGIMPKIM@argument?5out?5of?5domain@ 0048384c     libcpmt:syserror.obj
 0002:00009864       ??_C@_0M@KGHGGJGL@bad?5address@ 00483864     libcpmt:syserror.obj
 0002:00009870       ??_C@_0BE@MPJPGCEO@bad?5file?5descriptor@ 00483870     libcpmt:syserror.obj
 0002:00009884       ??_C@_0M@PMMIEFCP@bad?5message@ 00483884     libcpmt:syserror.obj
 0002:00009890       ??_C@_0M@KPHOFDBE@broken?5pipe@ 00483890     libcpmt:syserror.obj
 0002:0000989c       ??_C@_0BD@MGNDDEGM@connection?5aborted@ 0048389c     libcpmt:syserror.obj
 0002:000098b0       ??_C@_0BP@KAIHPOGN@connection?5already?5in?5progress@ 004838b0     libcpmt:syserror.obj
 0002:000098d0       ??_C@_0BD@PJLIIJEL@connection?5refused@ 004838d0     libcpmt:syserror.obj
 0002:000098e4       ??_C@_0BB@IECNJNOI@connection?5reset@ 004838e4     libcpmt:syserror.obj
 0002:000098f8       ??_C@_0BC@PPHBOELF@cross?5device?5link@ 004838f8     libcpmt:syserror.obj
 0002:0000990c       ??_C@_0BN@KDMIFEIP@destination?5address?5required@ 0048390c     libcpmt:syserror.obj
 0002:0000992c       ??_C@_0BI@NGCEHDD@device?5or?5resource?5busy@ 0048392c     libcpmt:syserror.obj
 0002:00009944       ??_C@_0BE@JIDOCPHM@directory?5not?5empty@ 00483944     libcpmt:syserror.obj
 0002:00009958       ??_C@_0BI@BNCLIGPB@executable?5format?5error@ 00483958     libcpmt:syserror.obj
 0002:00009970       ??_C@_0M@MIDIAGJP@file?5exists@ 00483970     libcpmt:syserror.obj
 0002:0000997c       ??_C@_0P@DNAJLBJK@file?5too?5large@ 0048397c     libcpmt:syserror.obj
 0002:0000998c       ??_C@_0BC@EJHOMAAK@filename?5too?5long@ 0048398c     libcpmt:syserror.obj
 0002:000099a0       ??_C@_0BH@KEFGLDAF@function?5not?5supported@ 004839a0     libcpmt:syserror.obj
 0002:000099b8       ??_C@_0BB@DHFDFGDM@host?5unreachable@ 004839b8     libcpmt:syserror.obj
 0002:000099cc       ??_C@_0BD@JPHBMONG@identifier?5removed@ 004839cc     libcpmt:syserror.obj
 0002:000099e0       ??_C@_0BG@CDNPAGJK@illegal?5byte?5sequence@ 004839e0     libcpmt:syserror.obj
 0002:000099f8       ??_C@_0CD@BNPLBMNA@inappropriate?5io?5control?5operat@ 004839f8     libcpmt:syserror.obj
 0002:00009a1c       ??_C@_0M@EGEKIIMP@interrupted@ 00483a1c     libcpmt:syserror.obj
 0002:00009a28       ??_C@_0BB@FCMFBGOM@invalid?5argument@ 00483a28     libcpmt:syserror.obj
 0002:00009a3c       ??_C@_0N@OHAFKDEK@invalid?5seek@ 00483a3c     libcpmt:syserror.obj
 0002:00009a4c       ??_C@_08GLNPIFBN@io?5error@ 00483a4c     libcpmt:syserror.obj
 0002:00009a58       ??_C@_0P@FLLDBIDK@is?5a?5directory@ 00483a58     libcpmt:syserror.obj
 0002:00009a68       ??_C@_0N@IFLPBIOP@message?5size@ 00483a68     libcpmt:syserror.obj
 0002:00009a78       ??_C@_0N@KIIEAAIO@network?5down@ 00483a78     libcpmt:syserror.obj
 0002:00009a88       ??_C@_0O@FNPDBHEE@network?5reset@ 00483a88     libcpmt:syserror.obj
 0002:00009a98       ??_C@_0BE@IFNCKGE@network?5unreachable@ 00483a98     libcpmt:syserror.obj
 0002:00009aac       ??_C@_0BA@PFFCAOFK@no?5buffer?5space@ 00483aac     libcpmt:syserror.obj
 0002:00009abc       ??_C@_0BB@IEPBLJHK@no?5child?5process@ 00483abc     libcpmt:syserror.obj
 0002:00009ad0       ??_C@_07PLECNNKG@no?5link@ 00483ad0     libcpmt:syserror.obj
 0002:00009ad8       ??_C@_0BC@NJECKMKE@no?5lock?5available@ 00483ad8     libcpmt:syserror.obj
 0002:00009aec       ??_C@_0BF@PBGGPKKE@no?5message?5available@ 00483aec     libcpmt:syserror.obj
 0002:00009b04       ??_C@_0L@EDOLMPAK@no?5message@ 00483b04     libcpmt:syserror.obj
 0002:00009b10       ??_C@_0BD@EAMBFIDF@no?5protocol?5option@ 00483b10     libcpmt:syserror.obj
 0002:00009b24       ??_C@_0BD@IJDJKDEA@no?5space?5on?5device@ 00483b24     libcpmt:syserror.obj
 0002:00009b38       ??_C@_0BE@MKFDAFMP@no?5stream?5resources@ 00483b38     libcpmt:syserror.obj
 0002:00009b4c       ??_C@_0BK@IMCPHCBI@no?5such?5device?5or?5address@ 00483b4c     libcpmt:syserror.obj
 0002:00009b68       ??_C@_0P@FDINDDOK@no?5such?5device@ 00483b68     libcpmt:syserror.obj
 0002:00009b78       ??_C@_0BK@NDOCBPGE@no?5such?5file?5or?5directory@ 00483b78     libcpmt:syserror.obj
 0002:00009b94       ??_C@_0BA@ENLPPKBN@no?5such?5process@ 00483b94     libcpmt:syserror.obj
 0002:00009ba4       ??_C@_0BA@DOCPFFJG@not?5a?5directory@ 00483ba4     libcpmt:syserror.obj
 0002:00009bb4       ??_C@_0N@POEIPGGF@not?5a?5socket@ 00483bb4     libcpmt:syserror.obj
 0002:00009bc4       ??_C@_0N@LGAPMMPI@not?5a?5stream@ 00483bc4     libcpmt:syserror.obj
 0002:00009bd4       ??_C@_0O@GLMIBBEG@not?5connected@ 00483bd4     libcpmt:syserror.obj
 0002:00009be4       ??_C@_0BC@ENOOLCNF@not?5enough?5memory@ 00483be4     libcpmt:syserror.obj
 0002:00009bf8       ??_C@_0O@NHEDABJP@not?5supported@ 00483bf8     libcpmt:syserror.obj
 0002:00009c08       ??_C@_0BD@MOLBPMEA@operation?5canceled@ 00483c08     libcpmt:syserror.obj
 0002:00009c1c       ??_C@_0BG@KDKHOPCO@operation?5in?5progress@ 00483c1c     libcpmt:syserror.obj
 0002:00009c34       ??_C@_0BI@OHIEJAAB@operation?5not?5permitted@ 00483c34     libcpmt:syserror.obj
 0002:00009c4c       ??_C@_0BI@LNEGIFLN@operation?5not?5supported@ 00483c4c     libcpmt:syserror.obj
 0002:00009c64       ??_C@_0BG@OEMDKMEE@operation?5would?5block@ 00483c64     libcpmt:syserror.obj
 0002:00009c7c       ??_C@_0L@BLPOFLNJ@owner?5dead@ 00483c7c     libcpmt:syserror.obj
 0002:00009c88       ??_C@_0BC@CIJDGCDI@permission?5denied@ 00483c88     libcpmt:syserror.obj
 0002:00009c9c       ??_C@_0P@FNPOCJBE@protocol?5error@ 00483c9c     libcpmt:syserror.obj
 0002:00009cac       ??_C@_0BH@JPPPLHJB@protocol?5not?5supported@ 00483cac     libcpmt:syserror.obj
 0002:00009cc4       ??_C@_0BG@EICBIHDP@read?5only?5file?5system@ 00483cc4     libcpmt:syserror.obj
 0002:00009cdc       ??_C@_0BO@BJBOMOEJ@resource?5deadlock?5would?5occur@ 00483cdc     libcpmt:syserror.obj
 0002:00009cfc       ??_C@_0BP@LKNGHENJ@resource?5unavailable?5try?5again@ 00483cfc     libcpmt:syserror.obj
 0002:00009d1c       ??_C@_0BE@GOIPJJHG@result?5out?5of?5range@ 00483d1c     libcpmt:syserror.obj
 0002:00009d30       ??_C@_0BG@MPLKFPAE@state?5not?5recoverable@ 00483d30     libcpmt:syserror.obj
 0002:00009d48       ??_C@_0P@DIIFGFCG@stream?5timeout@ 00483d48     libcpmt:syserror.obj
 0002:00009d58       ??_C@_0P@IPFDMIFL@text?5file?5busy@ 00483d58     libcpmt:syserror.obj
 0002:00009d68       ??_C@_09KJPPMAOI@timed?5out@ 00483d68     libcpmt:syserror.obj
 0002:00009d74       ??_C@_0BO@HACHBEKI@too?5many?5files?5open?5in?5system@ 00483d74     libcpmt:syserror.obj
 0002:00009d94       ??_C@_0BE@GHAFMPAH@too?5many?5files?5open@ 00483d94     libcpmt:syserror.obj
 0002:00009da8       ??_C@_0P@HCOMKFCC@too?5many?5links@ 00483da8     libcpmt:syserror.obj
 0002:00009db8       ??_C@_0BO@EFGOJEF@too?5many?5symbolic?5link?5levels@ 00483db8     libcpmt:syserror.obj
 0002:00009dd8       ??_C@_0BA@KGKGOOJA@value?5too?5large@ 00483dd8     libcpmt:syserror.obj
 0002:00009de8       ??_C@_0BE@MIEJDDNH@wrong?5protocol?5type@ 00483de8     libcpmt:syserror.obj
 0002:00009dfc       ??_C@_0O@BFJCFAAK@unknown?5error@ 00483dfc     libcpmt:syserror.obj
 0002:00009e0c       ??_C@_0O@NNMIPI@GetTempPath2W@ 00483e0c     libcpmt:filesystem.obj
 0002:00009e20       ??_7_Locimp@locale@std@@6B@ 00483e20     libcpmt:locale0.obj
 0002:00009e2c       ??_C@_01NBENCBCI@?$CK@     00483e2c     libcpmt:locale0.obj
 0002:00009e30       ??_C@_01GFHCPBMG@C@        00483e30     libcpmt:locale0.obj
 0002:00009e38       ?_BADOFF@std@@3_JB         00483e38     libcpmt:ios.obj
 0002:00009e94       ??_C@_13BPINEIPE@?$AAr@    00483e94     libcpmt:fiopen.obj
 0002:00009e98       ??_C@_13CIFDLIMG@?$AAw@    00483e98     libcpmt:fiopen.obj
 0002:00009e9c       ??_C@_13FNCBLAIF@?$AAa@    00483e9c     libcpmt:fiopen.obj
 0002:00009ea0       ??_C@_15JJPIMNBO@?$AAr?$AAb@ 00483ea0     libcpmt:fiopen.obj
 0002:00009ea8       ??_C@_15MJDFFMKN@?$AAw?$AAb@ 00483ea8     libcpmt:fiopen.obj
 0002:00009eb0       ??_C@_15BMLKLNCL@?$AAa?$AAb@ 00483eb0     libcpmt:fiopen.obj
 0002:00009eb8       ??_C@_15HPOENKKJ@?$AAr?$AA?$CL@ 00483eb8     libcpmt:fiopen.obj
 0002:00009ec0       ??_C@_15CPCJELBK@?$AAw?$AA?$CL@ 00483ec0     libcpmt:fiopen.obj
 0002:00009ec8       ??_C@_15PKKGKKJM@?$AAa?$AA?$CL@ 00483ec8     libcpmt:fiopen.obj
 0002:00009ed0       ??_C@_17IIOMHMAG@?$AAr?$AA?$CL?$AAb@ 00483ed0     libcpmt:fiopen.obj
 0002:00009ed8       ??_C@_17MAAMHCGC@?$AAw?$AA?$CL?$AAb@ 00483ed8     libcpmt:fiopen.obj
 0002:00009ee0       ??_C@_17HKNIEKMO@?$AAa?$AA?$CL?$AAb@ 00483ee0     libcpmt:fiopen.obj
 0002:00009ee8       ??_C@_15PGJBOLFG@?$AAw?$AAx@ 00483ee8     libcpmt:fiopen.obj
 0002:00009ef0       ??_C@_17PPKIMFJJ@?$AAw?$AA?$CL?$AAx@ 00483ef0     libcpmt:fiopen.obj
 0002:00009ef8       ??_C@_17NHPPJODN@?$AAw?$AAb?$AAx@ 00483ef8     libcpmt:fiopen.obj
 0002:00009f00       ??_C@_19EHELFBEK@?$AAw?$AA?$CL?$AAb?$AAx@ 00483f00     libcpmt:fiopen.obj
 0002:00009f50       __xmm@7fffffffffffffff7fffffffffffffff 00483f50     libcpmt:locale.obj
 0002:00009f60       ??_C@_01JOAMLHOP@?9@       00483f60     libcpmt:wlocale.obj
 0002:00009f64       ??_C@_13IMODFHAA@?$AA?9@   00483f64     libcpmt:wlocale.obj
 0002:0000a008       ??_C@_0BP@FPNJPEJC@GetSystemTimePreciseAsFileTime@ 00484008     libcpmt:winapisupp.obj
 0002:0000a034       ??_7type_info@@6B@         00484034     LIBCMT:std_type_info_static.obj
 0002:0000a070       __pDestructExceptionObject 00484070     libvcruntime:ehhelpers.obj
 0002:0000a080       __xmm@00000000000000000000000000000000 00484080     libvcruntime:wcsstr.obj
 0002:0000a094       ??_7bad_exception@std@@6B@ 00484094     libvcruntime:frame.obj
 0002:0000a09c       ??_C@_0O@DPKOEFFH@bad?5exception@ 0048409c     libvcruntime:frame.obj
 0002:0000a438       ??_C@_08EHJDFFNH@__based?$CI@ 00484438     libvcruntime:undname.obj
 0002:0000a444       ??_C@_07KOLFKCDI@__cdecl@  00484444     libvcruntime:undname.obj
 0002:0000a44c       ??_C@_09IFJBGAPI@__stdcall@ 0048444c     libvcruntime:undname.obj
 0002:0000a458       ??_C@_0L@NPHFGOKO@__thiscall@ 00484458     libvcruntime:undname.obj
 0002:0000a464       ??_C@_0L@JMKHOMEK@__fastcall@ 00484464     libvcruntime:undname.obj
 0002:0000a470       ??_C@_0N@BCKKPABJ@__vectorcall@ 00484470     libvcruntime:undname.obj
 0002:0000a480       ??_C@_0BA@NAGGFLJK@__preserve_none@ 00484480     libvcruntime:undname.obj
 0002:0000a490       ??_C@_09HIJEGCPM@__clrcall@ 00484490     libvcruntime:undname.obj
 0002:0000a49c       ??_C@_06GHPCKEAG@__eabi@   0048449c     libvcruntime:undname.obj
 0002:0000a4a4       ??_C@_09IOPIDJLG@__swift_1@ 004844a4     libvcruntime:undname.obj
 0002:0000a4b0       ??_C@_09KFNFGKHF@__swift_2@ 004844b0     libvcruntime:undname.obj
 0002:0000a4bc       ??_C@_09LMMOFLDE@__swift_3@ 004844bc     libvcruntime:undname.obj
 0002:0000a4c8       ??_C@_07JOMMBBKO@__ptr64@  004844c8     libvcruntime:undname.obj
 0002:0000a4d0       ??_C@_0L@PILCLIHE@__restrict@ 004844d0     libvcruntime:undname.obj
 0002:0000a4dc       ??_C@_0M@GFIIJFMG@__unaligned@ 004844dc     libvcruntime:undname.obj
 0002:0000a4e8       ??_C@_09DHDLOLLB@restrict?$CI@ 004844e8     libvcruntime:undname.obj
 0002:0000a4f4       ??_C@_04NIHEBCM@?5new@     004844f4     libvcruntime:undname.obj
 0002:0000a4fc       ??_C@_07FPCDHGMM@?5delete@ 004844fc     libvcruntime:undname.obj
 0002:0000a504       ??_C@_01NEMOKFLO@?$DN@     00484504     libvcruntime:undname.obj
 0002:0000a508       ??_C@_02GPIOPFAK@?$DO?$DO@ 00484508     libvcruntime:undname.obj
 0002:0000a50c       ??_C@_02FODMEDOG@?$DM?$DM@ 0048450c     libvcruntime:undname.obj
 0002:0000a510       ??_C@_01DCLJPIOD@?$CB@     00484510     libvcruntime:undname.obj
 0002:0000a514       ??_C@_02EGOFBIJA@?$DN?$DN@ 00484514     libvcruntime:undname.obj
 0002:0000a518       ??_C@_02FDNJECIE@?$CB?$DN@ 00484518     libvcruntime:undname.obj
 0002:0000a51c       ??_C@_08LHJFAFGD@operator@ 0048451c     libvcruntime:undname.obj
 0002:0000a528       ??_C@_02HBOOOICD@?9?$DO@   00484528     libvcruntime:undname.obj
 0002:0000a52c       ??_C@_02ECNGHCIF@?$CL?$CL@ 0048452c     libvcruntime:undname.obj
 0002:0000a530       ??_C@_02BAABKJLB@?9?9@     00484530     libvcruntime:undname.obj
 0002:0000a534       ??_C@_01MIFGBAGJ@?$CL@     00484534     libvcruntime:undname.obj
 0002:0000a538       ??_C@_01HNPIGOCE@?$CG@     00484538     libvcruntime:undname.obj
 0002:0000a53c       ??_C@_03MNHNFDLC@?9?$DO?$CK@ 0048453c     libvcruntime:undname.obj
 0002:0000a540       ??_C@_01KMDKNFGN@?1@       00484540     libvcruntime:undname.obj
 0002:0000a544       ??_C@_01FGNFDNOH@?$CF@     00484544     libvcruntime:undname.obj
 0002:0000a548       ??_C@_01MNNFJEPP@?$DM@     00484548     libvcruntime:undname.obj
 0002:0000a54c       ??_C@_02EHCHHCKH@?$DM?$DN@ 0048454c     libvcruntime:undname.obj
 0002:0000a550       ??_C@_01PPODPGHN@?$DO@     00484550     libvcruntime:undname.obj
 0002:0000a554       ??_C@_02EEKDKGMJ@?$DO?$DN@ 00484554     libvcruntime:undname.obj
 0002:0000a558       ??_C@_01IHBHIGKO@?0@       00484558     libvcruntime:undname.obj
 0002:0000a55c       ??_C@_02HCKGKOFO@?$CI?$CJ@ 0048455c     libvcruntime:undname.obj
 0002:0000a560       ??_C@_01PJKLJHI@?$HO@      00484560     libvcruntime:undname.obj
 0002:0000a564       ??_C@_01JKBOJNNK@?$FO@     00484564     libvcruntime:undname.obj
 0002:0000a568       ??_C@_01DNKMNLPK@?$HM@     00484568     libvcruntime:undname.obj
 0002:0000a56c       ??_C@_02PPKAJPJL@?$CG?$CG@ 0048456c     libvcruntime:undname.obj
 0002:0000a570       ??_C@_02NONPIBCD@?$HM?$HM@ 00484570     libvcruntime:undname.obj
 0002:0000a574       ??_C@_02FPIMKNGF@?$CK?$DN@ 00484574     libvcruntime:undname.obj
 0002:0000a578       ??_C@_02FOEOMHFC@?$CL?$DN@ 00484578     libvcruntime:undname.obj
 0002:0000a57c       ??_C@_02FKMDLLOA@?9?$DN@   0048457c     libvcruntime:undname.obj
 0002:0000a580       ??_C@_02FJEHGPIO@?1?$DN@   00484580     libvcruntime:undname.obj
 0002:0000a584       ??_C@_02FENAOKFI@?$CF?$DN@ 00484584     libvcruntime:undname.obj
 0002:0000a588       ??_C@_03IKFCCPFF@?$DO?$DO?$DN@ 00484588     libvcruntime:undname.obj
 0002:0000a58c       ??_C@_03CDNPDDLA@?$DM?$DM?$DN@ 0048458c     libvcruntime:undname.obj
 0002:0000a590       ??_C@_02FGJGFEAB@?$CG?$DN@ 00484590     libvcruntime:undname.obj
 0002:0000a594       ??_C@_02DHLNPPGH@?$HM?$DN@ 00484594     libvcruntime:undname.obj
 0002:0000a598       ??_C@_02MHEGNOJ@?$FO?$DN@  00484598     libvcruntime:undname.obj
 0002:0000a59c       ??_C@_09IFPLHPGF@?$GAvftable?8@ 0048459c     libvcruntime:undname.obj
 0002:0000a5a8       ??_C@_09BLBHBJP@?$GAvbtable?8@ 004845a8     libvcruntime:undname.obj
 0002:0000a5b4       ??_C@_07FEEIOKP@?$GAvcall?8@ 004845b4     libvcruntime:undname.obj
 0002:0000a5bc       ??_C@_08LLFFHHDJ@?$GAtypeof?8@ 004845bc     libvcruntime:undname.obj
 0002:0000a5c8       ??_C@_0BF@KDPPACIK@?$GAlocal?5static?5guard?8@ 004845c8     libvcruntime:undname.obj
 0002:0000a5e0       ??_C@_08OBABFOLI@?$GAstring?8@ 004845e0     libvcruntime:undname.obj
 0002:0000a5ec       ??_C@_0BD@JDLKDPAB@?$GAvbase?5destructor?8@ 004845ec     libvcruntime:undname.obj
 0002:0000a600       ??_C@_0BN@DEGPLNFK@?$GAvector?5deleting?5destructor?8@ 00484600     libvcruntime:undname.obj
 0002:0000a620       ??_C@_0BO@OBMKPJIG@?$GAdefault?5constructor?5closure?8@ 00484620     libvcruntime:undname.obj
 0002:0000a640       ??_C@_0BN@IMDCHIKM@?$GAscalar?5deleting?5destructor?8@ 00484640     libvcruntime:undname.obj
 0002:0000a660       ??_C@_0BO@PFGOCPJJ@?$GAvector?5constructor?5iterator?8@ 00484660     libvcruntime:undname.obj
 0002:0000a680       ??_C@_0BN@LFPFMEDL@?$GAvector?5destructor?5iterator?8@ 00484680     libvcruntime:undname.obj
 0002:0000a6a0       ??_C@_0CE@IKBNEHA@?$GAvector?5vbase?5constructor?5itera@ 004846a0     libvcruntime:undname.obj
 0002:0000a6c4       ??_C@_0BL@NILFHHPC@?$GAvirtual?5displacement?5map?8@ 004846c4     libvcruntime:undname.obj
 0002:0000a6e0       ??_C@_0CB@JONCMFFK@?$GAeh?5vector?5constructor?5iterator@ 004846e0     libvcruntime:undname.obj
 0002:0000a704       ??_C@_0CA@GCEOPDGL@?$GAeh?5vector?5destructor?5iterator?8@ 00484704     libvcruntime:undname.obj
 0002:0000a724       ??_C@_0CH@OOJPLCPH@?$GAeh?5vector?5vbase?5constructor?5it@ 00484724     libvcruntime:undname.obj
 0002:0000a74c       ??_C@_0BL@LLKPOHJI@?$GAcopy?5constructor?5closure?8@ 0048474c     libvcruntime:undname.obj
 0002:0000a768       ??_C@_0BA@KBCDOMBN@?$GAudt?5returning?8@ 00484768     libvcruntime:undname.obj
 0002:0000a778       ??_C@_03KLGMFNMG@?$GAEH@   00484778     libvcruntime:undname.obj
 0002:0000a77c       ??_C@_05KHLCHHI@?$GARTTI@  0048477c     libvcruntime:undname.obj
 0002:0000a784       ??_C@_0BA@KKLDJDLB@?$GAlocal?5vftable?8@ 00484784     libvcruntime:undname.obj
 0002:0000a794       ??_C@_0CE@IIHCMGGL@?$GAlocal?5vftable?5constructor?5clos@ 00484794     libvcruntime:undname.obj
 0002:0000a7b8       ??_C@_06FHBGPFGH@?5new?$FL?$FN@ 004847b8     libvcruntime:undname.obj
 0002:0000a7c0       ??_C@_09LBNFPBCA@?5delete?$FL?$FN@ 004847c0     libvcruntime:undname.obj
 0002:0000a7cc       ??_C@_0P@HJKNJFNN@?$GAomni?5callsig?8@ 004847cc     libvcruntime:undname.obj
 0002:0000a7dc       ??_C@_0BL@CNOONJFP@?$GAplacement?5delete?5closure?8@ 004847dc     libvcruntime:undname.obj
 0002:0000a7f8       ??_C@_0BN@CKNJLHMB@?$GAplacement?5delete?$FL?$FN?5closure?8@ 004847f8     libvcruntime:undname.obj
 0002:0000a818       ??_C@_0CG@CFDHKGGD@?$GAmanaged?5vector?5constructor?5ite@ 00484818     libvcruntime:undname.obj
 0002:0000a840       ??_C@_0CF@IMGKMJNO@?$GAmanaged?5vector?5destructor?5iter@ 00484840     libvcruntime:undname.obj
 0002:0000a868       ??_C@_0CG@HLDDJMAG@?$GAeh?5vector?5copy?5constructor?5ite@ 00484868     libvcruntime:undname.obj
 0002:0000a890       ??_C@_0CM@FCBBDIGB@?$GAeh?5vector?5vbase?5copy?5construct@ 00484890     libvcruntime:undname.obj
 0002:0000a8bc       ??_C@_0BL@CLIPGLGB@?$GAdynamic?5initializer?5for?5?8@ 004848bc     libvcruntime:undname.obj
 0002:0000a8d8       ??_C@_0CB@PDBIFEP@?$GAdynamic?5atexit?5destructor?5for?5@ 004848d8     libvcruntime:undname.obj
 0002:0000a8fc       ??_C@_0CD@CGAJBKEJ@?$GAvector?5copy?5constructor?5iterat@ 004848fc     libvcruntime:undname.obj
 0002:0000a920       ??_C@_0CJ@GJELGAMM@?$GAvector?5vbase?5copy?5constructor?5@ 00484920     libvcruntime:undname.obj
 0002:0000a94c       ??_C@_0CL@FGIJHLCE@?$GAmanaged?5vector?5copy?5constructo@ 0048494c     libvcruntime:undname.obj
 0002:0000a978       ??_C@_0BM@PMGGMLDN@?$GAlocal?5static?5thread?5guard?8@ 00484978     libvcruntime:undname.obj
 0002:0000a994       ??_C@_0N@BDNMDMOL@operator?5?$CC?$CC?5@ 00484994     libvcruntime:undname.obj
 0002:0000a9a4       ??_C@_0BC@GGEBGALA@operator?5co_await@ 004849a4     libvcruntime:undname.obj
 0002:0000a9b8       ??_C@_0M@GAAIMMOH@operator?$DM?$DN?$DO@ 004849b8     libvcruntime:undname.obj
 0002:0000a9c4       ??_C@_0BC@DAFEJGAK@?5Type?5Descriptor?8@ 004849c4     libvcruntime:undname.obj
 0002:0000a9d8       ??_C@_0BM@LDKODKLH@?5Base?5Class?5Descriptor?5at?5?$CI@ 004849d8     libvcruntime:undname.obj
 0002:0000a9f4       ??_C@_0BD@LGICGFMM@?5Base?5Class?5Array?8@ 004849f4     libvcruntime:undname.obj
 0002:0000aa08       ??_C@_0BN@MECKDCOJ@?5Class?5Hierarchy?5Descriptor?8@ 00484a08     libvcruntime:undname.obj
 0002:0000aa28       ??_C@_0BK@CFCOFLF@?5Complete?5Object?5Locator?8@ 00484a28     libvcruntime:undname.obj
 0002:0000aa44       ??_C@_0BG@JNJLAMPM@?$GAanonymous?5namespace?8@ 00484a44     libvcruntime:undname.obj
 0002:0000aa68       ??_C@_1DM@KHCHBNEB@?$AAa?$AAp?$AAi?$AA?9?$AAm?$AAs?$AA?9?$AAw?$AAi?$AAn?$AA?9?$AAc?$AAo?$AAr?$AAe@ 00484a68     libvcruntime:winapi_downlevel.obj
 0002:0000aaa4       ??_C@_1DK@LPPGFMPP@?$AAa?$AAp?$AAi?$AA?9?$AAm?$AAs?$AA?9?$AAw?$AAi?$AAn?$AA?9?$AAc?$AAo?$AAr?$AAe@ 00484aa4     libvcruntime:winapi_downlevel.obj
 0002:0000aae0       ??_C@_1BC@GDMECMAK@?$AAk?$AAe?$AAr?$AAn?$AAe?$AAl?$AA3?$AA2@ 00484ae0     libvcruntime:winapi_downlevel.obj
 0002:0000aaf4       ??_C@_1BA@PFFKHIOG@?$AAa?$AAp?$AAi?$AA?9?$AAm?$AAs?$AA?9@ 00484af4     libvcruntime:winapi_downlevel.obj
 0002:0000ab0c       ??_C@_08KNHFBNJ@FlsAlloc@  00484b0c     libvcruntime:winapi_downlevel.obj
 0002:0000ab20       ??_C@_07PEJMOBNF@FlsFree@  00484b20     libvcruntime:winapi_downlevel.obj
 0002:0000ab30       ??_C@_0M@GDNOONDI@FlsGetValue@ 00484b30     libvcruntime:winapi_downlevel.obj
 0002:0000ab44       ??_C@_0M@JCPCPOEF@FlsSetValue@ 00484b44     libvcruntime:winapi_downlevel.obj
 0002:0000ab58       ??_C@_0BM@HCFOFFN@InitializeCriticalSectionEx@ 00484b58     libvcruntime:winapi_downlevel.obj
 0002:0000ab78       ?standard_lookup_table_spectre@__crt_stdio_output@@3V?$spectre_mitigated_lookup_table@Ustate_transition_pair@__crt_stdio_output@@$0IA@@1@B 00484b78     libucrt:output.obj
 0002:0000ac78       ?format_validation_lookup_table_spectre@__crt_stdio_output@@3V?$spectre_mitigated_lookup_table@Ustate_transition_pair@__crt_stdio_output@@$0IA@@1@B 00484c78     libucrt:output.obj
 0002:0000ad78       ??_C@_1O@CEDCILHN@?$AA?$CI?$AAn?$AAu?$AAl?$AAl?$AA?$CJ@ 00484d78     libucrt:output.obj
 0002:0000ad88       ??_C@_06OJHGLDPL@?$CInull?$CJ@ 00484d88     libucrt:output.obj
 0002:0000af48       ?large_power_data@?1??multiply_by_power_of_ten@__crt_strtox@@YA_NAAUbig_integer@2@I@Z@4QBIB 00484f48     libucrt:strtod.obj
 0002:0000b850       ?large_power_indices@?1??multiply_by_power_of_ten@__crt_strtox@@YA_NAAUbig_integer@2@I@Z@4QBUunpack_index@?1??12@YA_N0I@Z@B 00485850     libucrt:strtod.obj
 0002:0000b8e8       ?small_powers_of_ten@?1??multiply_by_power_of_ten@__crt_strtox@@YA_NAAUbig_integer@2@I@Z@4QBIB 004858e8     libucrt:strtod.obj
 0002:0000b910       ??_C@_1GE@DPGDJKLM@?$AAm?$AAi?$AAn?$AAk?$AAe?$AAr?$AAn?$AAe?$AAl?$AA?2?$AAc?$AAr?$AAt?$AAs?$AA?2@ 00485910     libucrt:strtod.obj
 0002:0000b978       ??_C@_1FM@FELNCOBF@?$AA_?$AA_?$AAc?$AAr?$AAt?$AA_?$AAs?$AAt?$AAr?$AAt?$AAo?$AAx?$AA?3?$AA?3?$AAf@ 00485978     libucrt:strtod.obj
 0002:0000b9d4       ??_C@_1BG@GEMHBGAF@?$AA_?$AAi?$AAs?$AA_?$AAd?$AAo?$AAu?$AAb?$AAl?$AAe@ 004859d4     libucrt:strtod.obj
 0002:0000b9f0       ??_C@_1FK@JOJELFFO@?$AA_?$AA_?$AAc?$AAr?$AAt?$AA_?$AAs?$AAt?$AAr?$AAt?$AAo?$AAx?$AA?3?$AA?3?$AAf@ 004859f0     libucrt:strtod.obj
 0002:0000ba4c       ??_C@_1BI@BANMPGJI@?$AA?$CB?$AA_?$AAi?$AAs?$AA_?$AAd?$AAo?$AAu?$AAb?$AAl?$AAe@ 00485a4c     libucrt:strtod.obj
 0002:0000ba64       ?inf_uppercase@?1???$parse_floating_point_possible_infinity@DV?$c_string_character_source@D@__crt_strtox@@PBD@__crt_strtox@@YA?AW4floating_point_parse_result@1@AADAAV?$c_string_character_source@D@1@PBD@Z@4QBDB 00485a64     libucrt:strtod.obj
